; Listing generated by Microsoft (R) Optimizing Compiler Version 19.35.32216.1 

include listing.inc

INCLUDELIB OLDNAMES

PUBLIC	??$aesdec@$00@@YA?AT__m128i@@T0@0@Z		; aesdec<1>
PUBLIC	??$aesenc@$00@@YA?AT__m128i@@T0@0@Z		; aesenc<1>
PUBLIC	??$aesdec@$0A@@@YA?AT__m128i@@T0@0@Z		; aesdec<0>
PUBLIC	??$aesenc@$0A@@@YA?AT__m128i@@T0@0@Z		; aesenc<0>
PUBLIC	??$hashAndFillAes1Rx4@$00@@YAXPEAX_K00@Z	; hashAndFillAes1Rx4<1>
PUBLIC	??$hashAndFillAes1Rx4@$0A@@@YAXPEAX_K00@Z	; hashAndFillAes1Rx4<0>
PUBLIC	??$hashAes1Rx4@$00@@YAXPEBX_KPEAX@Z		; hashAes1Rx4<1>
PUBLIC	??$hashAes1Rx4@$0A@@@YAXPEBX_KPEAX@Z		; hashAes1Rx4<0>
PUBLIC	??$fillAes1Rx4@$00@@YAXPEAX_K0@Z		; fillAes1Rx4<1>
PUBLIC	??$fillAes1Rx4@$0A@@@YAXPEAX_K0@Z		; fillAes1Rx4<0>
PUBLIC	??$fillAes4Rx4@$00@@YAXPEAX_K0@Z		; fillAes4Rx4<1>
PUBLIC	??$fillAes4Rx4@$0A@@@YAXPEAX_K0@Z		; fillAes4Rx4<0>
;	COMDAT pdata
pdata	SEGMENT
$pdata$??$aesdec@$00@@YA?AT__m128i@@T0@0@Z DD imagerel $LN6
	DD	imagerel $LN6+44
	DD	imagerel $unwind$??$aesdec@$00@@YA?AT__m128i@@T0@0@Z
pdata	ENDS
;	COMDAT pdata
pdata	SEGMENT
$pdata$??$aesenc@$00@@YA?AT__m128i@@T0@0@Z DD imagerel $LN6
	DD	imagerel $LN6+44
	DD	imagerel $unwind$??$aesenc@$00@@YA?AT__m128i@@T0@0@Z
pdata	ENDS
;	COMDAT pdata
pdata	SEGMENT
$pdata$??$hashAndFillAes1Rx4@$00@@YAXPEAX_K00@Z DD imagerel $LN81
	DD	imagerel $LN81+1036
	DD	imagerel $unwind$??$hashAndFillAes1Rx4@$00@@YAXPEAX_K00@Z
pdata	ENDS
;	COMDAT pdata
pdata	SEGMENT
$pdata$??$hashAndFillAes1Rx4@$0A@@@YAXPEAX_K00@Z DD imagerel $LN81
	DD	imagerel $LN81+411
	DD	imagerel $unwind$??$hashAndFillAes1Rx4@$0A@@@YAXPEAX_K00@Z
pdata	ENDS
;	COMDAT pdata
pdata	SEGMENT
$pdata$??$hashAes1Rx4@$00@@YAXPEBX_KPEAX@Z DD imagerel $LN58
	DD	imagerel $LN58+100
	DD	imagerel $unwind$??$hashAes1Rx4@$00@@YAXPEBX_KPEAX@Z
pdata	ENDS
;	COMDAT pdata
pdata	SEGMENT
$pdata$0$??$hashAes1Rx4@$00@@YAXPEBX_KPEAX@Z DD imagerel $LN58+100
	DD	imagerel $LN58+278
	DD	imagerel $chain$0$??$hashAes1Rx4@$00@@YAXPEBX_KPEAX@Z
pdata	ENDS
;	COMDAT pdata
pdata	SEGMENT
$pdata$1$??$hashAes1Rx4@$00@@YAXPEBX_KPEAX@Z DD imagerel $LN58+278
	DD	imagerel $LN58+564
	DD	imagerel $chain$1$??$hashAes1Rx4@$00@@YAXPEBX_KPEAX@Z
pdata	ENDS
;	COMDAT pdata
pdata	SEGMENT
$pdata$??$fillAes1Rx4@$00@@YAXPEAX_K0@Z DD imagerel $LN26
	DD	imagerel $LN26+105
	DD	imagerel $unwind$??$fillAes1Rx4@$00@@YAXPEAX_K0@Z
pdata	ENDS
;	COMDAT pdata
pdata	SEGMENT
$pdata$0$??$fillAes1Rx4@$00@@YAXPEAX_K0@Z DD imagerel $LN26+105
	DD	imagerel $LN26+293
	DD	imagerel $chain$0$??$fillAes1Rx4@$00@@YAXPEAX_K0@Z
pdata	ENDS
;	COMDAT pdata
pdata	SEGMENT
$pdata$1$??$fillAes1Rx4@$00@@YAXPEAX_K0@Z DD imagerel $LN26+293
	DD	imagerel $LN26+351
	DD	imagerel $chain$1$??$fillAes1Rx4@$00@@YAXPEAX_K0@Z
pdata	ENDS
;	COMDAT pdata
pdata	SEGMENT
$pdata$??$fillAes1Rx4@$0A@@@YAXPEAX_K0@Z DD imagerel $LN26
	DD	imagerel $LN26+181
	DD	imagerel $unwind$??$fillAes1Rx4@$0A@@@YAXPEAX_K0@Z
pdata	ENDS
;	COMDAT pdata
pdata	SEGMENT
$pdata$??$fillAes4Rx4@$00@@YAXPEAX_K0@Z DD imagerel $LN74
	DD	imagerel $LN74+153
	DD	imagerel $unwind$??$fillAes4Rx4@$00@@YAXPEAX_K0@Z
pdata	ENDS
;	COMDAT pdata
pdata	SEGMENT
$pdata$0$??$fillAes4Rx4@$00@@YAXPEAX_K0@Z DD imagerel $LN74+153
	DD	imagerel $LN74+634
	DD	imagerel $chain$0$??$fillAes4Rx4@$00@@YAXPEAX_K0@Z
pdata	ENDS
;	COMDAT pdata
pdata	SEGMENT
$pdata$1$??$fillAes4Rx4@$00@@YAXPEAX_K0@Z DD imagerel $LN74+634
	DD	imagerel $LN74+681
	DD	imagerel $chain$1$??$fillAes4Rx4@$00@@YAXPEAX_K0@Z
pdata	ENDS
;	COMDAT pdata
pdata	SEGMENT
$pdata$??$fillAes4Rx4@$0A@@@YAXPEAX_K0@Z DD imagerel $LN74
	DD	imagerel $LN74+302
	DD	imagerel $unwind$??$fillAes4Rx4@$0A@@@YAXPEAX_K0@Z
;	COMDAT xdata
xdata	SEGMENT
$unwind$??$fillAes4Rx4@$0A@@@YAXPEAX_K0@Z DD 0d7a01H
	DD	0b87aH
	DD	01a86cH
	DD	02985dH
	DD	03884eH
	DD	047840H
	DD	056833H
	DD	0c204H
xdata	ENDS
;	COMDAT xdata
xdata	SEGMENT
$chain$1$??$fillAes4Rx4@$00@@YAXPEAX_K0@Z DD 021H
	DD	imagerel $LN74
	DD	imagerel $LN74+153
	DD	imagerel $unwind$??$fillAes4Rx4@$00@@YAXPEAX_K0@Z
xdata	ENDS
;	COMDAT xdata
xdata	SEGMENT
$chain$0$??$fillAes4Rx4@$00@@YAXPEAX_K0@Z DD 020421H
	DD	03c3404H
	DD	imagerel $LN74
	DD	imagerel $LN74+153
	DD	imagerel $unwind$??$fillAes4Rx4@$00@@YAXPEAX_K0@Z
xdata	ENDS
;	COMDAT xdata
xdata	SEGMENT
$unwind$??$fillAes4Rx4@$00@@YAXPEAX_K0@Z DD 0118a01H
	DD	017b88aH
	DD	018a87fH
	DD	0199874H
	DD	01a886aH
	DD	01b785dH
	DD	01c6851H
	DD	03d7416H
	DD	03a0116H
	DD	05008H
xdata	ENDS
;	COMDAT xdata
xdata	SEGMENT
$unwind$??$fillAes1Rx4@$0A@@@YAXPEAX_K0@Z DD 054201H
	DD	07842H
	DD	016836H
	DD	04204H
xdata	ENDS
;	COMDAT xdata
xdata	SEGMENT
$chain$1$??$fillAes1Rx4@$00@@YAXPEAX_K0@Z DD 021H
	DD	imagerel $LN26
	DD	imagerel $LN26+105
	DD	imagerel $unwind$??$fillAes1Rx4@$00@@YAXPEAX_K0@Z
xdata	ENDS
;	COMDAT xdata
xdata	SEGMENT
$chain$0$??$fillAes1Rx4@$00@@YAXPEAX_K0@Z DD 020421H
	DD	0187404H
	DD	imagerel $LN26
	DD	imagerel $LN26+105
	DD	imagerel $unwind$??$fillAes1Rx4@$00@@YAXPEAX_K0@Z
xdata	ENDS
;	COMDAT xdata
xdata	SEGMENT
$unwind$??$fillAes1Rx4@$00@@YAXPEAX_K0@Z DD 0d5a01H
	DD	07985aH
	DD	08884fH
	DD	097845H
	DD	0a683dH
	DD	019340fH
	DD	016010fH
	DD	06008H
xdata	ENDS
;	COMDAT xdata
xdata	SEGMENT
$chain$1$??$hashAes1Rx4@$00@@YAXPEBX_KPEAX@Z DD 021H
	DD	imagerel $LN58
	DD	imagerel $LN58+100
	DD	imagerel $unwind$??$hashAes1Rx4@$00@@YAXPEBX_KPEAX@Z
xdata	ENDS
;	COMDAT xdata
xdata	SEGMENT
$chain$0$??$hashAes1Rx4@$00@@YAXPEBX_KPEAX@Z DD 020421H
	DD	0223404H
	DD	imagerel $LN58
	DD	imagerel $LN58+100
	DD	imagerel $unwind$??$hashAes1Rx4@$00@@YAXPEBX_KPEAX@Z
xdata	ENDS
;	COMDAT xdata
xdata	SEGMENT
$unwind$??$hashAes1Rx4@$00@@YAXPEBX_KPEAX@Z DD 0115201H
	DD	0ba852H
	DD	0c9844H
	DD	0d8836H
	DD	0e7826H
	DD	0f681bH
	DD	0247417H
	DD	0236417H
	DD	0200117H
	DD	0500cH
xdata	ENDS
;	COMDAT xdata
xdata	SEGMENT
$unwind$??$hashAndFillAes1Rx4@$0A@@@YAXPEAX_K00@Z DD 0d9401H
	DD	0b894H
	DD	01a886H
	DD	029877H
	DD	038868H
	DD	04785cH
	DD	056851H
	DD	0c204H
xdata	ENDS
;	COMDAT xdata
xdata	SEGMENT
$unwind$??$hashAndFillAes1Rx4@$00@@YAXPEAX_K00@Z DD 021bc01H
	DD	0cf8bcH
	DD	0de8b4H
	DD	0ed8acH
	DD	0fc8a4H
	DD	010b893H
	DD	011a882H
	DD	0129877H
	DD	0138866H
	DD	0147855H
	DD	0156846H
	DD	0347424H
	DD	0336424H
	DD	0323424H
	DD	02c0124H
	DD	0e016f018H
	DD	0c012d014H
	DD	05010H
xdata	ENDS
;	COMDAT xdata
xdata	SEGMENT
$unwind$??$aesenc@$00@@YA?AT__m128i@@T0@0@Z DD 010401H
	DD	08204H
xdata	ENDS
;	COMDAT xdata
xdata	SEGMENT
$unwind$??$aesdec@$00@@YA?AT__m128i@@T0@0@Z DD 010401H
	DD	08204H
; Function compile flags: /Ogtpy
;	COMDAT ??$fillAes4Rx4@$0A@@@YAXPEAX_K0@Z
_TEXT	SEGMENT
state$ = 112
outputSize$dead$ = 120
buffer$ = 128
??$fillAes4Rx4@$0A@@@YAXPEAX_K0@Z PROC			; fillAes4Rx4<0>, COMDAT
; File D:\dev\francium_network\francium_agent\src\ext\randomx\repo\src\aes_hash.cpp
; Line 188
$LN74:
	sub	rsp, 104				; 00000068H
; Line 196
	movdqa	xmm4, XMMWORD PTR __xmm@99e5d23f2f546d2bd1833ddb6421aadd
	lea	rdx, QWORD PTR [r8+2176]
; Line 197
	movdqa	xmm5, XMMWORD PTR __xmm@a5dfcde506f79d53b6913f55b20e3450
; Line 205
	movdqu	xmm0, XMMWORD PTR [rcx]
; Line 206
	movdqu	xmm1, XMMWORD PTR [rcx+16]
; Line 207
	movdqu	xmm2, XMMWORD PTR [rcx+32]
; Line 208
	movdqu	xmm3, XMMWORD PTR [rcx+48]
	movaps	XMMWORD PTR [rsp+80], xmm6
	movdqa	xmm6, XMMWORD PTR __xmm@171c02bf0aa4679f515e7baf5c3ed904
	movaps	XMMWORD PTR [rsp+64], xmm7
	movdqa	xmm7, XMMWORD PTR __xmm@d8ded291cd673785e78f5d0885623763
	movaps	XMMWORD PTR [rsp+48], xmm8
	movdqa	xmm8, XMMWORD PTR __xmm@229effb43d518b6de3d6a7a6b5826f73
	movaps	XMMWORD PTR [rsp+32], xmm9
	movdqa	xmm9, XMMWORD PTR __xmm@b272b7d2e9024d4e9c10b3d9c7566bf3
	movaps	XMMWORD PTR [rsp+16], xmm10
	movdqa	xmm10, XMMWORD PTR __xmm@f63befa72ba9660af765a38bf273c9e7
	movaps	XMMWORD PTR [rsp], xmm11
	movdqa	xmm11, XMMWORD PTR __xmm@c0b0762d0c06d1fd915839de7a7cd609
; Line 210
	cmp	r8, rdx
	jae	$LN3@fillAes4Rx
; Line 191
	lea	rcx, QWORD PTR [r8+32]
$LL2@fillAes4Rx:
; File D:\dev\francium_network\francium_agent\src\ext\randomx\repo\src\soft_aes.h
; Line 45
	aesdec	xmm0, xmm4
; Line 40
	aesenc	xmm1, xmm4
; Line 45
	aesdec	xmm2, xmm8
; Line 40
	aesenc	xmm3, xmm8
; Line 45
	aesdec	xmm0, xmm5
; Line 40
	aesenc	xmm1, xmm5
; Line 45
	aesdec	xmm2, xmm9
; Line 40
	aesenc	xmm3, xmm9
; Line 45
	aesdec	xmm0, xmm6
; Line 40
	aesenc	xmm1, xmm6
; Line 45
	aesdec	xmm2, xmm10
; Line 40
	aesenc	xmm3, xmm10
; Line 45
	aesdec	xmm0, xmm7
; Line 40
	aesenc	xmm1, xmm7
; Line 45
	aesdec	xmm2, xmm11
; Line 40
	aesenc	xmm3, xmm11
; File D:\dev\francium_network\francium_agent\src\ext\randomx\repo\src\aes_hash.cpp
; Line 231
	movdqu	XMMWORD PTR [rcx-32], xmm0
; Line 232
	movdqu	XMMWORD PTR [rcx-16], xmm1
; Line 233
	movdqu	XMMWORD PTR [rcx], xmm2
; Line 234
	movdqu	XMMWORD PTR [rcx+16], xmm3
; Line 236
	lea	rcx, QWORD PTR [rcx+64]
	lea	rax, QWORD PTR [rcx-32]
	cmp	rax, rdx
	jb	SHORT $LL2@fillAes4Rx
$LN3@fillAes4Rx:
; Line 238
	movaps	xmm6, XMMWORD PTR [rsp+80]
	movaps	xmm7, XMMWORD PTR [rsp+64]
	movaps	xmm8, XMMWORD PTR [rsp+48]
	movaps	xmm9, XMMWORD PTR [rsp+32]
	movaps	xmm10, XMMWORD PTR [rsp+16]
	movaps	xmm11, XMMWORD PTR [rsp]
	add	rsp, 104				; 00000068H
	ret	0
??$fillAes4Rx4@$0A@@@YAXPEAX_K0@Z ENDP			; fillAes4Rx4<0>
_TEXT	ENDS
; Function compile flags: /Ogtpy
;	COMDAT ??$fillAes4Rx4@$00@@YAXPEAX_K0@Z
_TEXT	SEGMENT
$T142 = 32
$T133 = 32
$T124 = 32
$T79 = 32
$T43 = 32
$T88 = 48
$T52 = 48
$T16 = 48
$T97 = 64
$T61 = 64
$T25 = 64
$T106 = 80
$T70 = 80
$T34 = 80
$T151 = 96
$T115 = 96
$T15 = 112
$T24 = 128
$T33 = 144
$T42 = 160
$T51 = 176
$T60 = 192
$T69 = 208
$T78 = 224
$T87 = 240
$T123 = 256
$T96 = 272
$T132 = 288
$T105 = 304
$T141 = 320
$T114 = 336
$T150 = 352
state$ = 480
outputSize$dead$ = 488
buffer$ = 496
??$fillAes4Rx4@$00@@YAXPEAX_K0@Z PROC			; fillAes4Rx4<1>, COMDAT
; File D:\dev\francium_network\francium_agent\src\ext\randomx\repo\src\aes_hash.cpp
; Line 188
$LN74:
	mov	rax, rsp
	mov	QWORD PTR [rax+16], rdi
	push	rbp
	lea	rbp, QWORD PTR [rax-216]
	sub	rsp, 464				; 000001d0H
; Line 196
	movdqa	xmm0, XMMWORD PTR __xmm@99e5d23f2f546d2bd1833ddb6421aadd
	lea	rdi, QWORD PTR [r8+2176]
; Line 197
	movdqa	xmm1, XMMWORD PTR __xmm@a5dfcde506f79d53b6913f55b20e3450
; Line 198
	movdqa	xmm2, XMMWORD PTR __xmm@171c02bf0aa4679f515e7baf5c3ed904
; Line 199
	movdqa	xmm3, XMMWORD PTR __xmm@d8ded291cd673785e78f5d0885623763
; Line 200
	movdqa	xmm4, XMMWORD PTR __xmm@229effb43d518b6de3d6a7a6b5826f73
; Line 201
	movdqa	xmm5, XMMWORD PTR __xmm@b272b7d2e9024d4e9c10b3d9c7566bf3
	movaps	XMMWORD PTR [rax-24], xmm6
; Line 202
	movdqa	xmm6, XMMWORD PTR __xmm@f63befa72ba9660af765a38bf273c9e7
	movaps	XMMWORD PTR [rax-40], xmm7
; Line 203
	movdqa	xmm7, XMMWORD PTR __xmm@c0b0762d0c06d1fd915839de7a7cd609
	movaps	XMMWORD PTR [rax-56], xmm8
; Line 205
	movdqu	xmm8, XMMWORD PTR [rcx]
	movaps	XMMWORD PTR [rax-72], xmm9
; Line 206
	movdqu	xmm9, XMMWORD PTR [rcx+16]
	movaps	XMMWORD PTR [rax-88], xmm10
; Line 207
	movdqu	xmm10, XMMWORD PTR [rcx+32]
	movaps	XMMWORD PTR [rax-104], xmm11
; Line 208
	movdqu	xmm11, XMMWORD PTR [rcx+48]
; Line 210
	cmp	r8, rdi
	jae	$LN3@fillAes4Rx
; File D:\dev\francium_network\francium_agent\src\ext\randomx\repo\src\soft_aes.h
; Line 45
	mov	QWORD PTR [rax+8], rbx
; File D:\dev\francium_network\francium_agent\src\ext\randomx\repo\src\aes_hash.cpp
; Line 191
	lea	rbx, QWORD PTR [r8+32]
; File D:\dev\francium_network\francium_agent\src\ext\randomx\repo\src\soft_aes.h
; Line 45
	movdqa	XMMWORD PTR $T15[rsp], xmm0
; Line 40
	movdqa	XMMWORD PTR $T24[rbp-256], xmm0
; Line 45
	movdqa	XMMWORD PTR $T33[rbp-256], xmm4
; Line 40
	movdqa	XMMWORD PTR $T42[rbp-256], xmm4
; Line 45
	movdqa	XMMWORD PTR $T51[rbp-256], xmm1
; Line 40
	movdqa	XMMWORD PTR $T60[rbp-256], xmm1
; Line 45
	movdqa	XMMWORD PTR $T69[rbp-256], xmm5
; Line 40
	movdqa	XMMWORD PTR $T78[rbp-256], xmm5
; Line 45
	movdqa	XMMWORD PTR $T87[rbp-256], xmm2
; Line 40
	movdqa	XMMWORD PTR $T96[rbp-256], xmm2
; Line 45
	movdqa	XMMWORD PTR $T105[rbp-256], xmm6
; Line 40
	movdqa	XMMWORD PTR $T114[rbp-256], xmm6
; Line 45
	movdqa	XMMWORD PTR $T123[rbp-256], xmm3
; Line 40
	movdqa	XMMWORD PTR $T132[rbp-256], xmm3
; Line 45
	movdqa	XMMWORD PTR $T141[rbp-256], xmm7
; Line 40
	movdqa	XMMWORD PTR $T150[rbp-256], xmm7
$LL2@fillAes4Rx:
; Line 45
	lea	rdx, QWORD PTR $T15[rsp]
	movdqa	XMMWORD PTR $T16[rsp], xmm8
	lea	rcx, QWORD PTR $T16[rsp]
; Line 40
	movdqa	XMMWORD PTR $T25[rsp], xmm9
; Line 45
	movdqa	XMMWORD PTR $T34[rsp], xmm10
; Line 40
	movdqa	XMMWORD PTR $T43[rsp], xmm11
; Line 45
	call	?soft_aesdec@@YA?AT__m128i@@T1@0@Z	; soft_aesdec
; Line 40
	lea	rdx, QWORD PTR $T24[rbp-256]
; Line 45
	movdqa	XMMWORD PTR $T52[rsp], xmm0
; Line 40
	lea	rcx, QWORD PTR $T25[rsp]
	call	?soft_aesenc@@YA?AT__m128i@@T1@0@Z	; soft_aesenc
; Line 45
	lea	rdx, QWORD PTR $T33[rbp-256]
; Line 40
	movdqa	XMMWORD PTR $T61[rsp], xmm0
; Line 45
	lea	rcx, QWORD PTR $T34[rsp]
	call	?soft_aesdec@@YA?AT__m128i@@T1@0@Z	; soft_aesdec
; Line 40
	lea	rdx, QWORD PTR $T42[rbp-256]
; Line 45
	movdqa	XMMWORD PTR $T70[rsp], xmm0
; Line 40
	lea	rcx, QWORD PTR $T43[rsp]
	call	?soft_aesenc@@YA?AT__m128i@@T1@0@Z	; soft_aesenc
; Line 45
	lea	rdx, QWORD PTR $T51[rbp-256]
; Line 40
	movdqa	XMMWORD PTR $T79[rsp], xmm0
; Line 45
	lea	rcx, QWORD PTR $T52[rsp]
	call	?soft_aesdec@@YA?AT__m128i@@T1@0@Z	; soft_aesdec
; Line 40
	lea	rdx, QWORD PTR $T60[rbp-256]
; Line 45
	movdqa	XMMWORD PTR $T88[rsp], xmm0
; Line 40
	lea	rcx, QWORD PTR $T61[rsp]
	call	?soft_aesenc@@YA?AT__m128i@@T1@0@Z	; soft_aesenc
; Line 45
	lea	rdx, QWORD PTR $T69[rbp-256]
; Line 40
	movdqa	XMMWORD PTR $T97[rsp], xmm0
; Line 45
	lea	rcx, QWORD PTR $T70[rsp]
	call	?soft_aesdec@@YA?AT__m128i@@T1@0@Z	; soft_aesdec
; Line 40
	lea	rdx, QWORD PTR $T78[rbp-256]
; Line 45
	movdqa	XMMWORD PTR $T106[rsp], xmm0
; Line 40
	lea	rcx, QWORD PTR $T79[rsp]
	call	?soft_aesenc@@YA?AT__m128i@@T1@0@Z	; soft_aesenc
; Line 45
	lea	rdx, QWORD PTR $T87[rbp-256]
; Line 40
	movdqa	XMMWORD PTR $T115[rsp], xmm0
; Line 45
	lea	rcx, QWORD PTR $T88[rsp]
	call	?soft_aesdec@@YA?AT__m128i@@T1@0@Z	; soft_aesdec
	lea	rdx, QWORD PTR $T123[rbp-256]
	movdqa	XMMWORD PTR $T124[rsp], xmm0
	lea	rcx, QWORD PTR $T124[rsp]
	call	?soft_aesdec@@YA?AT__m128i@@T1@0@Z	; soft_aesdec
; Line 40
	lea	rdx, QWORD PTR $T96[rbp-256]
; Line 45
	movdqa	xmm8, xmm0
; Line 40
	lea	rcx, QWORD PTR $T97[rsp]
	call	?soft_aesenc@@YA?AT__m128i@@T1@0@Z	; soft_aesenc
	lea	rdx, QWORD PTR $T132[rbp-256]
	movdqa	XMMWORD PTR $T133[rsp], xmm0
	lea	rcx, QWORD PTR $T133[rsp]
	call	?soft_aesenc@@YA?AT__m128i@@T1@0@Z	; soft_aesenc
; Line 45
	lea	rdx, QWORD PTR $T105[rbp-256]
; Line 40
	movdqa	xmm9, xmm0
; Line 45
	lea	rcx, QWORD PTR $T106[rsp]
	call	?soft_aesdec@@YA?AT__m128i@@T1@0@Z	; soft_aesdec
	lea	rdx, QWORD PTR $T141[rbp-256]
	movdqa	XMMWORD PTR $T142[rsp], xmm0
	lea	rcx, QWORD PTR $T142[rsp]
	call	?soft_aesdec@@YA?AT__m128i@@T1@0@Z	; soft_aesdec
; Line 40
	lea	rdx, QWORD PTR $T114[rbp-256]
; Line 45
	movdqa	xmm10, xmm0
; Line 40
	lea	rcx, QWORD PTR $T115[rsp]
	call	?soft_aesenc@@YA?AT__m128i@@T1@0@Z	; soft_aesenc
	lea	rdx, QWORD PTR $T150[rbp-256]
	movdqa	XMMWORD PTR $T151[rsp], xmm0
	lea	rcx, QWORD PTR $T151[rsp]
	call	?soft_aesenc@@YA?AT__m128i@@T1@0@Z	; soft_aesenc
; File D:\dev\francium_network\francium_agent\src\ext\randomx\repo\src\aes_hash.cpp
; Line 234
	movdqu	XMMWORD PTR [rbx+16], xmm0
; File D:\dev\francium_network\francium_agent\src\ext\randomx\repo\src\soft_aes.h
; Line 40
	movdqa	xmm11, xmm0
; File D:\dev\francium_network\francium_agent\src\ext\randomx\repo\src\aes_hash.cpp
; Line 231
	movdqu	XMMWORD PTR [rbx-32], xmm8
; Line 232
	movdqu	XMMWORD PTR [rbx-16], xmm9
; Line 233
	movdqu	XMMWORD PTR [rbx], xmm10
; Line 236
	lea	rbx, QWORD PTR [rbx+64]
	lea	rax, QWORD PTR [rbx-32]
	cmp	rax, rdi
	jb	$LL2@fillAes4Rx
; Line 210
	mov	rbx, QWORD PTR [rsp+480]
$LN3@fillAes4Rx:
; Line 238
	lea	r11, QWORD PTR [rsp+464]
	mov	rdi, QWORD PTR [r11+24]
	movaps	xmm6, XMMWORD PTR [r11-16]
	movaps	xmm7, XMMWORD PTR [r11-32]
	movaps	xmm8, XMMWORD PTR [r11-48]
	movaps	xmm9, XMMWORD PTR [r11-64]
	movaps	xmm10, XMMWORD PTR [r11-80]
	movaps	xmm11, XMMWORD PTR [r11-96]
	mov	rsp, r11
	pop	rbp
	ret	0
??$fillAes4Rx4@$00@@YAXPEAX_K0@Z ENDP			; fillAes4Rx4<1>
_TEXT	ENDS
; Function compile flags: /Ogtpy
;	COMDAT ??$fillAes1Rx4@$0A@@@YAXPEAX_K0@Z
_TEXT	SEGMENT
state$ = 48
outputSize$dead$ = 56
buffer$ = 64
??$fillAes1Rx4@$0A@@@YAXPEAX_K0@Z PROC			; fillAes1Rx4<0>, COMDAT
; File D:\dev\francium_network\francium_agent\src\ext\randomx\repo\src\aes_hash.cpp
; Line 133
$LN26:
	sub	rsp, 40					; 00000028H
; Line 141
	movdqa	xmm4, XMMWORD PTR __xmm@b4f44917dbb5552b627166096daca553
	lea	r9, QWORD PTR [r8+2097152]
; Line 142
	movdqa	xmm5, XMMWORD PTR __xmm@0da1dc4e1725d378846a710d6d7caf07
	mov	rdx, rcx
; Line 146
	movdqu	xmm0, XMMWORD PTR [rcx]
; Line 147
	movdqu	xmm1, XMMWORD PTR [rcx+16]
; Line 148
	movdqu	xmm2, XMMWORD PTR [rcx+32]
; Line 149
	movdqu	xmm3, XMMWORD PTR [rcx+48]
	movaps	XMMWORD PTR [rsp+16], xmm6
	movdqa	xmm6, XMMWORD PTR __xmm@3e20e345f4c0794f9f947ec63f1262f1
	movaps	XMMWORD PTR [rsp], xmm7
	movdqa	xmm7, XMMWORD PTR __xmm@4916915416314c88b1ba317c6aef8135
; Line 151
	cmp	r8, r9
	jae	SHORT $LN3@fillAes1Rx
; Line 136
	lea	rcx, QWORD PTR [r8+32]
	npad	13
$LL2@fillAes1Rx:
; File D:\dev\francium_network\francium_agent\src\ext\randomx\repo\src\soft_aes.h
; Line 45
	aesdec	xmm0, xmm4
; Line 40
	aesenc	xmm1, xmm5
; Line 45
	aesdec	xmm2, xmm6
; Line 40
	aesenc	xmm3, xmm7
; File D:\dev\francium_network\francium_agent\src\ext\randomx\repo\src\aes_hash.cpp
; Line 157
	movdqu	XMMWORD PTR [rcx-32], xmm0
; Line 158
	movdqu	XMMWORD PTR [rcx-16], xmm1
; Line 159
	movdqu	XMMWORD PTR [rcx], xmm2
; Line 160
	movdqu	XMMWORD PTR [rcx+16], xmm3
; Line 162
	lea	rcx, QWORD PTR [rcx+64]
	lea	rax, QWORD PTR [rcx-32]
	cmp	rax, r9
	jb	SHORT $LL2@fillAes1Rx
$LN3@fillAes1Rx:
; Line 169
	movaps	xmm6, XMMWORD PTR [rsp+16]
	movaps	xmm7, XMMWORD PTR [rsp]
	movdqu	XMMWORD PTR [rdx], xmm0
	movdqu	XMMWORD PTR [rdx+16], xmm1
	movdqu	XMMWORD PTR [rdx+32], xmm2
	movdqu	XMMWORD PTR [rdx+48], xmm3
	add	rsp, 40					; 00000028H
	ret	0
??$fillAes1Rx4@$0A@@@YAXPEAX_K0@Z ENDP			; fillAes1Rx4<0>
_TEXT	ENDS
; Function compile flags: /Ogtpy
;	COMDAT ??$fillAes1Rx4@$00@@YAXPEAX_K0@Z
_TEXT	SEGMENT
$T11 = 32
$T39 = 48
$T30 = 48
$T21 = 48
$T12 = 48
$T20 = 64
$T29 = 80
$T38 = 96
state$ = 192
outputSize$dead$ = 200
buffer$ = 208
??$fillAes1Rx4@$00@@YAXPEAX_K0@Z PROC			; fillAes1Rx4<1>, COMDAT
; File D:\dev\francium_network\francium_agent\src\ext\randomx\repo\src\aes_hash.cpp
; Line 133
$LN26:
	mov	rax, rsp
	mov	QWORD PTR [rax+16], rbx
	push	rsi
	sub	rsp, 176				; 000000b0H
; Line 141
	movdqa	xmm0, XMMWORD PTR __xmm@b4f44917dbb5552b627166096daca553
	lea	rsi, QWORD PTR [r8+2097152]
; Line 142
	movdqa	xmm1, XMMWORD PTR __xmm@0da1dc4e1725d378846a710d6d7caf07
	mov	rbx, rcx
; Line 143
	movdqa	xmm2, XMMWORD PTR __xmm@3e20e345f4c0794f9f947ec63f1262f1
; Line 144
	movdqa	xmm3, XMMWORD PTR __xmm@4916915416314c88b1ba317c6aef8135
	movaps	XMMWORD PTR [rax-24], xmm6
; Line 146
	movdqu	xmm6, XMMWORD PTR [rcx]
	movaps	XMMWORD PTR [rax-40], xmm7
; Line 147
	movdqu	xmm7, XMMWORD PTR [rcx+16]
	movaps	XMMWORD PTR [rax-56], xmm8
; Line 148
	movdqu	xmm8, XMMWORD PTR [rcx+32]
	movaps	XMMWORD PTR [rax-72], xmm9
; Line 149
	movdqu	xmm9, XMMWORD PTR [rcx+48]
; Line 151
	cmp	r8, rsi
	jae	$LN3@fillAes1Rx
; File D:\dev\francium_network\francium_agent\src\ext\randomx\repo\src\soft_aes.h
; Line 45
	mov	QWORD PTR [rax+8], rdi
; File D:\dev\francium_network\francium_agent\src\ext\randomx\repo\src\aes_hash.cpp
; Line 136
	lea	rdi, QWORD PTR [r8+32]
; File D:\dev\francium_network\francium_agent\src\ext\randomx\repo\src\soft_aes.h
; Line 45
	movdqa	XMMWORD PTR $T11[rsp], xmm0
; Line 40
	movdqu	XMMWORD PTR [rax-120], xmm1
; Line 45
	movdqu	XMMWORD PTR [rax-104], xmm2
; Line 40
	movdqu	XMMWORD PTR [rax-88], xmm3
	npad	10
$LL2@fillAes1Rx:
; Line 45
	lea	rdx, QWORD PTR $T11[rsp]
	movdqa	XMMWORD PTR $T12[rsp], xmm6
	lea	rcx, QWORD PTR $T12[rsp]
	call	?soft_aesdec@@YA?AT__m128i@@T1@0@Z	; soft_aesdec
; Line 40
	lea	rdx, QWORD PTR $T20[rsp]
	movdqa	XMMWORD PTR $T21[rsp], xmm7
	lea	rcx, QWORD PTR $T21[rsp]
; Line 45
	movdqa	xmm6, xmm0
; Line 40
	call	?soft_aesenc@@YA?AT__m128i@@T1@0@Z	; soft_aesenc
; Line 45
	lea	rdx, QWORD PTR $T29[rsp]
	movdqa	XMMWORD PTR $T30[rsp], xmm8
	lea	rcx, QWORD PTR $T30[rsp]
; Line 40
	movdqa	xmm7, xmm0
; Line 45
	call	?soft_aesdec@@YA?AT__m128i@@T1@0@Z	; soft_aesdec
; Line 40
	lea	rdx, QWORD PTR $T38[rsp]
	movdqa	XMMWORD PTR $T39[rsp], xmm9
	lea	rcx, QWORD PTR $T39[rsp]
; Line 45
	movdqa	xmm8, xmm0
; Line 40
	call	?soft_aesenc@@YA?AT__m128i@@T1@0@Z	; soft_aesenc
; File D:\dev\francium_network\francium_agent\src\ext\randomx\repo\src\aes_hash.cpp
; Line 160
	movdqu	XMMWORD PTR [rdi+16], xmm0
; File D:\dev\francium_network\francium_agent\src\ext\randomx\repo\src\soft_aes.h
; Line 40
	movdqa	xmm9, xmm0
; File D:\dev\francium_network\francium_agent\src\ext\randomx\repo\src\aes_hash.cpp
; Line 157
	movdqu	XMMWORD PTR [rdi-32], xmm6
; Line 158
	movdqu	XMMWORD PTR [rdi-16], xmm7
; Line 159
	movdqu	XMMWORD PTR [rdi], xmm8
; Line 162
	lea	rdi, QWORD PTR [rdi+64]
	lea	rax, QWORD PTR [rdi-32]
	cmp	rax, rsi
	jb	$LL2@fillAes1Rx
; Line 151
	mov	rdi, QWORD PTR [rsp+192]
$LN3@fillAes1Rx:
; Line 169
	lea	r11, QWORD PTR [rsp+176]
	movdqu	XMMWORD PTR [rbx], xmm6
	movaps	xmm6, XMMWORD PTR [r11-16]
	movdqu	XMMWORD PTR [rbx+16], xmm7
	movaps	xmm7, XMMWORD PTR [r11-32]
	movdqu	XMMWORD PTR [rbx+32], xmm8
	movaps	xmm8, XMMWORD PTR [r11-48]
	movdqu	XMMWORD PTR [rbx+48], xmm9
	mov	rbx, QWORD PTR [r11+24]
	movaps	xmm9, XMMWORD PTR [r11-64]
	mov	rsp, r11
	pop	rsi
	ret	0
??$fillAes1Rx4@$00@@YAXPEAX_K0@Z ENDP			; fillAes1Rx4<1>
_TEXT	ENDS
; Function compile flags: /Ogtpy
;	COMDAT ??$hashAes1Rx4@$0A@@@YAXPEBX_KPEAX@Z
_TEXT	SEGMENT
input$ = 8
inputSize$dead$ = 16
hash$ = 24
??$hashAes1Rx4@$0A@@@YAXPEBX_KPEAX@Z PROC		; hashAes1Rx4<0>, COMDAT
; File D:\dev\francium_network\francium_agent\src\ext\randomx\repo\src\aes_hash.cpp
; Line 70
	movdqa	xmm2, XMMWORD PTR __xmm@d7983aadcc82db479fa856de92b52c0d
	lea	rdx, QWORD PTR [rcx+2097152]
; Line 71
	movdqa	xmm3, XMMWORD PTR __xmm@ace78057f59e125a15c7b798338d996e
; Line 72
	movdqa	xmm4, XMMWORD PTR __xmm@e8a07ce45079506bae62c7d06a770017
; Line 73
	movdqa	xmm5, XMMWORD PTR __xmm@7e99494879a1000507ad828d630a240c
; Line 76
	cmp	rcx, rdx
	jae	SHORT $LN3@hashAes1Rx
; Line 64
	lea	rax, QWORD PTR [rcx+32]
$LL2@hashAes1Rx:
; File D:\dev\francium_network\francium_agent\src\ext\randomx\repo\src\soft_aes.h
; Line 40
	aesenc	xmm2, XMMWORD PTR [rax-32]
; Line 45
	aesdec	xmm3, XMMWORD PTR [rax-16]
; Line 40
	aesenc	xmm4, XMMWORD PTR [rax]
; Line 45
	aesdec	xmm5, XMMWORD PTR [rax+16]
; File D:\dev\francium_network\francium_agent\src\ext\randomx\repo\src\aes_hash.cpp
; Line 87
	lea	rax, QWORD PTR [rax+64]
	lea	rcx, QWORD PTR [rax-32]
	cmp	rcx, rdx
	jb	SHORT $LL2@hashAes1Rx
$LN3@hashAes1Rx:
; Line 91
	movdqa	xmm0, XMMWORD PTR __xmm@0689020190dc56bf8b24949ff6fa8389
; Line 92
	movdqa	xmm1, XMMWORD PTR __xmm@ed18f99bee1043c651f4e03c61b263d1
; File D:\dev\francium_network\francium_agent\src\ext\randomx\repo\src\soft_aes.h
; Line 40
	aesenc	xmm2, xmm0
; Line 45
	aesdec	xmm3, xmm0
; Line 40
	aesenc	xmm4, xmm0
; Line 45
	aesdec	xmm5, xmm0
; Line 40
	aesenc	xmm2, xmm1
; Line 45
	aesdec	xmm3, xmm1
; Line 40
	aesenc	xmm4, xmm1
; Line 45
	aesdec	xmm5, xmm1
; File D:\dev\francium_network\francium_agent\src\ext\randomx\repo\src\aes_hash.cpp
; Line 105
	movdqu	XMMWORD PTR [r8], xmm2
; Line 106
	movdqu	XMMWORD PTR [r8+16], xmm3
; Line 107
	movdqu	XMMWORD PTR [r8+32], xmm4
; Line 108
	movdqu	XMMWORD PTR [r8+48], xmm5
; Line 109
	ret	0
??$hashAes1Rx4@$0A@@@YAXPEBX_KPEAX@Z ENDP		; hashAes1Rx4<0>
_TEXT	ENDS
; Function compile flags: /Ogtpy
;	COMDAT ??$hashAes1Rx4@$00@@YAXPEBX_KPEAX@Z
_TEXT	SEGMENT
$T86 = 32
$T50 = 32
$T39 = 32
$T30 = 32
$T21 = 32
$T11 = 32
$T94 = 48
$T49 = 48
$T38 = 48
$T29 = 48
$T20 = 48
$T12 = 48
$T103 = 64
$T95 = 64
$T59 = 64
$T112 = 80
$T104 = 80
$T68 = 80
$T113 = 96
$T77 = 96
$T58 = 112
$T67 = 128
$T76 = 144
$T85 = 160
input$ = 272
inputSize$dead$ = 280
hash$ = 288
??$hashAes1Rx4@$00@@YAXPEBX_KPEAX@Z PROC		; hashAes1Rx4<1>, COMDAT
; File D:\dev\francium_network\francium_agent\src\ext\randomx\repo\src\aes_hash.cpp
; Line 61
$LN58:
	mov	rax, rsp
	mov	QWORD PTR [rax+16], rsi
	mov	QWORD PTR [rax+24], rdi
	push	rbp
	lea	rbp, QWORD PTR [rax-95]
	sub	rsp, 256				; 00000100H
	movaps	XMMWORD PTR [rax-24], xmm6
; Line 64
	lea	rdi, QWORD PTR [rcx+2097152]
	movaps	XMMWORD PTR [rax-40], xmm7
	mov	rsi, r8
; Line 70
	movdqa	xmm7, XMMWORD PTR __xmm@d7983aadcc82db479fa856de92b52c0d
	movaps	XMMWORD PTR [rax-56], xmm8
; Line 71
	movdqa	xmm8, XMMWORD PTR __xmm@ace78057f59e125a15c7b798338d996e
	movaps	XMMWORD PTR [rax-72], xmm9
; Line 72
	movdqa	xmm9, XMMWORD PTR __xmm@e8a07ce45079506bae62c7d06a770017
	movaps	XMMWORD PTR [rax-88], xmm10
; Line 73
	movdqa	xmm10, XMMWORD PTR __xmm@7e99494879a1000507ad828d630a240c
; Line 76
	cmp	rcx, rdi
	jae	$LN3@hashAes1Rx
; Line 64
	mov	QWORD PTR [rax+8], rbx
	lea	rbx, QWORD PTR [rcx+32]
	npad	4
$LL2@hashAes1Rx:
; File D:\dev\francium_network\francium_agent\src\ext\randomx\repo\src\soft_aes.h
; Line 40
	movdqu	xmm0, XMMWORD PTR [rbx-32]
	lea	rdx, QWORD PTR $T11[rsp]
	lea	rcx, QWORD PTR $T12[rbp-169]
	movdqa	XMMWORD PTR $T11[rsp], xmm0
	movdqa	XMMWORD PTR $T12[rbp-169], xmm7
	call	?soft_aesenc@@YA?AT__m128i@@T1@0@Z	; soft_aesenc
; Line 45
	movdqu	xmm1, XMMWORD PTR [rbx-16]
	lea	rdx, QWORD PTR $T20[rbp-169]
	lea	rcx, QWORD PTR $T21[rsp]
	movdqa	XMMWORD PTR $T20[rbp-169], xmm1
; Line 40
	movdqa	xmm7, xmm0
; Line 45
	movdqa	XMMWORD PTR $T21[rsp], xmm8
	call	?soft_aesdec@@YA?AT__m128i@@T1@0@Z	; soft_aesdec
; Line 40
	movdqu	xmm1, XMMWORD PTR [rbx]
	lea	rdx, QWORD PTR $T29[rbp-169]
	lea	rcx, QWORD PTR $T30[rsp]
	movdqa	XMMWORD PTR $T29[rbp-169], xmm1
; Line 45
	movdqa	xmm8, xmm0
; Line 40
	movdqa	XMMWORD PTR $T30[rsp], xmm9
	call	?soft_aesenc@@YA?AT__m128i@@T1@0@Z	; soft_aesenc
; Line 45
	movdqu	xmm1, XMMWORD PTR [rbx+16]
	lea	rdx, QWORD PTR $T38[rbp-169]
	lea	rcx, QWORD PTR $T39[rsp]
	movdqa	XMMWORD PTR $T38[rbp-169], xmm1
; Line 40
	movdqa	xmm9, xmm0
; Line 45
	movdqa	XMMWORD PTR $T39[rsp], xmm10
	call	?soft_aesdec@@YA?AT__m128i@@T1@0@Z	; soft_aesdec
; File D:\dev\francium_network\francium_agent\src\ext\randomx\repo\src\aes_hash.cpp
; Line 87
	lea	rbx, QWORD PTR [rbx+64]
; File D:\dev\francium_network\francium_agent\src\ext\randomx\repo\src\soft_aes.h
; Line 45
	movdqa	xmm10, xmm0
; File D:\dev\francium_network\francium_agent\src\ext\randomx\repo\src\aes_hash.cpp
; Line 76
	lea	rax, QWORD PTR [rbx-32]
	cmp	rax, rdi
	jb	$LL2@hashAes1Rx
	mov	rbx, QWORD PTR [rsp+272]
$LN3@hashAes1Rx:
; Line 91
	movdqa	xmm1, XMMWORD PTR __xmm@0689020190dc56bf8b24949ff6fa8389
; File D:\dev\francium_network\francium_agent\src\ext\randomx\repo\src\soft_aes.h
; Line 40
	lea	rdx, QWORD PTR $T49[rbp-169]
; File D:\dev\francium_network\francium_agent\src\ext\randomx\repo\src\aes_hash.cpp
; Line 92
	movdqa	xmm6, XMMWORD PTR __xmm@ed18f99bee1043c651f4e03c61b263d1
; File D:\dev\francium_network\francium_agent\src\ext\randomx\repo\src\soft_aes.h
; Line 40
	lea	rcx, QWORD PTR $T50[rsp]
	movdqa	XMMWORD PTR $T49[rbp-169], xmm1
; Line 45
	movdqa	XMMWORD PTR $T58[rbp-169], xmm1
; Line 40
	movdqa	XMMWORD PTR $T67[rbp-169], xmm1
; Line 45
	movdqa	XMMWORD PTR $T76[rbp-169], xmm1
; Line 40
	movdqa	XMMWORD PTR $T85[rbp-169], xmm6
	movdqa	XMMWORD PTR $T50[rsp], xmm7
; Line 45
	movdqa	XMMWORD PTR $T59[rbp-169], xmm8
; Line 40
	movdqa	XMMWORD PTR $T68[rbp-169], xmm9
; Line 45
	movdqa	XMMWORD PTR $T77[rbp-169], xmm10
; Line 40
	call	?soft_aesenc@@YA?AT__m128i@@T1@0@Z	; soft_aesenc
; Line 45
	lea	rdx, QWORD PTR $T58[rbp-169]
; Line 40
	movdqa	XMMWORD PTR $T86[rsp], xmm0
; Line 45
	lea	rcx, QWORD PTR $T59[rbp-169]
	movdqa	XMMWORD PTR $T94[rbp-169], xmm6
	call	?soft_aesdec@@YA?AT__m128i@@T1@0@Z	; soft_aesdec
	lea	rdx, QWORD PTR $T94[rbp-169]
	movdqa	XMMWORD PTR $T95[rbp-169], xmm0
	lea	rcx, QWORD PTR $T95[rbp-169]
	call	?soft_aesdec@@YA?AT__m128i@@T1@0@Z	; soft_aesdec
; Line 40
	lea	rdx, QWORD PTR $T67[rbp-169]
	movdqa	XMMWORD PTR $T103[rbp-169], xmm6
	lea	rcx, QWORD PTR $T68[rbp-169]
; Line 45
	movdqa	xmm8, xmm0
; Line 40
	call	?soft_aesenc@@YA?AT__m128i@@T1@0@Z	; soft_aesenc
	lea	rdx, QWORD PTR $T103[rbp-169]
	movdqa	XMMWORD PTR $T104[rbp-169], xmm0
	lea	rcx, QWORD PTR $T104[rbp-169]
	call	?soft_aesenc@@YA?AT__m128i@@T1@0@Z	; soft_aesenc
; Line 45
	lea	rdx, QWORD PTR $T76[rbp-169]
	movdqa	XMMWORD PTR $T112[rbp-169], xmm6
	lea	rcx, QWORD PTR $T77[rbp-169]
; Line 40
	movdqa	xmm7, xmm0
; Line 45
	call	?soft_aesdec@@YA?AT__m128i@@T1@0@Z	; soft_aesdec
	lea	rdx, QWORD PTR $T112[rbp-169]
	movdqa	XMMWORD PTR $T113[rbp-169], xmm0
	lea	rcx, QWORD PTR $T113[rbp-169]
	call	?soft_aesdec@@YA?AT__m128i@@T1@0@Z	; soft_aesdec
; Line 40
	lea	rdx, QWORD PTR $T85[rbp-169]
; Line 45
	movdqa	xmm6, xmm0
; Line 40
	lea	rcx, QWORD PTR $T86[rsp]
	call	?soft_aesenc@@YA?AT__m128i@@T1@0@Z	; soft_aesenc
; File D:\dev\francium_network\francium_agent\src\ext\randomx\repo\src\aes_hash.cpp
; Line 109
	lea	r11, QWORD PTR [rsp+256]
	movdqu	XMMWORD PTR [rsi+16], xmm8
	mov	rdi, QWORD PTR [r11+32]
	movaps	xmm8, XMMWORD PTR [r11-48]
	movaps	xmm9, XMMWORD PTR [r11-64]
	movaps	xmm10, XMMWORD PTR [r11-80]
	movdqu	XMMWORD PTR [rsi+32], xmm7
	movaps	xmm7, XMMWORD PTR [r11-32]
	movdqu	XMMWORD PTR [rsi+48], xmm6
	movaps	xmm6, XMMWORD PTR [r11-16]
	movdqu	XMMWORD PTR [rsi], xmm0
	mov	rsi, QWORD PTR [r11+24]
	mov	rsp, r11
	pop	rbp
	ret	0
??$hashAes1Rx4@$00@@YAXPEBX_KPEAX@Z ENDP		; hashAes1Rx4<1>
_TEXT	ENDS
; Function compile flags: /Ogtpy
;	COMDAT ??$hashAndFillAes1Rx4@$0A@@@YAXPEAX_K00@Z
_TEXT	SEGMENT
scratchpad$ = 112
scratchpadSize$dead$ = 120
hash$ = 128
fill_state$ = 136
??$hashAndFillAes1Rx4@$0A@@@YAXPEAX_K00@Z PROC		; hashAndFillAes1Rx4<0>, COMDAT
; File D:\dev\francium_network\francium_agent\src\ext\randomx\repo\src\aes_hash.cpp
; Line 244
$LN81:
	sub	rsp, 104				; 00000068H
; Line 249
	movdqa	xmm2, XMMWORD PTR __xmm@d7983aadcc82db479fa856de92b52c0d
; Line 265
	lea	rdx, QWORD PTR [rcx+4096]
	movdqa	xmm3, XMMWORD PTR __xmm@ace78057f59e125a15c7b798338d996e
	mov	r11, r8
	movdqa	xmm4, XMMWORD PTR __xmm@e8a07ce45079506bae62c7d06a770017
	mov	r10, rcx
	movdqa	xmm5, XMMWORD PTR __xmm@7e99494879a1000507ad828d630a240c
	mov	rax, rcx
	movdqu	xmm0, XMMWORD PTR [r9]
; Line 266
	add	rcx, 2093056				; 001ff000H
	movdqu	xmm1, XMMWORD PTR [r9+16]
	mov	r8d, 2
	movaps	XMMWORD PTR [rsp+80], xmm6
	movdqu	xmm6, XMMWORD PTR [r9+32]
	movaps	XMMWORD PTR [rsp+64], xmm7
	movdqu	xmm7, XMMWORD PTR [r9+48]
	movaps	XMMWORD PTR [rsp+48], xmm8
	movdqa	xmm8, XMMWORD PTR __xmm@b4f44917dbb5552b627166096daca553
	movaps	XMMWORD PTR [rsp+32], xmm9
	movdqa	xmm9, XMMWORD PTR __xmm@0da1dc4e1725d378846a710d6d7caf07
	movaps	XMMWORD PTR [rsp+16], xmm10
	movdqa	xmm10, XMMWORD PTR __xmm@3e20e345f4c0794f9f947ec63f1262f1
	movaps	XMMWORD PTR [rsp], xmm11
	movdqa	xmm11, XMMWORD PTR __xmm@4916915416314c88b1ba317c6aef8135
	npad	3
$LL4@hashAndFil:
; Line 270
	cmp	rax, rcx
	jae	SHORT $LN6@hashAndFil
	sub	rdx, rax
	npad	8
$LL5@hashAndFil:
; File D:\dev\francium_network\francium_agent\src\ext\randomx\repo\src\soft_aes.h
; Line 40
	aesenc	xmm2, XMMWORD PTR [rax]
; Line 45
	aesdec	xmm3, XMMWORD PTR [rax+16]
; Line 40
	aesenc	xmm4, XMMWORD PTR [rax+32]
; Line 45
	aesdec	xmm5, XMMWORD PTR [rax+48]
	aesdec	xmm0, xmm8
; File D:\dev\francium_network\francium_agent\src\ext\randomx\repo\src\aes_hash.cpp
; Line 281
	movdqu	XMMWORD PTR [rax], xmm0
; File D:\dev\francium_network\francium_agent\src\ext\randomx\repo\src\soft_aes.h
; Line 40
	aesenc	xmm1, xmm9
; Line 45
	aesdec	xmm6, xmm10
; Line 40
	aesenc	xmm7, xmm11
; File D:\dev\francium_network\francium_agent\src\ext\randomx\repo\src\aes_hash.cpp
; Line 282
	movdqu	XMMWORD PTR [rax+16], xmm1
; Line 283
	movdqu	XMMWORD PTR [rax+32], xmm6
; Line 284
	movdqu	XMMWORD PTR [rax+48], xmm7
; Line 286
	prefetcht0 BYTE PTR [rdx+rax]
; Line 288
	add	rax, 64					; 00000040H
	cmp	rax, rcx
	jb	SHORT $LL5@hashAndFil
$LN6@hashAndFil:
; Line 292
	add	rcx, 4096				; 00001000H
	mov	rdx, r10
	sub	r8, 1
	jne	SHORT $LL4@hashAndFil
; Line 319
	movaps	xmm8, XMMWORD PTR [rsp+48]
	movaps	xmm9, XMMWORD PTR [rsp+32]
	movaps	xmm10, XMMWORD PTR [rsp+16]
	movaps	xmm11, XMMWORD PTR [rsp]
	movdqu	XMMWORD PTR [r9], xmm0
	movdqa	xmm0, XMMWORD PTR __xmm@0689020190dc56bf8b24949ff6fa8389
	movdqu	XMMWORD PTR [r9+16], xmm1
	movdqa	xmm1, XMMWORD PTR __xmm@ed18f99bee1043c651f4e03c61b263d1
	movdqu	XMMWORD PTR [r9+32], xmm6
	movaps	xmm6, XMMWORD PTR [rsp+80]
	movdqu	XMMWORD PTR [r9+48], xmm7
	movaps	xmm7, XMMWORD PTR [rsp+64]
; File D:\dev\francium_network\francium_agent\src\ext\randomx\repo\src\soft_aes.h
; Line 40
	aesenc	xmm2, xmm0
; Line 45
	aesdec	xmm3, xmm0
; Line 40
	aesenc	xmm4, xmm0
; Line 45
	aesdec	xmm5, xmm0
; Line 40
	aesenc	xmm2, xmm1
; Line 45
	aesdec	xmm3, xmm1
; Line 40
	aesenc	xmm4, xmm1
; Line 45
	aesdec	xmm5, xmm1
; File D:\dev\francium_network\francium_agent\src\ext\randomx\repo\src\aes_hash.cpp
; Line 315
	movdqu	XMMWORD PTR [r11], xmm2
; Line 316
	movdqu	XMMWORD PTR [r11+16], xmm3
; Line 317
	movdqu	XMMWORD PTR [r11+32], xmm4
; Line 318
	movdqu	XMMWORD PTR [r11+48], xmm5
; Line 319
	add	rsp, 104				; 00000068H
	ret	0
??$hashAndFillAes1Rx4@$0A@@@YAXPEAX_K00@Z ENDP		; hashAndFillAes1Rx4<0>
_TEXT	ENDS
; Function compile flags: /Ogtpy
;	COMDAT ??$hashAndFillAes1Rx4@$00@@YAXPEAX_K00@Z
_TEXT	SEGMENT
hash_state3$1$ = 32
$T121 = 32
$T83 = 32
$T74 = 32
$T65 = 32
$T56 = 32
$T46 = 32
$T36 = 32
$T26 = 32
$T16 = 32
hash_state2$1$ = 48
$T112 = 48
$T47 = 48
$T37 = 48
$T27 = 48
$T17 = 48
$T147 = 64
$T138 = 64
$T93 = 64
$T82 = 64
$T139 = 80
$T94 = 80
$T73 = 80
$T156 = 96
$T148 = 96
$T111 = 96
$T103 = 112
$T55 = 112
$T102 = 128
$T64 = 128
$T157 = 144
$T120 = 144
$T129 = 160
$T130 = 176
scratchpad$ = 400
scratchpadSize$dead$ = 408
hash$ = 416
fill_state$ = 424
??$hashAndFillAes1Rx4@$00@@YAXPEAX_K00@Z PROC		; hashAndFillAes1Rx4<1>, COMDAT
; File D:\dev\francium_network\francium_agent\src\ext\randomx\repo\src\aes_hash.cpp
; Line 244
$LN81:
	mov	rax, rsp
	mov	QWORD PTR [rax+8], rbx
	mov	QWORD PTR [rax+16], rsi
	mov	QWORD PTR [rax+24], rdi
	push	rbp
	push	r12
	push	r13
	push	r14
	push	r15
	lea	rbp, QWORD PTR [rsp-96]
	sub	rsp, 352				; 00000160H
; Line 251
	movdqa	xmm1, XMMWORD PTR __xmm@e8a07ce45079506bae62c7d06a770017
; Line 265
	lea	rsi, QWORD PTR [rcx+4096]
	movdqa	xmm0, XMMWORD PTR __xmm@7e99494879a1000507ad828d630a240c
; Line 266
	lea	rdi, QWORD PTR [rcx+2093056]
	movaps	XMMWORD PTR [rax-56], xmm6
	mov	r12, r9
	movdqu	xmm6, XMMWORD PTR [r9]
	mov	r13, r8
	movaps	XMMWORD PTR [rax-72], xmm7
	mov	r15, rcx
	movdqu	xmm7, XMMWORD PTR [r9+16]
	mov	rbx, rcx
	movaps	XMMWORD PTR [rax-88], xmm8
	mov	r14d, 2
	movdqu	xmm8, XMMWORD PTR [r9+32]
	movaps	XMMWORD PTR [rax-104], xmm9
	movdqu	xmm9, XMMWORD PTR [r9+48]
	movaps	XMMWORD PTR [rax-120], xmm10
	movdqa	xmm10, XMMWORD PTR __xmm@b4f44917dbb5552b627166096daca553
	movaps	XMMWORD PTR [rax-136], xmm11
	movdqa	xmm11, XMMWORD PTR __xmm@0da1dc4e1725d378846a710d6d7caf07
	movaps	XMMWORD PTR [rax-152], xmm12
	movaps	XMMWORD PTR [rax-168], xmm13
	movaps	XMMWORD PTR [rax-184], xmm14
	movaps	XMMWORD PTR [rax-200], xmm15
	movdqa	xmm15, XMMWORD PTR __xmm@ace78057f59e125a15c7b798338d996e
	movdqa	xmm14, XMMWORD PTR __xmm@d7983aadcc82db479fa856de92b52c0d
	movdqa	xmm12, XMMWORD PTR __xmm@3e20e345f4c0794f9f947ec63f1262f1
	movdqa	xmm13, XMMWORD PTR __xmm@4916915416314c88b1ba317c6aef8135
	movdqa	XMMWORD PTR hash_state2$1$[rsp], xmm1
	movdqa	XMMWORD PTR hash_state3$1$[rsp], xmm0
	npad	4
$LL4@hashAndFil:
; Line 270
	cmp	rbx, rdi
	jae	$LN6@hashAndFil
; File D:\dev\francium_network\francium_agent\src\ext\randomx\repo\src\soft_aes.h
; Line 45
	movdqa	XMMWORD PTR $T55[rsp], xmm10
; Line 40
	sub	rsi, rbx
	movdqa	xmm10, XMMWORD PTR hash_state2$1$[rsp]
	movdqa	XMMWORD PTR $T64[rbp-256], xmm11
	movdqa	xmm11, XMMWORD PTR hash_state3$1$[rsp]
; Line 45
	movdqa	XMMWORD PTR $T73[rsp], xmm12
; Line 40
	movdqa	XMMWORD PTR $T82[rsp], xmm13
	npad	11
$LL5@hashAndFil:
	movdqu	xmm0, XMMWORD PTR [rbx]
	lea	rdx, QWORD PTR $T16[rsp]
	lea	rcx, QWORD PTR $T17[rsp]
	movdqa	XMMWORD PTR $T16[rsp], xmm0
	movdqa	XMMWORD PTR $T17[rsp], xmm14
	call	?soft_aesenc@@YA?AT__m128i@@T1@0@Z	; soft_aesenc
; Line 45
	movdqu	xmm1, XMMWORD PTR [rbx+16]
	lea	rdx, QWORD PTR $T26[rsp]
	lea	rcx, QWORD PTR $T27[rsp]
	movdqa	XMMWORD PTR $T26[rsp], xmm1
; Line 40
	movdqa	xmm14, xmm0
; Line 45
	movdqa	XMMWORD PTR $T27[rsp], xmm15
	call	?soft_aesdec@@YA?AT__m128i@@T1@0@Z	; soft_aesdec
; Line 40
	movdqu	xmm1, XMMWORD PTR [rbx+32]
	lea	rdx, QWORD PTR $T36[rsp]
	lea	rcx, QWORD PTR $T37[rsp]
	movdqa	XMMWORD PTR $T36[rsp], xmm1
; Line 45
	movdqa	xmm15, xmm0
; Line 40
	movdqa	XMMWORD PTR $T37[rsp], xmm10
	call	?soft_aesenc@@YA?AT__m128i@@T1@0@Z	; soft_aesenc
; Line 45
	movdqu	xmm1, XMMWORD PTR [rbx+48]
	lea	rdx, QWORD PTR $T46[rsp]
	lea	rcx, QWORD PTR $T47[rsp]
	movdqa	XMMWORD PTR $T46[rsp], xmm1
; Line 40
	movdqa	xmm10, xmm0
; Line 45
	movdqa	XMMWORD PTR $T47[rsp], xmm11
	call	?soft_aesdec@@YA?AT__m128i@@T1@0@Z	; soft_aesdec
	lea	rdx, QWORD PTR $T55[rsp]
	movdqa	XMMWORD PTR $T56[rsp], xmm6
	lea	rcx, QWORD PTR $T56[rsp]
	movdqa	xmm11, xmm0
	call	?soft_aesdec@@YA?AT__m128i@@T1@0@Z	; soft_aesdec
; Line 40
	lea	rdx, QWORD PTR $T64[rbp-256]
	movdqa	XMMWORD PTR $T65[rsp], xmm7
	lea	rcx, QWORD PTR $T65[rsp]
; Line 45
	movdqa	xmm6, xmm0
; Line 40
	call	?soft_aesenc@@YA?AT__m128i@@T1@0@Z	; soft_aesenc
; Line 45
	lea	rdx, QWORD PTR $T73[rsp]
	movdqa	XMMWORD PTR $T74[rsp], xmm8
	lea	rcx, QWORD PTR $T74[rsp]
; Line 40
	movdqa	xmm7, xmm0
; Line 45
	call	?soft_aesdec@@YA?AT__m128i@@T1@0@Z	; soft_aesdec
; Line 40
	lea	rdx, QWORD PTR $T82[rsp]
	movdqa	XMMWORD PTR $T83[rsp], xmm9
	lea	rcx, QWORD PTR $T83[rsp]
; Line 45
	movdqa	xmm8, xmm0
; Line 40
	call	?soft_aesenc@@YA?AT__m128i@@T1@0@Z	; soft_aesenc
; File D:\dev\francium_network\francium_agent\src\ext\randomx\repo\src\aes_hash.cpp
; Line 281
	movdqu	XMMWORD PTR [rbx], xmm6
; File D:\dev\francium_network\francium_agent\src\ext\randomx\repo\src\soft_aes.h
; Line 40
	movdqa	xmm9, xmm0
; File D:\dev\francium_network\francium_agent\src\ext\randomx\repo\src\aes_hash.cpp
; Line 282
	movdqu	XMMWORD PTR [rbx+16], xmm7
; Line 283
	movdqu	XMMWORD PTR [rbx+32], xmm8
; Line 284
	movdqu	XMMWORD PTR [rbx+48], xmm0
; Line 286
	prefetcht0 BYTE PTR [rsi+rbx]
; Line 288
	add	rbx, 64					; 00000040H
	cmp	rbx, rdi
	jb	$LL5@hashAndFil
	movdqa	XMMWORD PTR hash_state3$1$[rsp], xmm11
	movdqa	xmm11, XMMWORD PTR __xmm@0da1dc4e1725d378846a710d6d7caf07
	movdqa	XMMWORD PTR hash_state2$1$[rsp], xmm10
	movdqa	xmm10, XMMWORD PTR __xmm@b4f44917dbb5552b627166096daca553
$LN6@hashAndFil:
; Line 292
	add	rdi, 4096				; 00001000H
	mov	rsi, r15
	sub	r14, 1
	jne	$LL4@hashAndFil
; Line 301
	movdqa	xmm0, XMMWORD PTR __xmm@0689020190dc56bf8b24949ff6fa8389
; File D:\dev\francium_network\francium_agent\src\ext\randomx\repo\src\soft_aes.h
; Line 40
	lea	rdx, QWORD PTR $T93[rsp]
	movdqa	xmm1, XMMWORD PTR hash_state2$1$[rsp]
	lea	rcx, QWORD PTR $T94[rsp]
	movdqa	XMMWORD PTR $T93[rsp], xmm0
; Line 45
	movdqa	XMMWORD PTR $T102[rbp-256], xmm0
; Line 40
	movdqa	XMMWORD PTR $T111[rsp], xmm0
; Line 45
	movdqa	XMMWORD PTR $T120[rbp-256], xmm0
	movdqa	xmm0, XMMWORD PTR hash_state3$1$[rsp]
; File D:\dev\francium_network\francium_agent\src\ext\randomx\repo\src\aes_hash.cpp
; Line 295
	movdqu	XMMWORD PTR [r12], xmm6
; Line 302
	movdqa	xmm6, XMMWORD PTR __xmm@ed18f99bee1043c651f4e03c61b263d1
; File D:\dev\francium_network\francium_agent\src\ext\randomx\repo\src\soft_aes.h
; Line 45
	movdqa	XMMWORD PTR $T121[rsp], xmm0
; File D:\dev\francium_network\francium_agent\src\ext\randomx\repo\src\aes_hash.cpp
; Line 296
	movdqu	XMMWORD PTR [r12+16], xmm7
; Line 297
	movdqu	XMMWORD PTR [r12+32], xmm8
; Line 298
	movdqu	XMMWORD PTR [r12+48], xmm9
; File D:\dev\francium_network\francium_agent\src\ext\randomx\repo\src\soft_aes.h
; Line 40
	movdqa	XMMWORD PTR $T94[rsp], xmm14
; Line 45
	movdqa	XMMWORD PTR $T103[rsp], xmm15
; Line 40
	movdqa	XMMWORD PTR $T112[rsp], xmm1
	movdqa	XMMWORD PTR $T129[rbp-256], xmm6
	call	?soft_aesenc@@YA?AT__m128i@@T1@0@Z	; soft_aesenc
; Line 45
	lea	rdx, QWORD PTR $T102[rbp-256]
; Line 40
	movdqa	XMMWORD PTR $T130[rbp-256], xmm0
; Line 45
	lea	rcx, QWORD PTR $T103[rsp]
	movdqa	XMMWORD PTR $T138[rsp], xmm6
	call	?soft_aesdec@@YA?AT__m128i@@T1@0@Z	; soft_aesdec
	lea	rdx, QWORD PTR $T138[rsp]
	movdqa	XMMWORD PTR $T139[rsp], xmm0
	lea	rcx, QWORD PTR $T139[rsp]
	call	?soft_aesdec@@YA?AT__m128i@@T1@0@Z	; soft_aesdec
; Line 40
	lea	rdx, QWORD PTR $T111[rsp]
	movdqa	XMMWORD PTR $T147[rsp], xmm6
	lea	rcx, QWORD PTR $T112[rsp]
; Line 45
	movdqa	xmm8, xmm0
; Line 40
	call	?soft_aesenc@@YA?AT__m128i@@T1@0@Z	; soft_aesenc
	lea	rdx, QWORD PTR $T147[rsp]
	movdqa	XMMWORD PTR $T148[rsp], xmm0
	lea	rcx, QWORD PTR $T148[rsp]
	call	?soft_aesenc@@YA?AT__m128i@@T1@0@Z	; soft_aesenc
; Line 45
	lea	rdx, QWORD PTR $T120[rbp-256]
	movdqa	XMMWORD PTR $T156[rsp], xmm6
	lea	rcx, QWORD PTR $T121[rsp]
; Line 40
	movdqa	xmm7, xmm0
; Line 45
	call	?soft_aesdec@@YA?AT__m128i@@T1@0@Z	; soft_aesdec
	lea	rdx, QWORD PTR $T156[rsp]
	movdqa	XMMWORD PTR $T157[rbp-256], xmm0
	lea	rcx, QWORD PTR $T157[rbp-256]
	call	?soft_aesdec@@YA?AT__m128i@@T1@0@Z	; soft_aesdec
; Line 40
	lea	rdx, QWORD PTR $T129[rbp-256]
; Line 45
	movdqa	xmm6, xmm0
; Line 40
	lea	rcx, QWORD PTR $T130[rbp-256]
	call	?soft_aesenc@@YA?AT__m128i@@T1@0@Z	; soft_aesenc
; File D:\dev\francium_network\francium_agent\src\ext\randomx\repo\src\aes_hash.cpp
; Line 319
	lea	r11, QWORD PTR [rsp+352]
	movdqu	XMMWORD PTR [r13+16], xmm8
	mov	rbx, QWORD PTR [r11+48]
	mov	rsi, QWORD PTR [r11+56]
	mov	rdi, QWORD PTR [r11+64]
	movaps	xmm8, XMMWORD PTR [r11-48]
	movaps	xmm9, XMMWORD PTR [r11-64]
	movaps	xmm10, XMMWORD PTR [r11-80]
	movaps	xmm11, XMMWORD PTR [r11-96]
	movaps	xmm12, XMMWORD PTR [r11-112]
	movaps	xmm13, XMMWORD PTR [r11-128]
	movaps	xmm14, XMMWORD PTR [r11-144]
	movaps	xmm15, XMMWORD PTR [r11-160]
	movdqu	XMMWORD PTR [r13+32], xmm7
	movaps	xmm7, XMMWORD PTR [r11-32]
	movdqu	XMMWORD PTR [r13+48], xmm6
	movaps	xmm6, XMMWORD PTR [r11-16]
	movdqu	XMMWORD PTR [r13], xmm0
	mov	rsp, r11
	pop	r15
	pop	r14
	pop	r13
	pop	r12
	pop	rbp
	ret	0
??$hashAndFillAes1Rx4@$00@@YAXPEAX_K00@Z ENDP		; hashAndFillAes1Rx4<1>
_TEXT	ENDS
; Function compile flags: /Ogtpy
;	COMDAT ??$aesenc@$0A@@@YA?AT__m128i@@T0@0@Z
_TEXT	SEGMENT
in$ = 8
key$ = 16
??$aesenc@$0A@@@YA?AT__m128i@@T0@0@Z PROC		; aesenc<0>, COMDAT
; File D:\dev\francium_network\francium_agent\src\ext\randomx\repo\src\soft_aes.h
; Line 40
	movdqu	xmm0, XMMWORD PTR [rcx]
	aesenc	xmm0, XMMWORD PTR [rdx]
; Line 41
	ret	0
??$aesenc@$0A@@@YA?AT__m128i@@T0@0@Z ENDP		; aesenc<0>
_TEXT	ENDS
; Function compile flags: /Ogtpy
;	COMDAT ??$aesdec@$0A@@@YA?AT__m128i@@T0@0@Z
_TEXT	SEGMENT
in$ = 8
key$ = 16
??$aesdec@$0A@@@YA?AT__m128i@@T0@0@Z PROC		; aesdec<0>, COMDAT
; File D:\dev\francium_network\francium_agent\src\ext\randomx\repo\src\soft_aes.h
; Line 45
	movdqu	xmm0, XMMWORD PTR [rcx]
	aesdec	xmm0, XMMWORD PTR [rdx]
; Line 46
	ret	0
??$aesdec@$0A@@@YA?AT__m128i@@T0@0@Z ENDP		; aesdec<0>
_TEXT	ENDS
; Function compile flags: /Ogtpy
;	COMDAT ??$aesenc@$00@@YA?AT__m128i@@T0@0@Z
_TEXT	SEGMENT
$T1 = 32
$T2 = 48
in$ = 80
key$ = 88
??$aesenc@$00@@YA?AT__m128i@@T0@0@Z PROC		; aesenc<1>, COMDAT
; File D:\dev\francium_network\francium_agent\src\ext\randomx\repo\src\soft_aes.h
; Line 39
$LN6:
	sub	rsp, 72					; 00000048H
; Line 40
	movdqu	xmm0, XMMWORD PTR [rdx]
	lea	rdx, QWORD PTR $T1[rsp]
	movdqu	xmm1, XMMWORD PTR [rcx]
	lea	rcx, QWORD PTR $T2[rsp]
	movdqa	XMMWORD PTR $T1[rsp], xmm0
	movdqa	XMMWORD PTR $T2[rsp], xmm1
	call	?soft_aesenc@@YA?AT__m128i@@T1@0@Z	; soft_aesenc
; Line 41
	add	rsp, 72					; 00000048H
	ret	0
??$aesenc@$00@@YA?AT__m128i@@T0@0@Z ENDP		; aesenc<1>
_TEXT	ENDS
; Function compile flags: /Ogtpy
;	COMDAT ??$aesdec@$00@@YA?AT__m128i@@T0@0@Z
_TEXT	SEGMENT
$T1 = 32
$T2 = 48
in$ = 80
key$ = 88
??$aesdec@$00@@YA?AT__m128i@@T0@0@Z PROC		; aesdec<1>, COMDAT
; File D:\dev\francium_network\francium_agent\src\ext\randomx\repo\src\soft_aes.h
; Line 44
$LN6:
	sub	rsp, 72					; 00000048H
; Line 45
	movdqu	xmm0, XMMWORD PTR [rdx]
	lea	rdx, QWORD PTR $T1[rsp]
	movdqu	xmm1, XMMWORD PTR [rcx]
	lea	rcx, QWORD PTR $T2[rsp]
	movdqa	XMMWORD PTR $T1[rsp], xmm0
	movdqa	XMMWORD PTR $T2[rsp], xmm1
	call	?soft_aesdec@@YA?AT__m128i@@T1@0@Z	; soft_aesdec
; Line 46
	add	rsp, 72					; 00000048H
	ret	0
??$aesdec@$00@@YA?AT__m128i@@T0@0@Z ENDP		; aesdec<1>
_TEXT	ENDS
END
