; Listing generated by Microsoft (R) Optimizing Compiler Version 19.35.32216.1 

include listing.inc

INCLUDELIB OLDNAMES

PUBLIC	randomx_argon2_fill_segment_ref
;	COMDAT pdata
pdata	SEGMENT
$pdata$fill_block DD imagerel fill_block
	DD	imagerel fill_block+3276
	DD	imagerel $unwind$fill_block
pdata	ENDS
;	COMDAT pdata
pdata	SEGMENT
$pdata$randomx_argon2_fill_segment_ref DD imagerel $LN25
	DD	imagerel $LN25+17
	DD	imagerel $unwind$randomx_argon2_fill_segment_ref
pdata	ENDS
;	COMDAT pdata
pdata	SEGMENT
$pdata$2$randomx_argon2_fill_segment_ref DD imagerel $LN25+17
	DD	imagerel $LN25+118
	DD	imagerel $chain$2$randomx_argon2_fill_segment_ref
pdata	ENDS
;	COMDAT pdata
pdata	SEGMENT
$pdata$5$randomx_argon2_fill_segment_ref DD imagerel $LN25+118
	DD	imagerel $LN25+336
	DD	imagerel $chain$5$randomx_argon2_fill_segment_ref
pdata	ENDS
;	COMDAT pdata
pdata	SEGMENT
$pdata$6$randomx_argon2_fill_segment_ref DD imagerel $LN25+336
	DD	imagerel $LN25+359
	DD	imagerel $chain$6$randomx_argon2_fill_segment_ref
pdata	ENDS
;	COMDAT pdata
pdata	SEGMENT
$pdata$7$randomx_argon2_fill_segment_ref DD imagerel $LN25+359
	DD	imagerel $LN25+360
	DD	imagerel $chain$7$randomx_argon2_fill_segment_ref
;	COMDAT xdata
xdata	SEGMENT
$chain$7$randomx_argon2_fill_segment_ref DD 021H
	DD	imagerel $LN25
	DD	imagerel $LN25+17
	DD	imagerel $unwind$randomx_argon2_fill_segment_ref
xdata	ENDS
;	COMDAT xdata
xdata	SEGMENT
$chain$6$randomx_argon2_fill_segment_ref DD 021H
	DD	imagerel $LN25+17
	DD	imagerel $LN25+118
	DD	imagerel $chain$2$randomx_argon2_fill_segment_ref
xdata	ENDS
;	COMDAT xdata
xdata	SEGMENT
$chain$5$randomx_argon2_fill_segment_ref DD 060f21H
	DD	04d40fH
	DD	05c40aH
	DD	067405H
	DD	imagerel $LN25+17
	DD	imagerel $LN25+118
	DD	imagerel $chain$2$randomx_argon2_fill_segment_ref
xdata	ENDS
;	COMDAT xdata
xdata	SEGMENT
$chain$2$randomx_argon2_fill_segment_ref DD 061921H
	DD	076419H
	DD	08540dH
	DD	0d3405H
	DD	imagerel $LN25
	DD	imagerel $LN25+17
	DD	imagerel $unwind$randomx_argon2_fill_segment_ref
xdata	ENDS
;	COMDAT xdata
xdata	SEGMENT
$unwind$randomx_argon2_fill_segment_ref DD 031101H
	DD	0f00d8211H
	DD	0e00bH
xdata	ENDS
;	COMDAT xdata
xdata	SEGMENT
$unwind$fill_block DD 0d3819H
	DD	01257427H
	DD	01236427H
	DD	01223427H
	DD	011c0127H
	DD	0e016f018H
	DD	0c012d014H
	DD	05010H
	DD	imagerel __GSHandlerCheck
	DD	08d0H
; Function compile flags: /Ogtpy
;	COMDAT randomx_argon2_fill_segment_ref
_TEXT	SEGMENT
tv520 = 96
instance$ = 96
position$ = 104
tv504 = 112
randomx_argon2_fill_segment_ref PROC			; COMDAT
; File D:\dev\francium_network\francium_agent\src\ext\randomx\repo\src\argon2_ref.c
; Line 111
$LN25:
; Line 119
	test	rcx, rcx
	je	$LN23@randomx_ar
	push	r14
	push	r15
	sub	rsp, 72					; 00000048H
; Line 123
	mov	QWORD PTR [rsp+104], rbx
	mov	r15, rdx
	mov	QWORD PTR [rsp+64], rbp
	xor	ebx, ebx
; Line 125
	mov	ebp, DWORD PTR [rdx]
	mov	r14, rcx
	mov	QWORD PTR [rsp+56], rsi
	test	ebp, ebp
	jne	SHORT $LN6@randomx_ar
	cmp	BYTE PTR [rdx+8], bl
	mov	eax, 2
	cmove	ebx, eax
$LN6@randomx_ar:
; Line 130
	movzx	r10d, BYTE PTR [rdx+8]
	mov	r9d, DWORD PTR [rdx+4]
	mov	eax, r10d
	mov	r8d, DWORD PTR [rcx+20]
; Line 133
	xor	edx, edx
	mov	ecx, DWORD PTR [rcx+24]
	mov	esi, r9d
	imul	eax, r8d
	imul	esi, ecx
	add	eax, ebx
	add	esi, eax
	mov	eax, esi
	div	ecx
	test	edx, edx
	jne	SHORT $LN7@randomx_ar
; Line 135
	dec	ecx
	add	ecx, esi
; Line 136
	jmp	SHORT $LN8@randomx_ar
$LN7@randomx_ar:
; Line 139
	lea	ecx, DWORD PTR [rsi-1]
$LN8@randomx_ar:
; Line 142
	cmp	ebx, r8d
	jae	$LN22@randomx_ar
; Line 165
	mov	QWORD PTR [rsp+48], rdi
	mov	QWORD PTR [rsp+40], r12
	mov	QWORD PTR [rsp+32], r13
	mov	r13, r9
	npad	8
$LL4@randomx_ar:
; Line 145
	mov	r12, QWORD PTR [r14]
	xor	edx, edx
	mov	eax, esi
	div	DWORD PTR [r14+24]
; Line 151
	lea	eax, DWORD PTR [rsi-1]
	cmp	edx, 1
	cmovne	eax, ecx
; Line 154
	mov	ecx, DWORD PTR [r14+28]
	mov	QWORD PTR tv504[rsp], rax
	xor	edx, edx
	shl	rax, 10
	add	rax, r12
	mov	QWORD PTR tv520[rsp], rax
	mov	r8, QWORD PTR [rax]
	mov	rax, r8
	shr	rax, 32					; 00000020H
	div	rcx
	mov	rdi, rdx
; Line 156
	test	ebp, ebp
	jne	SHORT $LN10@randomx_ar
	test	r10b, r10b
	cmove	rdi, r13
$LN10@randomx_ar:
; Line 165
	xor	r9d, r9d
	mov	DWORD PTR [r15+12], ebx
	cmp	rdi, r13
	mov	rdx, r15
	mov	rcx, r14
	sete	r9b
	call	randomx_argon2_index_alpha
	mov	edx, eax
; Line 172
	xor	r9d, r9d
	mov	eax, DWORD PTR [r14+24]
	imul	rax, rdi
	mov	r8d, esi
	add	rdx, rax
	shl	r8, 10
	shl	rdx, 10
	add	r8, r12
	add	rdx, r12
	cmp	DWORD PTR [r14+8], 16
	je	SHORT $LN2@randomx_ar
; Line 177
	test	ebp, ebp
	setne	r9b
$LN2@randomx_ar:
; Line 143
	mov	rcx, QWORD PTR tv520[rsp]
	call	fill_block
	mov	rcx, QWORD PTR tv504[rsp]
	inc	ebx
	movzx	r10d, BYTE PTR [r15+8]
	inc	ecx
	inc	esi
	cmp	ebx, DWORD PTR [r14+20]
	jb	$LL4@randomx_ar
; Line 142
	mov	r13, QWORD PTR [rsp+32]
	mov	r12, QWORD PTR [rsp+40]
	mov	rdi, QWORD PTR [rsp+48]
$LN22@randomx_ar:
	mov	rbp, QWORD PTR [rsp+64]
	mov	rbx, QWORD PTR [rsp+104]
	mov	rsi, QWORD PTR [rsp+56]
; Line 187
	add	rsp, 72					; 00000048H
	pop	r15
	pop	r14
$LN23@randomx_ar:
	ret	0
randomx_argon2_fill_segment_ref ENDP
_TEXT	ENDS
; Function compile flags: /Ogtpy
;	COMDAT rotr64
_TEXT	SEGMENT
w$ = 8
c$ = 16
rotr64	PROC						; COMDAT
; File D:\dev\francium_network\francium_agent\src\ext\randomx\repo\src\blake2\blake2-impl.h
; Line 72
	mov	rax, rcx
; Line 73
	mov	ecx, edx
	ror	rax, cl
; Line 74
	ret	0
rotr64	ENDP
_TEXT	ENDS
; Function compile flags: /Ogtpy
;	COMDAT fBlaMka
_TEXT	SEGMENT
x$ = 8
y$ = 16
fBlaMka	PROC						; COMDAT
; File D:\dev\francium_network\francium_agent\src\ext\randomx\repo\src\blake2\blamka-round-ref.h
; Line 44
	mov	eax, edx
	mov	r8d, ecx
; Line 45
	imul	r8, rax
	lea	rax, QWORD PTR [rcx+r8*2]
	add	rax, rdx
; Line 46
	ret	0
fBlaMka	ENDP
_TEXT	ENDS
; Function compile flags: /Ogtpy
;	COMDAT copy_block
_TEXT	SEGMENT
dst$ = 8
src$ = 16
copy_block PROC						; COMDAT
; File D:\dev\francium_network\francium_agent\src\ext\randomx\repo\src\argon2_ref.c
; Line 47
	mov	eax, 8
$LL3@copy_block:
	lea	rcx, QWORD PTR [rcx+128]
	movups	xmm0, XMMWORD PTR [rdx]
	lea	rdx, QWORD PTR [rdx+128]
	movups	XMMWORD PTR [rcx-128], xmm0
	movups	xmm1, XMMWORD PTR [rdx-112]
	movups	XMMWORD PTR [rcx-112], xmm1
	movups	xmm0, XMMWORD PTR [rdx-96]
	movups	XMMWORD PTR [rcx-96], xmm0
	movups	xmm1, XMMWORD PTR [rdx-80]
	movups	XMMWORD PTR [rcx-80], xmm1
	movups	xmm0, XMMWORD PTR [rdx-64]
	movups	XMMWORD PTR [rcx-64], xmm0
	movups	xmm1, XMMWORD PTR [rdx-48]
	movups	XMMWORD PTR [rcx-48], xmm1
	movups	xmm0, XMMWORD PTR [rdx-32]
	movups	XMMWORD PTR [rcx-32], xmm0
	movups	xmm1, XMMWORD PTR [rdx-16]
	movups	XMMWORD PTR [rcx-16], xmm1
	sub	rax, 1
	jne	SHORT $LL3@copy_block
; Line 48
	ret	0
copy_block ENDP
_TEXT	ENDS
; Function compile flags: /Ogtpy
;	COMDAT xor_block
_TEXT	SEGMENT
dst$ = 8
src$ = 16
xor_block PROC						; COMDAT
; File D:\dev\francium_network\francium_agent\src\ext\randomx\repo\src\argon2_ref.c
; Line 52
	lea	rax, QWORD PTR [rdx+1016]
	lea	r8, QWORD PTR [rcx+1016]
	cmp	rcx, rax
	ja	SHORT $LN10@xor_block
	cmp	r8, rdx
	jb	SHORT $LN10@xor_block
	sub	rdx, rcx
	mov	r8d, 128				; 00000080H
$LL8@xor_block:
; Line 53
	mov	rax, QWORD PTR [rdx+rcx]
	xor	QWORD PTR [rcx], rax
	lea	rcx, QWORD PTR [rcx+8]
	sub	r8, 1
	jne	SHORT $LL8@xor_block
; Line 55
	ret	0
$LN10@xor_block:
; Line 52
	lea	rax, QWORD PTR [rcx+16]
	sub	rdx, rcx
	mov	ecx, 16
	npad	1
$LL4@xor_block:
; Line 53
	movdqu	xmm0, XMMWORD PTR [rax-16]
	movdqu	xmm1, XMMWORD PTR [rdx+rax-16]
	movdqu	xmm2, XMMWORD PTR [rdx+rax]
	lea	rax, QWORD PTR [rax+64]
	pxor	xmm1, xmm0
	movdqu	XMMWORD PTR [rax-80], xmm1
	movdqu	xmm0, XMMWORD PTR [rax-64]
	movdqu	xmm1, XMMWORD PTR [rdx+rax-48]
	pxor	xmm2, xmm0
	movdqu	XMMWORD PTR [rax-64], xmm2
	movdqu	xmm0, XMMWORD PTR [rax-48]
	pxor	xmm1, xmm0
	movdqu	XMMWORD PTR [rax-48], xmm1
	movdqu	xmm0, XMMWORD PTR [rax-32]
	movdqu	xmm1, XMMWORD PTR [rdx+rax-32]
	pxor	xmm1, xmm0
	movdqu	XMMWORD PTR [rax-32], xmm1
	sub	rcx, 1
	jne	SHORT $LL4@xor_block
; Line 55
	ret	0
xor_block ENDP
_TEXT	ENDS
; Function compile flags: /Ogtpy
;	COMDAT fill_block
_TEXT	SEGMENT
i$1$ = 0
i$2$ = 4
y$1$ = 8
tv6637 = 8
y$1$ = 16
tv6684 = 16
tv6729 = 24
tv6633 = 24
tv6724 = 32
tv6678 = 32
y$1$ = 40
x$1$ = 40
y$1$ = 48
y$1$ = 48
y$1$ = 56
tv6722 = 56
tv6728 = 64
tv6680 = 64
tv6717 = 72
tv6636 = 72
y$1$ = 80
tv6685 = 80
x$1$ = 88
tv6634 = 88
x$1$ = 96
tv6715 = 96
y$1$ = 104
tv6721 = 104
x$1$ = 112
tv6727 = 112
tv6710 = 120
tv6635 = 120
y$1$ = 128
tv6690 = 128
y$1$ = 136
tv6686 = 136
x$1$ = 144
y$1$ = 144
x$1$ = 152
tv6708 = 152
tv6714 = 160
tv6688 = 160
tv6720 = 168
tv6691 = 168
x$1$ = 176
tv6731 = 176
tv6824 = 184
next_block$GSCopy$1$ = 192
blockR$ = 208
block_tmp$ = 1232
__$ArrayPad$ = 2256
prev_block$ = 2320
ref_block$ = 2328
next_block$ = 2336
with_xor$ = 2344
fill_block PROC						; COMDAT
; File D:\dev\francium_network\francium_agent\src\ext\randomx\repo\src\argon2_ref.c
; Line 67
	mov	QWORD PTR [rsp+8], rbx
	mov	QWORD PTR [rsp+16], rsi
	mov	QWORD PTR [rsp+32], rdi
	push	rbp
	push	r12
	push	r13
	push	r14
	push	r15
	lea	rbp, QWORD PTR [rsp-2016]
	sub	rsp, 2272				; 000008e0H
	mov	rax, QWORD PTR __security_cookie
	xor	rax, rsp
	mov	QWORD PTR __$ArrayPad$[rbp-256], rax
	mov	rbx, r8
; Line 47
	lea	rax, QWORD PTR blockR$[rbp-256]
	mov	r10d, 8
; Line 67
	mov	QWORD PTR next_block$GSCopy$1$[rbp-256], rbx
; Line 47
	mov	r11d, r10d
; Line 67
	mov	edi, r9d
	mov	r8, rcx
$LL366@fill_block:
; Line 47
	lea	rax, QWORD PTR [rax+128]
	movups	xmm0, XMMWORD PTR [rdx]
	movups	xmm1, XMMWORD PTR [rdx+16]
	lea	rdx, QWORD PTR [rdx+128]
	movups	XMMWORD PTR [rax-128], xmm0
	movups	xmm0, XMMWORD PTR [rdx-96]
	movups	XMMWORD PTR [rax-112], xmm1
	movups	xmm1, XMMWORD PTR [rdx-80]
	movups	XMMWORD PTR [rax-96], xmm0
	movups	xmm0, XMMWORD PTR [rdx-64]
	movups	XMMWORD PTR [rax-80], xmm1
	movups	xmm1, XMMWORD PTR [rdx-48]
	movups	XMMWORD PTR [rax-64], xmm0
	movups	xmm0, XMMWORD PTR [rdx-32]
	movups	XMMWORD PTR [rax-48], xmm1
	movups	xmm1, XMMWORD PTR [rdx-16]
	movups	XMMWORD PTR [rax-32], xmm0
	movups	XMMWORD PTR [rax-16], xmm1
	sub	r11, 1
	jne	SHORT $LL366@fill_block
; Line 67
	mov	edx, 32					; 00000020H
	lea	r9, QWORD PTR blockR$[rbp-256]
	sub	r9, r8
	mov	QWORD PTR tv6824[rbp-256], rdx
	add	rcx, 16
	lea	r11, QWORD PTR blockR$[rbp-248]
	sub	r11, r8
	mov	r8d, edx
$LL334@fill_block:
; Line 53
	mov	rax, QWORD PTR [rcx-16]
	xor	QWORD PTR [r9+rcx-16], rax
	mov	rax, QWORD PTR [rcx-8]
	xor	QWORD PTR [r11+rcx-16], rax
	mov	rax, QWORD PTR [rcx]
	xor	QWORD PTR [r9+rcx], rax
	mov	rax, QWORD PTR [rcx+8]
	xor	QWORD PTR [rcx+r11], rax
	lea	rcx, QWORD PTR [rcx+32]
	sub	r8, 1
	jne	SHORT $LL334@fill_block
; Line 47
	lea	rax, QWORD PTR block_tmp$[rbp-256]
	lea	rcx, QWORD PTR blockR$[rbp-256]
	npad	7
$LL365@fill_block:
	lea	rax, QWORD PTR [rax+128]
	movups	xmm0, XMMWORD PTR [rcx]
	movups	xmm1, XMMWORD PTR [rcx+16]
	lea	rcx, QWORD PTR [rcx+128]
	movups	XMMWORD PTR [rax-128], xmm0
	movups	xmm0, XMMWORD PTR [rcx-96]
	movups	XMMWORD PTR [rax-112], xmm1
	movups	xmm1, XMMWORD PTR [rcx-80]
	movups	XMMWORD PTR [rax-96], xmm0
	movups	xmm0, XMMWORD PTR [rcx-64]
	movups	XMMWORD PTR [rax-80], xmm1
	movups	xmm1, XMMWORD PTR [rcx-48]
	movups	XMMWORD PTR [rax-64], xmm0
	movups	xmm0, XMMWORD PTR [rcx-32]
	movups	XMMWORD PTR [rax-48], xmm1
	movups	xmm1, XMMWORD PTR [rcx-16]
	movups	XMMWORD PTR [rax-32], xmm0
	movups	XMMWORD PTR [rax-16], xmm1
	sub	r10, 1
	jne	SHORT $LL365@fill_block
; Line 75
	test	edi, edi
	je	SHORT $LN357@fill_block
	lea	r8, QWORD PTR block_tmp$[rbp-256]
	sub	r8, rbx
	lea	r9, QWORD PTR block_tmp$[rbp-248]
	sub	r9, rbx
	lea	rcx, QWORD PTR [rbx+16]
	npad	1
$LL339@fill_block:
; Line 53
	mov	rax, QWORD PTR [rcx-16]
	xor	QWORD PTR [r8+rcx-16], rax
	mov	rax, QWORD PTR [rcx-8]
	xor	QWORD PTR [r9+rcx-16], rax
	mov	rax, QWORD PTR [rcx]
	xor	QWORD PTR [rcx+r8], rax
	mov	rax, QWORD PTR [rcx+8]
	xor	QWORD PTR [rcx+r9], rax
	lea	rcx, QWORD PTR [rcx+32]
	sub	rdx, 1
	jne	SHORT $LL339@fill_block
$LN357@fill_block:
; Line 84
	xor	eax, eax
	mov	DWORD PTR i$2$[rsp], eax
	mov	DWORD PTR i$1$[rsp], eax
	npad	12
$LL4@fill_block:
; Line 85
	shl	eax, 4
	mov	r10d, eax
	lea	ecx, DWORD PTR [rax+4]
	lea	rax, QWORD PTR blockR$[rbp-256]
	mov	r11, QWORD PTR [rax+rcx*8]
	lea	rax, QWORD PTR [rax+rcx*8]
	mov	QWORD PTR tv6731[rbp-256], rax
	lea	rax, QWORD PTR blockR$[rbp-256]
	mov	rdx, QWORD PTR [rax+r10*8]
	lea	rax, QWORD PTR [rax+r10*8]
	mov	QWORD PTR tv6729[rsp], rax
; File D:\dev\francium_network\francium_agent\src\ext\randomx\repo\src\blake2\blamka-round-ref.h
; Line 44
	mov	eax, r11d
	mov	ecx, edx
; Line 45
	imul	rcx, rax
; File D:\dev\francium_network\francium_agent\src\ext\randomx\repo\src\argon2_ref.c
; Line 85
	lea	rax, QWORD PTR blockR$[rbp-256]
; File D:\dev\francium_network\francium_agent\src\ext\randomx\repo\src\blake2\blamka-round-ref.h
; Line 45
	lea	r8, QWORD PTR [rdx+rcx*2]
	add	r8, r11
; File D:\dev\francium_network\francium_agent\src\ext\randomx\repo\src\argon2_ref.c
; Line 85
	lea	ecx, DWORD PTR [r10+12]
	lea	rax, QWORD PTR [rax+rcx*8]
	mov	r9, r8
	xor	r9, QWORD PTR [rax]
	lea	ecx, DWORD PTR [r10+8]
	mov	QWORD PTR tv6728[rsp], rax
	lea	rax, QWORD PTR blockR$[rbp-256]
	mov	rdx, QWORD PTR [rax+rcx*8]
	lea	rax, QWORD PTR [rax+rcx*8]
	mov	QWORD PTR tv6727[rsp], rax
; File D:\dev\francium_network\francium_agent\src\ext\randomx\repo\src\blake2\blake2-impl.h
; Line 73
	ror	r9, 32					; 00000020H
; File D:\dev\francium_network\francium_agent\src\ext\randomx\repo\src\blake2\blamka-round-ref.h
; Line 44
	mov	ecx, edx
	mov	eax, r9d
; Line 45
	imul	rcx, rax
	lea	rdx, QWORD PTR [rdx+rcx*2]
; Line 44
	mov	ecx, r8d
; Line 45
	add	rdx, r9
; File D:\dev\francium_network\francium_agent\src\ext\randomx\repo\src\argon2_ref.c
; Line 85
	xor	r11, rdx
; File D:\dev\francium_network\francium_agent\src\ext\randomx\repo\src\blake2\blake2-impl.h
; Line 73
	ror	r11, 24
; File D:\dev\francium_network\francium_agent\src\ext\randomx\repo\src\blake2\blamka-round-ref.h
; Line 44
	mov	eax, r11d
; Line 45
	imul	rcx, rax
	lea	r13, QWORD PTR [r8+rcx*2]
; Line 44
	mov	ecx, edx
; Line 45
	add	r13, r11
; File D:\dev\francium_network\francium_agent\src\ext\randomx\repo\src\argon2_ref.c
; Line 85
	xor	r9, r13
; File D:\dev\francium_network\francium_agent\src\ext\randomx\repo\src\blake2\blake2-impl.h
; Line 73
	ror	r9, 16
; File D:\dev\francium_network\francium_agent\src\ext\randomx\repo\src\blake2\blamka-round-ref.h
; Line 44
	mov	eax, r9d
; Line 45
	imul	rcx, rax
; File D:\dev\francium_network\francium_agent\src\ext\randomx\repo\src\blake2\blake2-impl.h
; Line 73
	mov	QWORD PTR y$1$[rsp], r9
; File D:\dev\francium_network\francium_agent\src\ext\randomx\repo\src\blake2\blamka-round-ref.h
; Line 45
	lea	rax, QWORD PTR [rdx+rcx*2]
	add	rax, r9
; File D:\dev\francium_network\francium_agent\src\ext\randomx\repo\src\argon2_ref.c
; Line 85
	lea	ecx, DWORD PTR [r10+5]
	xor	r11, rax
; File D:\dev\francium_network\francium_agent\src\ext\randomx\repo\src\blake2\blamka-round-ref.h
; Line 45
	mov	QWORD PTR x$1$[rsp], rax
; File D:\dev\francium_network\francium_agent\src\ext\randomx\repo\src\blake2\blake2-impl.h
; Line 73
	rol	r11, 1
; File D:\dev\francium_network\francium_agent\src\ext\randomx\repo\src\argon2_ref.c
; Line 85
	lea	rax, QWORD PTR blockR$[rbp-256]
	mov	r9, QWORD PTR [rax+rcx*8]
	lea	rax, QWORD PTR [rax+rcx*8]
	mov	QWORD PTR tv6724[rsp], rax
	lea	ecx, DWORD PTR [r10+1]
; File D:\dev\francium_network\francium_agent\src\ext\randomx\repo\src\blake2\blake2-impl.h
; Line 73
	mov	QWORD PTR y$1$[rbp-256], r11
; File D:\dev\francium_network\francium_agent\src\ext\randomx\repo\src\argon2_ref.c
; Line 85
	lea	rax, QWORD PTR blockR$[rbp-256]
	mov	rdx, QWORD PTR [rax+rcx*8]
	lea	rax, QWORD PTR [rax+rcx*8]
	mov	QWORD PTR tv6722[rsp], rax
; File D:\dev\francium_network\francium_agent\src\ext\randomx\repo\src\blake2\blamka-round-ref.h
; Line 44
	mov	ecx, edx
	mov	eax, r9d
; Line 45
	imul	rcx, rax
; File D:\dev\francium_network\francium_agent\src\ext\randomx\repo\src\argon2_ref.c
; Line 85
	lea	rax, QWORD PTR blockR$[rbp-256]
; File D:\dev\francium_network\francium_agent\src\ext\randomx\repo\src\blake2\blamka-round-ref.h
; Line 45
	lea	r8, QWORD PTR [rdx+rcx*2]
; File D:\dev\francium_network\francium_agent\src\ext\randomx\repo\src\argon2_ref.c
; Line 85
	lea	ecx, DWORD PTR [r10+13]
; File D:\dev\francium_network\francium_agent\src\ext\randomx\repo\src\blake2\blamka-round-ref.h
; Line 45
	add	r8, r9
; File D:\dev\francium_network\francium_agent\src\ext\randomx\repo\src\argon2_ref.c
; Line 85
	lea	rax, QWORD PTR [rax+rcx*8]
	mov	r11, r8
	xor	r11, QWORD PTR [rax]
	lea	ecx, DWORD PTR [r10+9]
	mov	QWORD PTR tv6721[rsp], rax
	lea	rax, QWORD PTR blockR$[rbp-256]
	mov	rdx, QWORD PTR [rax+rcx*8]
	lea	rax, QWORD PTR [rax+rcx*8]
; File D:\dev\francium_network\francium_agent\src\ext\randomx\repo\src\blake2\blake2-impl.h
; Line 73
	ror	r11, 32					; 00000020H
; File D:\dev\francium_network\francium_agent\src\ext\randomx\repo\src\argon2_ref.c
; Line 85
	mov	QWORD PTR tv6720[rbp-256], rax
; File D:\dev\francium_network\francium_agent\src\ext\randomx\repo\src\blake2\blamka-round-ref.h
; Line 44
	mov	ecx, edx
	mov	eax, r11d
; Line 45
	imul	rcx, rax
; File D:\dev\francium_network\francium_agent\src\ext\randomx\repo\src\argon2_ref.c
; Line 85
	lea	rsi, QWORD PTR blockR$[rbp-256]
; File D:\dev\francium_network\francium_agent\src\ext\randomx\repo\src\blake2\blamka-round-ref.h
; Line 45
	lea	rdx, QWORD PTR [rdx+rcx*2]
; Line 44
	mov	ecx, r8d
; Line 45
	add	rdx, r11
; File D:\dev\francium_network\francium_agent\src\ext\randomx\repo\src\argon2_ref.c
; Line 85
	xor	r9, rdx
; File D:\dev\francium_network\francium_agent\src\ext\randomx\repo\src\blake2\blake2-impl.h
; Line 73
	ror	r9, 24
; File D:\dev\francium_network\francium_agent\src\ext\randomx\repo\src\blake2\blamka-round-ref.h
; Line 44
	mov	eax, r9d
; Line 45
	imul	rcx, rax
	lea	r12, QWORD PTR [r8+rcx*2]
; Line 44
	mov	ecx, edx
; Line 45
	add	r12, r9
; File D:\dev\francium_network\francium_agent\src\ext\randomx\repo\src\argon2_ref.c
; Line 85
	xor	r11, r12
; File D:\dev\francium_network\francium_agent\src\ext\randomx\repo\src\blake2\blake2-impl.h
; Line 73
	ror	r11, 16
; File D:\dev\francium_network\francium_agent\src\ext\randomx\repo\src\blake2\blamka-round-ref.h
; Line 44
	mov	eax, r11d
; Line 45
	imul	rcx, rax
; File D:\dev\francium_network\francium_agent\src\ext\randomx\repo\src\blake2\blake2-impl.h
; Line 73
	mov	QWORD PTR y$1$[rsp], r11
; File D:\dev\francium_network\francium_agent\src\ext\randomx\repo\src\blake2\blamka-round-ref.h
; Line 45
	lea	rax, QWORD PTR [rdx+rcx*2]
	add	rax, r11
; File D:\dev\francium_network\francium_agent\src\ext\randomx\repo\src\argon2_ref.c
; Line 85
	lea	ecx, DWORD PTR [r10+6]
	xor	r9, rax
; File D:\dev\francium_network\francium_agent\src\ext\randomx\repo\src\blake2\blamka-round-ref.h
; Line 45
	mov	QWORD PTR x$1$[rbp-256], rax
; File D:\dev\francium_network\francium_agent\src\ext\randomx\repo\src\blake2\blake2-impl.h
; Line 73
	rol	r9, 1
; File D:\dev\francium_network\francium_agent\src\ext\randomx\repo\src\argon2_ref.c
; Line 85
	lea	rax, QWORD PTR blockR$[rbp-256]
	lea	rax, QWORD PTR [rax+rcx*8]
; File D:\dev\francium_network\francium_agent\src\ext\randomx\repo\src\blake2\blake2-impl.h
; Line 73
	mov	QWORD PTR y$1$[rsp], r9
; File D:\dev\francium_network\francium_agent\src\ext\randomx\repo\src\argon2_ref.c
; Line 85
	mov	r9, QWORD PTR [rax]
	lea	ecx, DWORD PTR [r10+2]
	mov	QWORD PTR tv6717[rsp], rax
	lea	rax, QWORD PTR blockR$[rbp-256]
	mov	rdx, QWORD PTR [rax+rcx*8]
	lea	rax, QWORD PTR [rax+rcx*8]
	mov	QWORD PTR tv6715[rsp], rax
; File D:\dev\francium_network\francium_agent\src\ext\randomx\repo\src\blake2\blamka-round-ref.h
; Line 44
	mov	eax, r9d
	mov	ecx, edx
; Line 45
	imul	rcx, rax
; File D:\dev\francium_network\francium_agent\src\ext\randomx\repo\src\argon2_ref.c
; Line 85
	lea	rax, QWORD PTR blockR$[rbp-256]
; File D:\dev\francium_network\francium_agent\src\ext\randomx\repo\src\blake2\blamka-round-ref.h
; Line 45
	lea	r8, QWORD PTR [rdx+rcx*2]
	add	r8, r9
; File D:\dev\francium_network\francium_agent\src\ext\randomx\repo\src\argon2_ref.c
; Line 85
	lea	ecx, DWORD PTR [r10+14]
	lea	rax, QWORD PTR [rax+rcx*8]
	mov	r11, r8
	xor	r11, QWORD PTR [rax]
	mov	QWORD PTR tv6714[rbp-256], rax
	lea	eax, DWORD PTR [r10+10]
	mov	rdx, QWORD PTR [rsi+rax*8]
	lea	rsi, QWORD PTR [rsi+rax*8]
; File D:\dev\francium_network\francium_agent\src\ext\randomx\repo\src\blake2\blake2-impl.h
; Line 73
	ror	r11, 32					; 00000020H
; File D:\dev\francium_network\francium_agent\src\ext\randomx\repo\src\blake2\blamka-round-ref.h
; Line 44
	mov	eax, r11d
	mov	ecx, edx
; Line 45
	imul	rcx, rax
	lea	rdx, QWORD PTR [rdx+rcx*2]
; Line 44
	mov	ecx, r8d
; Line 45
	add	rdx, r11
; File D:\dev\francium_network\francium_agent\src\ext\randomx\repo\src\argon2_ref.c
; Line 85
	xor	r9, rdx
; File D:\dev\francium_network\francium_agent\src\ext\randomx\repo\src\blake2\blake2-impl.h
; Line 73
	ror	r9, 24
; File D:\dev\francium_network\francium_agent\src\ext\randomx\repo\src\blake2\blamka-round-ref.h
; Line 44
	mov	eax, r9d
; Line 45
	imul	rcx, rax
	lea	r15, QWORD PTR [r8+rcx*2]
; Line 44
	mov	ecx, edx
; Line 45
	add	r15, r9
; File D:\dev\francium_network\francium_agent\src\ext\randomx\repo\src\argon2_ref.c
; Line 85
	xor	r11, r15
; File D:\dev\francium_network\francium_agent\src\ext\randomx\repo\src\blake2\blake2-impl.h
; Line 73
	ror	r11, 16
; File D:\dev\francium_network\francium_agent\src\ext\randomx\repo\src\blake2\blamka-round-ref.h
; Line 44
	mov	eax, r11d
; Line 45
	imul	rcx, rax
; File D:\dev\francium_network\francium_agent\src\ext\randomx\repo\src\blake2\blake2-impl.h
; Line 73
	mov	QWORD PTR y$1$[rbp-256], r11
; File D:\dev\francium_network\francium_agent\src\ext\randomx\repo\src\blake2\blamka-round-ref.h
; Line 45
	lea	rax, QWORD PTR [rdx+rcx*2]
	add	r11, rax
; File D:\dev\francium_network\francium_agent\src\ext\randomx\repo\src\argon2_ref.c
; Line 85
	lea	ecx, DWORD PTR [r10+7]
	lea	rax, QWORD PTR blockR$[rbp-256]
	xor	r9, r11
	mov	r14, QWORD PTR [rax+rcx*8]
	lea	rax, QWORD PTR [rax+rcx*8]
	mov	QWORD PTR tv6710[rsp], rax
	lea	ecx, DWORD PTR [r10+3]
	lea	rax, QWORD PTR blockR$[rbp-256]
; File D:\dev\francium_network\francium_agent\src\ext\randomx\repo\src\blake2\blake2-impl.h
; Line 73
	rol	r9, 1
; File D:\dev\francium_network\francium_agent\src\ext\randomx\repo\src\argon2_ref.c
; Line 85
	mov	rdx, QWORD PTR [rax+rcx*8]
	lea	rax, QWORD PTR [rax+rcx*8]
	mov	QWORD PTR tv6708[rbp-256], rax
; File D:\dev\francium_network\francium_agent\src\ext\randomx\repo\src\blake2\blake2-impl.h
; Line 73
	mov	QWORD PTR y$1$[rsp], r9
; File D:\dev\francium_network\francium_agent\src\ext\randomx\repo\src\blake2\blamka-round-ref.h
; Line 44
	mov	ecx, edx
; File D:\dev\francium_network\francium_agent\src\ext\randomx\repo\src\argon2_ref.c
; Line 85
	lea	r9, QWORD PTR blockR$[rbp-256]
; File D:\dev\francium_network\francium_agent\src\ext\randomx\repo\src\blake2\blamka-round-ref.h
; Line 44
	mov	eax, r14d
; File D:\dev\francium_network\francium_agent\src\ext\randomx\repo\src\argon2_ref.c
; Line 85
	lea	rdi, QWORD PTR blockR$[rbp-256]
; File D:\dev\francium_network\francium_agent\src\ext\randomx\repo\src\blake2\blamka-round-ref.h
; Line 45
	imul	rcx, rax
; File D:\dev\francium_network\francium_agent\src\ext\randomx\repo\src\argon2_ref.c
; Line 85
	lea	eax, DWORD PTR [r10+15]
	lea	r9, QWORD PTR [r9+rax*8]
	lea	eax, DWORD PTR [r10+11]
	lea	rdi, QWORD PTR [rdi+rax*8]
; File D:\dev\francium_network\francium_agent\src\ext\randomx\repo\src\blake2\blamka-round-ref.h
; Line 45
	lea	r8, QWORD PTR [rdx+rcx*2]
; File D:\dev\francium_network\francium_agent\src\ext\randomx\repo\src\argon2_ref.c
; Line 85
	mov	rdx, QWORD PTR [rdi]
; File D:\dev\francium_network\francium_agent\src\ext\randomx\repo\src\blake2\blamka-round-ref.h
; Line 45
	add	r8, r14
; Line 44
	mov	ecx, edx
; File D:\dev\francium_network\francium_agent\src\ext\randomx\repo\src\argon2_ref.c
; Line 85
	mov	rbx, r8
	xor	rbx, QWORD PTR [r9]
; File D:\dev\francium_network\francium_agent\src\ext\randomx\repo\src\blake2\blake2-impl.h
; Line 73
	ror	rbx, 32					; 00000020H
; File D:\dev\francium_network\francium_agent\src\ext\randomx\repo\src\blake2\blamka-round-ref.h
; Line 44
	mov	eax, ebx
; Line 45
	imul	rcx, rax
	lea	rdx, QWORD PTR [rdx+rcx*2]
; Line 44
	mov	ecx, r8d
; Line 45
	add	rdx, rbx
; File D:\dev\francium_network\francium_agent\src\ext\randomx\repo\src\argon2_ref.c
; Line 85
	xor	r14, rdx
; File D:\dev\francium_network\francium_agent\src\ext\randomx\repo\src\blake2\blake2-impl.h
; Line 73
	ror	r14, 24
; File D:\dev\francium_network\francium_agent\src\ext\randomx\repo\src\blake2\blamka-round-ref.h
; Line 44
	mov	eax, r14d
; Line 45
	imul	rcx, rax
; File D:\dev\francium_network\francium_agent\src\ext\randomx\repo\src\blake2\blake2-impl.h
; Line 73
	mov	QWORD PTR y$1$[rsp], r14
; File D:\dev\francium_network\francium_agent\src\ext\randomx\repo\src\blake2\blamka-round-ref.h
; Line 45
	lea	rax, QWORD PTR [r8+rcx*2]
; Line 44
	mov	ecx, edx
; Line 45
	add	r14, rax
; File D:\dev\francium_network\francium_agent\src\ext\randomx\repo\src\argon2_ref.c
; Line 85
	xor	rbx, r14
; File D:\dev\francium_network\francium_agent\src\ext\randomx\repo\src\blake2\blake2-impl.h
; Line 73
	ror	rbx, 16
; File D:\dev\francium_network\francium_agent\src\ext\randomx\repo\src\blake2\blamka-round-ref.h
; Line 44
	mov	eax, ebx
; Line 45
	imul	rcx, rax
; File D:\dev\francium_network\francium_agent\src\ext\randomx\repo\src\argon2_ref.c
; Line 85
	mov	rax, QWORD PTR y$1$[rsp]
; File D:\dev\francium_network\francium_agent\src\ext\randomx\repo\src\blake2\blamka-round-ref.h
; Line 45
	lea	r10, QWORD PTR [rdx+rcx*2]
; Line 44
	mov	ecx, r13d
; Line 45
	add	r10, rbx
; File D:\dev\francium_network\francium_agent\src\ext\randomx\repo\src\argon2_ref.c
; Line 85
	xor	rax, r10
; File D:\dev\francium_network\francium_agent\src\ext\randomx\repo\src\blake2\blake2-impl.h
; Line 73
	rol	rax, 1
	mov	QWORD PTR y$1$[rsp], rax
; File D:\dev\francium_network\francium_agent\src\ext\randomx\repo\src\blake2\blamka-round-ref.h
; Line 44
	mov	eax, DWORD PTR y$1$[rsp]
; Line 45
	imul	rcx, rax
	lea	rdx, QWORD PTR [rcx*2]
; Line 44
	mov	ecx, r11d
; Line 45
	add	rdx, r13
	mov	r13, QWORD PTR y$1$[rsp]
	add	rdx, r13
; File D:\dev\francium_network\francium_agent\src\ext\randomx\repo\src\argon2_ref.c
; Line 85
	xor	rbx, rdx
; File D:\dev\francium_network\francium_agent\src\ext\randomx\repo\src\blake2\blake2-impl.h
; Line 73
	ror	rbx, 32					; 00000020H
; File D:\dev\francium_network\francium_agent\src\ext\randomx\repo\src\blake2\blamka-round-ref.h
; Line 44
	mov	eax, ebx
; Line 45
	imul	rcx, rax
	lea	r8, QWORD PTR [r11+rcx*2]
; Line 44
	mov	r11, QWORD PTR y$1$[rsp]
; Line 45
	add	r8, rbx
; Line 44
	mov	ecx, edx
; File D:\dev\francium_network\francium_agent\src\ext\randomx\repo\src\argon2_ref.c
; Line 85
	xor	r13, r8
; File D:\dev\francium_network\francium_agent\src\ext\randomx\repo\src\blake2\blake2-impl.h
; Line 73
	ror	r13, 24
; File D:\dev\francium_network\francium_agent\src\ext\randomx\repo\src\blake2\blamka-round-ref.h
; Line 44
	mov	eax, r13d
; Line 45
	imul	rcx, rax
; File D:\dev\francium_network\francium_agent\src\ext\randomx\repo\src\argon2_ref.c
; Line 85
	mov	rax, QWORD PTR tv6729[rsp]
; File D:\dev\francium_network\francium_agent\src\ext\randomx\repo\src\blake2\blamka-round-ref.h
; Line 45
	lea	rcx, QWORD PTR [rdx+rcx*2]
	add	rcx, r13
; File D:\dev\francium_network\francium_agent\src\ext\randomx\repo\src\argon2_ref.c
; Line 85
	mov	QWORD PTR [rax], rcx
	xor	rbx, rcx
; File D:\dev\francium_network\francium_agent\src\ext\randomx\repo\src\blake2\blake2-impl.h
; Line 73
	ror	rbx, 16
; File D:\dev\francium_network\francium_agent\src\ext\randomx\repo\src\blake2\blamka-round-ref.h
; Line 44
	mov	eax, ebx
	mov	ecx, r8d
; Line 45
	imul	rcx, rax
; File D:\dev\francium_network\francium_agent\src\ext\randomx\repo\src\argon2_ref.c
; Line 85
	mov	rax, QWORD PTR tv6724[rsp]
	mov	QWORD PTR [r9], rbx
; File D:\dev\francium_network\francium_agent\src\ext\randomx\repo\src\blake2\blamka-round-ref.h
; Line 45
	lea	rcx, QWORD PTR [r8+rcx*2]
	add	rcx, rbx
; File D:\dev\francium_network\francium_agent\src\ext\randomx\repo\src\argon2_ref.c
; Line 85
	xor	r13, rcx
	mov	QWORD PTR [rsi], rcx
; File D:\dev\francium_network\francium_agent\src\ext\randomx\repo\src\blake2\blake2-impl.h
; Line 73
	rol	r13, 1
; File D:\dev\francium_network\francium_agent\src\ext\randomx\repo\src\argon2_ref.c
; Line 85
	mov	QWORD PTR [rax], r13
; File D:\dev\francium_network\francium_agent\src\ext\randomx\repo\src\blake2\blamka-round-ref.h
; Line 44
	mov	eax, r11d
	mov	ecx, r12d
; Line 45
	imul	rcx, rax
	lea	rdx, QWORD PTR [r12+rcx*2]
	add	rdx, r11
; Line 44
	mov	ecx, r10d
; File D:\dev\francium_network\francium_agent\src\ext\randomx\repo\src\argon2_ref.c
; Line 85
	mov	r9, rdx
	xor	r9, QWORD PTR y$1$[rsp]
; File D:\dev\francium_network\francium_agent\src\ext\randomx\repo\src\blake2\blake2-impl.h
; Line 73
	ror	r9, 32					; 00000020H
; File D:\dev\francium_network\francium_agent\src\ext\randomx\repo\src\blake2\blamka-round-ref.h
; Line 44
	mov	eax, r9d
; Line 45
	imul	rcx, rax
	lea	r8, QWORD PTR [r10+rcx*2]
; File D:\dev\francium_network\francium_agent\src\ext\randomx\repo\src\argon2_ref.c
; Line 85
	mov	r10, QWORD PTR y$1$[rsp]
; File D:\dev\francium_network\francium_agent\src\ext\randomx\repo\src\blake2\blamka-round-ref.h
; Line 45
	add	r8, r9
; Line 44
	mov	ecx, edx
; File D:\dev\francium_network\francium_agent\src\ext\randomx\repo\src\argon2_ref.c
; Line 85
	xor	r11, r8
; File D:\dev\francium_network\francium_agent\src\ext\randomx\repo\src\blake2\blake2-impl.h
; Line 73
	ror	r11, 24
; File D:\dev\francium_network\francium_agent\src\ext\randomx\repo\src\blake2\blamka-round-ref.h
; Line 44
	mov	eax, r11d
; Line 45
	imul	rcx, rax
; File D:\dev\francium_network\francium_agent\src\ext\randomx\repo\src\argon2_ref.c
; Line 85
	mov	rax, QWORD PTR tv6722[rsp]
; File D:\dev\francium_network\francium_agent\src\ext\randomx\repo\src\blake2\blamka-round-ref.h
; Line 45
	lea	rcx, QWORD PTR [rdx+rcx*2]
	add	rcx, r11
; File D:\dev\francium_network\francium_agent\src\ext\randomx\repo\src\argon2_ref.c
; Line 85
	mov	QWORD PTR [rax], rcx
	xor	r9, rcx
	mov	rax, QWORD PTR tv6728[rsp]
; File D:\dev\francium_network\francium_agent\src\ext\randomx\repo\src\blake2\blake2-impl.h
; Line 73
	ror	r9, 16
; File D:\dev\francium_network\francium_agent\src\ext\randomx\repo\src\blake2\blamka-round-ref.h
; Line 44
	mov	ecx, r8d
; File D:\dev\francium_network\francium_agent\src\ext\randomx\repo\src\argon2_ref.c
; Line 85
	mov	QWORD PTR [rax], r9
; File D:\dev\francium_network\francium_agent\src\ext\randomx\repo\src\blake2\blamka-round-ref.h
; Line 44
	mov	eax, r9d
; Line 45
	imul	rcx, rax
; File D:\dev\francium_network\francium_agent\src\ext\randomx\repo\src\argon2_ref.c
; Line 85
	mov	rax, QWORD PTR tv6717[rsp]
; File D:\dev\francium_network\francium_agent\src\ext\randomx\repo\src\blake2\blamka-round-ref.h
; Line 45
	lea	rcx, QWORD PTR [r8+rcx*2]
; Line 44
	mov	r8, QWORD PTR x$1$[rsp]
; Line 45
	add	rcx, r9
; Line 44
	mov	r9, QWORD PTR y$1$[rsp]
; File D:\dev\francium_network\francium_agent\src\ext\randomx\repo\src\argon2_ref.c
; Line 85
	xor	r11, rcx
	mov	QWORD PTR [rdi], rcx
; File D:\dev\francium_network\francium_agent\src\ext\randomx\repo\src\blake2\blake2-impl.h
; Line 73
	rol	r11, 1
; File D:\dev\francium_network\francium_agent\src\ext\randomx\repo\src\argon2_ref.c
; Line 85
	mov	QWORD PTR [rax], r11
; File D:\dev\francium_network\francium_agent\src\ext\randomx\repo\src\blake2\blamka-round-ref.h
; Line 44
	mov	r11, QWORD PTR y$1$[rbp-256]
	mov	eax, r9d
	mov	ecx, r15d
; Line 45
	imul	rcx, rax
	lea	rdx, QWORD PTR [r15+rcx*2]
; Line 44
	mov	ecx, r8d
; Line 45
	add	rdx, r9
; File D:\dev\francium_network\francium_agent\src\ext\randomx\repo\src\argon2_ref.c
; Line 85
	xor	r10, rdx
; File D:\dev\francium_network\francium_agent\src\ext\randomx\repo\src\blake2\blake2-impl.h
; Line 73
	ror	r10, 32					; 00000020H
; File D:\dev\francium_network\francium_agent\src\ext\randomx\repo\src\blake2\blamka-round-ref.h
; Line 44
	mov	eax, r10d
; Line 45
	imul	rcx, rax
	lea	r8, QWORD PTR [r8+rcx*2]
; Line 44
	mov	ecx, edx
; Line 45
	add	r8, r10
; File D:\dev\francium_network\francium_agent\src\ext\randomx\repo\src\argon2_ref.c
; Line 85
	xor	r9, r8
; File D:\dev\francium_network\francium_agent\src\ext\randomx\repo\src\blake2\blake2-impl.h
; Line 73
	ror	r9, 24
; File D:\dev\francium_network\francium_agent\src\ext\randomx\repo\src\blake2\blamka-round-ref.h
; Line 44
	mov	eax, r9d
; Line 45
	imul	rcx, rax
; File D:\dev\francium_network\francium_agent\src\ext\randomx\repo\src\argon2_ref.c
; Line 85
	mov	rax, QWORD PTR tv6715[rsp]
; File D:\dev\francium_network\francium_agent\src\ext\randomx\repo\src\blake2\blamka-round-ref.h
; Line 45
	lea	rcx, QWORD PTR [rdx+rcx*2]
	add	rcx, r9
; File D:\dev\francium_network\francium_agent\src\ext\randomx\repo\src\argon2_ref.c
; Line 85
	mov	QWORD PTR [rax], rcx
	xor	r10, rcx
	mov	rax, QWORD PTR tv6721[rsp]
; File D:\dev\francium_network\francium_agent\src\ext\randomx\repo\src\blake2\blake2-impl.h
; Line 73
	ror	r10, 16
; File D:\dev\francium_network\francium_agent\src\ext\randomx\repo\src\blake2\blamka-round-ref.h
; Line 44
	mov	ecx, r8d
; File D:\dev\francium_network\francium_agent\src\ext\randomx\repo\src\argon2_ref.c
; Line 85
	mov	QWORD PTR [rax], r10
; File D:\dev\francium_network\francium_agent\src\ext\randomx\repo\src\blake2\blamka-round-ref.h
; Line 44
	mov	eax, r10d
; Line 45
	imul	rcx, rax
; File D:\dev\francium_network\francium_agent\src\ext\randomx\repo\src\argon2_ref.c
; Line 85
	mov	rax, QWORD PTR tv6727[rsp]
; File D:\dev\francium_network\francium_agent\src\ext\randomx\repo\src\blake2\blamka-round-ref.h
; Line 45
	lea	rcx, QWORD PTR [r8+rcx*2]
; Line 44
	mov	r8, QWORD PTR x$1$[rbp-256]
; Line 45
	add	rcx, r10
; File D:\dev\francium_network\francium_agent\src\ext\randomx\repo\src\argon2_ref.c
; Line 85
	mov	r10, QWORD PTR y$1$[rbp-256]
	mov	QWORD PTR [rax], rcx
	xor	r9, rcx
	mov	rax, QWORD PTR tv6710[rsp]
; File D:\dev\francium_network\francium_agent\src\ext\randomx\repo\src\blake2\blake2-impl.h
; Line 73
	rol	r9, 1
; File D:\dev\francium_network\francium_agent\src\ext\randomx\repo\src\blake2\blamka-round-ref.h
; Line 44
	mov	ecx, r14d
; File D:\dev\francium_network\francium_agent\src\ext\randomx\repo\src\argon2_ref.c
; Line 85
	mov	QWORD PTR [rax], r9
; File D:\dev\francium_network\francium_agent\src\ext\randomx\repo\src\blake2\blamka-round-ref.h
; Line 44
	mov	eax, r11d
; Line 45
	imul	rcx, rax
	lea	rdx, QWORD PTR [r14+rcx*2]
; Line 44
	mov	ecx, r8d
; Line 45
	add	rdx, r11
; File D:\dev\francium_network\francium_agent\src\ext\randomx\repo\src\argon2_ref.c
; Line 85
	xor	r10, rdx
; File D:\dev\francium_network\francium_agent\src\ext\randomx\repo\src\blake2\blake2-impl.h
; Line 73
	ror	r10, 32					; 00000020H
; File D:\dev\francium_network\francium_agent\src\ext\randomx\repo\src\blake2\blamka-round-ref.h
; Line 44
	mov	eax, r10d
; Line 45
	imul	rcx, rax
	lea	r8, QWORD PTR [r8+rcx*2]
; Line 44
	mov	ecx, edx
; Line 45
	add	r8, r10
; File D:\dev\francium_network\francium_agent\src\ext\randomx\repo\src\argon2_ref.c
; Line 85
	mov	r9, r8
	xor	r9, r11
; File D:\dev\francium_network\francium_agent\src\ext\randomx\repo\src\blake2\blake2-impl.h
; Line 73
	ror	r9, 24
; File D:\dev\francium_network\francium_agent\src\ext\randomx\repo\src\blake2\blamka-round-ref.h
; Line 44
	mov	eax, r9d
; Line 45
	imul	rcx, rax
; File D:\dev\francium_network\francium_agent\src\ext\randomx\repo\src\argon2_ref.c
; Line 85
	mov	rax, QWORD PTR tv6708[rbp-256]
; File D:\dev\francium_network\francium_agent\src\ext\randomx\repo\src\blake2\blamka-round-ref.h
; Line 45
	lea	rcx, QWORD PTR [rdx+rcx*2]
	add	rcx, r9
; File D:\dev\francium_network\francium_agent\src\ext\randomx\repo\src\argon2_ref.c
; Line 85
	mov	QWORD PTR [rax], rcx
	xor	r10, rcx
	mov	rax, QWORD PTR tv6714[rbp-256]
; File D:\dev\francium_network\francium_agent\src\ext\randomx\repo\src\blake2\blake2-impl.h
; Line 73
	ror	r10, 16
; File D:\dev\francium_network\francium_agent\src\ext\randomx\repo\src\blake2\blamka-round-ref.h
; Line 44
	mov	ecx, r8d
; File D:\dev\francium_network\francium_agent\src\ext\randomx\repo\src\argon2_ref.c
; Line 85
	mov	QWORD PTR [rax], r10
; File D:\dev\francium_network\francium_agent\src\ext\randomx\repo\src\blake2\blamka-round-ref.h
; Line 44
	mov	eax, r10d
; Line 45
	imul	rcx, rax
; File D:\dev\francium_network\francium_agent\src\ext\randomx\repo\src\argon2_ref.c
; Line 85
	mov	rax, QWORD PTR tv6720[rbp-256]
; File D:\dev\francium_network\francium_agent\src\ext\randomx\repo\src\blake2\blamka-round-ref.h
; Line 45
	lea	rcx, QWORD PTR [r8+rcx*2]
	add	rcx, r10
; File D:\dev\francium_network\francium_agent\src\ext\randomx\repo\src\argon2_ref.c
; Line 85
	mov	QWORD PTR [rax], rcx
	xor	rcx, r9
	mov	rax, QWORD PTR tv6731[rbp-256]
; File D:\dev\francium_network\francium_agent\src\ext\randomx\repo\src\blake2\blake2-impl.h
; Line 73
	rol	rcx, 1
; File D:\dev\francium_network\francium_agent\src\ext\randomx\repo\src\argon2_ref.c
; Line 85
	mov	QWORD PTR [rax], rcx
	mov	eax, DWORD PTR i$1$[rsp]
	inc	eax
	mov	DWORD PTR i$1$[rsp], eax
	cmp	eax, 8
	jb	$LL4@fill_block
; Line 96
	xor	edx, edx
	npad	11
$LL34@fill_block:
; Line 97
	lea	esi, DWORD PTR [rdx+rdx]
	lea	ebx, DWORD PTR [rdx+48]
	lea	ecx, DWORD PTR [rbx*2-64]
	lea	rax, QWORD PTR blockR$[rbp-256]
	mov	r9, QWORD PTR [rax+rcx*8]
	lea	rax, QWORD PTR [rax+rcx*8]
	mov	QWORD PTR tv6637[rsp], rax
	lea	rcx, QWORD PTR blockR$[rbp-256]
	mov	rdx, QWORD PTR [rcx+rsi*8]
	lea	rax, QWORD PTR [rcx+rsi*8]
	mov	QWORD PTR tv6691[rbp-256], rax
; File D:\dev\francium_network\francium_agent\src\ext\randomx\repo\src\blake2\blamka-round-ref.h
; Line 44
	mov	ecx, edx
	mov	eax, r9d
; Line 45
	imul	rcx, rax
; File D:\dev\francium_network\francium_agent\src\ext\randomx\repo\src\argon2_ref.c
; Line 97
	lea	rax, QWORD PTR blockR$[rbp-256]
; File D:\dev\francium_network\francium_agent\src\ext\randomx\repo\src\blake2\blamka-round-ref.h
; Line 45
	lea	r8, QWORD PTR [rdx+rcx*2]
	add	r8, r9
; File D:\dev\francium_network\francium_agent\src\ext\randomx\repo\src\argon2_ref.c
; Line 97
	lea	ecx, DWORD PTR [rbx+rbx]
	lea	rax, QWORD PTR [rax+rcx*8]
	mov	r10, r8
	xor	r10, QWORD PTR [rax]
	lea	ecx, DWORD PTR [rbx*2-32]
	mov	QWORD PTR tv6690[rbp-256], rax
	lea	rax, QWORD PTR blockR$[rbp-256]
	mov	rdx, QWORD PTR [rax+rcx*8]
	lea	rax, QWORD PTR [rax+rcx*8]
	mov	QWORD PTR tv6636[rsp], rax
; File D:\dev\francium_network\francium_agent\src\ext\randomx\repo\src\blake2\blake2-impl.h
; Line 73
	ror	r10, 32					; 00000020H
; File D:\dev\francium_network\francium_agent\src\ext\randomx\repo\src\blake2\blamka-round-ref.h
; Line 44
	mov	ecx, edx
	mov	eax, r10d
; Line 45
	imul	rcx, rax
	lea	rdx, QWORD PTR [rdx+rcx*2]
; Line 44
	mov	ecx, r8d
; Line 45
	add	rdx, r10
; File D:\dev\francium_network\francium_agent\src\ext\randomx\repo\src\argon2_ref.c
; Line 97
	mov	r11, rdx
	xor	r11, r9
; File D:\dev\francium_network\francium_agent\src\ext\randomx\repo\src\blake2\blake2-impl.h
; Line 73
	ror	r11, 24
; File D:\dev\francium_network\francium_agent\src\ext\randomx\repo\src\blake2\blamka-round-ref.h
; Line 44
	mov	eax, r11d
; Line 45
	imul	rcx, rax
	lea	rax, QWORD PTR [r8+rcx*2]
; Line 44
	mov	ecx, edx
; Line 45
	add	rax, r11
; File D:\dev\francium_network\francium_agent\src\ext\randomx\repo\src\argon2_ref.c
; Line 97
	xor	r10, rax
; File D:\dev\francium_network\francium_agent\src\ext\randomx\repo\src\blake2\blamka-round-ref.h
; Line 45
	mov	QWORD PTR x$1$[rbp-256], rax
; File D:\dev\francium_network\francium_agent\src\ext\randomx\repo\src\blake2\blake2-impl.h
; Line 73
	ror	r10, 16
; File D:\dev\francium_network\francium_agent\src\ext\randomx\repo\src\blake2\blamka-round-ref.h
; Line 44
	mov	eax, r10d
; Line 45
	imul	rcx, rax
; File D:\dev\francium_network\francium_agent\src\ext\randomx\repo\src\blake2\blake2-impl.h
; Line 73
	mov	QWORD PTR y$1$[rbp-256], r10
; File D:\dev\francium_network\francium_agent\src\ext\randomx\repo\src\blake2\blamka-round-ref.h
; Line 45
	lea	rax, QWORD PTR [rdx+rcx*2]
	add	rax, r10
; File D:\dev\francium_network\francium_agent\src\ext\randomx\repo\src\argon2_ref.c
; Line 97
	lea	ecx, DWORD PTR [rsi+33]
	xor	r11, rax
; File D:\dev\francium_network\francium_agent\src\ext\randomx\repo\src\blake2\blamka-round-ref.h
; Line 45
	mov	QWORD PTR x$1$[rsp], rax
; File D:\dev\francium_network\francium_agent\src\ext\randomx\repo\src\blake2\blake2-impl.h
; Line 73
	rol	r11, 1
; File D:\dev\francium_network\francium_agent\src\ext\randomx\repo\src\argon2_ref.c
; Line 97
	lea	rax, QWORD PTR blockR$[rbp-256]
	mov	r10, QWORD PTR [rax+rcx*8]
	lea	rax, QWORD PTR [rax+rcx*8]
	mov	QWORD PTR tv6688[rbp-256], rax
	lea	ecx, DWORD PTR [rsi+1]
; File D:\dev\francium_network\francium_agent\src\ext\randomx\repo\src\blake2\blake2-impl.h
; Line 73
	mov	QWORD PTR y$1$[rsp], r11
; File D:\dev\francium_network\francium_agent\src\ext\randomx\repo\src\argon2_ref.c
; Line 97
	lea	rax, QWORD PTR blockR$[rbp-256]
	mov	rdx, QWORD PTR [rax+rcx*8]
	lea	rax, QWORD PTR [rax+rcx*8]
	mov	QWORD PTR tv6686[rbp-256], rax
; File D:\dev\francium_network\francium_agent\src\ext\randomx\repo\src\blake2\blamka-round-ref.h
; Line 44
	mov	ecx, edx
	mov	eax, r10d
; Line 45
	imul	rcx, rax
; File D:\dev\francium_network\francium_agent\src\ext\randomx\repo\src\argon2_ref.c
; Line 97
	lea	rax, QWORD PTR blockR$[rbp-256]
; File D:\dev\francium_network\francium_agent\src\ext\randomx\repo\src\blake2\blamka-round-ref.h
; Line 45
	lea	r9, QWORD PTR [rdx+rcx*2]
; File D:\dev\francium_network\francium_agent\src\ext\randomx\repo\src\argon2_ref.c
; Line 97
	lea	ecx, DWORD PTR [rsi+97]
; File D:\dev\francium_network\francium_agent\src\ext\randomx\repo\src\blake2\blamka-round-ref.h
; Line 45
	add	r9, r10
; File D:\dev\francium_network\francium_agent\src\ext\randomx\repo\src\argon2_ref.c
; Line 97
	lea	rax, QWORD PTR [rax+rcx*8]
	mov	r11, r9
	xor	r11, QWORD PTR [rax]
	lea	ecx, DWORD PTR [rsi+65]
	mov	QWORD PTR tv6685[rsp], rax
	lea	rax, QWORD PTR blockR$[rbp-256]
	mov	rdx, QWORD PTR [rax+rcx*8]
	lea	rax, QWORD PTR [rax+rcx*8]
	mov	QWORD PTR tv6684[rsp], rax
; File D:\dev\francium_network\francium_agent\src\ext\randomx\repo\src\blake2\blake2-impl.h
; Line 73
	ror	r11, 32					; 00000020H
; File D:\dev\francium_network\francium_agent\src\ext\randomx\repo\src\blake2\blamka-round-ref.h
; Line 44
	mov	ecx, edx
; File D:\dev\francium_network\francium_agent\src\ext\randomx\repo\src\argon2_ref.c
; Line 97
	lea	r15, QWORD PTR blockR$[rbp-256]
; File D:\dev\francium_network\francium_agent\src\ext\randomx\repo\src\blake2\blamka-round-ref.h
; Line 44
	mov	eax, r11d
; Line 45
	imul	rcx, rax
	lea	rdx, QWORD PTR [rdx+rcx*2]
; Line 44
	mov	ecx, r9d
; Line 45
	add	rdx, r11
; File D:\dev\francium_network\francium_agent\src\ext\randomx\repo\src\argon2_ref.c
; Line 97
	mov	r8, rdx
	xor	r8, r10
; File D:\dev\francium_network\francium_agent\src\ext\randomx\repo\src\blake2\blake2-impl.h
; Line 73
	ror	r8, 24
; File D:\dev\francium_network\francium_agent\src\ext\randomx\repo\src\blake2\blamka-round-ref.h
; Line 44
	mov	eax, r8d
; Line 45
	imul	rcx, rax
	lea	rax, QWORD PTR [r9+rcx*2]
; Line 44
	mov	ecx, edx
; Line 45
	add	rax, r8
; File D:\dev\francium_network\francium_agent\src\ext\randomx\repo\src\argon2_ref.c
; Line 97
	xor	r11, rax
; File D:\dev\francium_network\francium_agent\src\ext\randomx\repo\src\blake2\blamka-round-ref.h
; Line 45
	mov	QWORD PTR x$1$[rbp-256], rax
; File D:\dev\francium_network\francium_agent\src\ext\randomx\repo\src\blake2\blake2-impl.h
; Line 73
	ror	r11, 16
; File D:\dev\francium_network\francium_agent\src\ext\randomx\repo\src\blake2\blamka-round-ref.h
; Line 44
	mov	eax, r11d
; Line 45
	imul	rcx, rax
; File D:\dev\francium_network\francium_agent\src\ext\randomx\repo\src\blake2\blake2-impl.h
; Line 73
	mov	QWORD PTR y$1$[rsp], r11
; File D:\dev\francium_network\francium_agent\src\ext\randomx\repo\src\blake2\blamka-round-ref.h
; Line 45
	lea	rax, QWORD PTR [rdx+rcx*2]
	add	rax, r11
; File D:\dev\francium_network\francium_agent\src\ext\randomx\repo\src\argon2_ref.c
; Line 97
	lea	ecx, DWORD PTR [rbx*2-48]
	mov	r12, rax
; File D:\dev\francium_network\francium_agent\src\ext\randomx\repo\src\blake2\blamka-round-ref.h
; Line 45
	mov	QWORD PTR x$1$[rsp], rax
; File D:\dev\francium_network\francium_agent\src\ext\randomx\repo\src\argon2_ref.c
; Line 97
	xor	r12, r8
	lea	rax, QWORD PTR blockR$[rbp-256]
	mov	r10, QWORD PTR [rax+rcx*8]
	lea	rax, QWORD PTR [rax+rcx*8]
	mov	QWORD PTR tv6635[rsp], rax
	lea	ecx, DWORD PTR [rbx*2-80]
	lea	rax, QWORD PTR blockR$[rbp-256]
; File D:\dev\francium_network\francium_agent\src\ext\randomx\repo\src\blake2\blake2-impl.h
; Line 73
	rol	r12, 1
; File D:\dev\francium_network\francium_agent\src\ext\randomx\repo\src\argon2_ref.c
; Line 97
	mov	rdx, QWORD PTR [rax+rcx*8]
	lea	rax, QWORD PTR [rax+rcx*8]
	mov	QWORD PTR tv6634[rsp], rax
; File D:\dev\francium_network\francium_agent\src\ext\randomx\repo\src\blake2\blamka-round-ref.h
; Line 44
	mov	eax, r10d
	mov	ecx, edx
; Line 45
	imul	rcx, rax
; File D:\dev\francium_network\francium_agent\src\ext\randomx\repo\src\argon2_ref.c
; Line 97
	lea	rax, QWORD PTR blockR$[rbp-256]
; File D:\dev\francium_network\francium_agent\src\ext\randomx\repo\src\blake2\blamka-round-ref.h
; Line 45
	lea	r11, QWORD PTR [rdx+rcx*2]
	add	r11, r10
; File D:\dev\francium_network\francium_agent\src\ext\randomx\repo\src\argon2_ref.c
; Line 97
	lea	ecx, DWORD PTR [rbx*2+16]
	lea	rax, QWORD PTR [rax+rcx*8]
	mov	r9, r11
	xor	r9, QWORD PTR [rax]
	mov	QWORD PTR tv6633[rsp], rax
	lea	eax, DWORD PTR [rbx*2-16]
	mov	rdx, QWORD PTR [r15+rax*8]
	lea	r15, QWORD PTR [r15+rax*8]
; File D:\dev\francium_network\francium_agent\src\ext\randomx\repo\src\blake2\blake2-impl.h
; Line 73
	ror	r9, 32					; 00000020H
; File D:\dev\francium_network\francium_agent\src\ext\randomx\repo\src\blake2\blamka-round-ref.h
; Line 44
	mov	ecx, edx
	mov	eax, r9d
; Line 45
	imul	rcx, rax
	lea	rdx, QWORD PTR [rdx+rcx*2]
; Line 44
	mov	ecx, r11d
; Line 45
	add	rdx, r9
; File D:\dev\francium_network\francium_agent\src\ext\randomx\repo\src\argon2_ref.c
; Line 97
	mov	r8, rdx
	xor	r8, r10
; File D:\dev\francium_network\francium_agent\src\ext\randomx\repo\src\blake2\blake2-impl.h
; Line 73
	ror	r8, 24
; File D:\dev\francium_network\francium_agent\src\ext\randomx\repo\src\blake2\blamka-round-ref.h
; Line 44
	mov	eax, r8d
; Line 45
	imul	rcx, rax
	lea	rax, QWORD PTR [r11+rcx*2]
; Line 44
	mov	ecx, edx
; Line 45
	add	rax, r8
; File D:\dev\francium_network\francium_agent\src\ext\randomx\repo\src\argon2_ref.c
; Line 97
	mov	r10, rax
; File D:\dev\francium_network\francium_agent\src\ext\randomx\repo\src\blake2\blamka-round-ref.h
; Line 45
	mov	QWORD PTR x$1$[rsp], rax
; File D:\dev\francium_network\francium_agent\src\ext\randomx\repo\src\argon2_ref.c
; Line 97
	xor	r10, r9
; File D:\dev\francium_network\francium_agent\src\ext\randomx\repo\src\blake2\blake2-impl.h
; Line 73
	ror	r10, 16
; File D:\dev\francium_network\francium_agent\src\ext\randomx\repo\src\blake2\blamka-round-ref.h
; Line 44
	mov	eax, r10d
; Line 45
	imul	rcx, rax
; File D:\dev\francium_network\francium_agent\src\ext\randomx\repo\src\argon2_ref.c
; Line 97
	lea	rax, QWORD PTR blockR$[rbp-256]
; File D:\dev\francium_network\francium_agent\src\ext\randomx\repo\src\blake2\blake2-impl.h
; Line 73
	mov	QWORD PTR y$1$[rsp], r10
; File D:\dev\francium_network\francium_agent\src\ext\randomx\repo\src\blake2\blamka-round-ref.h
; Line 45
	lea	rdi, QWORD PTR [rdx+rcx*2]
	add	rdi, r10
; File D:\dev\francium_network\francium_agent\src\ext\randomx\repo\src\argon2_ref.c
; Line 97
	lea	ecx, DWORD PTR [rsi+49]
	mov	r14, rdi
	lea	rax, QWORD PTR [rax+rcx*8]
	xor	r14, r8
; File D:\dev\francium_network\francium_agent\src\ext\randomx\repo\src\blake2\blake2-impl.h
; Line 73
	rol	r14, 1
; File D:\dev\francium_network\francium_agent\src\ext\randomx\repo\src\argon2_ref.c
; Line 97
	mov	r11, QWORD PTR [rax]
	lea	ecx, DWORD PTR [rsi+17]
	mov	QWORD PTR tv6680[rsp], rax
	lea	rbx, QWORD PTR blockR$[rbp-256]
	lea	rax, QWORD PTR blockR$[rbp-256]
	mov	rdx, QWORD PTR [rax+rcx*8]
	lea	rax, QWORD PTR [rax+rcx*8]
	mov	QWORD PTR tv6678[rsp], rax
; File D:\dev\francium_network\francium_agent\src\ext\randomx\repo\src\blake2\blamka-round-ref.h
; Line 44
	mov	eax, r11d
	mov	ecx, edx
; Line 45
	imul	rcx, rax
; File D:\dev\francium_network\francium_agent\src\ext\randomx\repo\src\argon2_ref.c
; Line 97
	lea	eax, DWORD PTR [rsi+113]
	lea	rbx, QWORD PTR [rbx+rax*8]
	lea	eax, DWORD PTR [rsi+81]
	lea	rsi, QWORD PTR blockR$[rbp-256]
; File D:\dev\francium_network\francium_agent\src\ext\randomx\repo\src\blake2\blamka-round-ref.h
; Line 45
	lea	r10, QWORD PTR [rdx+rcx*2]
; File D:\dev\francium_network\francium_agent\src\ext\randomx\repo\src\argon2_ref.c
; Line 97
	mov	rdx, QWORD PTR [rsi+rax*8]
; File D:\dev\francium_network\francium_agent\src\ext\randomx\repo\src\blake2\blamka-round-ref.h
; Line 45
	add	r10, r11
; Line 44
	mov	ecx, edx
; File D:\dev\francium_network\francium_agent\src\ext\randomx\repo\src\argon2_ref.c
; Line 97
	lea	rsi, QWORD PTR [rsi+rax*8]
	mov	r9, r10
	xor	r9, QWORD PTR [rbx]
; File D:\dev\francium_network\francium_agent\src\ext\randomx\repo\src\blake2\blake2-impl.h
; Line 73
	ror	r9, 32					; 00000020H
; File D:\dev\francium_network\francium_agent\src\ext\randomx\repo\src\blake2\blamka-round-ref.h
; Line 44
	mov	eax, r9d
; Line 45
	imul	rcx, rax
	lea	rdx, QWORD PTR [rdx+rcx*2]
; Line 44
	mov	ecx, r10d
; Line 45
	add	rdx, r9
; File D:\dev\francium_network\francium_agent\src\ext\randomx\repo\src\argon2_ref.c
; Line 97
	mov	r8, rdx
	xor	r8, r11
; File D:\dev\francium_network\francium_agent\src\ext\randomx\repo\src\blake2\blake2-impl.h
; Line 73
	ror	r8, 24
; File D:\dev\francium_network\francium_agent\src\ext\randomx\repo\src\blake2\blamka-round-ref.h
; Line 44
	mov	eax, r8d
; Line 45
	imul	rcx, rax
	lea	r13, QWORD PTR [r10+rcx*2]
; Line 44
	mov	ecx, edx
; Line 45
	add	r13, r8
; File D:\dev\francium_network\francium_agent\src\ext\randomx\repo\src\argon2_ref.c
; Line 97
	mov	r10, r13
	xor	r10, r9
; File D:\dev\francium_network\francium_agent\src\ext\randomx\repo\src\blake2\blake2-impl.h
; Line 73
	ror	r10, 16
; File D:\dev\francium_network\francium_agent\src\ext\randomx\repo\src\blake2\blamka-round-ref.h
; Line 44
	mov	eax, r10d
; Line 45
	imul	rcx, rax
; Line 44
	mov	eax, r12d
; Line 45
	lea	r9, QWORD PTR [rdx+rcx*2]
; Line 44
	mov	rdx, QWORD PTR x$1$[rbp-256]
; Line 45
	add	r9, r10
; Line 44
	mov	ecx, edx
; Line 45
	imul	rcx, rax
; File D:\dev\francium_network\francium_agent\src\ext\randomx\repo\src\argon2_ref.c
; Line 97
	mov	r11, r9
	xor	r11, r8
; File D:\dev\francium_network\francium_agent\src\ext\randomx\repo\src\blake2\blake2-impl.h
; Line 73
	rol	r11, 1
; File D:\dev\francium_network\francium_agent\src\ext\randomx\repo\src\blake2\blamka-round-ref.h
; Line 45
	lea	rdx, QWORD PTR [rdx+rcx*2]
; Line 44
	mov	ecx, edi
; Line 45
	add	rdx, r12
; File D:\dev\francium_network\francium_agent\src\ext\randomx\repo\src\argon2_ref.c
; Line 97
	xor	r10, rdx
; File D:\dev\francium_network\francium_agent\src\ext\randomx\repo\src\blake2\blake2-impl.h
; Line 73
	ror	r10, 32					; 00000020H
; File D:\dev\francium_network\francium_agent\src\ext\randomx\repo\src\blake2\blamka-round-ref.h
; Line 44
	mov	eax, r10d
; Line 45
	imul	rcx, rax
	lea	r8, QWORD PTR [rdi+rcx*2]
; Line 44
	mov	ecx, edx
; Line 45
	add	r8, r10
; File D:\dev\francium_network\francium_agent\src\ext\randomx\repo\src\argon2_ref.c
; Line 97
	xor	r12, r8
; File D:\dev\francium_network\francium_agent\src\ext\randomx\repo\src\blake2\blake2-impl.h
; Line 73
	ror	r12, 24
; File D:\dev\francium_network\francium_agent\src\ext\randomx\repo\src\blake2\blamka-round-ref.h
; Line 44
	mov	eax, r12d
; Line 45
	imul	rcx, rax
; File D:\dev\francium_network\francium_agent\src\ext\randomx\repo\src\argon2_ref.c
; Line 97
	mov	rax, QWORD PTR tv6691[rbp-256]
; File D:\dev\francium_network\francium_agent\src\ext\randomx\repo\src\blake2\blamka-round-ref.h
; Line 45
	lea	rcx, QWORD PTR [rdx+rcx*2]
	add	rcx, r12
; File D:\dev\francium_network\francium_agent\src\ext\randomx\repo\src\argon2_ref.c
; Line 97
	xor	r10, rcx
	mov	QWORD PTR [rax], rcx
; File D:\dev\francium_network\francium_agent\src\ext\randomx\repo\src\blake2\blake2-impl.h
; Line 73
	ror	r10, 16
; File D:\dev\francium_network\francium_agent\src\ext\randomx\repo\src\blake2\blamka-round-ref.h
; Line 44
	mov	eax, r10d
	mov	ecx, r8d
; Line 45
	imul	rcx, rax
; File D:\dev\francium_network\francium_agent\src\ext\randomx\repo\src\argon2_ref.c
; Line 97
	mov	rax, QWORD PTR tv6688[rbp-256]
	mov	QWORD PTR [rbx], r10
; File D:\dev\francium_network\francium_agent\src\ext\randomx\repo\src\blake2\blamka-round-ref.h
; Line 45
	lea	rcx, QWORD PTR [r8+rcx*2]
	add	rcx, r10
; File D:\dev\francium_network\francium_agent\src\ext\randomx\repo\src\argon2_ref.c
; Line 97
	xor	r12, rcx
	mov	QWORD PTR [r15], rcx
; File D:\dev\francium_network\francium_agent\src\ext\randomx\repo\src\blake2\blake2-impl.h
; Line 73
	rol	r12, 1
; File D:\dev\francium_network\francium_agent\src\ext\randomx\repo\src\argon2_ref.c
; Line 97
	mov	QWORD PTR [rax], r12
; File D:\dev\francium_network\francium_agent\src\ext\randomx\repo\src\blake2\blamka-round-ref.h
; Line 44
	mov	rdx, QWORD PTR x$1$[rbp-256]
; File D:\dev\francium_network\francium_agent\src\ext\randomx\repo\src\argon2_ref.c
; Line 97
	mov	r10, QWORD PTR y$1$[rbp-256]
; File D:\dev\francium_network\francium_agent\src\ext\randomx\repo\src\blake2\blamka-round-ref.h
; Line 44
	mov	ecx, edx
	mov	eax, r14d
; Line 45
	imul	rcx, rax
	lea	rdx, QWORD PTR [rdx+rcx*2]
; Line 44
	mov	ecx, r9d
; Line 45
	add	rdx, r14
; File D:\dev\francium_network\francium_agent\src\ext\randomx\repo\src\argon2_ref.c
; Line 97
	xor	r10, rdx
; File D:\dev\francium_network\francium_agent\src\ext\randomx\repo\src\blake2\blake2-impl.h
; Line 73
	ror	r10, 32					; 00000020H
; File D:\dev\francium_network\francium_agent\src\ext\randomx\repo\src\blake2\blamka-round-ref.h
; Line 44
	mov	eax, r10d
; Line 45
	imul	rcx, rax
	lea	r8, QWORD PTR [r9+rcx*2]
; Line 44
	mov	ecx, edx
; Line 45
	add	r8, r10
; File D:\dev\francium_network\francium_agent\src\ext\randomx\repo\src\argon2_ref.c
; Line 97
	mov	r9, r8
	xor	r9, r14
; File D:\dev\francium_network\francium_agent\src\ext\randomx\repo\src\blake2\blake2-impl.h
; Line 73
	ror	r9, 24
; File D:\dev\francium_network\francium_agent\src\ext\randomx\repo\src\blake2\blamka-round-ref.h
; Line 44
	mov	eax, r9d
; Line 45
	imul	rcx, rax
; File D:\dev\francium_network\francium_agent\src\ext\randomx\repo\src\argon2_ref.c
; Line 97
	mov	rax, QWORD PTR tv6686[rbp-256]
; File D:\dev\francium_network\francium_agent\src\ext\randomx\repo\src\blake2\blamka-round-ref.h
; Line 45
	lea	rcx, QWORD PTR [rdx+rcx*2]
; Line 44
	mov	rdx, QWORD PTR x$1$[rsp]
; Line 45
	add	rcx, r9
; File D:\dev\francium_network\francium_agent\src\ext\randomx\repo\src\argon2_ref.c
; Line 97
	mov	QWORD PTR [rax], rcx
	xor	r10, rcx
	mov	rax, QWORD PTR tv6690[rbp-256]
; File D:\dev\francium_network\francium_agent\src\ext\randomx\repo\src\blake2\blake2-impl.h
; Line 73
	ror	r10, 16
; File D:\dev\francium_network\francium_agent\src\ext\randomx\repo\src\blake2\blamka-round-ref.h
; Line 44
	mov	ecx, r8d
; File D:\dev\francium_network\francium_agent\src\ext\randomx\repo\src\argon2_ref.c
; Line 97
	mov	QWORD PTR [rax], r10
; File D:\dev\francium_network\francium_agent\src\ext\randomx\repo\src\blake2\blamka-round-ref.h
; Line 44
	mov	eax, r10d
; Line 45
	imul	rcx, rax
; File D:\dev\francium_network\francium_agent\src\ext\randomx\repo\src\argon2_ref.c
; Line 97
	mov	rax, QWORD PTR tv6635[rsp]
; File D:\dev\francium_network\francium_agent\src\ext\randomx\repo\src\blake2\blamka-round-ref.h
; Line 45
	lea	rcx, QWORD PTR [r8+rcx*2]
; Line 44
	mov	r8, QWORD PTR x$1$[rsp]
; Line 45
	add	rcx, r10
; Line 44
	mov	r10, QWORD PTR y$1$[rsp]
; File D:\dev\francium_network\francium_agent\src\ext\randomx\repo\src\argon2_ref.c
; Line 97
	mov	QWORD PTR [rsi], rcx
	xor	rcx, r9
	mov	r9, QWORD PTR y$1$[rsp]
; File D:\dev\francium_network\francium_agent\src\ext\randomx\repo\src\blake2\blake2-impl.h
; Line 73
	rol	rcx, 1
; File D:\dev\francium_network\francium_agent\src\ext\randomx\repo\src\argon2_ref.c
; Line 97
	mov	QWORD PTR [rax], rcx
; File D:\dev\francium_network\francium_agent\src\ext\randomx\repo\src\blake2\blamka-round-ref.h
; Line 44
	mov	eax, r11d
	mov	ecx, edx
; Line 45
	imul	rcx, rax
	lea	rdx, QWORD PTR [rdx+rcx*2]
; Line 44
	mov	ecx, r8d
; Line 45
	add	rdx, r11
; File D:\dev\francium_network\francium_agent\src\ext\randomx\repo\src\argon2_ref.c
; Line 97
	xor	r9, rdx
; File D:\dev\francium_network\francium_agent\src\ext\randomx\repo\src\blake2\blake2-impl.h
; Line 73
	ror	r9, 32					; 00000020H
; File D:\dev\francium_network\francium_agent\src\ext\randomx\repo\src\blake2\blamka-round-ref.h
; Line 44
	mov	eax, r9d
; Line 45
	imul	rcx, rax
	lea	r8, QWORD PTR [r8+rcx*2]
; Line 44
	mov	ecx, edx
; Line 45
	add	r8, r9
; File D:\dev\francium_network\francium_agent\src\ext\randomx\repo\src\argon2_ref.c
; Line 97
	xor	r11, r8
; File D:\dev\francium_network\francium_agent\src\ext\randomx\repo\src\blake2\blake2-impl.h
; Line 73
	ror	r11, 24
; File D:\dev\francium_network\francium_agent\src\ext\randomx\repo\src\blake2\blamka-round-ref.h
; Line 44
	mov	eax, r11d
; Line 45
	imul	rcx, rax
; File D:\dev\francium_network\francium_agent\src\ext\randomx\repo\src\argon2_ref.c
; Line 97
	mov	rax, QWORD PTR tv6634[rsp]
; File D:\dev\francium_network\francium_agent\src\ext\randomx\repo\src\blake2\blamka-round-ref.h
; Line 45
	lea	rcx, QWORD PTR [rdx+rcx*2]
	add	rcx, r11
; File D:\dev\francium_network\francium_agent\src\ext\randomx\repo\src\argon2_ref.c
; Line 97
	mov	QWORD PTR [rax], rcx
	xor	r9, rcx
	mov	rax, QWORD PTR tv6685[rsp]
; File D:\dev\francium_network\francium_agent\src\ext\randomx\repo\src\blake2\blake2-impl.h
; Line 73
	ror	r9, 16
; File D:\dev\francium_network\francium_agent\src\ext\randomx\repo\src\blake2\blamka-round-ref.h
; Line 44
	mov	ecx, r8d
; File D:\dev\francium_network\francium_agent\src\ext\randomx\repo\src\argon2_ref.c
; Line 97
	mov	QWORD PTR [rax], r9
; File D:\dev\francium_network\francium_agent\src\ext\randomx\repo\src\blake2\blamka-round-ref.h
; Line 44
	mov	eax, r9d
; Line 45
	imul	rcx, rax
; File D:\dev\francium_network\francium_agent\src\ext\randomx\repo\src\argon2_ref.c
; Line 97
	mov	rax, QWORD PTR tv6636[rsp]
; File D:\dev\francium_network\francium_agent\src\ext\randomx\repo\src\blake2\blamka-round-ref.h
; Line 45
	lea	rcx, QWORD PTR [r8+rcx*2]
	add	rcx, r9
; File D:\dev\francium_network\francium_agent\src\ext\randomx\repo\src\argon2_ref.c
; Line 97
	mov	QWORD PTR [rax], rcx
	xor	r11, rcx
	mov	rax, QWORD PTR tv6680[rsp]
; File D:\dev\francium_network\francium_agent\src\ext\randomx\repo\src\blake2\blake2-impl.h
; Line 73
	rol	r11, 1
; File D:\dev\francium_network\francium_agent\src\ext\randomx\repo\src\blake2\blamka-round-ref.h
; Line 44
	mov	ecx, r13d
; File D:\dev\francium_network\francium_agent\src\ext\randomx\repo\src\argon2_ref.c
; Line 97
	mov	QWORD PTR [rax], r11
; File D:\dev\francium_network\francium_agent\src\ext\randomx\repo\src\blake2\blamka-round-ref.h
; Line 44
	mov	eax, r10d
; Line 45
	imul	rcx, rax
; Line 44
	mov	r8, QWORD PTR x$1$[rsp]
; Line 45
	lea	rdx, QWORD PTR [rcx*2]
; File D:\dev\francium_network\francium_agent\src\ext\randomx\repo\src\argon2_ref.c
; Line 97
	mov	r9, QWORD PTR y$1$[rsp]
; File D:\dev\francium_network\francium_agent\src\ext\randomx\repo\src\blake2\blamka-round-ref.h
; Line 45
	add	rdx, r13
	add	rdx, r10
; Line 44
	mov	ecx, r8d
; File D:\dev\francium_network\francium_agent\src\ext\randomx\repo\src\argon2_ref.c
; Line 97
	xor	r9, rdx
; File D:\dev\francium_network\francium_agent\src\ext\randomx\repo\src\blake2\blake2-impl.h
; Line 73
	ror	r9, 32					; 00000020H
; File D:\dev\francium_network\francium_agent\src\ext\randomx\repo\src\blake2\blamka-round-ref.h
; Line 44
	mov	eax, r9d
; Line 45
	imul	rcx, rax
	lea	r8, QWORD PTR [r8+rcx*2]
; Line 44
	mov	ecx, edx
; Line 45
	add	r8, r9
; File D:\dev\francium_network\francium_agent\src\ext\randomx\repo\src\argon2_ref.c
; Line 97
	xor	r10, r8
; File D:\dev\francium_network\francium_agent\src\ext\randomx\repo\src\blake2\blake2-impl.h
; Line 73
	ror	r10, 24
; File D:\dev\francium_network\francium_agent\src\ext\randomx\repo\src\blake2\blamka-round-ref.h
; Line 44
	mov	eax, r10d
; Line 45
	imul	rcx, rax
; File D:\dev\francium_network\francium_agent\src\ext\randomx\repo\src\argon2_ref.c
; Line 97
	mov	rax, QWORD PTR tv6678[rsp]
; File D:\dev\francium_network\francium_agent\src\ext\randomx\repo\src\blake2\blamka-round-ref.h
; Line 45
	lea	rcx, QWORD PTR [rdx+rcx*2]
; File D:\dev\francium_network\francium_agent\src\ext\randomx\repo\src\argon2_ref.c
; Line 96
	mov	edx, DWORD PTR i$2$[rsp]
; File D:\dev\francium_network\francium_agent\src\ext\randomx\repo\src\blake2\blamka-round-ref.h
; Line 45
	add	rcx, r10
; File D:\dev\francium_network\francium_agent\src\ext\randomx\repo\src\argon2_ref.c
; Line 96
	inc	edx
; Line 97
	mov	QWORD PTR [rax], rcx
	xor	r9, rcx
	mov	rax, QWORD PTR tv6633[rsp]
; File D:\dev\francium_network\francium_agent\src\ext\randomx\repo\src\blake2\blake2-impl.h
; Line 73
	ror	r9, 16
; File D:\dev\francium_network\francium_agent\src\ext\randomx\repo\src\blake2\blamka-round-ref.h
; Line 44
	mov	ecx, r8d
; File D:\dev\francium_network\francium_agent\src\ext\randomx\repo\src\argon2_ref.c
; Line 96
	mov	DWORD PTR i$2$[rsp], edx
; Line 97
	mov	QWORD PTR [rax], r9
; File D:\dev\francium_network\francium_agent\src\ext\randomx\repo\src\blake2\blamka-round-ref.h
; Line 44
	mov	eax, r9d
; Line 45
	imul	rcx, rax
; File D:\dev\francium_network\francium_agent\src\ext\randomx\repo\src\argon2_ref.c
; Line 97
	mov	rax, QWORD PTR tv6684[rsp]
; File D:\dev\francium_network\francium_agent\src\ext\randomx\repo\src\blake2\blamka-round-ref.h
; Line 45
	lea	rcx, QWORD PTR [r8+rcx*2]
	add	rcx, r9
; File D:\dev\francium_network\francium_agent\src\ext\randomx\repo\src\argon2_ref.c
; Line 97
	mov	QWORD PTR [rax], rcx
	xor	rcx, r10
	mov	rax, QWORD PTR tv6637[rsp]
; File D:\dev\francium_network\francium_agent\src\ext\randomx\repo\src\blake2\blake2-impl.h
; Line 73
	rol	rcx, 1
; File D:\dev\francium_network\francium_agent\src\ext\randomx\repo\src\argon2_ref.c
; Line 97
	mov	QWORD PTR [rax], rcx
	cmp	edx, 8
	jb	$LL34@fill_block
; Line 47
	mov	r9, QWORD PTR next_block$GSCopy$1$[rbp-256]
	lea	rcx, QWORD PTR block_tmp$[rbp-256]
	mov	rax, r9
	mov	edx, 8
	npad	13
$LL364@fill_block:
	lea	rax, QWORD PTR [rax+128]
	movups	xmm0, XMMWORD PTR [rcx]
	movups	xmm1, XMMWORD PTR [rcx+16]
	lea	rcx, QWORD PTR [rcx+128]
	movups	XMMWORD PTR [rax-128], xmm0
	movups	xmm0, XMMWORD PTR [rcx-96]
	movups	XMMWORD PTR [rax-112], xmm1
	movups	xmm1, XMMWORD PTR [rcx-80]
	movups	XMMWORD PTR [rax-96], xmm0
	movups	xmm0, XMMWORD PTR [rcx-64]
	movups	XMMWORD PTR [rax-80], xmm1
	movups	xmm1, XMMWORD PTR [rcx-48]
	movups	XMMWORD PTR [rax-64], xmm0
	movups	xmm0, XMMWORD PTR [rcx-32]
	movups	XMMWORD PTR [rax-48], xmm1
	movups	xmm1, XMMWORD PTR [rcx-16]
	movups	XMMWORD PTR [rax-32], xmm0
	movups	XMMWORD PTR [rax-16], xmm1
	sub	rdx, 1
	jne	SHORT $LL364@fill_block
	lea	rdx, QWORD PTR blockR$[rbp-256]
	sub	rdx, r9
	lea	r8, QWORD PTR blockR$[rbp-248]
	sub	r8, r9
	lea	rax, QWORD PTR [r9+16]
	npad	11
$LL325@fill_block:
; Line 53
	mov	rcx, QWORD PTR [rdx+rax-16]
	xor	QWORD PTR [rax-16], rcx
	mov	rcx, QWORD PTR [r8+rax-16]
	xor	QWORD PTR [rax-8], rcx
	mov	rcx, QWORD PTR [rdx+rax]
	xor	QWORD PTR [rax], rcx
	mov	rcx, QWORD PTR [r8+rax]
	xor	QWORD PTR [rax+8], rcx
	lea	rax, QWORD PTR [rax+32]
	sub	QWORD PTR tv6824[rbp-256], 1
	jne	SHORT $LL325@fill_block
; Line 108
	mov	rcx, QWORD PTR __$ArrayPad$[rbp-256]
	xor	rcx, rsp
	call	__security_check_cookie
	lea	r11, QWORD PTR [rsp+2272]
	mov	rbx, QWORD PTR [r11+48]
	mov	rsi, QWORD PTR [r11+56]
	mov	rdi, QWORD PTR [r11+72]
	mov	rsp, r11
	pop	r15
	pop	r14
	pop	r13
	pop	r12
	pop	rbp
	ret	0
fill_block ENDP
_TEXT	ENDS
END
