; Listing generated by Microsoft (R) Optimizing Compiler Version 19.35.32216.1 

include listing.inc

INCLUDELIB OLDNAMES

PUBLIC	randomx_argon2_fill_segment_ssse3
PUBLIC	randomx_argon2_impl_ssse3
;	COMDAT pdata
pdata	SEGMENT
$pdata$randomx_argon2_fill_segment_ssse3 DD imagerel $LN27
	DD	imagerel $LN27+42
	DD	imagerel $unwind$randomx_argon2_fill_segment_ssse3
pdata	ENDS
;	COMDAT pdata
pdata	SEGMENT
$pdata$3$randomx_argon2_fill_segment_ssse3 DD imagerel $LN27+42
	DD	imagerel $LN27+258
	DD	imagerel $chain$3$randomx_argon2_fill_segment_ssse3
pdata	ENDS
;	COMDAT pdata
pdata	SEGMENT
$pdata$6$randomx_argon2_fill_segment_ssse3 DD imagerel $LN27+258
	DD	imagerel $LN27+481
	DD	imagerel $chain$6$randomx_argon2_fill_segment_ssse3
pdata	ENDS
;	COMDAT pdata
pdata	SEGMENT
$pdata$7$randomx_argon2_fill_segment_ssse3 DD imagerel $LN27+481
	DD	imagerel $LN27+538
	DD	imagerel $chain$7$randomx_argon2_fill_segment_ssse3
pdata	ENDS
;	COMDAT pdata
pdata	SEGMENT
$pdata$8$randomx_argon2_fill_segment_ssse3 DD imagerel $LN27+538
	DD	imagerel $LN27+539
	DD	imagerel $chain$8$randomx_argon2_fill_segment_ssse3
pdata	ENDS
;	COMDAT pdata
pdata	SEGMENT
$pdata$fill_block DD imagerel fill_block
	DD	imagerel fill_block+2131
	DD	imagerel $unwind$fill_block
;	COMDAT xdata
xdata	SEGMENT
$unwind$fill_block DD 01f6b19H
	DD	041f859H
	DD	042e851H
	DD	043d849H
	DD	044c841H
	DD	045b839H
	DD	046a831H
	DD	047982cH
	DD	0488827H
	DD	0497822H
	DD	04a681eH
	DD	09f541aH
	DD	09d341aH
	DD	096011aH
	DD	0e011f013H
	DD	0700dc00fH
	DD	0600cH
	DD	imagerel __GSHandlerCheck
	DD	0400H
xdata	ENDS
;	COMDAT xdata
xdata	SEGMENT
$chain$8$randomx_argon2_fill_segment_ssse3 DD 021H
	DD	imagerel $LN27
	DD	imagerel $LN27+42
	DD	imagerel $unwind$randomx_argon2_fill_segment_ssse3
xdata	ENDS
;	COMDAT xdata
xdata	SEGMENT
$chain$7$randomx_argon2_fill_segment_ssse3 DD 021H
	DD	imagerel $LN27+42
	DD	imagerel $LN27+258
	DD	imagerel $chain$3$randomx_argon2_fill_segment_ssse3
xdata	ENDS
;	COMDAT xdata
xdata	SEGMENT
$chain$6$randomx_argon2_fill_segment_ssse3 DD 061d21H
	DD	08af41dH
	DD	08cc410H
	DD	0943408H
	DD	imagerel $LN27+42
	DD	imagerel $LN27+258
	DD	imagerel $chain$3$randomx_argon2_fill_segment_ssse3
xdata	ENDS
;	COMDAT xdata
xdata	SEGMENT
$chain$3$randomx_argon2_fill_segment_ssse3 DD 081e21H
	DD	08bd41eH
	DD	08d740fH
	DD	08e640bH
	DD	08f5404H
	DD	imagerel $LN27
	DD	imagerel $LN27+42
	DD	imagerel $unwind$randomx_argon2_fill_segment_ssse3
xdata	ENDS
;	COMDAT xdata
xdata	SEGMENT
$unwind$randomx_argon2_fill_segment_ssse3 DD 032719H
	DD	0900115H
	DD	0e00eH
	DD	imagerel __GSHandlerCheck
	DD	0440H
; Function compile flags: /Ogtpy
;	COMDAT randomx_argon2_impl_ssse3
_TEXT	SEGMENT
randomx_argon2_impl_ssse3 PROC				; COMDAT
; File D:\dev\francium_network\francium_agent\src\ext\randomx\repo\src\argon2_ssse3.c
; Line 50
	lea	rax, OFFSET FLAT:randomx_argon2_fill_segment_ssse3
; Line 53
	ret	0
randomx_argon2_impl_ssse3 ENDP
_TEXT	ENDS
; Function compile flags: /Ogtpy
;	COMDAT fBlaMka
_TEXT	SEGMENT
x$ = 8
y$ = 16
fBlaMka	PROC						; COMDAT
; File D:\dev\francium_network\francium_agent\src\ext\randomx\repo\src\blake2\blamka-round-ssse3.h
; Line 68
	movdqu	xmm0, XMMWORD PTR [rdx]
	movdqa	xmm2, xmm0
; Line 69
	paddq	xmm0, XMMWORD PTR [rcx]
	pmuludq	xmm2, XMMWORD PTR [rcx]
	paddq	xmm2, xmm2
	paddq	xmm0, xmm2
; Line 70
	ret	0
fBlaMka	ENDP
_TEXT	ENDS
; Function compile flags: /Ogtpy
;	COMDAT fill_block
_TEXT	SEGMENT
block_XY$ = 0
__$ArrayPad$ = 1024
state$ = 1248
ref_block$ = 1256
next_block$ = 1264
with_xor$ = 1272
fill_block PROC						; COMDAT
; File D:\dev\francium_network\francium_agent\src\ext\randomx\repo\src\argon2_ssse3.c
; Line 66
	mov	rax, rsp
	mov	QWORD PTR [rax+16], rbx
	mov	QWORD PTR [rax+32], rbp
	push	rsi
	push	rdi
	push	r12
	push	r14
	push	r15
	sub	rsp, 1200				; 000004b0H
	movaps	XMMWORD PTR [rax-56], xmm6
	movaps	XMMWORD PTR [rax-72], xmm7
	movaps	XMMWORD PTR [rax-88], xmm8
	movaps	XMMWORD PTR [rax-104], xmm9
	movaps	XMMWORD PTR [rax-120], xmm10
	movaps	XMMWORD PTR [rax-136], xmm11
	movaps	XMMWORD PTR [rax-152], xmm12
	movaps	XMMWORD PTR [rax-168], xmm13
	movaps	XMMWORD PTR [rax-184], xmm14
	movaps	XMMWORD PTR [rax-200], xmm15
	mov	rax, QWORD PTR __security_cookie
	xor	rax, rsp
	mov	QWORD PTR __$ArrayPad$[rsp], rax
	mov	rbp, rcx
	mov	r15, r8
	lea	rcx, QWORD PTR block_XY$[rsp]
	sub	rdx, rbp
	sub	rcx, rbp
; Line 70
	mov	r14d, 64				; 00000040H
	test	r9d, r9d
	je	SHORT $LN59@fill_block
; Line 71
	mov	r9, r8
	mov	rax, rbp
	sub	r9, rbp
	mov	r8d, r14d
$LL4@fill_block:
; Line 72
	movdqu	xmm1, XMMWORD PTR [rax+rdx]
	lea	rax, QWORD PTR [rax+16]
	pxor	xmm1, XMMWORD PTR [rax-16]
	movdqu	XMMWORD PTR [rax-16], xmm1
; Line 74
	movdqu	xmm0, XMMWORD PTR [r9+rax-16]
	pxor	xmm0, xmm1
	movdqu	XMMWORD PTR [rax+rcx-16], xmm0
	sub	r8, 1
	jne	SHORT $LL4@fill_block
; Line 77
	jmp	SHORT $LN141@fill_block
$LN59@fill_block:
; Line 79
	lea	rax, QWORD PTR [rbp+16]
	mov	r8d, 32					; 00000020H
	npad	8
$LL7@fill_block:
; Line 80
	movdqu	xmm0, XMMWORD PTR [rdx+rax-16]
	lea	rax, QWORD PTR [rax+32]
	pxor	xmm0, XMMWORD PTR [rax-48]
	movdqu	XMMWORD PTR [rax-48], xmm0
	movdqu	XMMWORD PTR [rcx+rax-48], xmm0
	movdqu	xmm1, XMMWORD PTR [rax+rdx-32]
	pxor	xmm1, XMMWORD PTR [rax-32]
	movdqu	XMMWORD PTR [rax-32], xmm1
	movdqu	XMMWORD PTR [rax+rcx-32], xmm1
	sub	r8, 1
	jne	SHORT $LL7@fill_block
$LN141@fill_block:
	movdqa	xmm15, XMMWORD PTR __xmm@0a09080f0e0d0c0b0201000706050403
; Line 85
	xor	r12d, r12d
$LL147@fill_block:
; Line 86
	movdqa	xmm8, XMMWORD PTR __xmm@09080f0e0d0c0b0a0100070605040302
	lea	eax, DWORD PTR [r12*8]
	lea	esi, DWORD PTR [rax+2]
	mov	r9d, eax
	add	r9, r9
	lea	edi, DWORD PTR [rax+3]
	add	rsi, rsi
	lea	r8d, DWORD PTR [rax+1]
	add	r8, r8
	lea	ebx, DWORD PTR [rax+6]
	add	rdi, rdi
	lea	r11d, DWORD PTR [rax+7]
	add	rbx, rbx
	lea	r10d, DWORD PTR [rax+4]
	movdqu	xmm7, XMMWORD PTR [rbp+rsi*8]
	lea	ecx, DWORD PTR [rax+5]
; File D:\dev\francium_network\francium_agent\src\ext\randomx\repo\src\blake2\blamka-round-ssse3.h
; Line 68
	movdqa	xmm5, xmm7
; Line 69
	movdqa	xmm0, xmm7
	paddq	xmm0, XMMWORD PTR [rbp+r9*8]
; File D:\dev\francium_network\francium_agent\src\ext\randomx\repo\src\argon2_ssse3.c
; Line 86
	add	r10, r10
; File D:\dev\francium_network\francium_agent\src\ext\randomx\repo\src\blake2\blamka-round-ssse3.h
; Line 68
	pmuludq	xmm5, XMMWORD PTR [rbp+r9*8]
; File D:\dev\francium_network\francium_agent\src\ext\randomx\repo\src\argon2_ssse3.c
; Line 86
	add	r11, r11
	movdqu	xmm13, XMMWORD PTR [rbp+rdi*8]
	add	rcx, rcx
; File D:\dev\francium_network\francium_agent\src\ext\randomx\repo\src\blake2\blamka-round-ssse3.h
; Line 68
	movdqa	xmm4, xmm13
	pmuludq	xmm4, XMMWORD PTR [rbp+r8*8]
; Line 69
	paddq	xmm5, xmm5
	paddq	xmm5, xmm0
	movdqa	xmm0, xmm13
	paddq	xmm0, XMMWORD PTR [rbp+r8*8]
; File D:\dev\francium_network\francium_agent\src\ext\randomx\repo\src\argon2_ssse3.c
; Line 86
	movdqa	xmm1, xmm5
	pxor	xmm1, XMMWORD PTR [rbp+rbx*8]
; File D:\dev\francium_network\francium_agent\src\ext\randomx\repo\src\blake2\blamka-round-ssse3.h
; Line 69
	paddq	xmm4, xmm4
	paddq	xmm4, xmm0
; File D:\dev\francium_network\francium_agent\src\ext\randomx\repo\src\argon2_ssse3.c
; Line 86
	pshufd	xmm14, xmm1, 177			; 000000b1H
; File D:\dev\francium_network\francium_agent\src\ext\randomx\repo\src\blake2\blamka-round-ssse3.h
; Line 68
	movdqa	xmm3, xmm14
; File D:\dev\francium_network\francium_agent\src\ext\randomx\repo\src\argon2_ssse3.c
; Line 86
	movdqa	xmm0, xmm4
	pxor	xmm0, XMMWORD PTR [rbp+r11*8]
; File D:\dev\francium_network\francium_agent\src\ext\randomx\repo\src\blake2\blamka-round-ssse3.h
; Line 68
	movdqa	xmm10, xmm5
	pmuludq	xmm3, XMMWORD PTR [rbp+r10*8]
	movdqa	xmm9, xmm4
; File D:\dev\francium_network\francium_agent\src\ext\randomx\repo\src\argon2_ssse3.c
; Line 86
	pshufd	xmm6, xmm0, 177				; 000000b1H
; File D:\dev\francium_network\francium_agent\src\ext\randomx\repo\src\blake2\blamka-round-ssse3.h
; Line 69
	movdqa	xmm0, xmm14
	paddq	xmm0, XMMWORD PTR [rbp+r10*8]
; Line 68
	movdqa	xmm2, xmm6
	pmuludq	xmm2, XMMWORD PTR [rbp+rcx*8]
; Line 69
	paddq	xmm3, xmm3
	paddq	xmm3, xmm0
	movdqa	xmm0, xmm6
	paddq	xmm0, XMMWORD PTR [rbp+rcx*8]
; File D:\dev\francium_network\francium_agent\src\ext\randomx\repo\src\argon2_ssse3.c
; Line 86
	pxor	xmm7, xmm3
	pshufb	xmm7, xmm15
; File D:\dev\francium_network\francium_agent\src\ext\randomx\repo\src\blake2\blamka-round-ssse3.h
; Line 69
	paddq	xmm2, xmm2
; Line 68
	movdqa	xmm11, xmm3
; Line 69
	paddq	xmm2, xmm0
; Line 68
	pmuludq	xmm10, xmm7
; File D:\dev\francium_network\francium_agent\src\ext\randomx\repo\src\argon2_ssse3.c
; Line 86
	pxor	xmm13, xmm2
; File D:\dev\francium_network\francium_agent\src\ext\randomx\repo\src\blake2\blamka-round-ssse3.h
; Line 69
	paddq	xmm5, xmm7
; File D:\dev\francium_network\francium_agent\src\ext\randomx\repo\src\argon2_ssse3.c
; Line 86
	pshufb	xmm13, xmm15
; File D:\dev\francium_network\francium_agent\src\ext\randomx\repo\src\blake2\blamka-round-ssse3.h
; Line 69
	paddq	xmm10, xmm10
; Line 68
	pmuludq	xmm9, xmm13
; Line 69
	paddq	xmm4, xmm13
	paddq	xmm10, xmm5
; File D:\dev\francium_network\francium_agent\src\ext\randomx\repo\src\argon2_ssse3.c
; Line 86
	pxor	xmm14, xmm10
	pshufb	xmm14, xmm8
; File D:\dev\francium_network\francium_agent\src\ext\randomx\repo\src\blake2\blamka-round-ssse3.h
; Line 69
	paddq	xmm9, xmm9
; Line 68
	pmuludq	xmm11, xmm14
; Line 69
	paddq	xmm9, xmm4
; File D:\dev\francium_network\francium_agent\src\ext\randomx\repo\src\argon2_ssse3.c
; Line 86
	pxor	xmm6, xmm9
; File D:\dev\francium_network\francium_agent\src\ext\randomx\repo\src\blake2\blamka-round-ssse3.h
; Line 69
	paddq	xmm3, xmm14
; File D:\dev\francium_network\francium_agent\src\ext\randomx\repo\src\argon2_ssse3.c
; Line 86
	pshufb	xmm6, xmm8
; File D:\dev\francium_network\francium_agent\src\ext\randomx\repo\src\blake2\blamka-round-ssse3.h
; Line 68
	movdqa	xmm8, xmm2
; Line 69
	paddq	xmm11, xmm11
; Line 68
	pmuludq	xmm8, xmm6
; Line 69
	paddq	xmm11, xmm3
	paddq	xmm2, xmm6
; File D:\dev\francium_network\francium_agent\src\ext\randomx\repo\src\argon2_ssse3.c
; Line 86
	movdqa	xmm0, xmm11
	pxor	xmm0, xmm7
; File D:\dev\francium_network\francium_agent\src\ext\randomx\repo\src\blake2\blamka-round-ssse3.h
; Line 69
	paddq	xmm8, xmm8
	paddq	xmm8, xmm2
; File D:\dev\francium_network\francium_agent\src\ext\randomx\repo\src\argon2_ssse3.c
; Line 86
	pxor	xmm13, xmm8
	movdqa	xmm2, xmm6
	movdqa	xmm1, xmm0
	paddq	xmm1, xmm0
	palignr	xmm2, xmm14, 8
	palignr	xmm14, xmm6, 8
	movdqa	xmm12, xmm13
	psrlq	xmm0, 63				; 0000003fH
	paddq	xmm12, xmm13
	pxor	xmm1, xmm0
	psrlq	xmm13, 63				; 0000003fH
	movdqa	xmm7, xmm1
	pxor	xmm12, xmm13
	palignr	xmm7, xmm12, 8
; File D:\dev\francium_network\francium_agent\src\ext\randomx\repo\src\blake2\blamka-round-ssse3.h
; Line 68
	movdqa	xmm6, xmm10
; File D:\dev\francium_network\francium_agent\src\ext\randomx\repo\src\argon2_ssse3.c
; Line 86
	palignr	xmm12, xmm1, 8
; File D:\dev\francium_network\francium_agent\src\ext\randomx\repo\src\blake2\blamka-round-ssse3.h
; Line 68
	movdqa	xmm5, xmm9
	pmuludq	xmm6, xmm12
; Line 69
	paddq	xmm9, xmm7
	pmuludq	xmm5, xmm7
	paddq	xmm10, xmm12
	paddq	xmm6, xmm6
	paddq	xmm6, xmm10
	paddq	xmm5, xmm5
; File D:\dev\francium_network\francium_agent\src\ext\randomx\repo\src\argon2_ssse3.c
; Line 86
	movdqa	xmm0, xmm6
; File D:\dev\francium_network\francium_agent\src\ext\randomx\repo\src\blake2\blamka-round-ssse3.h
; Line 69
	paddq	xmm5, xmm9
; File D:\dev\francium_network\francium_agent\src\ext\randomx\repo\src\argon2_ssse3.c
; Line 86
	pxor	xmm0, xmm14
	movdqa	xmm1, xmm5
	movdqa	xmm14, XMMWORD PTR __xmm@09080f0e0d0c0b0a0100070605040302
	pxor	xmm1, xmm2
	pshufd	xmm4, xmm0, 177				; 000000b1H
; File D:\dev\francium_network\francium_agent\src\ext\randomx\repo\src\blake2\blamka-round-ssse3.h
; Line 68
	movdqa	xmm2, xmm8
	pmuludq	xmm2, xmm4
; Line 69
	paddq	xmm8, xmm4
; File D:\dev\francium_network\francium_agent\src\ext\randomx\repo\src\argon2_ssse3.c
; Line 86
	pshufd	xmm3, xmm1, 177				; 000000b1H
; File D:\dev\francium_network\francium_agent\src\ext\randomx\repo\src\blake2\blamka-round-ssse3.h
; Line 68
	movdqa	xmm1, xmm11
	pmuludq	xmm1, xmm3
; Line 69
	paddq	xmm11, xmm3
	paddq	xmm2, xmm2
	paddq	xmm2, xmm8
; File D:\dev\francium_network\francium_agent\src\ext\randomx\repo\src\argon2_ssse3.c
; Line 86
	pxor	xmm12, xmm2
; File D:\dev\francium_network\francium_agent\src\ext\randomx\repo\src\blake2\blamka-round-ssse3.h
; Line 69
	paddq	xmm1, xmm1
	paddq	xmm1, xmm11
; File D:\dev\francium_network\francium_agent\src\ext\randomx\repo\src\argon2_ssse3.c
; Line 86
	pshufb	xmm12, xmm15
	movdqa	xmm8, xmm1
	pxor	xmm8, xmm7
; File D:\dev\francium_network\francium_agent\src\ext\randomx\repo\src\blake2\blamka-round-ssse3.h
; Line 68
	movdqa	xmm7, xmm6
; Line 69
	paddq	xmm6, xmm12
	pmuludq	xmm7, xmm12
; File D:\dev\francium_network\francium_agent\src\ext\randomx\repo\src\argon2_ssse3.c
; Line 86
	pshufb	xmm8, xmm15
; File D:\dev\francium_network\francium_agent\src\ext\randomx\repo\src\blake2\blamka-round-ssse3.h
; Line 69
	paddq	xmm7, xmm7
	movdqa	xmm0, xmm8
	paddq	xmm7, xmm6
	paddq	xmm0, xmm5
	movdqa	xmm6, xmm8
; File D:\dev\francium_network\francium_agent\src\ext\randomx\repo\src\argon2_ssse3.c
; Line 86
	movdqu	XMMWORD PTR [rbp+r9*8], xmm7
	pxor	xmm7, xmm4
; File D:\dev\francium_network\francium_agent\src\ext\randomx\repo\src\blake2\blamka-round-ssse3.h
; Line 68
	pmuludq	xmm6, xmm5
	movdqa	xmm4, xmm2
; File D:\dev\francium_network\francium_agent\src\ext\randomx\repo\src\argon2_ssse3.c
; Line 86
	pshufb	xmm7, xmm14
; File D:\dev\francium_network\francium_agent\src\ext\randomx\repo\src\blake2\blamka-round-ssse3.h
; Line 69
	paddq	xmm6, xmm6
	paddq	xmm6, xmm0
; Line 68
	pmuludq	xmm4, xmm7
; Line 69
	paddq	xmm2, xmm7
; File D:\dev\francium_network\francium_agent\src\ext\randomx\repo\src\argon2_ssse3.c
; Line 86
	movdqu	XMMWORD PTR [rbp+r8*8], xmm6
	pxor	xmm6, xmm3
; File D:\dev\francium_network\francium_agent\src\ext\randomx\repo\src\blake2\blamka-round-ssse3.h
; Line 68
	movdqa	xmm3, xmm1
; File D:\dev\francium_network\francium_agent\src\ext\randomx\repo\src\argon2_ssse3.c
; Line 86
	pshufb	xmm6, xmm14
; File D:\dev\francium_network\francium_agent\src\ext\randomx\repo\src\blake2\blamka-round-ssse3.h
; Line 69
	paddq	xmm4, xmm4
	paddq	xmm4, xmm2
; Line 68
	pmuludq	xmm3, xmm6
; Line 69
	paddq	xmm1, xmm6
; File D:\dev\francium_network\francium_agent\src\ext\randomx\repo\src\argon2_ssse3.c
; Line 86
	movdqa	xmm0, xmm4
	pxor	xmm0, xmm12
	movdqa	xmm2, xmm0
	paddq	xmm2, xmm0
	psrlq	xmm0, 63				; 0000003fH
; File D:\dev\francium_network\francium_agent\src\ext\randomx\repo\src\blake2\blamka-round-ssse3.h
; Line 69
	paddq	xmm3, xmm3
; File D:\dev\francium_network\francium_agent\src\ext\randomx\repo\src\argon2_ssse3.c
; Line 86
	pxor	xmm2, xmm0
; File D:\dev\francium_network\francium_agent\src\ext\randomx\repo\src\blake2\blamka-round-ssse3.h
; Line 69
	paddq	xmm3, xmm1
; File D:\dev\francium_network\francium_agent\src\ext\randomx\repo\src\argon2_ssse3.c
; Line 86
	pxor	xmm8, xmm3
	movdqa	xmm1, xmm8
	paddq	xmm1, xmm8
	movdqu	XMMWORD PTR [rbp+r10*8], xmm3
	psrlq	xmm8, 63				; 0000003fH
	movdqa	xmm0, xmm2
	pxor	xmm1, xmm8
	movdqu	XMMWORD PTR [rbp+rcx*8], xmm4
	palignr	xmm0, xmm1, 8
	inc	r12d
	movdqu	XMMWORD PTR [rbp+rsi*8], xmm0
	movdqa	xmm0, xmm6
	palignr	xmm0, xmm7, 8
	palignr	xmm7, xmm6, 8
	palignr	xmm1, xmm2, 8
	movdqu	XMMWORD PTR [rbp+r11*8], xmm7
	movdqu	XMMWORD PTR [rbp+rdi*8], xmm1
	movdqu	XMMWORD PTR [rbp+rbx*8], xmm0
	cmp	r12d, 8
	jb	$LL147@fill_block
; Line 91
	mov	rcx, rbp
	lea	rax, QWORD PTR [rbp+256]
	mov	edx, 8
	npad	2
$LL34@fill_block:
; Line 92
	movdqu	xmm3, XMMWORD PTR [rax]
	movdqu	xmm2, XMMWORD PTR [rax+128]
; File D:\dev\francium_network\francium_agent\src\ext\randomx\repo\src\blake2\blamka-round-ssse3.h
; Line 68
	movdqa	xmm5, xmm3
	pmuludq	xmm5, XMMWORD PTR [rcx]
; Line 69
	movdqa	xmm0, xmm3
	paddq	xmm0, XMMWORD PTR [rcx]
; Line 68
	movdqa	xmm4, xmm2
	pmuludq	xmm4, XMMWORD PTR [rax-128]
; Line 69
	paddq	xmm5, xmm5
	paddq	xmm5, xmm0
	movdqa	xmm0, xmm2
	paddq	xmm0, XMMWORD PTR [rax-128]
	paddq	xmm4, xmm4
	paddq	xmm4, xmm0
; File D:\dev\francium_network\francium_agent\src\ext\randomx\repo\src\argon2_ssse3.c
; Line 92
	movdqa	xmm1, xmm5
	pxor	xmm1, XMMWORD PTR [rax+512]
	movdqa	xmm0, xmm4
	pxor	xmm0, XMMWORD PTR [rax+640]
; File D:\dev\francium_network\francium_agent\src\ext\randomx\repo\src\blake2\blamka-round-ssse3.h
; Line 68
	movdqa	xmm11, xmm5
; File D:\dev\francium_network\francium_agent\src\ext\randomx\repo\src\argon2_ssse3.c
; Line 92
	pshufd	xmm8, xmm0, 177				; 000000b1H
; File D:\dev\francium_network\francium_agent\src\ext\randomx\repo\src\blake2\blamka-round-ssse3.h
; Line 68
	movdqa	xmm7, xmm4
; File D:\dev\francium_network\francium_agent\src\ext\randomx\repo\src\argon2_ssse3.c
; Line 92
	movdqu	xmm0, XMMWORD PTR [rax+256]
; File D:\dev\francium_network\francium_agent\src\ext\randomx\repo\src\blake2\blamka-round-ssse3.h
; Line 69
	movdqa	xmm12, xmm8
; File D:\dev\francium_network\francium_agent\src\ext\randomx\repo\src\argon2_ssse3.c
; Line 92
	pshufd	xmm10, xmm1, 177			; 000000b1H
; File D:\dev\francium_network\francium_agent\src\ext\randomx\repo\src\blake2\blamka-round-ssse3.h
; Line 68
	movdqa	xmm1, xmm10
; Line 69
	movdqa	xmm13, xmm10
	pmuludq	xmm1, xmm0
	paddq	xmm13, xmm0
; File D:\dev\francium_network\francium_agent\src\ext\randomx\repo\src\argon2_ssse3.c
; Line 92
	movdqu	xmm0, XMMWORD PTR [rax+384]
; File D:\dev\francium_network\francium_agent\src\ext\randomx\repo\src\blake2\blamka-round-ssse3.h
; Line 69
	paddq	xmm12, xmm0
	paddq	xmm1, xmm1
	paddq	xmm13, xmm1
; Line 68
	movdqa	xmm1, xmm8
	pmuludq	xmm1, xmm0
	movdqa	xmm0, xmm13
; Line 69
	paddq	xmm1, xmm1
	paddq	xmm12, xmm1
; File D:\dev\francium_network\francium_agent\src\ext\randomx\repo\src\argon2_ssse3.c
; Line 92
	movdqa	xmm1, xmm13
	pxor	xmm1, xmm3
	movdqa	xmm3, xmm12
	pxor	xmm3, xmm2
	pshufb	xmm1, xmm15
	pshufb	xmm3, xmm15
; File D:\dev\francium_network\francium_agent\src\ext\randomx\repo\src\blake2\blamka-round-ssse3.h
; Line 68
	pmuludq	xmm11, xmm1
; Line 69
	paddq	xmm5, xmm1
; Line 68
	pmuludq	xmm7, xmm3
; Line 69
	paddq	xmm4, xmm3
	paddq	xmm11, xmm11
	paddq	xmm11, xmm5
	paddq	xmm7, xmm7
; File D:\dev\francium_network\francium_agent\src\ext\randomx\repo\src\argon2_ssse3.c
; Line 92
	pxor	xmm10, xmm11
; File D:\dev\francium_network\francium_agent\src\ext\randomx\repo\src\blake2\blamka-round-ssse3.h
; Line 69
	paddq	xmm7, xmm4
; File D:\dev\francium_network\francium_agent\src\ext\randomx\repo\src\argon2_ssse3.c
; Line 92
	pshufb	xmm10, xmm14
	pxor	xmm8, xmm7
; File D:\dev\francium_network\francium_agent\src\ext\randomx\repo\src\blake2\blamka-round-ssse3.h
; Line 68
	pmuludq	xmm0, xmm10
; Line 69
	paddq	xmm13, xmm10
; File D:\dev\francium_network\francium_agent\src\ext\randomx\repo\src\argon2_ssse3.c
; Line 92
	pshufb	xmm8, xmm14
; File D:\dev\francium_network\francium_agent\src\ext\randomx\repo\src\blake2\blamka-round-ssse3.h
; Line 69
	paddq	xmm0, xmm0
; File D:\dev\francium_network\francium_agent\src\ext\randomx\repo\src\argon2_ssse3.c
; Line 92
	movdqa	xmm2, xmm8
; File D:\dev\francium_network\francium_agent\src\ext\randomx\repo\src\blake2\blamka-round-ssse3.h
; Line 69
	paddq	xmm13, xmm0
; File D:\dev\francium_network\francium_agent\src\ext\randomx\repo\src\argon2_ssse3.c
; Line 92
	palignr	xmm2, xmm10, 8
; File D:\dev\francium_network\francium_agent\src\ext\randomx\repo\src\blake2\blamka-round-ssse3.h
; Line 68
	movdqa	xmm0, xmm12
; File D:\dev\francium_network\francium_agent\src\ext\randomx\repo\src\argon2_ssse3.c
; Line 92
	palignr	xmm10, xmm8, 8
; File D:\dev\francium_network\francium_agent\src\ext\randomx\repo\src\blake2\blamka-round-ssse3.h
; Line 68
	pmuludq	xmm0, xmm8
; File D:\dev\francium_network\francium_agent\src\ext\randomx\repo\src\argon2_ssse3.c
; Line 92
	pxor	xmm1, xmm13
; File D:\dev\francium_network\francium_agent\src\ext\randomx\repo\src\blake2\blamka-round-ssse3.h
; Line 69
	paddq	xmm12, xmm8
	paddq	xmm0, xmm0
	paddq	xmm12, xmm0
; File D:\dev\francium_network\francium_agent\src\ext\randomx\repo\src\argon2_ssse3.c
; Line 92
	movdqa	xmm0, xmm1
	pxor	xmm3, xmm12
	paddq	xmm0, xmm1
	movdqa	xmm9, xmm3
	psrlq	xmm1, 63				; 0000003fH
	paddq	xmm9, xmm3
	pxor	xmm0, xmm1
	movdqa	xmm6, xmm0
	psrlq	xmm3, 63				; 0000003fH
	pxor	xmm9, xmm3
	palignr	xmm6, xmm9, 8
	palignr	xmm9, xmm0, 8
; File D:\dev\francium_network\francium_agent\src\ext\randomx\repo\src\blake2\blamka-round-ssse3.h
; Line 68
	movdqa	xmm0, xmm11
	pmuludq	xmm0, xmm9
; File D:\dev\francium_network\francium_agent\src\ext\randomx\repo\src\argon2_ssse3.c
; Line 91
	lea	rax, QWORD PTR [rax+16]
; File D:\dev\francium_network\francium_agent\src\ext\randomx\repo\src\blake2\blamka-round-ssse3.h
; Line 68
	movdqa	xmm5, xmm7
; Line 69
	paddq	xmm11, xmm9
	paddq	xmm7, xmm6
	pmuludq	xmm5, xmm6
	paddq	xmm0, xmm0
	paddq	xmm11, xmm0
; File D:\dev\francium_network\francium_agent\src\ext\randomx\repo\src\argon2_ssse3.c
; Line 92
	movdqa	xmm0, xmm11
; File D:\dev\francium_network\francium_agent\src\ext\randomx\repo\src\blake2\blamka-round-ssse3.h
; Line 69
	paddq	xmm5, xmm5
; File D:\dev\francium_network\francium_agent\src\ext\randomx\repo\src\argon2_ssse3.c
; Line 92
	pxor	xmm0, xmm10
; File D:\dev\francium_network\francium_agent\src\ext\randomx\repo\src\blake2\blamka-round-ssse3.h
; Line 69
	paddq	xmm5, xmm7
; File D:\dev\francium_network\francium_agent\src\ext\randomx\repo\src\argon2_ssse3.c
; Line 92
	pshufd	xmm4, xmm0, 177				; 000000b1H
	movdqa	xmm1, xmm5
	pxor	xmm1, xmm2
; File D:\dev\francium_network\francium_agent\src\ext\randomx\repo\src\blake2\blamka-round-ssse3.h
; Line 68
	movdqa	xmm0, xmm12
	pmuludq	xmm0, xmm4
; Line 69
	paddq	xmm12, xmm4
; File D:\dev\francium_network\francium_agent\src\ext\randomx\repo\src\argon2_ssse3.c
; Line 92
	pshufd	xmm3, xmm1, 177				; 000000b1H
; File D:\dev\francium_network\francium_agent\src\ext\randomx\repo\src\blake2\blamka-round-ssse3.h
; Line 69
	paddq	xmm0, xmm0
	paddq	xmm12, xmm0
; Line 68
	movdqa	xmm0, xmm13
	pmuludq	xmm0, xmm3
; Line 69
	paddq	xmm13, xmm3
; File D:\dev\francium_network\francium_agent\src\ext\randomx\repo\src\argon2_ssse3.c
; Line 92
	pxor	xmm9, xmm12
	pshufb	xmm9, xmm15
; File D:\dev\francium_network\francium_agent\src\ext\randomx\repo\src\blake2\blamka-round-ssse3.h
; Line 69
	paddq	xmm0, xmm0
	paddq	xmm13, xmm0
	movdqa	xmm8, xmm9
	paddq	xmm8, xmm11
	movdqa	xmm0, xmm9
	pmuludq	xmm0, xmm11
; File D:\dev\francium_network\francium_agent\src\ext\randomx\repo\src\argon2_ssse3.c
; Line 92
	movdqa	xmm7, xmm13
	pxor	xmm7, xmm6
	pshufb	xmm7, xmm15
; File D:\dev\francium_network\francium_agent\src\ext\randomx\repo\src\blake2\blamka-round-ssse3.h
; Line 69
	paddq	xmm0, xmm0
	paddq	xmm8, xmm0
; Line 68
	movdqa	xmm6, xmm7
	pmuludq	xmm6, xmm5
; Line 69
	movdqa	xmm0, xmm7
	paddq	xmm0, xmm5
; File D:\dev\francium_network\francium_agent\src\ext\randomx\repo\src\argon2_ssse3.c
; Line 92
	movdqu	XMMWORD PTR [rcx], xmm8
	pxor	xmm8, xmm4
; File D:\dev\francium_network\francium_agent\src\ext\randomx\repo\src\blake2\blamka-round-ssse3.h
; Line 68
	movdqa	xmm4, xmm12
; File D:\dev\francium_network\francium_agent\src\ext\randomx\repo\src\argon2_ssse3.c
; Line 92
	pshufb	xmm8, xmm14
; File D:\dev\francium_network\francium_agent\src\ext\randomx\repo\src\blake2\blamka-round-ssse3.h
; Line 69
	paddq	xmm6, xmm6
	paddq	xmm6, xmm0
; Line 68
	pmuludq	xmm4, xmm8
; File D:\dev\francium_network\francium_agent\src\ext\randomx\repo\src\argon2_ssse3.c
; Line 92
	movdqu	XMMWORD PTR [rax-144], xmm6
; File D:\dev\francium_network\francium_agent\src\ext\randomx\repo\src\blake2\blamka-round-ssse3.h
; Line 69
	paddq	xmm12, xmm8
; File D:\dev\francium_network\francium_agent\src\ext\randomx\repo\src\argon2_ssse3.c
; Line 92
	pxor	xmm6, xmm3
; File D:\dev\francium_network\francium_agent\src\ext\randomx\repo\src\blake2\blamka-round-ssse3.h
; Line 68
	movdqa	xmm3, xmm13
; File D:\dev\francium_network\francium_agent\src\ext\randomx\repo\src\argon2_ssse3.c
; Line 92
	pshufb	xmm6, xmm14
; File D:\dev\francium_network\francium_agent\src\ext\randomx\repo\src\blake2\blamka-round-ssse3.h
; Line 69
	paddq	xmm4, xmm4
; Line 68
	pmuludq	xmm3, xmm6
; Line 69
	paddq	xmm4, xmm12
; File D:\dev\francium_network\francium_agent\src\ext\randomx\repo\src\argon2_ssse3.c
; Line 92
	pxor	xmm9, xmm4
	movdqu	XMMWORD PTR [rax+368], xmm4
	movdqa	xmm2, xmm9
; File D:\dev\francium_network\francium_agent\src\ext\randomx\repo\src\blake2\blamka-round-ssse3.h
; Line 69
	paddq	xmm13, xmm6
; File D:\dev\francium_network\francium_agent\src\ext\randomx\repo\src\argon2_ssse3.c
; Line 92
	paddq	xmm2, xmm9
	psrlq	xmm9, 63				; 0000003fH
	pxor	xmm2, xmm9
; File D:\dev\francium_network\francium_agent\src\ext\randomx\repo\src\blake2\blamka-round-ssse3.h
; Line 69
	paddq	xmm3, xmm3
; File D:\dev\francium_network\francium_agent\src\ext\randomx\repo\src\argon2_ssse3.c
; Line 92
	movdqa	xmm0, xmm2
; File D:\dev\francium_network\francium_agent\src\ext\randomx\repo\src\blake2\blamka-round-ssse3.h
; Line 69
	paddq	xmm3, xmm13
; File D:\dev\francium_network\francium_agent\src\ext\randomx\repo\src\argon2_ssse3.c
; Line 92
	pxor	xmm7, xmm3
	movdqu	XMMWORD PTR [rax+240], xmm3
	movdqa	xmm1, xmm7
	paddq	xmm1, xmm7
	psrlq	xmm7, 63				; 0000003fH
	pxor	xmm1, xmm7
	palignr	xmm0, xmm1, 8
	movdqu	XMMWORD PTR [rax-16], xmm0
	movdqa	xmm0, xmm6
	palignr	xmm0, xmm8, 8
	palignr	xmm8, xmm6, 8
	palignr	xmm1, xmm2, 8
	movdqu	XMMWORD PTR [rax+624], xmm8
	movdqu	XMMWORD PTR [rax+112], xmm1
	movdqu	XMMWORD PTR [rax+496], xmm0
; Line 91
	lea	rcx, QWORD PTR [rcx+16]
	sub	rdx, 1
	jne	$LL34@fill_block
; Line 97
	lea	rax, QWORD PTR block_XY$[rsp]
	sub	rax, rbp
	sub	r15, rbp
	npad	4
$LL58@fill_block:
; Line 98
	movdqu	xmm0, XMMWORD PTR [rax+rbp]
	pxor	xmm0, XMMWORD PTR [rbp]
	movdqu	XMMWORD PTR [rbp], xmm0
; Line 99
	movdqu	XMMWORD PTR [r15+rbp], xmm0
	lea	rbp, QWORD PTR [rbp+16]
	sub	r14, 1
	jne	SHORT $LL58@fill_block
; Line 101
	mov	rcx, QWORD PTR __$ArrayPad$[rsp]
	xor	rcx, rsp
	call	__security_check_cookie
	lea	r11, QWORD PTR [rsp+1200]
	mov	rbx, QWORD PTR [r11+56]
	mov	rbp, QWORD PTR [r11+72]
	movaps	xmm6, XMMWORD PTR [r11-16]
	movaps	xmm7, XMMWORD PTR [r11-32]
	movaps	xmm8, XMMWORD PTR [r11-48]
	movaps	xmm9, XMMWORD PTR [r11-64]
	movaps	xmm10, XMMWORD PTR [r11-80]
	movaps	xmm11, XMMWORD PTR [r11-96]
	movaps	xmm12, XMMWORD PTR [r11-112]
	movaps	xmm13, XMMWORD PTR [r11-128]
	movaps	xmm14, XMMWORD PTR [r11-144]
	movaps	xmm15, XMMWORD PTR [r11-160]
	mov	rsp, r11
	pop	r15
	pop	r14
	pop	r12
	pop	rdi
	pop	rsi
	ret	0
fill_block ENDP
_TEXT	ENDS
; Function compile flags: /Ogtpy
;	COMDAT randomx_argon2_fill_segment_ssse3
_TEXT	SEGMENT
position$GSCopy$ = 32
tv349 = 48
state$ = 64
__$ArrayPad$ = 1088
instance$ = 1168
position$ = 1176
randomx_argon2_fill_segment_ssse3 PROC			; COMDAT
; File D:\dev\francium_network\francium_agent\src\ext\randomx\repo\src\argon2_ssse3.c
; Line 104
$LN27:
; Line 112
	test	rcx, rcx
	je	$LN25@randomx_ar
	mov	r11, rsp
	push	r14
	sub	rsp, 1152				; 00000480H
	mov	rax, QWORD PTR __security_cookie
	xor	rax, rsp
	mov	QWORD PTR __$ArrayPad$[rsp], rax
; Line 104
	movups	xmm0, XMMWORD PTR [rdx]
; Line 116
	mov	QWORD PTR [r11-16], rbp
	mov	r14, rcx
	mov	QWORD PTR [r11-24], rsi
	mov	QWORD PTR [r11-32], rdi
	xor	edi, edi
	movups	XMMWORD PTR position$GSCopy$[rsp], xmm0
; Line 118
	mov	ebp, DWORD PTR position$GSCopy$[rsp]
	mov	QWORD PTR [r11-48], r13
	movzx	r13d, BYTE PTR position$GSCopy$[rsp+8]
	test	ebp, ebp
	jne	SHORT $LN6@randomx_ar
	test	r13b, r13b
	mov	eax, 2
	cmove	edi, eax
$LN6@randomx_ar:
; Line 123
	mov	r9d, DWORD PTR [rcx+20]
; Line 126
	xor	edx, edx
	mov	ecx, DWORD PTR [rcx+24]
	mov	esi, r13d
	mov	rax, QWORD PTR position$GSCopy$[rsp]
	shr	rax, 32					; 00000020H
	imul	eax, ecx
	imul	esi, r9d
	add	eax, edi
	add	esi, eax
	mov	eax, esi
	div	ecx
	test	edx, edx
	jne	SHORT $LN7@randomx_ar
; Line 128
	lea	r8d, DWORD PTR [rcx-1]
	add	r8d, esi
; Line 129
	jmp	SHORT $LN8@randomx_ar
$LN7@randomx_ar:
; Line 132
	lea	r8d, DWORD PTR [rsi-1]
$LN8@randomx_ar:
; Line 135
	mov	edx, r8d
	lea	rax, QWORD PTR state$[rsp]
	shl	rdx, 10
	mov	ecx, 8
	add	rdx, QWORD PTR [r14]
$LL20@randomx_ar:
	lea	rax, QWORD PTR [rax+128]
	movups	xmm0, XMMWORD PTR [rdx]
	lea	rdx, QWORD PTR [rdx+128]
	movups	XMMWORD PTR [rax-128], xmm0
	movups	xmm1, XMMWORD PTR [rdx-112]
	movups	XMMWORD PTR [rax-112], xmm1
	movups	xmm0, XMMWORD PTR [rdx-96]
	movups	XMMWORD PTR [rax-96], xmm0
	movups	xmm1, XMMWORD PTR [rdx-80]
	movups	XMMWORD PTR [rax-80], xmm1
	movups	xmm0, XMMWORD PTR [rdx-64]
	movups	XMMWORD PTR [rax-64], xmm0
	movups	xmm1, XMMWORD PTR [rdx-48]
	movups	XMMWORD PTR [rax-48], xmm1
	movups	xmm0, XMMWORD PTR [rdx-32]
	movups	XMMWORD PTR [rax-32], xmm0
	movups	xmm1, XMMWORD PTR [rdx-16]
	movups	XMMWORD PTR [rax-16], xmm1
	sub	rcx, 1
	jne	SHORT $LL20@randomx_ar
; Line 137
	cmp	edi, r9d
	jae	$LN24@randomx_ar
	mov	QWORD PTR [rsp+1184], rbx
	mov	QWORD PTR [rsp+1120], r12
	mov	r12d, DWORD PTR position$GSCopy$[rsp+4]
	mov	QWORD PTR [rsp+1104], r15
	npad	1
$LL4@randomx_ar:
; Line 146
	mov	r15, QWORD PTR [r14]
	xor	edx, edx
; Line 149
	mov	ecx, DWORD PTR [r14+28]
	mov	eax, esi
	div	DWORD PTR [r14+24]
	lea	eax, DWORD PTR [rsi-1]
	cmp	edx, 1
	cmovne	eax, r8d
	xor	edx, edx
	mov	QWORD PTR tv349[rsp], rax
	shl	rax, 10
	mov	r8, QWORD PTR [rax+r15]
	mov	rax, r8
	shr	rax, 32					; 00000020H
	div	rcx
	mov	rbx, rdx
; Line 151
	test	ebp, ebp
	jne	SHORT $LN10@randomx_ar
	test	r13b, r13b
	cmove	rbx, r12
$LN10@randomx_ar:
; Line 160
	xor	r9d, r9d
	mov	DWORD PTR position$GSCopy$[rsp+12], edi
	cmp	rbx, r12
	lea	rdx, QWORD PTR position$GSCopy$[rsp]
	mov	rcx, r14
	sete	r9b
	call	randomx_argon2_index_alpha
	mov	edx, eax
; Line 167
	xor	r9d, r9d
	mov	eax, DWORD PTR [r14+24]
	imul	rax, rbx
	mov	r8d, esi
	add	rdx, rax
	shl	r8, 10
	shl	rdx, 10
	add	r8, r15
	add	rdx, r15
	cmp	DWORD PTR [r14+8], 16
	je	SHORT $LN2@randomx_ar
; Line 172
	test	ebp, ebp
	setne	r9b
$LN2@randomx_ar:
; Line 138
	lea	rcx, QWORD PTR state$[rsp]
	call	fill_block
	mov	r8, QWORD PTR tv349[rsp]
	inc	edi
	inc	r8d
	inc	esi
	cmp	edi, DWORD PTR [r14+20]
	jb	$LL4@randomx_ar
; Line 137
	mov	r15, QWORD PTR [rsp+1104]
	mov	r12, QWORD PTR [rsp+1120]
	mov	rbx, QWORD PTR [rsp+1184]
$LN24@randomx_ar:
	mov	rdi, QWORD PTR [rsp+1128]
	mov	rsi, QWORD PTR [rsp+1136]
	mov	rbp, QWORD PTR [rsp+1144]
	mov	r13, QWORD PTR [rsp+1112]
; Line 180
	mov	rcx, QWORD PTR __$ArrayPad$[rsp]
	xor	rcx, rsp
	call	__security_check_cookie
	add	rsp, 1152				; 00000480H
	pop	r14
$LN25@randomx_ar:
	ret	0
randomx_argon2_fill_segment_ssse3 ENDP
_TEXT	ENDS
END
