; Listing generated by Microsoft (R) Optimizing Compiler Version 19.35.32216.1 

include listing.inc

INCLUDELIB OLDNAMES

COMM	?_OptionsStorage@?1??__local_stdio_scanf_options@@9@9:QWORD							; `__local_stdio_scanf_options'::`2'::_OptionsStorage
COMM	?_OptionsStorage@?1??__local_stdio_printf_options@@9@9:QWORD							; `__local_stdio_printf_options'::`2'::_OptionsStorage
_DATA	ENDS
blake2b_IV DQ	6a09e667f3bcc908H
	DQ	bb67ae8584caa73bH
	DQ	3c6ef372fe94f82bH
	DQ	a54ff53a5f1d36f1H
	DQ	510e527fade682d1H
	DQ	9b05688c2b3e6c1fH
	DQ	1f83d9abfb41bd6bH
	DQ	5be0cd19137e2179H
blake2b_sigma DD 00H
	DD	01H
	DD	02H
	DD	03H
	DD	04H
	DD	05H
	DD	06H
	DD	07H
	DD	08H
	DD	09H
	DD	0aH
	DD	0bH
	DD	0cH
	DD	0dH
	DD	0eH
	DD	0fH
	DD	0eH
	DD	0aH
	DD	04H
	DD	08H
	DD	09H
	DD	0fH
	DD	0dH
	DD	06H
	DD	01H
	DD	0cH
	DD	00H
	DD	02H
	DD	0bH
	DD	07H
	DD	05H
	DD	03H
	DD	0bH
	DD	08H
	DD	0cH
	DD	00H
	DD	05H
	DD	02H
	DD	0fH
	DD	0dH
	DD	0aH
	DD	0eH
	DD	03H
	DD	06H
	DD	07H
	DD	01H
	DD	09H
	DD	04H
	DD	07H
	DD	09H
	DD	03H
	DD	01H
	DD	0dH
	DD	0cH
	DD	0bH
	DD	0eH
	DD	02H
	DD	06H
	DD	05H
	DD	0aH
	DD	04H
	DD	00H
	DD	0fH
	DD	08H
	DD	09H
	DD	00H
	DD	05H
	DD	07H
	DD	02H
	DD	04H
	DD	0aH
	DD	0fH
	DD	0eH
	DD	01H
	DD	0bH
	DD	0cH
	DD	06H
	DD	08H
	DD	03H
	DD	0dH
	DD	02H
	DD	0cH
	DD	06H
	DD	0aH
	DD	00H
	DD	0bH
	DD	08H
	DD	03H
	DD	04H
	DD	0dH
	DD	07H
	DD	05H
	DD	0fH
	DD	0eH
	DD	01H
	DD	09H
	DD	0cH
	DD	05H
	DD	01H
	DD	0fH
	DD	0eH
	DD	0dH
	DD	04H
	DD	0aH
	DD	00H
	DD	07H
	DD	06H
	DD	03H
	DD	09H
	DD	02H
	DD	08H
	DD	0bH
	DD	0dH
	DD	0bH
	DD	07H
	DD	0eH
	DD	0cH
	DD	01H
	DD	03H
	DD	09H
	DD	05H
	DD	00H
	DD	0fH
	DD	04H
	DD	08H
	DD	06H
	DD	02H
	DD	0aH
	DD	06H
	DD	0fH
	DD	0eH
	DD	09H
	DD	0bH
	DD	03H
	DD	00H
	DD	08H
	DD	0cH
	DD	02H
	DD	0dH
	DD	07H
	DD	01H
	DD	04H
	DD	0aH
	DD	05H
	DD	0aH
	DD	02H
	DD	08H
	DD	04H
	DD	07H
	DD	06H
	DD	01H
	DD	05H
	DD	0fH
	DD	0bH
	DD	09H
	DD	0eH
	DD	03H
	DD	0cH
	DD	0dH
	DD	00H
	DD	00H
	DD	01H
	DD	02H
	DD	03H
	DD	04H
	DD	05H
	DD	06H
	DD	07H
	DD	08H
	DD	09H
	DD	0aH
	DD	0bH
	DD	0cH
	DD	0dH
	DD	0eH
	DD	0fH
	DD	0eH
	DD	0aH
	DD	04H
	DD	08H
	DD	09H
	DD	0fH
	DD	0dH
	DD	06H
	DD	01H
	DD	0cH
	DD	00H
	DD	02H
	DD	0bH
	DD	07H
	DD	05H
	DD	03H
PUBLIC	randomx_blake2b_long
PUBLIC	randomx_blake2b_final
PUBLIC	randomx_blake2b_update
PUBLIC	randomx_blake2b_init_key
PUBLIC	randomx_blake2b_init
PUBLIC	randomx_blake2b_init_param
PUBLIC	randomx_blake2b
;	COMDAT pdata
pdata	SEGMENT
$pdata$randomx_blake2b_long DD imagerel $LN99
	DD	imagerel $LN99+80
	DD	imagerel $unwind$randomx_blake2b_long
pdata	ENDS
;	COMDAT pdata
pdata	SEGMENT
$pdata$1$randomx_blake2b_long DD imagerel $LN99+80
	DD	imagerel $LN99+119
	DD	imagerel $chain$1$randomx_blake2b_long
pdata	ENDS
;	COMDAT pdata
pdata	SEGMENT
$pdata$2$randomx_blake2b_long DD imagerel $LN99+119
	DD	imagerel $LN99+589
	DD	imagerel $chain$2$randomx_blake2b_long
pdata	ENDS
;	COMDAT pdata
pdata	SEGMENT
$pdata$3$randomx_blake2b_long DD imagerel $LN99+589
	DD	imagerel $LN99+605
	DD	imagerel $chain$3$randomx_blake2b_long
pdata	ENDS
;	COMDAT pdata
pdata	SEGMENT
$pdata$4$randomx_blake2b_long DD imagerel $LN99+605
	DD	imagerel $LN99+633
	DD	imagerel $chain$4$randomx_blake2b_long
pdata	ENDS
;	COMDAT pdata
pdata	SEGMENT
$pdata$randomx_blake2b_final DD imagerel $LN27
	DD	imagerel $LN27+281
	DD	imagerel $unwind$randomx_blake2b_final
pdata	ENDS
;	COMDAT pdata
pdata	SEGMENT
$pdata$randomx_blake2b_update DD imagerel $LN22
	DD	imagerel $LN22+84
	DD	imagerel $unwind$randomx_blake2b_update
pdata	ENDS
;	COMDAT pdata
pdata	SEGMENT
$pdata$0$randomx_blake2b_update DD imagerel $LN22+84
	DD	imagerel $LN22+252
	DD	imagerel $chain$0$randomx_blake2b_update
pdata	ENDS
;	COMDAT pdata
pdata	SEGMENT
$pdata$1$randomx_blake2b_update DD imagerel $LN22+252
	DD	imagerel $LN22+321
	DD	imagerel $chain$1$randomx_blake2b_update
pdata	ENDS
;	COMDAT pdata
pdata	SEGMENT
$pdata$blake2b_compress DD imagerel blake2b_compress
	DD	imagerel blake2b_compress+1355
	DD	imagerel $unwind$blake2b_compress
pdata	ENDS
;	COMDAT pdata
pdata	SEGMENT
$pdata$randomx_blake2b_init DD imagerel $LN35
	DD	imagerel $LN35+275
	DD	imagerel $unwind$randomx_blake2b_init
pdata	ENDS
;	COMDAT pdata
pdata	SEGMENT
$pdata$randomx_blake2b_init_param DD imagerel $LN22
	DD	imagerel $LN22+190
	DD	imagerel $unwind$randomx_blake2b_init_param
pdata	ENDS
;	COMDAT pdata
pdata	SEGMENT
$pdata$blake2b_init0 DD imagerel blake2b_init0
	DD	imagerel blake2b_init0+71
	DD	imagerel $unwind$blake2b_init0
pdata	ENDS
;	COMDAT pdata
pdata	SEGMENT
$pdata$randomx_blake2b DD imagerel $LN105
	DD	imagerel $LN105+153
	DD	imagerel $unwind$randomx_blake2b
pdata	ENDS
;	COMDAT pdata
pdata	SEGMENT
$pdata$0$randomx_blake2b DD imagerel $LN105+153
	DD	imagerel $LN105+352
	DD	imagerel $chain$0$randomx_blake2b
pdata	ENDS
;	COMDAT pdata
pdata	SEGMENT
$pdata$1$randomx_blake2b DD imagerel $LN105+352
	DD	imagerel $LN105+435
	DD	imagerel $chain$1$randomx_blake2b
;	COMDAT xdata
xdata	SEGMENT
$chain$1$randomx_blake2b DD 021H
	DD	imagerel $LN105
	DD	imagerel $LN105+153
	DD	imagerel $unwind$randomx_blake2b
xdata	ENDS
;	COMDAT xdata
xdata	SEGMENT
$chain$0$randomx_blake2b DD 020821H
	DD	0243408H
	DD	imagerel $LN105
	DD	imagerel $LN105+153
	DD	imagerel $unwind$randomx_blake2b
xdata	ENDS
;	COMDAT xdata
xdata	SEGMENT
$unwind$randomx_blake2b DD 061f19H
	DD	025010dH
	DD	07004e006H
	DD	050026003H
	DD	imagerel __GSHandlerCheck
	DD	0110H
xdata	ENDS
;	COMDAT xdata
xdata	SEGMENT
$unwind$blake2b_init0 DD 020601H
	DD	030023206H
xdata	ENDS
;	COMDAT xdata
xdata	SEGMENT
$unwind$randomx_blake2b_init_param DD 040a01H
	DD	06340aH
	DD	07006320aH
xdata	ENDS
;	COMDAT xdata
xdata	SEGMENT
$unwind$randomx_blake2b_init DD 041919H
	DD	012340aH
	DD	07006d20aH
	DD	imagerel __GSHandlerCheck
	DD	060H
xdata	ENDS
;	COMDAT xdata
xdata	SEGMENT
$unwind$blake2b_compress DD 0d3219H
	DD	0357424H
	DD	0346424H
	DD	0333424H
	DD	02c0124H
	DD	0e016f018H
	DD	0c012d014H
	DD	05010H
	DD	imagerel __GSHandlerCheck
	DD	0150H
xdata	ENDS
;	COMDAT xdata
xdata	SEGMENT
$chain$1$randomx_blake2b_update DD 021H
	DD	imagerel $LN22
	DD	imagerel $LN22+84
	DD	imagerel $unwind$randomx_blake2b_update
xdata	ENDS
;	COMDAT xdata
xdata	SEGMENT
$chain$0$randomx_blake2b_update DD 020521H
	DD	067405H
	DD	imagerel $LN22
	DD	imagerel $LN22+84
	DD	imagerel $unwind$randomx_blake2b_update
xdata	ENDS
;	COMDAT xdata
xdata	SEGMENT
$unwind$randomx_blake2b_update DD 060f01H
	DD	08540fH
	DD	07340fH
	DD	0600b320fH
xdata	ENDS
;	COMDAT xdata
xdata	SEGMENT
$unwind$randomx_blake2b_final DD 041919H
	DD	012340aH
	DD	07006d20aH
	DD	imagerel __GSHandlerCheck
	DD	060H
xdata	ENDS
;	COMDAT xdata
xdata	SEGMENT
$chain$4$randomx_blake2b_long DD 021H
	DD	imagerel $LN99
	DD	imagerel $LN99+80
	DD	imagerel $unwind$randomx_blake2b_long
xdata	ENDS
;	COMDAT xdata
xdata	SEGMENT
$chain$3$randomx_blake2b_long DD 021H
	DD	imagerel $LN99+80
	DD	imagerel $LN99+119
	DD	imagerel $chain$1$randomx_blake2b_long
xdata	ENDS
;	COMDAT xdata
xdata	SEGMENT
$chain$2$randomx_blake2b_long DD 020821H
	DD	03f3408H
	DD	imagerel $LN99+80
	DD	imagerel $LN99+119
	DD	imagerel $chain$1$randomx_blake2b_long
xdata	ENDS
;	COMDAT xdata
xdata	SEGMENT
$chain$1$randomx_blake2b_long DD 041521H
	DD	0387415H
	DD	0396408H
	DD	imagerel $LN99
	DD	imagerel $LN99+80
	DD	imagerel $unwind$randomx_blake2b_long
xdata	ENDS
;	COMDAT xdata
xdata	SEGMENT
$unwind$randomx_blake2b_long DD 052619H
	DD	03a0115H
	DD	0e004f006H
	DD	05002H
	DD	imagerel __GSHandlerCheck
	DD	01b0H
; Function compile flags: /Ogtpy
;	COMDAT randomx_blake2b
_TEXT	SEGMENT
S$ = 32
__$ArrayPad$ = 272
out$ = 336
outlen$ = 344
in$ = 352
inlen$ = 360
key$dead$ = 368
keylen$dead$ = 376
randomx_blake2b PROC					; COMDAT
; File D:\dev\francium_network\francium_agent\src\ext\randomx\repo\src\blake2\blake2b.c
; Line 311
$LN105:
	push	rbp
	push	rsi
	push	rdi
	push	r14
	sub	rsp, 296				; 00000128H
	mov	rax, QWORD PTR __security_cookie
	xor	rax, rsp
	mov	QWORD PTR __$ArrayPad$[rsp], rax
	mov	rsi, r9
	mov	rdi, r8
	mov	rbp, rdx
	mov	r14, rcx
; Line 316
	test	r8, r8
	jne	SHORT $LN2@randomx_bl
	test	r9, r9
	jne	$LN98@randomx_bl
$LN2@randomx_bl:
; Line 320
	test	r14, r14
	je	$LN98@randomx_bl
	lea	rax, QWORD PTR [rdx-1]
	cmp	rax, 63					; 0000003fH
	ja	$LN98@randomx_bl
; Line 334
	lea	rcx, QWORD PTR S$[rsp]
	call	randomx_blake2b_init
	test	eax, eax
	js	$LN98@randomx_bl
; Line 243
	test	rsi, rsi
	je	$LN94@randomx_bl
; Line 248
	test	rdi, rdi
	je	$LN98@randomx_bl
; Line 253
	cmp	QWORD PTR S$[rsp+80], 0
	jne	$LN98@randomx_bl
; Line 257
	mov	ecx, DWORD PTR S$[rsp+224]
	mov	edx, ecx
	lea	rax, QWORD PTR [rsi+rcx]
	cmp	rax, 128				; 00000080H
	jbe	$LN61@randomx_bl
; Line 260
	mov	QWORD PTR [rsp+288], rbx
	mov	ebx, 128				; 00000080H
	sub	rbx, rcx
; Line 261
	lea	rcx, QWORD PTR S$[rsp+96]
	add	rcx, rdx
	mov	r8, rbx
	mov	rdx, rdi
	call	memcpy
; Line 76
	mov	rax, QWORD PTR S$[rsp+64]
; Line 263
	lea	rdx, QWORD PTR S$[rsp+96]
; Line 76
	sub	rax, -128				; ffffffffffffff80H
; Line 263
	lea	rcx, QWORD PTR S$[rsp]
; Line 77
	cmp	rax, 128				; 00000080H
	mov	QWORD PTR S$[rsp+64], rax
	adc	QWORD PTR S$[rsp+72], 0
; Line 263
	call	blake2b_compress
; Line 264
	xor	ecx, ecx
; Line 265
	sub	rsi, rbx
; Line 266
	add	rdi, rbx
	mov	DWORD PTR S$[rsp+224], ecx
; Line 268
	cmp	rsi, 128				; 00000080H
	jbe	SHORT $LN102@randomx_bl
; Line 260
	lea	rbx, QWORD PTR [rsi-129]
	shr	rbx, 7
	inc	rbx
	imul	rax, rbx, -128				; ffffffffffffff80H
	add	rsi, rax
	npad	8
$LL60@randomx_bl:
; Line 76
	mov	rax, QWORD PTR S$[rsp+64]
; Line 270
	lea	rcx, QWORD PTR S$[rsp]
; Line 76
	sub	rax, -128				; ffffffffffffff80H
; Line 270
	mov	rdx, rdi
; Line 76
	cmp	rax, 128				; 00000080H
	mov	QWORD PTR S$[rsp+64], rax
; Line 77
	adc	QWORD PTR S$[rsp+72], 0
; Line 270
	call	blake2b_compress
; Line 272
	sub	rdi, -128				; ffffffffffffff80H
	sub	rbx, 1
	jne	SHORT $LL60@randomx_bl
	mov	ecx, DWORD PTR S$[rsp+224]
$LN102@randomx_bl:
	mov	rbx, QWORD PTR [rsp+288]
$LN61@randomx_bl:
; Line 275
	mov	eax, ecx
	mov	r8, rsi
	lea	rcx, QWORD PTR S$[rsp+96]
	mov	rdx, rdi
	add	rcx, rax
	call	memcpy
; Line 276
	add	DWORD PTR S$[rsp+224], esi
$LN94@randomx_bl:
; Line 342
	mov	r8, rbp
	lea	rcx, QWORD PTR S$[rsp]
	mov	rdx, r14
	call	randomx_blake2b_final
	jmp	SHORT $fail$106
$LN98@randomx_bl:
; Line 347
	mov	eax, -1
$fail$106:
	mov	rcx, QWORD PTR __$ArrayPad$[rsp]
	xor	rcx, rsp
	call	__security_check_cookie
	add	rsp, 296				; 00000128H
	pop	r14
	pop	rdi
	pop	rsi
	pop	rbp
	ret	0
randomx_blake2b ENDP
_TEXT	ENDS
; Function compile flags: /Ogtpy
;	COMDAT load64_native
_TEXT	SEGMENT
src$ = 8
load64_native PROC					; COMDAT
; File D:\dev\francium_network\francium_agent\src\ext\randomx\repo\src\blake2\endian.h
; Line 47
	mov	rax, QWORD PTR [rcx]
; Line 48
	ret	0
load64_native ENDP
_TEXT	ENDS
; Function compile flags: /Ogtpy
;	COMDAT load64
_TEXT	SEGMENT
src$ = 8
load64	PROC						; COMDAT
; File D:\dev\francium_network\francium_agent\src\ext\randomx\repo\src\blake2\endian.h
; Line 52
	mov	rax, QWORD PTR [rcx]
; Line 65
	ret	0
load64	ENDP
_TEXT	ENDS
; Function compile flags: /Ogtpy
;	COMDAT store32
_TEXT	SEGMENT
dst$ = 8
w$dead$ = 16
store32	PROC						; COMDAT
; File D:\dev\francium_network\francium_agent\src\ext\randomx\repo\src\blake2\endian.h
; Line 69
	mov	DWORD PTR [rcx], 1024			; 00000400H
; Line 80
	ret	0
store32	ENDP
_TEXT	ENDS
; Function compile flags: /Ogtpy
;	COMDAT store64_native
_TEXT	SEGMENT
dst$ = 8
w$ = 16
store64_native PROC					; COMDAT
; File D:\dev\francium_network\francium_agent\src\ext\randomx\repo\src\blake2\endian.h
; Line 83
	mov	QWORD PTR [rcx], rdx
; Line 84
	ret	0
store64_native ENDP
_TEXT	ENDS
; Function compile flags: /Ogtpy
;	COMDAT store64
_TEXT	SEGMENT
dst$ = 8
w$ = 16
store64	PROC						; COMDAT
; File D:\dev\francium_network\francium_agent\src\ext\randomx\repo\src\blake2\endian.h
; Line 88
	mov	QWORD PTR [rcx], rdx
; Line 107
	ret	0
store64	ENDP
_TEXT	ENDS
; Function compile flags: /Ogtpy
;	COMDAT rotr64
_TEXT	SEGMENT
w$ = 8
c$ = 16
rotr64	PROC						; COMDAT
; File D:\dev\francium_network\francium_agent\src\ext\randomx\repo\src\blake2\blake2-impl.h
; Line 72
	mov	rax, rcx
; Line 73
	mov	ecx, edx
	ror	rax, cl
; Line 74
	ret	0
rotr64	ENDP
_TEXT	ENDS
; Function compile flags: /Ogtpy
;	COMDAT blake2b_set_lastnode
_TEXT	SEGMENT
S$ = 8
blake2b_set_lastnode PROC				; COMDAT
; File D:\dev\francium_network\francium_agent\src\ext\randomx\repo\src\blake2\blake2b.c
; Line 64
	mov	QWORD PTR [rcx+88], -1
; Line 65
	ret	0
blake2b_set_lastnode ENDP
_TEXT	ENDS
; Function compile flags: /Ogtpy
;	COMDAT blake2b_set_lastblock
_TEXT	SEGMENT
S$ = 8
blake2b_set_lastblock PROC				; COMDAT
; File D:\dev\francium_network\francium_agent\src\ext\randomx\repo\src\blake2\blake2b.c
; Line 68
	cmp	BYTE PTR [rcx+232], 0
	je	SHORT $LN4@blake2b_se
; Line 69
	mov	QWORD PTR [rcx+88], -1
$LN4@blake2b_se:
; Line 72
	mov	QWORD PTR [rcx+80], -1
	ret	0
blake2b_set_lastblock ENDP
_TEXT	ENDS
; Function compile flags: /Ogtpy
;	COMDAT blake2b_increment_counter
_TEXT	SEGMENT
S$ = 8
inc$ = 16
blake2b_increment_counter PROC				; COMDAT
; File D:\dev\francium_network\francium_agent\src\ext\randomx\repo\src\blake2\blake2b.c
; Line 76
	add	QWORD PTR [rcx+64], rdx
; Line 77
	cmp	QWORD PTR [rcx+64], rdx
	adc	QWORD PTR [rcx+72], 0
; Line 78
	ret	0
blake2b_increment_counter ENDP
_TEXT	ENDS
; Function compile flags: /Ogtpy
;	COMDAT blake2b_invalidate_state
_TEXT	SEGMENT
S$ = 8
blake2b_invalidate_state PROC				; COMDAT
; File D:\dev\francium_network\francium_agent\src\ext\randomx\repo\src\blake2\blake2b.c
; Line 68
	cmp	BYTE PTR [rcx+232], 0
	je	SHORT $LN6@blake2b_in
; Line 69
	mov	QWORD PTR [rcx+88], -1
$LN6@blake2b_in:
; Line 83
	mov	QWORD PTR [rcx+80], -1
	ret	0
blake2b_invalidate_state ENDP
_TEXT	ENDS
; Function compile flags: /Ogtpy
;	COMDAT blake2b_init0
_TEXT	SEGMENT
S$ = 48
blake2b_init0 PROC					; COMDAT
; File D:\dev\francium_network\francium_agent\src\ext\randomx\repo\src\blake2\blake2b.c
; Line 85
	push	rbx
	sub	rsp, 32					; 00000020H
; Line 86
	xor	edx, edx
	mov	r8d, 240				; 000000f0H
	mov	rbx, rcx
	call	memset
; Line 87
	movaps	xmm0, XMMWORD PTR blake2b_IV
	movups	XMMWORD PTR [rbx], xmm0
	movaps	xmm1, XMMWORD PTR blake2b_IV+16
	movups	XMMWORD PTR [rbx+16], xmm1
	movaps	xmm0, XMMWORD PTR blake2b_IV+32
	movups	XMMWORD PTR [rbx+32], xmm0
	movaps	xmm1, XMMWORD PTR blake2b_IV+48
	movups	XMMWORD PTR [rbx+48], xmm1
; Line 88
	add	rsp, 32					; 00000020H
	pop	rbx
	ret	0
blake2b_init0 ENDP
_TEXT	ENDS
; Function compile flags: /Ogtpy
;	COMDAT randomx_blake2b_init_param
_TEXT	SEGMENT
S$ = 48
P$ = 56
randomx_blake2b_init_param PROC				; COMDAT
; File D:\dev\francium_network\francium_agent\src\ext\randomx\repo\src\blake2\blake2b.c
; Line 90
$LN22:
	mov	QWORD PTR [rsp+8], rbx
	push	rdi
	sub	rsp, 32					; 00000020H
	mov	rdi, rdx
	mov	rbx, rcx
; Line 94
	test	rdx, rdx
	je	$LN6@randomx_bl
	test	rcx, rcx
	je	$LN6@randomx_bl
; Line 86
	xor	edx, edx
	mov	r8d, 240				; 000000f0H
	call	memset
; Line 87
	movaps	xmm0, XMMWORD PTR blake2b_IV
	movups	XMMWORD PTR [rbx], xmm0
	movaps	xmm1, XMMWORD PTR blake2b_IV+16
	movups	XMMWORD PTR [rbx+16], xmm1
	movaps	xmm0, XMMWORD PTR blake2b_IV+32
	movups	XMMWORD PTR [rbx+32], xmm0
	movaps	xmm1, XMMWORD PTR blake2b_IV+48
	movups	XMMWORD PTR [rbx+48], xmm1
; Line 101
	mov	rax, QWORD PTR [rdi]
	xor	QWORD PTR [rbx], rax
	mov	rax, QWORD PTR [rdi+8]
	xor	QWORD PTR [rbx+8], rax
	mov	rax, QWORD PTR [rdi+16]
	xor	QWORD PTR [rbx+16], rax
	mov	rax, QWORD PTR [rdi+24]
	xor	QWORD PTR [rbx+24], rax
	mov	rax, QWORD PTR [rdi+32]
	xor	QWORD PTR [rbx+32], rax
	mov	rax, QWORD PTR [rdi+40]
	xor	QWORD PTR [rbx+40], rax
	mov	rax, QWORD PTR [rdi+48]
	xor	QWORD PTR [rbx+48], rax
	mov	rax, QWORD PTR [rdi+56]
	xor	QWORD PTR [rbx+56], rax
; Line 103
	movzx	eax, BYTE PTR [rdi]
	mov	DWORD PTR [rbx+228], eax
; Line 104
	xor	eax, eax
; Line 105
	mov	rbx, QWORD PTR [rsp+48]
	add	rsp, 32					; 00000020H
	pop	rdi
	ret	0
$LN6@randomx_bl:
	mov	rbx, QWORD PTR [rsp+48]
	mov	eax, -1
	add	rsp, 32					; 00000020H
	pop	rdi
	ret	0
randomx_blake2b_init_param ENDP
_TEXT	ENDS
; Function compile flags: /Ogtpy
;	COMDAT randomx_blake2b_init
_TEXT	SEGMENT
P$ = 32
__$ArrayPad$ = 96
S$ = 128
outlen$ = 136
randomx_blake2b_init PROC				; COMDAT
; File D:\dev\francium_network\francium_agent\src\ext\randomx\repo\src\blake2\blake2b.c
; Line 108
$LN35:
	mov	QWORD PTR [rsp+24], rbx
	push	rdi
	sub	rsp, 112				; 00000070H
	mov	rax, QWORD PTR __security_cookie
	xor	rax, rsp
	mov	QWORD PTR __$ArrayPad$[rsp], rax
	mov	rdi, rdx
	mov	rbx, rcx
; Line 111
	test	rcx, rcx
	je	$LN33@randomx_bl
; Line 115
	lea	rax, QWORD PTR [rdx-1]
	cmp	rax, 63					; 0000003fH
	ja	$LN4@randomx_bl
; Line 121
	xorps	xmm0, xmm0
	mov	BYTE PTR P$[rsp], dil
; Line 86
	xor	edx, edx
; Line 122
	mov	WORD PTR P$[rsp+1], 256			; 00000100H
; Line 86
	mov	r8d, 240				; 000000f0H
; Line 124
	mov	BYTE PTR P$[rsp+3], 1
; Line 131
	movups	XMMWORD PTR P$[rsp+18], xmm0
	mov	DWORD PTR P$[rsp+4], 0
	movups	XMMWORD PTR P$[rsp+34], xmm0
	mov	WORD PTR P$[rsp+16], 0
; Line 86
	call	memset
; Line 87
	movaps	xmm0, XMMWORD PTR blake2b_IV
; Line 101
	mov	rax, QWORD PTR P$[rsp]
; Line 87
	movups	XMMWORD PTR [rbx], xmm0
	movaps	xmm1, XMMWORD PTR blake2b_IV+16
	movups	XMMWORD PTR [rbx+16], xmm1
	movaps	xmm0, XMMWORD PTR blake2b_IV+32
	movups	XMMWORD PTR [rbx+32], xmm0
	movaps	xmm1, XMMWORD PTR blake2b_IV+48
	movups	XMMWORD PTR [rbx+48], xmm1
; Line 101
	xor	QWORD PTR [rbx], rax
	mov	rax, QWORD PTR P$[rsp+16]
	xor	QWORD PTR [rbx+16], rax
	mov	rax, QWORD PTR P$[rsp+24]
	xor	QWORD PTR [rbx+24], rax
	mov	rax, QWORD PTR P$[rsp+32]
	xor	QWORD PTR [rbx+32], rax
	mov	rax, QWORD PTR P$[rsp+40]
	xor	QWORD PTR [rbx+40], rax
	xor	QWORD PTR [rbx+8], 0
; Line 103
	movzx	eax, dil
	mov	DWORD PTR [rbx+228], eax
; Line 133
	xor	eax, eax
	jmp	SHORT $LN1@randomx_bl
$LN4@randomx_bl:
; Line 68
	cmp	BYTE PTR [rcx+232], 0
	je	SHORT $LN9@randomx_bl
; Line 69
	mov	QWORD PTR [rcx+88], -1
$LN9@randomx_bl:
; Line 71
	mov	QWORD PTR [rcx+80], -1
$LN33@randomx_bl:
; Line 134
	mov	eax, -1
$LN1@randomx_bl:
	mov	rcx, QWORD PTR __$ArrayPad$[rsp]
	xor	rcx, rsp
	call	__security_check_cookie
	mov	rbx, QWORD PTR [rsp+144]
	add	rsp, 112				; 00000070H
	pop	rdi
	ret	0
randomx_blake2b_init ENDP
_TEXT	ENDS
; Function compile flags: /Ogtpy
;	COMDAT randomx_blake2b_init_key
_TEXT	SEGMENT
S$ = 8
outlen$ = 16
key$dead$ = 24
keylen$dead$ = 32
randomx_blake2b_init_key PROC				; COMDAT
; File D:\dev\francium_network\francium_agent\src\ext\randomx\repo\src\blake2\blake2b.c
; Line 139
	test	rcx, rcx
	je	SHORT $LN63@randomx_bl
; Line 71
	cmp	BYTE PTR [rcx+232], 0
; Line 143
	lea	rax, QWORD PTR [rdx-1]
; Line 71
	je	SHORT $LN12@randomx_bl
	mov	QWORD PTR [rcx+88], -1
$LN12@randomx_bl:
	mov	QWORD PTR [rcx+80], -1
$LN63@randomx_bl:
; Line 180
	mov	eax, -1
	ret	0
randomx_blake2b_init_key ENDP
_TEXT	ENDS
; Function compile flags: /Ogtpy
;	COMDAT blake2b_compress
_TEXT	SEGMENT
v$15$ = 0
v$14$ = 0
tv5694 = 8
tv5680 = 16
v$8$ = 16
tv5665 = 24
v$13$ = 24
tv5688 = 32
v$4$ = 32
v$6$ = 40
v$1$ = 40
v$5$ = 48
v$9$ = 56
v$16$ = 64
v$10$ = 72
v$12$ = 80
tv5724 = 88
tv5687 = 96
tv5686 = 104
tv5672 = 112
tv5679 = 120
tv5776 = 128
S$GSCopy$1$ = 136
tv5774 = 144
tv5715 = 152
tv5770 = 160
tv5726 = 168
tv5731 = 176
tv5740 = 184
tv5738 = 192
m$ = 208
__$ArrayPad$ = 336
S$ = 400
block$ = 408
blake2b_compress PROC					; COMDAT
; File D:\dev\francium_network\francium_agent\src\ext\randomx\repo\src\blake2\blake2b.c
; Line 182
	mov	QWORD PTR [rsp+16], rbx
	mov	QWORD PTR [rsp+24], rsi
	mov	QWORD PTR [rsp+32], rdi
	push	rbp
	push	r12
	push	r13
	push	r14
	push	r15
	lea	rbp, QWORD PTR [rsp-96]
	sub	rsp, 352				; 00000160H
	mov	rax, QWORD PTR __security_cookie
	xor	rax, rsp
	mov	QWORD PTR __$ArrayPad$[rbp-256], rax
; Line 188
	mov	rax, QWORD PTR [rdx]
; Line 228
	lea	r13, OFFSET FLAT:blake2b_sigma+4
	mov	r14, QWORD PTR [rcx+72]
	mov	r9, 7640891576956012808			; 6a09e667f3bcc908H
	mov	r11, QWORD PTR [rcx+80]
	mov	rsi, QWORD PTR [rcx+64]
	mov	QWORD PTR m$[rbp-256], rax
	mov	rax, QWORD PTR [rdx+8]
	mov	QWORD PTR m$[rbp-248], rax
	mov	rax, QWORD PTR [rdx+16]
	mov	QWORD PTR m$[rbp-240], rax
	mov	rax, QWORD PTR [rdx+24]
	mov	QWORD PTR m$[rbp-232], rax
	mov	rax, QWORD PTR [rdx+32]
	mov	QWORD PTR m$[rbp-224], rax
	mov	rax, QWORD PTR [rdx+40]
	mov	QWORD PTR m$[rbp-216], rax
	mov	rax, QWORD PTR [rdx+48]
	mov	QWORD PTR m$[rbp-208], rax
	mov	rax, QWORD PTR [rdx+56]
	mov	QWORD PTR m$[rbp-200], rax
	mov	rax, QWORD PTR [rdx+64]
	mov	QWORD PTR m$[rbp-192], rax
	mov	rax, QWORD PTR [rdx+72]
	mov	QWORD PTR m$[rbp-184], rax
	mov	rax, QWORD PTR [rdx+80]
	mov	QWORD PTR m$[rbp-176], rax
	mov	rax, QWORD PTR [rdx+88]
	mov	QWORD PTR m$[rbp-168], rax
	mov	rax, QWORD PTR [rdx+96]
	mov	QWORD PTR m$[rbp-160], rax
	mov	rax, QWORD PTR [rdx+104]
	mov	QWORD PTR m$[rbp-152], rax
	mov	rax, QWORD PTR [rdx+112]
	mov	QWORD PTR m$[rbp-144], rax
	mov	rax, QWORD PTR [rdx+120]
	mov	rdx, 5840696475078001361		; 510e527fade682d1H
	mov	QWORD PTR m$[rbp-136], rax
	xor	rsi, rdx
	mov	rax, QWORD PTR [rcx]
	mov	rdx, 6620516959819538809		; 5be0cd19137e2179H
	mov	QWORD PTR tv5776[rbp-256], rax
	mov	r8, rax
	mov	rax, QWORD PTR [rcx+8]
	mov	QWORD PTR tv5774[rbp-256], rax
	mov	QWORD PTR v$5$[rsp], rax
	mov	rax, QWORD PTR [rcx+16]
	mov	QWORD PTR tv5715[rbp-256], rax
	mov	QWORD PTR v$9$[rsp], rax
	mov	rax, QWORD PTR [rcx+24]
	mov	QWORD PTR tv5770[rbp-256], rax
	mov	QWORD PTR v$13$[rsp], rax
	mov	rax, QWORD PTR [rcx+32]
	mov	QWORD PTR tv5726[rbp-256], rax
	mov	rbx, rax
	mov	rax, QWORD PTR [rcx+40]
	mov	QWORD PTR tv5731[rbp-256], rax
	mov	rdi, rax
	mov	rax, QWORD PTR [rcx+48]
	mov	QWORD PTR tv5740[rbp-256], rax
	mov	QWORD PTR v$10$[rsp], rax
	mov	rax, QWORD PTR [rcx+56]
	mov	QWORD PTR tv5738[rbp-256], rax
	mov	r10, rax
	mov	rax, -4942790177534073029		; bb67ae8584caa73bH
	mov	QWORD PTR S$GSCopy$1$[rbp-256], rcx
	mov	QWORD PTR v$8$[rsp], rax
	mov	rax, 4354685564936845355		; 3c6ef372fe94f82bH
	mov	QWORD PTR v$12$[rsp], rax
	mov	rax, -6534734903238641935		; a54ff53a5f1d36f1H
	mov	QWORD PTR v$16$[rsp], rax
	mov	rax, -7276294671716946913		; 9b05688c2b3e6c1fH
	xor	r14, rax
	mov	QWORD PTR tv5694[rsp], r13
	mov	rax, 2270897969802886507		; 1f83d9abfb41bd6bH
	mov	QWORD PTR tv5724[rsp], 12
	xor	r11, rax
	mov	rax, QWORD PTR [rcx+88]
	mov	rcx, rax
	xor	rcx, rdx
	jmp	SHORT $LN10@blake2b_co
	npad	7
$LL179@blake2b_co:
	mov	r10, r12
$LN10@blake2b_co:
; Line 229
	mov	eax, DWORD PTR [r13-4]
	mov	rdx, QWORD PTR m$[rbp+rax*8-256]
	mov	eax, DWORD PTR [r13]
	add	rdx, rbx
	add	r8, rdx
; File D:\dev\francium_network\francium_agent\src\ext\randomx\repo\src\blake2\blake2-impl.h
; Line 73
	xor	rsi, r8
	ror	rsi, 32					; 00000020H
; File D:\dev\francium_network\francium_agent\src\ext\randomx\repo\src\blake2\blake2b.c
; Line 229
	mov	r15, QWORD PTR m$[rbp+rax*8-256]
	add	r9, rsi
; File D:\dev\francium_network\francium_agent\src\ext\randomx\repo\src\blake2\blake2-impl.h
; Line 73
	xor	rbx, r9
	ror	rbx, 24
; File D:\dev\francium_network\francium_agent\src\ext\randomx\repo\src\blake2\blake2b.c
; Line 229
	add	r15, rbx
	add	r15, r8
	mov	r8, QWORD PTR v$5$[rsp]
; File D:\dev\francium_network\francium_agent\src\ext\randomx\repo\src\blake2\blake2-impl.h
; Line 73
	mov	rax, r15
	xor	rax, rsi
	ror	rax, 16
	mov	QWORD PTR tv5688[rsp], rax
; File D:\dev\francium_network\francium_agent\src\ext\randomx\repo\src\blake2\blake2b.c
; Line 229
	add	rax, r9
	mov	r9, QWORD PTR v$8$[rsp]
	mov	QWORD PTR tv5687[rsp], rax
; File D:\dev\francium_network\francium_agent\src\ext\randomx\repo\src\blake2\blake2-impl.h
; Line 73
	xor	rax, rbx
; File D:\dev\francium_network\francium_agent\src\ext\randomx\repo\src\blake2\blake2b.c
; Line 229
	mov	rbx, QWORD PTR v$10$[rsp]
; File D:\dev\francium_network\francium_agent\src\ext\randomx\repo\src\blake2\blake2-impl.h
; Line 73
	rol	rax, 1
	mov	QWORD PTR tv5686[rsp], rax
; File D:\dev\francium_network\francium_agent\src\ext\randomx\repo\src\blake2\blake2b.c
; Line 229
	mov	eax, DWORD PTR [r13+4]
	mov	rdx, QWORD PTR m$[rbp+rax*8-256]
	mov	eax, DWORD PTR [r13+8]
	add	rdx, rdi
	add	r8, rdx
; File D:\dev\francium_network\francium_agent\src\ext\randomx\repo\src\blake2\blake2-impl.h
; Line 73
	xor	r14, r8
	ror	r14, 32					; 00000020H
; File D:\dev\francium_network\francium_agent\src\ext\randomx\repo\src\blake2\blake2b.c
; Line 229
	mov	r12, QWORD PTR m$[rbp+rax*8-256]
	add	r9, r14
; File D:\dev\francium_network\francium_agent\src\ext\randomx\repo\src\blake2\blake2-impl.h
; Line 73
	xor	rdi, r9
	ror	rdi, 24
; File D:\dev\francium_network\francium_agent\src\ext\randomx\repo\src\blake2\blake2b.c
; Line 229
	add	r12, rdi
; File D:\dev\francium_network\francium_agent\src\ext\randomx\repo\src\blake2\blake2-impl.h
; Line 73
	mov	QWORD PTR v$6$[rsp], rdi
; File D:\dev\francium_network\francium_agent\src\ext\randomx\repo\src\blake2\blake2b.c
; Line 229
	add	r12, r8
; File D:\dev\francium_network\francium_agent\src\ext\randomx\repo\src\blake2\blake2-impl.h
; Line 73
	mov	rax, r12
	xor	rax, r14
	ror	rax, 16
	mov	QWORD PTR tv5680[rsp], rax
; File D:\dev\francium_network\francium_agent\src\ext\randomx\repo\src\blake2\blake2b.c
; Line 229
	add	rax, r9
	mov	r9, QWORD PTR v$12$[rsp]
; File D:\dev\francium_network\francium_agent\src\ext\randomx\repo\src\blake2\blake2-impl.h
; Line 73
	mov	rdi, rax
	xor	rdi, QWORD PTR v$6$[rsp]
; File D:\dev\francium_network\francium_agent\src\ext\randomx\repo\src\blake2\blake2b.c
; Line 229
	mov	QWORD PTR tv5679[rsp], rax
	mov	eax, DWORD PTR [r13+12]
; File D:\dev\francium_network\francium_agent\src\ext\randomx\repo\src\blake2\blake2-impl.h
; Line 73
	rol	rdi, 1
; File D:\dev\francium_network\francium_agent\src\ext\randomx\repo\src\blake2\blake2b.c
; Line 229
	mov	r8, QWORD PTR m$[rbp+rax*8-256]
	mov	eax, DWORD PTR [r13+16]
	add	r8, rbx
	add	r8, QWORD PTR v$9$[rsp]
; File D:\dev\francium_network\francium_agent\src\ext\randomx\repo\src\blake2\blake2-impl.h
; Line 73
	xor	r11, r8
	ror	r11, 32					; 00000020H
; File D:\dev\francium_network\francium_agent\src\ext\randomx\repo\src\blake2\blake2b.c
; Line 229
	mov	r13, QWORD PTR m$[rbp+rax*8-256]
	add	r9, r11
; File D:\dev\francium_network\francium_agent\src\ext\randomx\repo\src\blake2\blake2-impl.h
; Line 73
	xor	rbx, r9
	ror	rbx, 24
; File D:\dev\francium_network\francium_agent\src\ext\randomx\repo\src\blake2\blake2b.c
; Line 229
	add	r13, rbx
	add	r13, r8
; File D:\dev\francium_network\francium_agent\src\ext\randomx\repo\src\blake2\blake2-impl.h
; Line 73
	mov	rax, r13
	xor	rax, r11
	ror	rax, 16
	mov	QWORD PTR tv5672[rsp], rax
; File D:\dev\francium_network\francium_agent\src\ext\randomx\repo\src\blake2\blake2b.c
; Line 229
	lea	r11, QWORD PTR [rax+r9]
	mov	r9, QWORD PTR v$16$[rsp]
; File D:\dev\francium_network\francium_agent\src\ext\randomx\repo\src\blake2\blake2-impl.h
; Line 73
	mov	rsi, r11
	xor	rsi, rbx
; File D:\dev\francium_network\francium_agent\src\ext\randomx\repo\src\blake2\blake2b.c
; Line 229
	mov	rbx, QWORD PTR tv5694[rsp]
; File D:\dev\francium_network\francium_agent\src\ext\randomx\repo\src\blake2\blake2-impl.h
; Line 73
	rol	rsi, 1
; File D:\dev\francium_network\francium_agent\src\ext\randomx\repo\src\blake2\blake2b.c
; Line 229
	mov	eax, DWORD PTR [rbx+20]
	mov	r8, QWORD PTR m$[rbp+rax*8-256]
	add	r8, r10
	add	r8, QWORD PTR v$13$[rsp]
; File D:\dev\francium_network\francium_agent\src\ext\randomx\repo\src\blake2\blake2-impl.h
; Line 73
	xor	rcx, r8
	ror	rcx, 32					; 00000020H
; File D:\dev\francium_network\francium_agent\src\ext\randomx\repo\src\blake2\blake2b.c
; Line 229
	add	r9, rcx
; File D:\dev\francium_network\francium_agent\src\ext\randomx\repo\src\blake2\blake2-impl.h
; Line 73
	xor	r10, r9
	ror	r10, 24
; File D:\dev\francium_network\francium_agent\src\ext\randomx\repo\src\blake2\blake2b.c
; Line 229
	mov	rdx, QWORD PTR tv5694[rsp]
	mov	eax, DWORD PTR [rbx+24]
; File D:\dev\francium_network\francium_agent\src\ext\randomx\repo\src\blake2\blake2-impl.h
; Line 73
	mov	QWORD PTR v$14$[rsp], r10
; File D:\dev\francium_network\francium_agent\src\ext\randomx\repo\src\blake2\blake2b.c
; Line 229
	mov	rax, QWORD PTR m$[rbp+rax*8-256]
	add	rax, r10
	add	rax, r8
; File D:\dev\francium_network\francium_agent\src\ext\randomx\repo\src\blake2\blake2-impl.h
; Line 73
	mov	r10, rax
; File D:\dev\francium_network\francium_agent\src\ext\randomx\repo\src\blake2\blake2b.c
; Line 229
	mov	QWORD PTR tv5665[rsp], rax
; File D:\dev\francium_network\francium_agent\src\ext\randomx\repo\src\blake2\blake2-impl.h
; Line 73
	xor	r10, rcx
; File D:\dev\francium_network\francium_agent\src\ext\randomx\repo\src\blake2\blake2b.c
; Line 229
	mov	rcx, QWORD PTR tv5694[rsp]
; File D:\dev\francium_network\francium_agent\src\ext\randomx\repo\src\blake2\blake2-impl.h
; Line 73
	ror	r10, 16
; File D:\dev\francium_network\francium_agent\src\ext\randomx\repo\src\blake2\blake2b.c
; Line 229
	mov	eax, DWORD PTR [rcx+28]
	lea	rbx, QWORD PTR [r10+r9]
; File D:\dev\francium_network\francium_agent\src\ext\randomx\repo\src\blake2\blake2-impl.h
; Line 73
	mov	r14, rbx
	xor	r14, QWORD PTR v$14$[rsp]
; File D:\dev\francium_network\francium_agent\src\ext\randomx\repo\src\blake2\blake2b.c
; Line 229
	mov	r8, QWORD PTR m$[rbp+rax*8-256]
	mov	eax, DWORD PTR [rcx+32]
	add	r8, rdi
	add	r8, r15
; File D:\dev\francium_network\francium_agent\src\ext\randomx\repo\src\blake2\blake2-impl.h
; Line 73
	rol	r14, 1
	mov	r9, r8
	xor	r9, r10
; File D:\dev\francium_network\francium_agent\src\ext\randomx\repo\src\blake2\blake2b.c
; Line 229
	mov	rax, QWORD PTR m$[rbp+rax*8-256]
; File D:\dev\francium_network\francium_agent\src\ext\randomx\repo\src\blake2\blake2-impl.h
; Line 73
	ror	r9, 32					; 00000020H
; File D:\dev\francium_network\francium_agent\src\ext\randomx\repo\src\blake2\blake2b.c
; Line 229
	lea	r10, QWORD PTR [r9+r11]
; File D:\dev\francium_network\francium_agent\src\ext\randomx\repo\src\blake2\blake2-impl.h
; Line 73
	mov	r11, r10
	xor	r11, rdi
	ror	r11, 24
; File D:\dev\francium_network\francium_agent\src\ext\randomx\repo\src\blake2\blake2b.c
; Line 229
	add	rax, r11
	add	rax, r8
; File D:\dev\francium_network\francium_agent\src\ext\randomx\repo\src\blake2\blake2-impl.h
; Line 73
	mov	rcx, rax
; File D:\dev\francium_network\francium_agent\src\ext\randomx\repo\src\blake2\blake2b.c
; Line 229
	mov	QWORD PTR v$1$[rsp], rax
	mov	eax, DWORD PTR [rdx+36]
; File D:\dev\francium_network\francium_agent\src\ext\randomx\repo\src\blake2\blake2-impl.h
; Line 73
	xor	rcx, r9
	ror	rcx, 16
; File D:\dev\francium_network\francium_agent\src\ext\randomx\repo\src\blake2\blake2b.c
; Line 229
	mov	r9, QWORD PTR m$[rbp+rax*8-256]
	mov	eax, DWORD PTR [rdx+40]
	lea	rdi, QWORD PTR [rcx+r10]
	add	r9, rsi
	mov	QWORD PTR v$12$[rsp], rdi
	add	r9, r12
	mov	r15, rdi
; File D:\dev\francium_network\francium_agent\src\ext\randomx\repo\src\blake2\blake2-impl.h
; Line 73
	xor	rdi, r11
	mov	r8, r9
; File D:\dev\francium_network\francium_agent\src\ext\randomx\repo\src\blake2\blake2b.c
; Line 229
	mov	rax, QWORD PTR m$[rbp+rax*8-256]
; File D:\dev\francium_network\francium_agent\src\ext\randomx\repo\src\blake2\blake2-impl.h
; Line 73
	xor	r8, QWORD PTR tv5688[rsp]
	ror	r8, 32					; 00000020H
	rol	rdi, 1
; File D:\dev\francium_network\francium_agent\src\ext\randomx\repo\src\blake2\blake2b.c
; Line 229
	lea	r10, QWORD PTR [r8+rbx]
	mov	rbx, rdx
; File D:\dev\francium_network\francium_agent\src\ext\randomx\repo\src\blake2\blake2-impl.h
; Line 73
	mov	r11, r10
	xor	r11, rsi
	ror	r11, 24
; File D:\dev\francium_network\francium_agent\src\ext\randomx\repo\src\blake2\blake2b.c
; Line 229
	add	rax, r11
	add	rax, r9
; File D:\dev\francium_network\francium_agent\src\ext\randomx\repo\src\blake2\blake2-impl.h
; Line 73
	mov	rsi, rax
; File D:\dev\francium_network\francium_agent\src\ext\randomx\repo\src\blake2\blake2b.c
; Line 229
	mov	QWORD PTR v$5$[rsp], rax
; File D:\dev\francium_network\francium_agent\src\ext\randomx\repo\src\blake2\blake2-impl.h
; Line 73
	xor	rsi, r8
	ror	rsi, 16
; File D:\dev\francium_network\francium_agent\src\ext\randomx\repo\src\blake2\blake2b.c
; Line 229
	lea	rax, QWORD PTR [r10+rsi]
	mov	r10, QWORD PTR tv5687[rsp]
	mov	QWORD PTR v$16$[rsp], rax
; File D:\dev\francium_network\francium_agent\src\ext\randomx\repo\src\blake2\blake2-impl.h
; Line 73
	xor	rax, r11
	rol	rax, 1
	mov	QWORD PTR v$10$[rsp], rax
; File D:\dev\francium_network\francium_agent\src\ext\randomx\repo\src\blake2\blake2b.c
; Line 229
	mov	eax, DWORD PTR [rdx+44]
	mov	r9, QWORD PTR m$[rbp+rax*8-256]
	mov	eax, DWORD PTR [rdx+48]
	add	r9, r14
	add	r9, r13
	mov	r13, rdx
; File D:\dev\francium_network\francium_agent\src\ext\randomx\repo\src\blake2\blake2-impl.h
; Line 73
	mov	r8, r9
	xor	r8, QWORD PTR tv5680[rsp]
; File D:\dev\francium_network\francium_agent\src\ext\randomx\repo\src\blake2\blake2b.c
; Line 229
	mov	rax, QWORD PTR m$[rbp+rax*8-256]
; File D:\dev\francium_network\francium_agent\src\ext\randomx\repo\src\blake2\blake2-impl.h
; Line 73
	ror	r8, 32					; 00000020H
; File D:\dev\francium_network\francium_agent\src\ext\randomx\repo\src\blake2\blake2b.c
; Line 229
	add	r10, r8
; File D:\dev\francium_network\francium_agent\src\ext\randomx\repo\src\blake2\blake2-impl.h
; Line 73
	mov	r12, r10
	xor	r12, r14
	ror	r12, 24
; File D:\dev\francium_network\francium_agent\src\ext\randomx\repo\src\blake2\blake2b.c
; Line 229
	add	rax, r12
	add	rax, r9
	mov	r9, QWORD PTR tv5679[rsp]
; File D:\dev\francium_network\francium_agent\src\ext\randomx\repo\src\blake2\blake2-impl.h
; Line 73
	mov	r14, rax
	xor	r14, r8
; File D:\dev\francium_network\francium_agent\src\ext\randomx\repo\src\blake2\blake2b.c
; Line 229
	mov	QWORD PTR v$9$[rsp], rax
; File D:\dev\francium_network\francium_agent\src\ext\randomx\repo\src\blake2\blake2-impl.h
; Line 73
	ror	r14, 16
; File D:\dev\francium_network\francium_agent\src\ext\randomx\repo\src\blake2\blake2b.c
; Line 228
	add	r13, 64					; 00000040H
	mov	QWORD PTR tv5694[rsp], r13
; Line 229
	lea	rax, QWORD PTR [r10+r14]
; File D:\dev\francium_network\francium_agent\src\ext\randomx\repo\src\blake2\blake2-impl.h
; Line 73
	xor	r12, rax
; File D:\dev\francium_network\francium_agent\src\ext\randomx\repo\src\blake2\blake2b.c
; Line 229
	mov	QWORD PTR v$4$[rsp], rax
	mov	eax, DWORD PTR [rdx+52]
; File D:\dev\francium_network\francium_agent\src\ext\randomx\repo\src\blake2\blake2-impl.h
; Line 73
	rol	r12, 1
; File D:\dev\francium_network\francium_agent\src\ext\randomx\repo\src\blake2\blake2b.c
; Line 229
	mov	r8, QWORD PTR m$[rbp+rax*8-256]
	add	r8, QWORD PTR tv5665[rsp]
	add	r8, QWORD PTR tv5686[rsp]
	mov	eax, DWORD PTR [rdx+56]
; File D:\dev\francium_network\francium_agent\src\ext\randomx\repo\src\blake2\blake2-impl.h
; Line 73
	mov	r11, r8
	xor	r11, QWORD PTR tv5672[rsp]
	ror	r11, 32					; 00000020H
; File D:\dev\francium_network\francium_agent\src\ext\randomx\repo\src\blake2\blake2b.c
; Line 229
	add	r9, r11
	mov	rdx, QWORD PTR m$[rbp+rax*8-256]
; File D:\dev\francium_network\francium_agent\src\ext\randomx\repo\src\blake2\blake2-impl.h
; Line 73
	mov	r10, r9
	xor	r10, QWORD PTR tv5686[rsp]
	ror	r10, 24
; File D:\dev\francium_network\francium_agent\src\ext\randomx\repo\src\blake2\blake2b.c
; Line 229
	add	rdx, r10
	add	rdx, r8
	mov	r8, QWORD PTR v$1$[rsp]
; File D:\dev\francium_network\francium_agent\src\ext\randomx\repo\src\blake2\blake2-impl.h
; Line 73
	xor	r11, rdx
; File D:\dev\francium_network\francium_agent\src\ext\randomx\repo\src\blake2\blake2b.c
; Line 229
	mov	QWORD PTR v$13$[rsp], rdx
; File D:\dev\francium_network\francium_agent\src\ext\randomx\repo\src\blake2\blake2-impl.h
; Line 73
	ror	r11, 16
; File D:\dev\francium_network\francium_agent\src\ext\randomx\repo\src\blake2\blake2b.c
; Line 229
	lea	rax, QWORD PTR [r11+r9]
	mov	r9, QWORD PTR v$4$[rsp]
; File D:\dev\francium_network\francium_agent\src\ext\randomx\repo\src\blake2\blake2-impl.h
; Line 73
	mov	rbx, rax
; File D:\dev\francium_network\francium_agent\src\ext\randomx\repo\src\blake2\blake2b.c
; Line 229
	mov	QWORD PTR v$8$[rsp], rax
; File D:\dev\francium_network\francium_agent\src\ext\randomx\repo\src\blake2\blake2-impl.h
; Line 73
	xor	rbx, r10
	rol	rbx, 1
; File D:\dev\francium_network\francium_agent\src\ext\randomx\repo\src\blake2\blake2b.c
; Line 228
	sub	QWORD PTR tv5724[rsp], 1
	jne	$LL179@blake2b_co
; Line 233
	xor	r15, QWORD PTR tv5715[rbp-256]
	xor	rbx, QWORD PTR tv5726[rbp-256]
	xor	rdi, QWORD PTR tv5731[rbp-256]
	xor	rbx, rsi
	xor	r11, QWORD PTR tv5740[rbp-256]
	xor	rdi, r14
	xor	r15, QWORD PTR v$9$[rsp]
	xor	r11, QWORD PTR v$10$[rsp]
	mov	rax, QWORD PTR tv5776[rbp-256]
	xor	rax, r9
	mov	QWORD PTR v$15$[rsp], rcx
	mov	rcx, QWORD PTR S$GSCopy$1$[rbp-256]
	xor	rax, r8
	mov	QWORD PTR [rcx], rax
	mov	rax, QWORD PTR tv5774[rbp-256]
	xor	rax, QWORD PTR v$8$[rsp]
	xor	rax, QWORD PTR v$5$[rsp]
	mov	QWORD PTR [rcx+8], rax
	mov	rax, QWORD PTR tv5770[rbp-256]
	xor	rax, QWORD PTR v$16$[rsp]
	xor	rax, rdx
	mov	QWORD PTR [rcx+16], r15
	mov	QWORD PTR [rcx+24], rax
	mov	rax, QWORD PTR v$15$[rsp]
	xor	rax, r12
	mov	QWORD PTR [rcx+32], rbx
	xor	rax, QWORD PTR tv5738[rbp-256]
	mov	QWORD PTR [rcx+56], rax
	mov	QWORD PTR [rcx+40], rdi
	mov	QWORD PTR [rcx+48], r11
; Line 238
	mov	rcx, QWORD PTR __$ArrayPad$[rbp-256]
	xor	rcx, rsp
	call	__security_check_cookie
	lea	r11, QWORD PTR [rsp+352]
	mov	rbx, QWORD PTR [r11+56]
	mov	rsi, QWORD PTR [r11+64]
	mov	rdi, QWORD PTR [r11+72]
	mov	rsp, r11
	pop	r15
	pop	r14
	pop	r13
	pop	r12
	pop	rbp
	ret	0
blake2b_compress ENDP
_TEXT	ENDS
; Function compile flags: /Ogtpy
;	COMDAT randomx_blake2b_update
_TEXT	SEGMENT
S$ = 48
in$ = 56
inlen$ = 64
randomx_blake2b_update PROC				; COMDAT
; File D:\dev\francium_network\francium_agent\src\ext\randomx\repo\src\blake2\blake2b.c
; Line 240
$LN22:
	mov	QWORD PTR [rsp+16], rbx
	mov	QWORD PTR [rsp+24], rbp
	push	rsi
	sub	rsp, 32					; 00000020H
	mov	rbp, r8
	mov	rsi, rdx
	mov	rbx, rcx
; Line 243
	test	r8, r8
	je	$LN20@randomx_bl
; Line 248
	test	rcx, rcx
	je	$LN6@randomx_bl
	test	rdx, rdx
	je	$LN6@randomx_bl
; Line 253
	cmp	QWORD PTR [rcx+80], 0
	jne	$LN6@randomx_bl
; Line 257
	mov	ecx, DWORD PTR [rcx+224]
	lea	rax, QWORD PTR [rcx+r8]
	cmp	rax, 128				; 00000080H
	jbe	$LN3@randomx_bl
; Line 260
	mov	QWORD PTR [rsp+48], rdi
	mov	edi, 128				; 00000080H
	sub	rdi, rcx
; Line 261
	add	rcx, 96					; 00000060H
	add	rcx, rbx
	mov	r8, rdi
	call	memcpy
; Line 76
	mov	rax, QWORD PTR [rbx+64]
; Line 263
	lea	rdx, QWORD PTR [rbx+96]
; Line 76
	sub	rax, -128				; ffffffffffffff80H
; Line 263
	mov	rcx, rbx
; Line 76
	mov	QWORD PTR [rbx+64], rax
; Line 77
	cmp	rax, 128				; 00000080H
	mov	rax, QWORD PTR [rbx+72]
	adc	rax, 0
	mov	QWORD PTR [rbx+72], rax
; Line 263
	call	blake2b_compress
; Line 265
	sub	rbp, rdi
	mov	DWORD PTR [rbx+224], 0
; Line 266
	add	rsi, rdi
; Line 268
	cmp	rbp, 128				; 00000080H
	jbe	SHORT $LN19@randomx_bl
; Line 260
	lea	rdi, QWORD PTR [rbp-129]
	shr	rdi, 7
	inc	rdi
	imul	rax, rdi, -128				; ffffffffffffff80H
	add	rbp, rax
	npad	8
$LL2@randomx_bl:
; Line 76
	sub	QWORD PTR [rbx+64], -128		; ffffffffffffff80H
; Line 270
	mov	rdx, rsi
; Line 77
	cmp	QWORD PTR [rbx+64], 128			; 00000080H
; Line 270
	mov	rcx, rbx
; Line 77
	adc	QWORD PTR [rbx+72], 0
; Line 270
	call	blake2b_compress
; Line 272
	sub	rsi, -128				; ffffffffffffff80H
	sub	rdi, 1
	jne	SHORT $LL2@randomx_bl
$LN19@randomx_bl:
	mov	rdi, QWORD PTR [rsp+48]
$LN3@randomx_bl:
; Line 275
	mov	ecx, DWORD PTR [rbx+224]
	mov	r8, rbp
	add	rcx, 96					; 00000060H
	mov	rdx, rsi
	add	rcx, rbx
	call	memcpy
; Line 276
	add	DWORD PTR [rbx+224], ebp
$LN20@randomx_bl:
; Line 278
	xor	eax, eax
	mov	rbx, QWORD PTR [rsp+56]
	mov	rbp, QWORD PTR [rsp+64]
	add	rsp, 32					; 00000020H
	pop	rsi
	ret	0
$LN6@randomx_bl:
	mov	rbx, QWORD PTR [rsp+56]
	mov	eax, -1
	mov	rbp, QWORD PTR [rsp+64]
	add	rsp, 32					; 00000020H
	pop	rsi
	ret	0
randomx_blake2b_update ENDP
_TEXT	ENDS
; Function compile flags: /Ogtpy
;	COMDAT randomx_blake2b_final
_TEXT	SEGMENT
buffer$ = 32
__$ArrayPad$ = 96
S$ = 128
out$ = 136
outlen$ = 144
randomx_blake2b_final PROC				; COMDAT
; File D:\dev\francium_network\francium_agent\src\ext\randomx\repo\src\blake2\blake2b.c
; Line 280
$LN27:
	mov	QWORD PTR [rsp+24], rbx
	push	rdi
	sub	rsp, 112				; 00000070H
	mov	rax, QWORD PTR __security_cookie
	xor	rax, rsp
	mov	QWORD PTR __$ArrayPad$[rsp], rax
	mov	rdi, rdx
	mov	rbx, rcx
; Line 285
	test	rcx, rcx
	je	$LN6@randomx_bl
	test	rdx, rdx
	je	$LN6@randomx_bl
	mov	eax, DWORD PTR [rcx+228]
	cmp	r8, rax
	jb	$LN6@randomx_bl
; Line 290
	cmp	QWORD PTR [rcx+80], 0
	jne	$LN6@randomx_bl
; Line 294
	mov	ecx, DWORD PTR [rcx+224]
; Line 76
	add	QWORD PTR [rbx+64], rcx
; Line 77
	cmp	QWORD PTR [rbx+64], rcx
	adc	QWORD PTR [rbx+72], 0
; Line 68
	cmp	BYTE PTR [rbx+232], 0
	je	SHORT $LN12@randomx_bl
; Line 69
	mov	QWORD PTR [rbx+88], -1
$LN12@randomx_bl:
; Line 296
	mov	r8d, 128				; 00000080H
; Line 71
	mov	QWORD PTR [rbx+80], -1
; Line 296
	sub	r8d, ecx
	xor	edx, edx
	add	rcx, 96					; 00000060H
	add	rcx, rbx
	call	memset
; Line 297
	lea	rdx, QWORD PTR [rbx+96]
	mov	rcx, rbx
	call	blake2b_compress
; Line 300
	mov	rax, QWORD PTR [rbx]
; Line 303
	lea	rdx, QWORD PTR buffer$[rsp]
	mov	r8d, DWORD PTR [rbx+228]
	mov	rcx, rdi
	mov	QWORD PTR buffer$[rsp], rax
	mov	rax, QWORD PTR [rbx+8]
	mov	QWORD PTR buffer$[rsp+8], rax
	mov	rax, QWORD PTR [rbx+16]
	mov	QWORD PTR buffer$[rsp+16], rax
	mov	rax, QWORD PTR [rbx+24]
	mov	QWORD PTR buffer$[rsp+24], rax
	mov	rax, QWORD PTR [rbx+32]
	mov	QWORD PTR buffer$[rsp+32], rax
	mov	rax, QWORD PTR [rbx+40]
	mov	QWORD PTR buffer$[rsp+40], rax
	mov	rax, QWORD PTR [rbx+48]
	mov	QWORD PTR buffer$[rsp+48], rax
	mov	rax, QWORD PTR [rbx+56]
	mov	QWORD PTR buffer$[rsp+56], rax
	call	memcpy
; Line 307
	xor	eax, eax
	jmp	SHORT $LN1@randomx_bl
$LN6@randomx_bl:
; Line 286
	mov	eax, -1
$LN1@randomx_bl:
; Line 308
	mov	rcx, QWORD PTR __$ArrayPad$[rsp]
	xor	rcx, rsp
	call	__security_check_cookie
	mov	rbx, QWORD PTR [rsp+144]
	add	rsp, 112				; 00000070H
	pop	rdi
	ret	0
randomx_blake2b_final ENDP
_TEXT	ENDS
; Function compile flags: /Ogtpy
;	COMDAT randomx_blake2b_long
_TEXT	SEGMENT
outlen_bytes$ = 48
blake_state$ = 64
out_buffer$1 = 304
in_buffer$2 = 368
__$ArrayPad$ = 432
pout$ = 496
outlen$dead$ = 504
in$ = 512
inlen$dead$ = 520
randomx_blake2b_long PROC				; COMDAT
; File D:\dev\francium_network\francium_agent\src\ext\randomx\repo\src\blake2\blake2b.c
; Line 350
$LN99:
	push	rbp
	push	r14
	push	r15
	lea	rbp, QWORD PTR [rsp-208]
	sub	rsp, 464				; 000001d0H
	mov	rax, QWORD PTR __security_cookie
	xor	rax, rsp
	mov	QWORD PTR __$ArrayPad$[rbp-256], rax
	mov	r14, rcx
; Line 361
	mov	DWORD PTR outlen_bytes$[rsp], 1024	; 00000400H
; Line 381
	lea	rcx, QWORD PTR blake_state$[rsp]
	mov	edx, 64					; 00000040H
	mov	r15, r8
	call	randomx_blake2b_init
	test	eax, eax
	js	$fail$100
; Line 253
	cmp	QWORD PTR blake_state$[rbp-176], 0
; Line 382
	mov	QWORD PTR [rsp+456], rsi
	mov	esi, 4
	mov	QWORD PTR [rsp+448], rdi
; Line 241
	lea	rdi, QWORD PTR outlen_bytes$[rsp]
; Line 253
	je	SHORT $LN67@randomx_bl
; Line 405
	lea	eax, QWORD PTR [rsi-5]
; Line 254
	jmp	$LN96@randomx_bl
$LN67@randomx_bl:
; Line 257
	mov	ecx, DWORD PTR blake_state$[rbp-32]
	mov	QWORD PTR [rsp+504], rbx
	mov	edx, ecx
	lea	rax, QWORD PTR [rcx+4]
	cmp	rax, 128				; 00000080H
	jbe	$LN63@randomx_bl
; Line 260
	mov	ebx, 128				; 00000080H
	sub	rbx, rcx
; Line 261
	lea	rcx, QWORD PTR blake_state$[rbp-160]
	add	rcx, rdx
	mov	r8, rbx
	lea	rdx, QWORD PTR outlen_bytes$[rsp]
	call	memcpy
; Line 76
	mov	rax, QWORD PTR blake_state$[rbp-192]
; Line 263
	lea	rdx, QWORD PTR blake_state$[rbp-160]
; Line 76
	sub	rax, -128				; ffffffffffffff80H
; Line 263
	lea	rcx, QWORD PTR blake_state$[rsp]
; Line 77
	cmp	rax, 128				; 00000080H
	mov	QWORD PTR blake_state$[rbp-192], rax
	adc	QWORD PTR blake_state$[rbp-184], 0
; Line 263
	call	blake2b_compress
; Line 264
	xor	ecx, ecx
; Line 266
	lea	rdi, QWORD PTR outlen_bytes$[rsp]
	add	rdi, rbx
	mov	DWORD PTR blake_state$[rbp-32], ecx
	sub	rsi, rbx
; Line 268
	cmp	rsi, 128				; 00000080H
	jbe	SHORT $LN63@randomx_bl
; Line 260
	lea	rbx, QWORD PTR [rsi-129]
	shr	rbx, 7
	inc	rbx
	imul	rax, rbx, -128				; ffffffffffffff80H
	add	rsi, rax
$LL62@randomx_bl:
; Line 76
	mov	rax, QWORD PTR blake_state$[rbp-192]
; Line 270
	lea	rcx, QWORD PTR blake_state$[rsp]
; Line 76
	sub	rax, -128				; ffffffffffffff80H
; Line 270
	mov	rdx, rdi
; Line 76
	cmp	rax, 128				; 00000080H
	mov	QWORD PTR blake_state$[rbp-192], rax
; Line 77
	adc	QWORD PTR blake_state$[rbp-184], 0
; Line 270
	call	blake2b_compress
; Line 272
	sub	rdi, -128				; ffffffffffffff80H
	sub	rbx, 1
	jne	SHORT $LL62@randomx_bl
	mov	ecx, DWORD PTR blake_state$[rbp-32]
$LN63@randomx_bl:
; Line 275
	mov	eax, ecx
	mov	r8, rsi
	lea	rcx, QWORD PTR blake_state$[rbp-160]
	mov	rdx, rdi
	add	rcx, rax
	call	memcpy
; Line 276
	add	DWORD PTR blake_state$[rbp-32], esi
; Line 383
	lea	rcx, QWORD PTR blake_state$[rsp]
	mov	r8d, 72					; 00000048H
	mov	rdx, r15
	call	randomx_blake2b_update
	test	eax, eax
	js	$LN97@randomx_bl
; Line 384
	mov	r8d, 64					; 00000040H
	lea	rdx, QWORD PTR out_buffer$1[rbp-256]
	lea	rcx, QWORD PTR blake_state$[rsp]
	call	randomx_blake2b_final
	test	eax, eax
	js	$LN97@randomx_bl
; Line 385
	movaps	xmm0, XMMWORD PTR out_buffer$1[rbp-256]
; Line 386
	lea	rbx, QWORD PTR [r14+32]
	movaps	xmm1, XMMWORD PTR out_buffer$1[rbp-240]
; Line 387
	mov	edi, 992				; 000003e0H
	movaps	XMMWORD PTR [r14], xmm0
	movaps	XMMWORD PTR [r14+16], xmm1
	npad	7
$LL26@randomx_bl:
; Line 390
	movaps	XMMWORD PTR in_buffer$2[rbp-256], xmm0
; Line 391
	lea	r8, QWORD PTR in_buffer$2[rbp-256]
	movaps	xmm0, XMMWORD PTR out_buffer$1[rbp-224]
	lea	rcx, QWORD PTR out_buffer$1[rbp-256]
	movaps	XMMWORD PTR in_buffer$2[rbp-240], xmm1
	mov	r9d, 64					; 00000040H
	movaps	xmm1, XMMWORD PTR out_buffer$1[rbp-208]
	mov	edx, r9d
	movaps	XMMWORD PTR in_buffer$2[rbp-224], xmm0
	movaps	XMMWORD PTR in_buffer$2[rbp-208], xmm1
	call	randomx_blake2b
	test	eax, eax
	js	SHORT $LN97@randomx_bl
; Line 393
	movaps	xmm0, XMMWORD PTR out_buffer$1[rbp-256]
; Line 395
	add	edi, -32				; ffffffe0H
	movaps	xmm1, XMMWORD PTR out_buffer$1[rbp-240]
	movaps	XMMWORD PTR [rbx], xmm0
	movaps	XMMWORD PTR [rbx+16], xmm1
	add	rbx, 32					; 00000020H
	cmp	edi, 64					; 00000040H
	ja	SHORT $LL26@randomx_bl
; Line 398
	movaps	XMMWORD PTR in_buffer$2[rbp-256], xmm0
; Line 399
	lea	r8, QWORD PTR in_buffer$2[rbp-256]
	movaps	xmm0, XMMWORD PTR out_buffer$1[rbp-224]
	lea	rcx, QWORD PTR out_buffer$1[rbp-256]
	movaps	XMMWORD PTR in_buffer$2[rbp-240], xmm1
	mov	r9d, 64					; 00000040H
	movaps	xmm1, XMMWORD PTR out_buffer$1[rbp-208]
	mov	edx, edi
	movaps	XMMWORD PTR in_buffer$2[rbp-224], xmm0
	movaps	XMMWORD PTR in_buffer$2[rbp-208], xmm1
	mov	esi, edi
	call	randomx_blake2b
	mov	edi, eax
	test	eax, eax
	js	SHORT $LN97@randomx_bl
; Line 401
	mov	r8d, esi
	lea	rdx, QWORD PTR out_buffer$1[rbp-256]
	mov	rcx, rbx
	call	memcpy
; Line 405
	mov	eax, edi
$LN97@randomx_bl:
	mov	rbx, QWORD PTR [rsp+504]
$LN96@randomx_bl:
	mov	rsi, QWORD PTR [rsp+456]
	mov	rdi, QWORD PTR [rsp+448]
$fail$100:
; Line 407
	mov	rcx, QWORD PTR __$ArrayPad$[rbp-256]
	xor	rcx, rsp
	call	__security_check_cookie
	add	rsp, 464				; 000001d0H
	pop	r15
	pop	r14
	pop	rbp
	ret	0
randomx_blake2b_long ENDP
_TEXT	ENDS
END
