; Listing generated by Microsoft (R) Optimizing Compiler Version 19.35.32216.1 

include listing.inc

INCLUDELIB OLDNAMES

PUBLIC	?checkData@Blake2Generator@randomx@@AEAAX_K@Z	; randomx::Blake2Generator::checkData
PUBLIC	?getUInt32@Blake2Generator@randomx@@QEAAIXZ	; randomx::Blake2Generator::getUInt32
PUBLIC	?getByte@Blake2Generator@randomx@@QEAAEXZ	; randomx::Blake2Generator::getByte
PUBLIC	??0Blake2Generator@randomx@@QEAA@PEBX_KH@Z	; randomx::Blake2Generator::Blake2Generator
;	COMDAT pdata
pdata	SEGMENT
$pdata$?checkData@Blake2Generator@randomx@@AEAAX_K@Z DD imagerel $LN5
	DD	imagerel $LN5+50
	DD	imagerel $unwind$?checkData@Blake2Generator@randomx@@AEAAX_K@Z
pdata	ENDS
;	COMDAT pdata
pdata	SEGMENT
$pdata$?getUInt32@Blake2Generator@randomx@@QEAAIXZ DD imagerel $LN7
	DD	imagerel $LN7+66
	DD	imagerel $unwind$?getUInt32@Blake2Generator@randomx@@QEAAIXZ
pdata	ENDS
;	COMDAT pdata
pdata	SEGMENT
$pdata$?getByte@Blake2Generator@randomx@@QEAAEXZ DD imagerel $LN7
	DD	imagerel $LN7+66
	DD	imagerel $unwind$?getByte@Blake2Generator@randomx@@QEAAEXZ
pdata	ENDS
;	COMDAT pdata
pdata	SEGMENT
$pdata$??0Blake2Generator@randomx@@QEAA@PEBX_KH@Z DD imagerel $LN4
	DD	imagerel $LN4+68
	DD	imagerel $unwind$??0Blake2Generator@randomx@@QEAA@PEBX_KH@Z
;	COMDAT xdata
xdata	SEGMENT
$unwind$??0Blake2Generator@randomx@@QEAA@PEBX_KH@Z DD 020601H
	DD	030023206H
xdata	ENDS
;	COMDAT xdata
xdata	SEGMENT
$unwind$?getByte@Blake2Generator@randomx@@QEAAEXZ DD 020601H
	DD	030025206H
xdata	ENDS
;	COMDAT xdata
xdata	SEGMENT
$unwind$?getUInt32@Blake2Generator@randomx@@QEAAIXZ DD 020601H
	DD	030025206H
xdata	ENDS
;	COMDAT xdata
xdata	SEGMENT
$unwind$?checkData@Blake2Generator@randomx@@AEAAX_K@Z DD 020601H
	DD	030025206H
; Function compile flags: /Ogtpy
;	COMDAT ??0Blake2Generator@randomx@@QEAA@PEBX_KH@Z
_TEXT	SEGMENT
this$ = 48
seed$ = 56
seedSize$ = 64
nonce$dead$ = 72
??0Blake2Generator@randomx@@QEAA@PEBX_KH@Z PROC		; randomx::Blake2Generator::Blake2Generator, COMDAT
; File D:\dev\francium_network\francium_agent\src\ext\randomx\repo\src\blake2_generator.cpp
; Line 38
$LN4:
	push	rbx
	sub	rsp, 32					; 00000020H
	xorps	xmm0, xmm0
	mov	QWORD PTR [rcx+64], 64			; 00000040H
; Line 39
	movups	XMMWORD PTR [rcx], xmm0
; Line 40
	mov	eax, 60					; 0000003cH
	mov	rbx, rcx
	movups	XMMWORD PTR [rcx+16], xmm0
	cmp	r8, rax
	movups	XMMWORD PTR [rcx+32], xmm0
	cmova	r8, rax
	movups	XMMWORD PTR [rcx+48], xmm0
	call	memcpy
; Line 42
	mov	rax, rbx
	mov	DWORD PTR [rbx+60], 0
	add	rsp, 32					; 00000020H
	pop	rbx
	ret	0
??0Blake2Generator@randomx@@QEAA@PEBX_KH@Z ENDP		; randomx::Blake2Generator::Blake2Generator
_TEXT	ENDS
; Function compile flags: /Ogtpy
;	COMDAT ?load32@@YAIPEBX@Z
_TEXT	SEGMENT
src$ = 8
?load32@@YAIPEBX@Z PROC					; load32, COMDAT
; File D:\dev\francium_network\francium_agent\src\ext\randomx\repo\src\blake2\endian.h
; Line 33
	mov	eax, DWORD PTR [rcx]
; Line 42
	ret	0
?load32@@YAIPEBX@Z ENDP					; load32
_TEXT	ENDS
; Function compile flags: /Ogtpy
;	COMDAT ?store32@@YAXPEAXI@Z
_TEXT	SEGMENT
dst$ = 8
w$dead$ = 16
?store32@@YAXPEAXI@Z PROC				; store32, COMDAT
; File D:\dev\francium_network\francium_agent\src\ext\randomx\repo\src\blake2\endian.h
; Line 69
	mov	DWORD PTR [rcx], 0
; Line 80
	ret	0
?store32@@YAXPEAXI@Z ENDP				; store32
_TEXT	ENDS
; Function compile flags: /Ogtpy
;	COMDAT ?getByte@Blake2Generator@randomx@@QEAAEXZ
_TEXT	SEGMENT
this$ = 64
?getByte@Blake2Generator@randomx@@QEAAEXZ PROC		; randomx::Blake2Generator::getByte, COMDAT
; File D:\dev\francium_network\francium_agent\src\ext\randomx\repo\src\blake2_generator.cpp
; Line 44
$LN7:
	push	rbx
	sub	rsp, 48					; 00000030H
	mov	rbx, rcx
; Line 57
	mov	rcx, QWORD PTR [rcx+64]
	lea	rax, QWORD PTR [rcx+1]
	cmp	rax, 64					; 00000040H
	jbe	SHORT $LN4@getByte
; Line 58
	mov	r9d, 64					; 00000040H
	mov	r8, rbx
	mov	edx, r9d
	mov	rcx, rbx
	call	randomx_blake2b
; Line 59
	xor	ecx, ecx
	mov	QWORD PTR [rbx+64], rcx
$LN4@getByte:
; Line 46
	movzx	eax, BYTE PTR [rcx+rbx]
	inc	rcx
	mov	QWORD PTR [rbx+64], rcx
; Line 47
	add	rsp, 48					; 00000030H
	pop	rbx
	ret	0
?getByte@Blake2Generator@randomx@@QEAAEXZ ENDP		; randomx::Blake2Generator::getByte
_TEXT	ENDS
; Function compile flags: /Ogtpy
;	COMDAT ?getUInt32@Blake2Generator@randomx@@QEAAIXZ
_TEXT	SEGMENT
this$ = 64
?getUInt32@Blake2Generator@randomx@@QEAAIXZ PROC	; randomx::Blake2Generator::getUInt32, COMDAT
; File D:\dev\francium_network\francium_agent\src\ext\randomx\repo\src\blake2_generator.cpp
; Line 49
$LN7:
	push	rbx
	sub	rsp, 48					; 00000030H
	mov	rbx, rcx
; Line 57
	mov	rcx, QWORD PTR [rcx+64]
	lea	rax, QWORD PTR [rcx+4]
	cmp	rax, 64					; 00000040H
	jbe	SHORT $LN4@getUInt32
; Line 58
	mov	r9d, 64					; 00000040H
	mov	r8, rbx
	mov	edx, r9d
	mov	rcx, rbx
	call	randomx_blake2b
; Line 59
	xor	ecx, ecx
	mov	QWORD PTR [rbx+64], rcx
$LN4@getUInt32:
; Line 51
	mov	eax, DWORD PTR [rcx+rbx]
; Line 52
	add	rcx, 4
	mov	QWORD PTR [rbx+64], rcx
; Line 54
	add	rsp, 48					; 00000030H
	pop	rbx
	ret	0
?getUInt32@Blake2Generator@randomx@@QEAAIXZ ENDP	; randomx::Blake2Generator::getUInt32
_TEXT	ENDS
; Function compile flags: /Ogtpy
;	COMDAT ?checkData@Blake2Generator@randomx@@AEAAX_K@Z
_TEXT	SEGMENT
this$ = 64
bytesNeeded$ = 72
?checkData@Blake2Generator@randomx@@AEAAX_K@Z PROC	; randomx::Blake2Generator::checkData, COMDAT
; File D:\dev\francium_network\francium_agent\src\ext\randomx\repo\src\blake2_generator.cpp
; Line 56
$LN5:
	push	rbx
	sub	rsp, 48					; 00000030H
; Line 57
	add	rdx, QWORD PTR [rcx+64]
	mov	rbx, rcx
	cmp	rdx, 64					; 00000040H
	jbe	SHORT $LN2@checkData
; Line 58
	mov	r9d, 64					; 00000040H
	mov	r8, rcx
	mov	edx, r9d
	call	randomx_blake2b
; Line 59
	mov	QWORD PTR [rbx+64], 0
$LN2@checkData:
; Line 61
	add	rsp, 48					; 00000030H
	pop	rbx
	ret	0
?checkData@Blake2Generator@randomx@@AEAAX_K@Z ENDP	; randomx::Blake2Generator::checkData
_TEXT	ENDS
END
