; Listing generated by Microsoft (R) Optimizing Compiler Version 19.35.32216.1 

include listing.inc

INCLUDELIB OLDNAMES

PUBLIC	?zero@BytecodeMachine@randomx@@0_KB		; randomx::BytecodeMachine::zero
?_Fake_alloc@std@@3U_Fake_allocator@1@B	ORG $+1		; std::_Fake_alloc
?zero@BytecodeMachine@randomx@@0_KB DQ 0000000000000000H ; randomx::BytecodeMachine::zero
PUBLIC	?getScratchpadAddress@BytecodeMachine@randomx@@CAPEAXAEAUInstructionByteCode@2@PEAE@Z ; randomx::BytecodeMachine::getScratchpadAddress
PUBLIC	?exe_ISTORE@BytecodeMachine@randomx@@SAXAEAUInstructionByteCode@2@AEAHPEAEAEAUProgramConfiguration@2@@Z ; randomx::BytecodeMachine::exe_ISTORE
PUBLIC	?exe_CFROUND@BytecodeMachine@randomx@@SAXAEAUInstructionByteCode@2@AEAHPEAEAEAUProgramConfiguration@2@@Z ; randomx::BytecodeMachine::exe_CFROUND
PUBLIC	?exe_CBRANCH@BytecodeMachine@randomx@@SAXAEAUInstructionByteCode@2@AEAHPEAEAEAUProgramConfiguration@2@@Z ; randomx::BytecodeMachine::exe_CBRANCH
PUBLIC	?exe_FSQRT_R@BytecodeMachine@randomx@@SAXAEAUInstructionByteCode@2@AEAHPEAEAEAUProgramConfiguration@2@@Z ; randomx::BytecodeMachine::exe_FSQRT_R
PUBLIC	?exe_FDIV_M@BytecodeMachine@randomx@@SAXAEAUInstructionByteCode@2@AEAHPEAEAEAUProgramConfiguration@2@@Z ; randomx::BytecodeMachine::exe_FDIV_M
PUBLIC	?exe_FMUL_R@BytecodeMachine@randomx@@SAXAEAUInstructionByteCode@2@AEAHPEAEAEAUProgramConfiguration@2@@Z ; randomx::BytecodeMachine::exe_FMUL_R
PUBLIC	?exe_FSCAL_R@BytecodeMachine@randomx@@SAXAEAUInstructionByteCode@2@AEAHPEAEAEAUProgramConfiguration@2@@Z ; randomx::BytecodeMachine::exe_FSCAL_R
PUBLIC	?exe_FSUB_M@BytecodeMachine@randomx@@SAXAEAUInstructionByteCode@2@AEAHPEAEAEAUProgramConfiguration@2@@Z ; randomx::BytecodeMachine::exe_FSUB_M
PUBLIC	?exe_FSUB_R@BytecodeMachine@randomx@@SAXAEAUInstructionByteCode@2@AEAHPEAEAEAUProgramConfiguration@2@@Z ; randomx::BytecodeMachine::exe_FSUB_R
PUBLIC	?exe_FADD_M@BytecodeMachine@randomx@@SAXAEAUInstructionByteCode@2@AEAHPEAEAEAUProgramConfiguration@2@@Z ; randomx::BytecodeMachine::exe_FADD_M
PUBLIC	?exe_FADD_R@BytecodeMachine@randomx@@SAXAEAUInstructionByteCode@2@AEAHPEAEAEAUProgramConfiguration@2@@Z ; randomx::BytecodeMachine::exe_FADD_R
PUBLIC	?exe_FSWAP_R@BytecodeMachine@randomx@@SAXAEAUInstructionByteCode@2@AEAHPEAEAEAUProgramConfiguration@2@@Z ; randomx::BytecodeMachine::exe_FSWAP_R
PUBLIC	?exe_ISWAP_R@BytecodeMachine@randomx@@SAXAEAUInstructionByteCode@2@AEAHPEAEAEAUProgramConfiguration@2@@Z ; randomx::BytecodeMachine::exe_ISWAP_R
PUBLIC	?exe_IROL_R@BytecodeMachine@randomx@@SAXAEAUInstructionByteCode@2@AEAHPEAEAEAUProgramConfiguration@2@@Z ; randomx::BytecodeMachine::exe_IROL_R
PUBLIC	?exe_IROR_R@BytecodeMachine@randomx@@SAXAEAUInstructionByteCode@2@AEAHPEAEAEAUProgramConfiguration@2@@Z ; randomx::BytecodeMachine::exe_IROR_R
PUBLIC	?exe_IXOR_M@BytecodeMachine@randomx@@SAXAEAUInstructionByteCode@2@AEAHPEAEAEAUProgramConfiguration@2@@Z ; randomx::BytecodeMachine::exe_IXOR_M
PUBLIC	?exe_IXOR_R@BytecodeMachine@randomx@@SAXAEAUInstructionByteCode@2@AEAHPEAEAEAUProgramConfiguration@2@@Z ; randomx::BytecodeMachine::exe_IXOR_R
PUBLIC	?exe_INEG_R@BytecodeMachine@randomx@@SAXAEAUInstructionByteCode@2@AEAHPEAEAEAUProgramConfiguration@2@@Z ; randomx::BytecodeMachine::exe_INEG_R
PUBLIC	?exe_ISMULH_M@BytecodeMachine@randomx@@SAXAEAUInstructionByteCode@2@AEAHPEAEAEAUProgramConfiguration@2@@Z ; randomx::BytecodeMachine::exe_ISMULH_M
PUBLIC	?exe_ISMULH_R@BytecodeMachine@randomx@@SAXAEAUInstructionByteCode@2@AEAHPEAEAEAUProgramConfiguration@2@@Z ; randomx::BytecodeMachine::exe_ISMULH_R
PUBLIC	?exe_IMULH_M@BytecodeMachine@randomx@@SAXAEAUInstructionByteCode@2@AEAHPEAEAEAUProgramConfiguration@2@@Z ; randomx::BytecodeMachine::exe_IMULH_M
PUBLIC	?exe_IMULH_R@BytecodeMachine@randomx@@SAXAEAUInstructionByteCode@2@AEAHPEAEAEAUProgramConfiguration@2@@Z ; randomx::BytecodeMachine::exe_IMULH_R
PUBLIC	?exe_IMUL_M@BytecodeMachine@randomx@@SAXAEAUInstructionByteCode@2@AEAHPEAEAEAUProgramConfiguration@2@@Z ; randomx::BytecodeMachine::exe_IMUL_M
PUBLIC	?exe_IMUL_R@BytecodeMachine@randomx@@SAXAEAUInstructionByteCode@2@AEAHPEAEAEAUProgramConfiguration@2@@Z ; randomx::BytecodeMachine::exe_IMUL_R
PUBLIC	?exe_ISUB_M@BytecodeMachine@randomx@@SAXAEAUInstructionByteCode@2@AEAHPEAEAEAUProgramConfiguration@2@@Z ; randomx::BytecodeMachine::exe_ISUB_M
PUBLIC	?exe_ISUB_R@BytecodeMachine@randomx@@SAXAEAUInstructionByteCode@2@AEAHPEAEAEAUProgramConfiguration@2@@Z ; randomx::BytecodeMachine::exe_ISUB_R
PUBLIC	?exe_IADD_M@BytecodeMachine@randomx@@SAXAEAUInstructionByteCode@2@AEAHPEAEAEAUProgramConfiguration@2@@Z ; randomx::BytecodeMachine::exe_IADD_M
PUBLIC	?exe_IADD_RS@BytecodeMachine@randomx@@SAXAEAUInstructionByteCode@2@AEAHPEAEAEAUProgramConfiguration@2@@Z ; randomx::BytecodeMachine::exe_IADD_RS
PUBLIC	?rx_set_rounding_mode@@YAXI@Z			; rx_set_rounding_mode
PUBLIC	?rx_set1_vec_f128@@YA?AU__m128d@@_K@Z		; rx_set1_vec_f128
PUBLIC	?rx_swap_vec_f128@@YA?AU__m128d@@U1@@Z		; rx_swap_vec_f128
PUBLIC	?signExtend2sCompl@@YA_KI@Z			; signExtend2sCompl
PUBLIC	?unsigned64ToSigned2sCompl@@YA_J_K@Z		; unsigned64ToSigned2sCompl
PUBLIC	?executeInstruction@BytecodeMachine@randomx@@SAXAEAUInstructionByteCode@2@AEAHPEAEAEAUProgramConfiguration@2@@Z ; randomx::BytecodeMachine::executeInstruction
PUBLIC	?compileInstruction@BytecodeMachine@randomx@@QEAAXAEAVInstruction@2@HAEAUInstructionByteCode@2@@Z ; randomx::BytecodeMachine::compileInstruction
;	COMDAT pdata
pdata	SEGMENT
$pdata$?executeInstruction@BytecodeMachine@randomx@@SAXAEAUInstructionByteCode@2@AEAHPEAEAEAUProgramConfiguration@2@@Z DD imagerel $LN146
	DD	imagerel $LN146+1032
	DD	imagerel $unwind$?executeInstruction@BytecodeMachine@randomx@@SAXAEAUInstructionByteCode@2@AEAHPEAEAEAUProgramConfiguration@2@@Z
pdata	ENDS
;	COMDAT pdata
pdata	SEGMENT
$pdata$?compileInstruction@BytecodeMachine@randomx@@QEAAXAEAVInstruction@2@HAEAUInstructionByteCode@2@@Z DD imagerel $LN238
	DD	imagerel $LN238+987
	DD	imagerel $unwind$?compileInstruction@BytecodeMachine@randomx@@QEAAXAEAVInstruction@2@HAEAUInstructionByteCode@2@@Z
pdata	ENDS
;	COMDAT pdata
pdata	SEGMENT
$pdata$0$?compileInstruction@BytecodeMachine@randomx@@QEAAXAEAVInstruction@2@HAEAUInstructionByteCode@2@@Z DD imagerel $LN238+987
	DD	imagerel $LN238+1067
	DD	imagerel $chain$0$?compileInstruction@BytecodeMachine@randomx@@QEAAXAEAVInstruction@2@HAEAUInstructionByteCode@2@@Z
pdata	ENDS
;	COMDAT pdata
pdata	SEGMENT
$pdata$1$?compileInstruction@BytecodeMachine@randomx@@QEAAXAEAVInstruction@2@HAEAUInstructionByteCode@2@@Z DD imagerel $LN238+1067
	DD	imagerel $LN238+1126
	DD	imagerel $chain$1$?compileInstruction@BytecodeMachine@randomx@@QEAAXAEAVInstruction@2@HAEAUInstructionByteCode@2@@Z
pdata	ENDS
;	COMDAT pdata
pdata	SEGMENT
$pdata$2$?compileInstruction@BytecodeMachine@randomx@@QEAAXAEAVInstruction@2@HAEAUInstructionByteCode@2@@Z DD imagerel $LN238+1126
	DD	imagerel $LN238+1153
	DD	imagerel $chain$2$?compileInstruction@BytecodeMachine@randomx@@QEAAXAEAVInstruction@2@HAEAUInstructionByteCode@2@@Z
pdata	ENDS
;	COMDAT pdata
pdata	SEGMENT
$pdata$3$?compileInstruction@BytecodeMachine@randomx@@QEAAXAEAVInstruction@2@HAEAUInstructionByteCode@2@@Z DD imagerel $LN238+1153
	DD	imagerel $LN238+2200
	DD	imagerel $chain$3$?compileInstruction@BytecodeMachine@randomx@@QEAAXAEAVInstruction@2@HAEAUInstructionByteCode@2@@Z
;	COMDAT xdata
xdata	SEGMENT
$chain$3$?compileInstruction@BytecodeMachine@randomx@@QEAAXAEAVInstruction@2@HAEAUInstructionByteCode@2@@Z DD 021H
	DD	imagerel $LN238
	DD	imagerel $LN238+987
	DD	imagerel $unwind$?compileInstruction@BytecodeMachine@randomx@@QEAAXAEAVInstruction@2@HAEAUInstructionByteCode@2@@Z
xdata	ENDS
;	COMDAT xdata
xdata	SEGMENT
$chain$2$?compileInstruction@BytecodeMachine@randomx@@QEAAXAEAVInstruction@2@HAEAUInstructionByteCode@2@@Z DD 021H
	DD	imagerel $LN238+987
	DD	imagerel $LN238+1067
	DD	imagerel $chain$0$?compileInstruction@BytecodeMachine@randomx@@QEAAXAEAVInstruction@2@HAEAUInstructionByteCode@2@@Z
xdata	ENDS
;	COMDAT xdata
xdata	SEGMENT
$chain$1$?compileInstruction@BytecodeMachine@randomx@@QEAAXAEAVInstruction@2@HAEAUInstructionByteCode@2@@Z DD 020521H
	DD	036405H
	DD	imagerel $LN238+987
	DD	imagerel $LN238+1067
	DD	imagerel $chain$0$?compileInstruction@BytecodeMachine@randomx@@QEAAXAEAVInstruction@2@HAEAUInstructionByteCode@2@@Z
xdata	ENDS
;	COMDAT xdata
xdata	SEGMENT
$chain$0$?compileInstruction@BytecodeMachine@randomx@@QEAAXAEAVInstruction@2@HAEAUInstructionByteCode@2@@Z DD 020521H
	DD	025405H
	DD	imagerel $LN238
	DD	imagerel $LN238+987
	DD	imagerel $unwind$?compileInstruction@BytecodeMachine@randomx@@QEAAXAEAVInstruction@2@HAEAUInstructionByteCode@2@@Z
xdata	ENDS
;	COMDAT xdata
xdata	SEGMENT
$unwind$?compileInstruction@BytecodeMachine@randomx@@QEAAXAEAVInstruction@2@HAEAUInstructionByteCode@2@@Z DD 030601H
	DD	043406H
	DD	07006H
xdata	ENDS
;	COMDAT xdata
xdata	SEGMENT
$unwind$?executeInstruction@BytecodeMachine@randomx@@SAXAEAUInstructionByteCode@2@AEAHPEAEAEAUProgramConfiguration@2@@Z DD 020501H
	DD	023405H
; Function compile flags: /Ogtpy
;	COMDAT ?compileInstruction@BytecodeMachine@randomx@@QEAAXAEAVInstruction@2@HAEAUInstructionByteCode@2@@Z
_TEXT	SEGMENT
this$ = 16
instr$ = 24
i$ = 32
ibc$ = 40
?compileInstruction@BytecodeMachine@randomx@@QEAAXAEAVInstruction@2@HAEAUInstructionByteCode@2@@Z PROC ; randomx::BytecodeMachine::compileInstruction, COMDAT
; File D:\dev\francium_network\francium_agent\src\ext\randomx\repo\src\bytecode_machine.cpp
; Line 81
$LN238:
	mov	QWORD PTR [rsp+24], rbx
	push	rdi
; Line 82
	movzx	eax, BYTE PTR [rdx]
	mov	ebx, r8d
	mov	r11, rdx
	mov	r10, rcx
; Line 84
	cmp	al, 16
	jae	SHORT $LN5@compileIns
; Line 85
	movzx	edi, BYTE PTR [rdx+1]
; Line 86
	movzx	r8d, BYTE PTR [rdx+2]
	and	edi, 7
; Line 87
	xor	edx, edx
	mov	WORD PTR [r9+24], dx
; Line 88
	mov	rax, QWORD PTR [rcx+32]
	lea	rcx, QWORD PTR [rax+rdi*8]
	mov	QWORD PTR [r9], rcx
	mov	ecx, r8d
	mov	rax, QWORD PTR [r10+32]
	and	ecx, 7
	lea	rcx, QWORD PTR [rax+rcx*8]
	mov	QWORD PTR [r9+8], rcx
	movzx	eax, BYTE PTR [r11+3]
	shr	eax, 2
	and	eax, -2147483645			; ffffffff80000003H
	jge	SHORT $LN225@compileIns
	dec	eax
	or	eax, -4
	inc	eax
$LN225@compileIns:
	mov	WORD PTR [r9+26], ax
; Line 89
	cmp	edi, 5
	jne	SHORT $LN7@compileIns
; File D:\dev\francium_network\francium_agent\src\ext\randomx\repo\src\intrin_portable.h
; Line 43
	movsxd	rdx, DWORD PTR [r11+4]
$LN7@compileIns:
; File D:\dev\francium_network\francium_agent\src\ext\randomx\repo\src\bytecode_machine.cpp
; Line 99
	mov	QWORD PTR [r9+16], rdx
	mov	DWORD PTR [r10+rdi*4], ebx
; Line 481
	mov	rbx, QWORD PTR [rsp+32]
	pop	rdi
	ret	0
$LN5@compileIns:
; Line 103
	cmp	al, 23
	jae	SHORT $LN8@compileIns
; Line 104
	movzx	r8d, BYTE PTR [rdx+1]
; Line 106
	mov	eax, 1
	movzx	edx, BYTE PTR [rdx+2]
	and	r8d, 7
	mov	WORD PTR [r9+24], ax
	and	edx, 7
; Line 107
	mov	rax, QWORD PTR [rcx+32]
	lea	rcx, QWORD PTR [rax+r8*8]
	mov	QWORD PTR [r9], rcx
; File D:\dev\francium_network\francium_agent\src\ext\randomx\repo\src\intrin_portable.h
; Line 43
	movsxd	rax, DWORD PTR [r11+4]
; File D:\dev\francium_network\francium_agent\src\ext\randomx\repo\src\bytecode_machine.cpp
; Line 108
	mov	QWORD PTR [r9+16], rax
; Line 109
	cmp	edx, r8d
	je	SHORT $LN9@compileIns
; Line 110
	mov	rax, QWORD PTR [r10+32]
	lea	rcx, QWORD PTR [rax+rdx*8]
; Line 111
	mov	eax, 262136				; 0003fff8H
	mov	QWORD PTR [r9+8], rcx
	mov	ecx, 16376				; 00003ff8H
; File D:\dev\francium_network\francium_agent\src\ext\randomx\repo\src\instruction.hpp
; Line 91
	test	BYTE PTR [r11+3], 3
; File D:\dev\francium_network\francium_agent\src\ext\randomx\repo\src\bytecode_machine.cpp
; Line 111
	cmovne	eax, ecx
; Line 481
	mov	DWORD PTR [r9+28], eax
	mov	DWORD PTR [r10+r8*4], ebx
	mov	rbx, QWORD PTR [rsp+32]
	pop	rdi
	ret	0
$LN9@compileIns:
	lea	rax, OFFSET FLAT:?zero@BytecodeMachine@randomx@@0_KB ; randomx::BytecodeMachine::zero
	mov	QWORD PTR [r9+8], rax
	mov	eax, 2097144				; 001ffff8H
	mov	DWORD PTR [r9+28], eax
	mov	DWORD PTR [r10+r8*4], ebx
	mov	rbx, QWORD PTR [rsp+32]
	pop	rdi
	ret	0
$LN8@compileIns:
; Line 121
	cmp	al, 39					; 00000027H
	jae	SHORT $LN11@compileIns
; Line 124
	mov	eax, 2
$LN232@compileIns:
; Line 481
	movzx	r8d, BYTE PTR [rdx+1]
	movzx	edx, BYTE PTR [rdx+2]
	and	r8d, 7
	mov	WORD PTR [r9+24], ax
	and	edx, 7
	mov	rax, QWORD PTR [rcx+32]
	lea	rcx, QWORD PTR [rax+r8*8]
	mov	QWORD PTR [r9], rcx
	cmp	edx, r8d
	je	SHORT $LN12@compileIns
	mov	rax, QWORD PTR [r10+32]
	lea	rdx, QWORD PTR [rax+rdx*8]
	mov	QWORD PTR [r9+8], rdx
	mov	DWORD PTR [r10+r8*4], ebx
	mov	rbx, QWORD PTR [rsp+32]
	pop	rdi
	ret	0
$LN12@compileIns:
	movsxd	rax, DWORD PTR [r11+4]
	lea	rdx, QWORD PTR [r9+16]
	mov	QWORD PTR [rdx], rax
	mov	QWORD PTR [r9+8], rdx
	mov	DWORD PTR [r10+r8*4], ebx
	mov	rbx, QWORD PTR [rsp+32]
	pop	rdi
	ret	0
$LN11@compileIns:
; Line 137
	cmp	al, 46					; 0000002eH
	jae	SHORT $LN14@compileIns
; Line 138
	movzx	r8d, BYTE PTR [rdx+1]
; Line 140
	mov	eax, 3
	movzx	edx, BYTE PTR [rdx+2]
	and	r8d, 7
	mov	WORD PTR [r9+24], ax
	and	edx, 7
; Line 141
	mov	rax, QWORD PTR [rcx+32]
	lea	rcx, QWORD PTR [rax+r8*8]
	mov	QWORD PTR [r9], rcx
; File D:\dev\francium_network\francium_agent\src\ext\randomx\repo\src\intrin_portable.h
; Line 43
	movsxd	rax, DWORD PTR [r11+4]
; File D:\dev\francium_network\francium_agent\src\ext\randomx\repo\src\bytecode_machine.cpp
; Line 142
	mov	QWORD PTR [r9+16], rax
; Line 143
	cmp	edx, r8d
	je	$LN9@compileIns
; Line 144
	mov	rax, QWORD PTR [r10+32]
	lea	rcx, QWORD PTR [rax+rdx*8]
; Line 145
	mov	eax, 262136				; 0003fff8H
	mov	QWORD PTR [r9+8], rcx
	mov	ecx, 16376				; 00003ff8H
; File D:\dev\francium_network\francium_agent\src\ext\randomx\repo\src\instruction.hpp
; Line 91
	test	BYTE PTR [r11+3], 3
; File D:\dev\francium_network\francium_agent\src\ext\randomx\repo\src\bytecode_machine.cpp
; Line 145
	cmovne	eax, ecx
; Line 481
	mov	DWORD PTR [r9+28], eax
	mov	DWORD PTR [r10+r8*4], ebx
	mov	rbx, QWORD PTR [rsp+32]
	pop	rdi
	ret	0
$LN14@compileIns:
; Line 155
	cmp	al, 62					; 0000003eH
	jae	SHORT $LN17@compileIns
; Line 156
	movzx	r8d, BYTE PTR [rdx+1]
; Line 158
	mov	ecx, 4
	movzx	edx, BYTE PTR [rdx+2]
	and	r8d, 7
	mov	WORD PTR [r9+24], cx
	and	edx, 7
; Line 159
	mov	rax, QWORD PTR [r10+32]
	lea	rcx, QWORD PTR [rax+r8*8]
	mov	QWORD PTR [r9], rcx
; Line 160
	cmp	edx, r8d
	je	$LN12@compileIns
; Line 161
	mov	rax, QWORD PTR [r10+32]
	lea	rdx, QWORD PTR [rax+rdx*8]
; Line 481
	mov	QWORD PTR [r9+8], rdx
	mov	DWORD PTR [r10+r8*4], ebx
	mov	rbx, QWORD PTR [rsp+32]
	pop	rdi
	ret	0
$LN17@compileIns:
; Line 171
	cmp	al, 66					; 00000042H
	jae	SHORT $LN20@compileIns
; Line 172
	movzx	r8d, BYTE PTR [rdx+1]
; Line 174
	mov	eax, 5
	movzx	edx, BYTE PTR [rdx+2]
	and	r8d, 7
	mov	WORD PTR [r9+24], ax
	and	edx, 7
; Line 175
	mov	rax, QWORD PTR [rcx+32]
	lea	rcx, QWORD PTR [rax+r8*8]
	mov	QWORD PTR [r9], rcx
; File D:\dev\francium_network\francium_agent\src\ext\randomx\repo\src\intrin_portable.h
; Line 43
	movsxd	rax, DWORD PTR [r11+4]
; File D:\dev\francium_network\francium_agent\src\ext\randomx\repo\src\bytecode_machine.cpp
; Line 176
	mov	QWORD PTR [r9+16], rax
; Line 177
	cmp	edx, r8d
	je	$LN9@compileIns
; Line 178
	mov	rax, QWORD PTR [r10+32]
	lea	rcx, QWORD PTR [rax+rdx*8]
; Line 179
	mov	eax, 262136				; 0003fff8H
	mov	QWORD PTR [r9+8], rcx
	mov	ecx, 16376				; 00003ff8H
; File D:\dev\francium_network\francium_agent\src\ext\randomx\repo\src\instruction.hpp
; Line 91
	test	BYTE PTR [r11+3], 3
; File D:\dev\francium_network\francium_agent\src\ext\randomx\repo\src\bytecode_machine.cpp
; Line 179
	cmovne	eax, ecx
; Line 481
	mov	DWORD PTR [r9+28], eax
	mov	DWORD PTR [r10+r8*4], ebx
	mov	rbx, QWORD PTR [rsp+32]
	pop	rdi
	ret	0
$LN20@compileIns:
; Line 189
	cmp	al, 70					; 00000046H
	jae	SHORT $LN23@compileIns
; Line 190
	movzx	r8d, BYTE PTR [rdx+1]
; Line 192
	mov	ecx, 6
	movzx	edx, BYTE PTR [rdx+2]
; Line 193
	and	r8d, 7
	mov	WORD PTR [r9+24], cx
	mov	rax, QWORD PTR [r10+32]
	lea	rcx, QWORD PTR [rax+r8*8]
	mov	QWORD PTR [r9], rcx
; Line 194
	mov	ecx, edx
	mov	rax, QWORD PTR [r10+32]
	and	ecx, 7
	lea	rcx, QWORD PTR [rax+rcx*8]
	mov	QWORD PTR [r9+8], rcx
; Line 195
	mov	DWORD PTR [r10+r8*4], ebx
; Line 481
	mov	rbx, QWORD PTR [rsp+32]
	pop	rdi
	ret	0
$LN23@compileIns:
; Line 199
	cmp	al, 71					; 00000047H
	jae	SHORT $LN24@compileIns
; Line 200
	movzx	r8d, BYTE PTR [rdx+1]
; Line 202
	mov	eax, 7
	movzx	edx, BYTE PTR [rdx+2]
	and	r8d, 7
	mov	WORD PTR [r9+24], ax
	and	edx, 7
; Line 203
	mov	rax, QWORD PTR [rcx+32]
	lea	rcx, QWORD PTR [rax+r8*8]
	mov	QWORD PTR [r9], rcx
; File D:\dev\francium_network\francium_agent\src\ext\randomx\repo\src\intrin_portable.h
; Line 43
	movsxd	rax, DWORD PTR [r11+4]
; File D:\dev\francium_network\francium_agent\src\ext\randomx\repo\src\bytecode_machine.cpp
; Line 204
	mov	QWORD PTR [r9+16], rax
; Line 205
	cmp	edx, r8d
	je	$LN9@compileIns
; Line 206
	mov	rax, QWORD PTR [r10+32]
	lea	rcx, QWORD PTR [rax+rdx*8]
; Line 207
	mov	eax, 262136				; 0003fff8H
	mov	QWORD PTR [r9+8], rcx
	mov	ecx, 16376				; 00003ff8H
; File D:\dev\francium_network\francium_agent\src\ext\randomx\repo\src\instruction.hpp
; Line 91
	test	BYTE PTR [r11+3], 3
; File D:\dev\francium_network\francium_agent\src\ext\randomx\repo\src\bytecode_machine.cpp
; Line 207
	cmovne	eax, ecx
; Line 481
	mov	DWORD PTR [r9+28], eax
	mov	DWORD PTR [r10+r8*4], ebx
	mov	rbx, QWORD PTR [rsp+32]
	pop	rdi
	ret	0
$LN24@compileIns:
; Line 217
	cmp	al, 75					; 0000004bH
	jae	SHORT $LN27@compileIns
; Line 218
	movzx	r8d, BYTE PTR [rdx+1]
; Line 220
	mov	ecx, 8
	movzx	edx, BYTE PTR [rdx+2]
; Line 221
	and	r8d, 7
	mov	WORD PTR [r9+24], cx
	mov	rax, QWORD PTR [r10+32]
	lea	rcx, QWORD PTR [rax+r8*8]
	mov	QWORD PTR [r9], rcx
; Line 222
	mov	ecx, edx
	mov	rax, QWORD PTR [r10+32]
	and	ecx, 7
	lea	rcx, QWORD PTR [rax+rcx*8]
	mov	QWORD PTR [r9+8], rcx
; Line 223
	mov	DWORD PTR [r10+r8*4], ebx
; Line 481
	mov	rbx, QWORD PTR [rsp+32]
	pop	rdi
	ret	0
$LN27@compileIns:
; Line 227
	cmp	al, 76					; 0000004cH
	jae	SHORT $LN28@compileIns
; Line 228
	movzx	r8d, BYTE PTR [rdx+1]
; Line 230
	mov	eax, 9
	movzx	edx, BYTE PTR [rdx+2]
	and	r8d, 7
	mov	WORD PTR [r9+24], ax
	and	edx, 7
; Line 231
	mov	rax, QWORD PTR [rcx+32]
	lea	rcx, QWORD PTR [rax+r8*8]
	mov	QWORD PTR [r9], rcx
; File D:\dev\francium_network\francium_agent\src\ext\randomx\repo\src\intrin_portable.h
; Line 43
	movsxd	rax, DWORD PTR [r11+4]
; File D:\dev\francium_network\francium_agent\src\ext\randomx\repo\src\bytecode_machine.cpp
; Line 232
	mov	QWORD PTR [r9+16], rax
; Line 233
	cmp	edx, r8d
	je	$LN9@compileIns
; Line 234
	mov	rax, QWORD PTR [r10+32]
	lea	rcx, QWORD PTR [rax+rdx*8]
; Line 235
	mov	eax, 262136				; 0003fff8H
	mov	QWORD PTR [r9+8], rcx
	mov	ecx, 16376				; 00003ff8H
; File D:\dev\francium_network\francium_agent\src\ext\randomx\repo\src\instruction.hpp
; Line 91
	test	BYTE PTR [r11+3], 3
; File D:\dev\francium_network\francium_agent\src\ext\randomx\repo\src\bytecode_machine.cpp
; Line 235
	cmovne	eax, ecx
; Line 481
	mov	DWORD PTR [r9+28], eax
	mov	DWORD PTR [r10+r8*4], ebx
	mov	rbx, QWORD PTR [rsp+32]
	pop	rdi
	ret	0
$LN28@compileIns:
; Line 245
	cmp	al, 84					; 00000054H
	jae	$LN31@compileIns
; Line 246
	mov	edi, DWORD PTR [rdx+4]
; File D:\dev\francium_network\francium_agent\src\ext\randomx\repo\src\common.hpp
; Line 155
	lea	rax, QWORD PTR [rdi-1]
	test	rax, rdi
; File D:\dev\francium_network\francium_agent\src\ext\randomx\repo\src\bytecode_machine.cpp
; Line 247
	je	$LN32@compileIns
; Line 248
	mov	QWORD PTR [rsp+16], rbp
; Line 249
	mov	ecx, 4
	movzx	ebp, BYTE PTR [rdx+1]
; File D:\dev\francium_network\francium_agent\src\ext\randomx\repo\src\reciprocal.c
; Line 53
	xor	edx, edx
; File D:\dev\francium_network\francium_agent\src\ext\randomx\repo\src\bytecode_machine.cpp
; Line 249
	mov	WORD PTR [r9+24], cx
; Line 250
	and	ebp, 7
	mov	rax, QWORD PTR [r10+32]
	lea	rcx, QWORD PTR [rax+rbp*8]
; File D:\dev\francium_network\francium_agent\src\ext\randomx\repo\src\reciprocal.c
; Line 53
	mov	rax, -9223372036854775808		; 8000000000000000H
	div	rdi
; File D:\dev\francium_network\francium_agent\src\ext\randomx\repo\src\bytecode_machine.cpp
; Line 250
	mov	QWORD PTR [r9], rcx
; File D:\dev\francium_network\francium_agent\src\ext\randomx\repo\src\reciprocal.c
; Line 57
	mov	ecx, edi
	mov	r8, rdx
	mov	r11, rax
	xor	edx, edx
	test	rdi, rdi
	je	SHORT $LN138@compileIns
	npad	6
$LL136@compileIns:
; Line 58
	inc	edx
	shr	rcx, 1
	jne	SHORT $LL136@compileIns
; Line 60
	test	edx, edx
	je	SHORT $LN138@compileIns
	mov	QWORD PTR [rsp+24], rsi
	mov	esi, edx
$LL205@compileIns:
; Line 61
	lea	rax, QWORD PTR [r11+r11]
	mov	rdx, rdi
	sub	rdx, r8
	lea	rcx, QWORD PTR [r8+r8]
	cmp	r8, rdx
	lea	r11, QWORD PTR [rax+1]
	cmovb	r11, rax
	mov	rax, r8
	mov	r8, rcx
	sub	r8, rdi
	cmp	rax, rdx
	cmovb	r8, rcx
	sub	rsi, 1
	jne	SHORT $LL205@compileIns
	mov	rsi, QWORD PTR [rsp+24]
$LN138@compileIns:
; File D:\dev\francium_network\francium_agent\src\ext\randomx\repo\src\bytecode_machine.cpp
; Line 251
	lea	rax, QWORD PTR [r9+16]
	mov	QWORD PTR [rax], r11
; Line 252
	mov	QWORD PTR [r9+8], rax
; Line 253
	mov	DWORD PTR [r10+rbp*4], ebx
	mov	rbp, QWORD PTR [rsp+16]
; Line 481
	mov	rbx, QWORD PTR [rsp+32]
	pop	rdi
	ret	0
$LN32@compileIns:
	mov	eax, 29
	mov	WORD PTR [r9+24], ax
	mov	rbx, QWORD PTR [rsp+32]
	pop	rdi
	ret	0
$LN31@compileIns:
; Line 261
	cmp	al, 86					; 00000056H
	jae	SHORT $LN34@compileIns
; Line 262
	movzx	edx, BYTE PTR [rdx+1]
; Line 263
	mov	ecx, 11
	mov	WORD PTR [r9+24], cx
; Line 264
	and	edx, 7
	mov	rax, QWORD PTR [r10+32]
	lea	rcx, QWORD PTR [rax+rdx*8]
	mov	QWORD PTR [r9], rcx
; Line 265
	mov	DWORD PTR [r10+rdx*4], ebx
; Line 481
	mov	rbx, QWORD PTR [rsp+32]
	pop	rdi
	ret	0
$LN34@compileIns:
; Line 269
	cmp	al, 101					; 00000065H
	jae	SHORT $LN35@compileIns
; Line 272
	mov	eax, 12
; Line 276
	jmp	$LN232@compileIns
$LN35@compileIns:
; Line 285
	cmp	al, 106					; 0000006aH
	jae	SHORT $LN38@compileIns
; Line 286
	movzx	r8d, BYTE PTR [rdx+1]
; Line 288
	mov	eax, 13
	movzx	edx, BYTE PTR [rdx+2]
	and	r8d, 7
	mov	WORD PTR [r9+24], ax
	and	edx, 7
; Line 289
	mov	rax, QWORD PTR [rcx+32]
	lea	rcx, QWORD PTR [rax+r8*8]
	mov	QWORD PTR [r9], rcx
; File D:\dev\francium_network\francium_agent\src\ext\randomx\repo\src\intrin_portable.h
; Line 43
	movsxd	rax, DWORD PTR [r11+4]
; File D:\dev\francium_network\francium_agent\src\ext\randomx\repo\src\bytecode_machine.cpp
; Line 290
	mov	QWORD PTR [r9+16], rax
; Line 291
	cmp	edx, r8d
	je	$LN9@compileIns
; Line 292
	mov	rax, QWORD PTR [r10+32]
	lea	rcx, QWORD PTR [rax+rdx*8]
; Line 293
	mov	eax, 262136				; 0003fff8H
	mov	QWORD PTR [r9+8], rcx
	mov	ecx, 16376				; 00003ff8H
; File D:\dev\francium_network\francium_agent\src\ext\randomx\repo\src\instruction.hpp
; Line 91
	test	BYTE PTR [r11+3], 3
; File D:\dev\francium_network\francium_agent\src\ext\randomx\repo\src\bytecode_machine.cpp
; Line 293
	cmovne	eax, ecx
; Line 481
	mov	DWORD PTR [r9+28], eax
	mov	DWORD PTR [r10+r8*4], ebx
	mov	rbx, QWORD PTR [rsp+32]
	pop	rdi
	ret	0
$LN38@compileIns:
; Line 303
	cmp	al, 114					; 00000072H
	jae	SHORT $LN41@compileIns
; Line 306
	mov	eax, 14
$LN234@compileIns:
; Line 481
	movzx	r8d, BYTE PTR [rdx+1]
	movzx	edx, BYTE PTR [rdx+2]
	and	r8d, 7
	mov	WORD PTR [r9+24], ax
	and	edx, 7
	mov	rax, QWORD PTR [rcx+32]
	lea	rcx, QWORD PTR [rax+r8*8]
	mov	QWORD PTR [r9], rcx
	cmp	edx, r8d
	je	SHORT $LN42@compileIns
	mov	rax, QWORD PTR [r10+32]
	lea	rdx, QWORD PTR [rax+rdx*8]
	mov	QWORD PTR [r9+8], rdx
	mov	DWORD PTR [r10+r8*4], ebx
	mov	rbx, QWORD PTR [rsp+32]
	pop	rdi
	ret	0
$LN42@compileIns:
	mov	eax, DWORD PTR [r11+4]
	lea	rdx, QWORD PTR [r9+16]
	mov	QWORD PTR [rdx], rax
	mov	QWORD PTR [r9+8], rdx
	mov	DWORD PTR [r10+r8*4], ebx
	mov	rbx, QWORD PTR [rsp+32]
	pop	rdi
	ret	0
$LN41@compileIns:
; Line 319
	cmp	al, 116					; 00000074H
	jae	SHORT $LN44@compileIns
; Line 322
	mov	eax, 15
; Line 326
	jmp	SHORT $LN234@compileIns
$LN44@compileIns:
; Line 335
	cmp	al, 120					; 00000078H
	jae	SHORT $LN47@compileIns
; Line 336
	movzx	eax, BYTE PTR [rdx+1]
; Line 337
	movzx	edx, BYTE PTR [rdx+2]
	and	eax, 7
	and	edx, 7
; Line 338
	cmp	edx, eax
	je	$LN32@compileIns
; Line 339
	mov	r8d, eax
	mov	rax, QWORD PTR [rcx+32]
	lea	rcx, QWORD PTR [rax+r8*8]
	mov	QWORD PTR [r9], rcx
; Line 340
	mov	rax, QWORD PTR [r10+32]
	lea	rcx, QWORD PTR [rax+rdx*8]
; Line 341
	mov	eax, 16
	mov	WORD PTR [r9+24], ax
	mov	QWORD PTR [r9+8], rcx
; Line 342
	mov	DWORD PTR [r10+r8*4], ebx
; Line 343
	mov	DWORD PTR [r10+rdx*4], ebx
; Line 481
	mov	rbx, QWORD PTR [rsp+32]
	pop	rdi
	ret	0
$LN47@compileIns:
; Line 351
	cmp	al, 124					; 0000007cH
	jae	SHORT $LN50@compileIns
; Line 352
	movzx	eax, BYTE PTR [rdx+1]
; Line 353
	mov	ecx, 17
	mov	WORD PTR [r9+24], cx
	mov	ecx, eax
	and	ecx, 7
; Line 358
	add	rcx, 4
	shl	rcx, 4
	add	rcx, QWORD PTR [r10+32]
	mov	QWORD PTR [r9], rcx
; Line 481
	mov	rbx, QWORD PTR [rsp+32]
	pop	rdi
	ret	0
$LN50@compileIns:
; Line 361
	cmp	al, 140					; 0000008cH
	jae	SHORT $LN53@compileIns
; Line 364
	mov	ecx, 18
$LN235@compileIns:
; Line 481
	movzx	eax, BYTE PTR [rdx+1]
	movzx	edx, BYTE PTR [rdx+2]
	mov	WORD PTR [r9+24], cx
	mov	ecx, eax
	and	ecx, 3
	add	rcx, 4
$LN227@compileIns:
	mov	rax, rdx
	shl	rcx, 4
	add	rcx, QWORD PTR [r10+32]
	and	eax, 3
	add	rax, 12
	mov	QWORD PTR [r9], rcx
	shl	rax, 4
	add	rax, QWORD PTR [r10+32]
	mov	QWORD PTR [r9+8], rax
	mov	rbx, QWORD PTR [rsp+32]
	pop	rdi
	ret	0
$LN53@compileIns:
; Line 370
	cmp	al, 145					; 00000091H
	jae	SHORT $LN54@compileIns
; Line 373
	mov	ecx, 19
$LN236@compileIns:
; Line 481
	movzx	eax, BYTE PTR [rdx+1]
	movzx	edx, BYTE PTR [rdx+2]
	mov	WORD PTR [r9+24], cx
	mov	ecx, eax
	and	ecx, 3
	add	rcx, 4
$LN229@compileIns:
	shl	rcx, 4
	add	rcx, QWORD PTR [r10+32]
	mov	QWORD PTR [r9], rcx
	mov	rcx, rdx
	mov	rax, QWORD PTR [r10+32]
	and	ecx, 7
	lea	rcx, QWORD PTR [rax+rcx*8]
	mov	eax, 262136				; 0003fff8H
	mov	QWORD PTR [r9+8], rcx
	mov	ecx, 16376				; 00003ff8H
	test	BYTE PTR [r11+3], 3
	cmovne	eax, ecx
	mov	DWORD PTR [r9+28], eax
	movsxd	rax, DWORD PTR [r11+4]
	mov	QWORD PTR [r9+16], rax
	mov	rbx, QWORD PTR [rsp+32]
	pop	rdi
	ret	0
$LN54@compileIns:
; Line 381
	cmp	al, 161					; 000000a1H
	jae	SHORT $LN55@compileIns
; Line 384
	mov	ecx, 20
; Line 387
	jmp	$LN235@compileIns
$LN55@compileIns:
; Line 390
	cmp	al, 166					; 000000a6H
	jae	SHORT $LN56@compileIns
; Line 393
	mov	ecx, 21
; Line 398
	jmp	SHORT $LN236@compileIns
$LN56@compileIns:
; Line 401
	cmp	al, 172					; 000000acH
	jae	SHORT $LN57@compileIns
; Line 403
	movzx	eax, BYTE PTR [rdx+1]
	and	eax, 3
	add	rax, 4
	shl	rax, 4
	add	rax, QWORD PTR [rcx+32]
	mov	QWORD PTR [r9], rax
; Line 404
	mov	eax, 22
	mov	WORD PTR [r9+24], ax
; Line 481
	mov	rbx, QWORD PTR [rsp+32]
	pop	rdi
	ret	0
$LN57@compileIns:
; Line 408
	cmp	al, 204					; 000000ccH
	jae	SHORT $LN58@compileIns
; Line 409
	movzx	eax, BYTE PTR [rdx+1]
; Line 411
	mov	ecx, 23
	movzx	edx, BYTE PTR [rdx+2]
	mov	WORD PTR [r9+24], cx
; Line 412
	mov	ecx, eax
	and	ecx, 3
	add	rcx, 8
; Line 414
	jmp	$LN227@compileIns
$LN58@compileIns:
; Line 417
	cmp	al, 208					; 000000d0H
	jae	SHORT $LN59@compileIns
; Line 418
	movzx	eax, BYTE PTR [rdx+1]
; Line 420
	mov	ecx, 24
	movzx	edx, BYTE PTR [rdx+2]
	mov	WORD PTR [r9+24], cx
; Line 421
	mov	ecx, eax
	and	ecx, 3
	add	rcx, 8
; Line 425
	jmp	$LN229@compileIns
$LN59@compileIns:
; Line 428
	cmp	al, 214					; 000000d6H
	jae	SHORT $LN60@compileIns
; Line 429
	movzx	eax, BYTE PTR [rdx+1]
; Line 430
	mov	ecx, 25
	mov	WORD PTR [r9+24], cx
; Line 431
	mov	ecx, eax
	and	ecx, 3
	add	rcx, 8
	shl	rcx, 4
	add	rcx, QWORD PTR [r10+32]
	mov	QWORD PTR [r9], rcx
; Line 481
	mov	rbx, QWORD PTR [rsp+32]
	pop	rdi
	ret	0
$LN60@compileIns:
; Line 435
	cmp	al, 239					; 000000efH
	jae	SHORT $LN61@compileIns
; Line 436
	mov	eax, 26
	mov	WORD PTR [r9+24], ax
; Line 439
	movzx	edx, BYTE PTR [rdx+1]
	mov	rax, QWORD PTR [rcx+32]
	and	edx, 7
	lea	rcx, QWORD PTR [rax+rdx*8]
	mov	QWORD PTR [r9], rcx
; Line 440
	movzx	eax, WORD PTR [r10+rdx*4]
	mov	WORD PTR [r9+26], ax
; File D:\dev\francium_network\francium_agent\src\ext\randomx\repo\src\instruction.hpp
; Line 97
	movzx	ecx, BYTE PTR [r11+3]
; File D:\dev\francium_network\francium_agent\src\ext\randomx\repo\src\intrin_portable.h
; Line 43
	movsxd	rdx, DWORD PTR [r11+4]
; File D:\dev\francium_network\francium_agent\src\ext\randomx\repo\src\instruction.hpp
; Line 97
	shr	ecx, 4
; File D:\dev\francium_network\francium_agent\src\ext\randomx\repo\src\bytecode_machine.cpp
; Line 441
	add	ecx, 8
; Line 442
	mov	eax, ecx
	bts	rdx, rax
; Line 444
	dec	rax
	btr	rdx, rax
; Line 445
	mov	eax, 255				; 000000ffH
	mov	QWORD PTR [r9+16], rdx
	shl	eax, cl
	mov	DWORD PTR [r9+28], eax
; Line 448
	mov	DWORD PTR [r10], ebx
	mov	DWORD PTR [r10+4], ebx
	mov	DWORD PTR [r10+8], ebx
	mov	DWORD PTR [r10+12], ebx
	mov	DWORD PTR [r10+16], ebx
	mov	DWORD PTR [r10+20], ebx
	mov	DWORD PTR [r10+24], ebx
	mov	DWORD PTR [r10+28], ebx
; Line 481
	mov	rbx, QWORD PTR [rsp+32]
	pop	rdi
	ret	0
$LN61@compileIns:
; Line 453
	cmp	al, 240					; 000000f0H
	jae	SHORT $LN63@compileIns
; Line 455
	movzx	ecx, BYTE PTR [rdx+2]
	mov	rax, QWORD PTR [r10+32]
	and	ecx, 7
	lea	rcx, QWORD PTR [rax+rcx*8]
; Line 456
	mov	eax, 27
	mov	WORD PTR [r9+24], ax
	mov	QWORD PTR [r9+8], rcx
; Line 457
	mov	eax, DWORD PTR [rdx+4]
	and	eax, 63					; 0000003fH
; Line 481
	mov	QWORD PTR [r9+16], rax
	mov	rbx, QWORD PTR [rsp+32]
	pop	rdi
	ret	0
$LN63@compileIns:
; Line 462
	movzx	eax, BYTE PTR [rdx+1]
; Line 464
	mov	ecx, 28
	movzx	edx, BYTE PTR [rdx+2]
	mov	WORD PTR [r9+24], cx
; Line 465
	mov	ecx, eax
	mov	rax, QWORD PTR [r10+32]
	and	ecx, 7
	lea	rcx, QWORD PTR [rax+rcx*8]
	mov	QWORD PTR [r9], rcx
; Line 466
	mov	ecx, edx
	mov	rax, QWORD PTR [r10+32]
	and	ecx, 7
	lea	rcx, QWORD PTR [rax+rcx*8]
	mov	QWORD PTR [r9+8], rcx
; File D:\dev\francium_network\francium_agent\src\ext\randomx\repo\src\intrin_portable.h
; Line 43
	movsxd	rax, DWORD PTR [r11+4]
; File D:\dev\francium_network\francium_agent\src\ext\randomx\repo\src\bytecode_machine.cpp
; Line 467
	mov	QWORD PTR [r9+16], rax
; File D:\dev\francium_network\francium_agent\src\ext\randomx\repo\src\instruction.hpp
; Line 97
	movzx	ecx, BYTE PTR [r11+3]
; File D:\dev\francium_network\francium_agent\src\ext\randomx\repo\src\bytecode_machine.cpp
; Line 468
	movzx	eax, cl
	and	al, 240					; 000000f0H
	cmp	al, 224					; 000000e0H
	jae	SHORT $LN65@compileIns
; File D:\dev\francium_network\francium_agent\src\ext\randomx\repo\src\instruction.hpp
; Line 91
	test	cl, 3
; File D:\dev\francium_network\francium_agent\src\ext\randomx\repo\src\bytecode_machine.cpp
; Line 469
	mov	eax, 262136				; 0003fff8H
	mov	ecx, 16376				; 00003ff8H
	cmovne	eax, ecx
; Line 472
	mov	DWORD PTR [r9+28], eax
; Line 481
	mov	rbx, QWORD PTR [rsp+32]
	pop	rdi
	ret	0
$LN65@compileIns:
; Line 471
	mov	eax, 2097144				; 001ffff8H
; Line 472
	mov	DWORD PTR [r9+28], eax
; Line 481
	mov	rbx, QWORD PTR [rsp+32]
	pop	rdi
	ret	0
?compileInstruction@BytecodeMachine@randomx@@QEAAXAEAVInstruction@2@HAEAUInstructionByteCode@2@@Z ENDP ; randomx::BytecodeMachine::compileInstruction
_TEXT	ENDS
; Function compile flags: /Ogtpy
;	COMDAT ?executeInstruction@BytecodeMachine@randomx@@SAXAEAUInstructionByteCode@2@AEAHPEAEAEAUProgramConfiguration@2@@Z
_TEXT	SEGMENT
tv813 = 8
ibc$ = 8
pc$ = 16
scratchpad$ = 24
config$ = 32
?executeInstruction@BytecodeMachine@randomx@@SAXAEAUInstructionByteCode@2@AEAHPEAEAEAUProgramConfiguration@2@@Z PROC ; randomx::BytecodeMachine::executeInstruction, COMDAT
; File D:\dev\francium_network\francium_agent\src\ext\randomx\repo\src\bytecode_machine.cpp
; Line 40
$LN146:
	mov	QWORD PTR [rsp+16], rbx
; Line 41
	movzx	eax, WORD PTR [rcx+24]
	mov	r11, rcx
	lea	rcx, OFFSET FLAT:__ImageBase
	mov	rbx, r8
	mov	eax, DWORD PTR $LN141@executeIns[rcx+rax*4]
	add	rax, rcx
	jmp	rax
$LN4@executeIns:
; File D:\dev\francium_network\francium_agent\src\ext\randomx\repo\src\bytecode_machine.hpp
; Line 146
	mov	rax, QWORD PTR [r11+8]
	movzx	ecx, BYTE PTR [r11+26]
	mov	rdx, QWORD PTR [rax]
	mov	rax, QWORD PTR [r11]
	shl	rdx, cl
	add	rdx, QWORD PTR [r11+16]
	add	rdx, QWORD PTR [rax]
; File D:\dev\francium_network\francium_agent\src\ext\randomx\repo\src\bytecode_machine.cpp
; Line 79
	mov	QWORD PTR [rax], rdx
	mov	rbx, QWORD PTR [rsp+16]
	ret	0
$LN5@executeIns:
; File D:\dev\francium_network\francium_agent\src\ext\randomx\repo\src\bytecode_machine.hpp
; Line 283
	mov	rax, QWORD PTR [r11+8]
	mov	ecx, DWORD PTR [rax]
	add	ecx, DWORD PTR [r11+16]
	mov	eax, DWORD PTR [r11+28]
	and	rcx, rax
; Line 150
	mov	rax, QWORD PTR [r11]
	mov	rcx, QWORD PTR [rcx+r8]
	add	rcx, QWORD PTR [rax]
	mov	QWORD PTR [rax], rcx
; File D:\dev\francium_network\francium_agent\src\ext\randomx\repo\src\bytecode_machine.cpp
; Line 79
	mov	rbx, QWORD PTR [rsp+16]
	ret	0
$LN6@executeIns:
; File D:\dev\francium_network\francium_agent\src\ext\randomx\repo\src\bytecode_machine.hpp
; Line 154
	mov	rcx, QWORD PTR [r11]
	mov	rax, QWORD PTR [r11+8]
	mov	rdx, QWORD PTR [rcx]
	sub	rdx, QWORD PTR [rax]
; File D:\dev\francium_network\francium_agent\src\ext\randomx\repo\src\bytecode_machine.cpp
; Line 79
	mov	rax, rcx
	mov	QWORD PTR [rcx], rdx
	mov	rbx, QWORD PTR [rsp+16]
	ret	0
$LN7@executeIns:
; File D:\dev\francium_network\francium_agent\src\ext\randomx\repo\src\bytecode_machine.hpp
; Line 283
	mov	rax, QWORD PTR [r11+8]
	mov	edx, DWORD PTR [rax]
	add	edx, DWORD PTR [r11+16]
	mov	eax, DWORD PTR [r11+28]
	and	rdx, rax
; Line 158
	mov	rax, QWORD PTR [r11]
	mov	rcx, QWORD PTR [rax]
	sub	rcx, QWORD PTR [rdx+r8]
	mov	QWORD PTR [rax], rcx
; File D:\dev\francium_network\francium_agent\src\ext\randomx\repo\src\bytecode_machine.cpp
; Line 79
	mov	rbx, QWORD PTR [rsp+16]
	ret	0
$LN8@executeIns:
; File D:\dev\francium_network\francium_agent\src\ext\randomx\repo\src\bytecode_machine.hpp
; Line 162
	mov	rax, QWORD PTR [r11+8]
	mov	rcx, QWORD PTR [r11]
	mov	rdx, QWORD PTR [rax]
; File D:\dev\francium_network\francium_agent\src\ext\randomx\repo\src\bytecode_machine.cpp
; Line 79
	mov	rax, rcx
; File D:\dev\francium_network\francium_agent\src\ext\randomx\repo\src\bytecode_machine.hpp
; Line 162
	imul	rdx, QWORD PTR [rcx]
; File D:\dev\francium_network\francium_agent\src\ext\randomx\repo\src\bytecode_machine.cpp
; Line 79
	mov	QWORD PTR [rcx], rdx
	mov	rbx, QWORD PTR [rsp+16]
	ret	0
$LN9@executeIns:
; File D:\dev\francium_network\francium_agent\src\ext\randomx\repo\src\bytecode_machine.hpp
; Line 283
	mov	rax, QWORD PTR [r11+8]
	mov	ecx, DWORD PTR [rax]
	add	ecx, DWORD PTR [r11+16]
	mov	eax, DWORD PTR [r11+28]
	and	rcx, rax
; Line 166
	mov	rax, QWORD PTR [r11]
	mov	rcx, QWORD PTR [rcx+r8]
	imul	rcx, QWORD PTR [rax]
	mov	QWORD PTR [rax], rcx
; File D:\dev\francium_network\francium_agent\src\ext\randomx\repo\src\bytecode_machine.cpp
; Line 79
	mov	rbx, QWORD PTR [rsp+16]
	ret	0
$LN10@executeIns:
; File D:\dev\francium_network\francium_agent\src\ext\randomx\repo\src\bytecode_machine.hpp
; Line 170
	mov	rcx, QWORD PTR [r11]
	mov	rax, QWORD PTR [r11+8]
; File D:\dev\francium_network\francium_agent\src\ext\randomx\repo\src\instructions_portable.cpp
; Line 65
	mov	rax, QWORD PTR [rax]
; File D:\dev\francium_network\francium_agent\src\ext\randomx\repo\src\bytecode_machine.cpp
; Line 79
	mul	QWORD PTR [rcx]
	mov	rax, rcx
	mov	QWORD PTR [rcx], rdx
$LN2@executeIns:
	mov	rbx, QWORD PTR [rsp+16]
	ret	0
$LN11@executeIns:
; File D:\dev\francium_network\francium_agent\src\ext\randomx\repo\src\bytecode_machine.hpp
; Line 283
	mov	rax, QWORD PTR [r11+8]
; Line 174
	mov	rcx, QWORD PTR [r11]
; Line 283
	mov	edx, DWORD PTR [rax]
	add	edx, DWORD PTR [r11+16]
	mov	eax, DWORD PTR [r11+28]
	and	rdx, rax
; File D:\dev\francium_network\francium_agent\src\ext\randomx\repo\src\instructions_portable.cpp
; Line 65
	mov	rax, QWORD PTR [rdx+r8]
; File D:\dev\francium_network\francium_agent\src\ext\randomx\repo\src\bytecode_machine.cpp
; Line 79
	mul	QWORD PTR [rcx]
	mov	rax, rcx
	mov	QWORD PTR [rcx], rdx
	mov	rbx, QWORD PTR [rsp+16]
	ret	0
$LN12@executeIns:
; File D:\dev\francium_network\francium_agent\src\ext\randomx\repo\src\bytecode_machine.hpp
; Line 178
	mov	rcx, QWORD PTR [r11]
	mov	rax, QWORD PTR [r11+8]
; File D:\dev\francium_network\francium_agent\src\ext\randomx\repo\src\instructions_portable.cpp
; Line 73
	mov	rax, QWORD PTR [rax]
	imul	QWORD PTR [rcx]
; File D:\dev\francium_network\francium_agent\src\ext\randomx\repo\src\bytecode_machine.cpp
; Line 79
	mov	rax, rcx
	mov	QWORD PTR [rcx], rdx
	mov	rbx, QWORD PTR [rsp+16]
	ret	0
$LN13@executeIns:
; File D:\dev\francium_network\francium_agent\src\ext\randomx\repo\src\bytecode_machine.hpp
; Line 283
	mov	rax, QWORD PTR [r11+8]
	mov	ecx, DWORD PTR [r11+28]
	mov	eax, DWORD PTR [rax]
	add	eax, DWORD PTR [r11+16]
	and	rax, rcx
; Line 182
	mov	rcx, QWORD PTR [r11]
; File D:\dev\francium_network\francium_agent\src\ext\randomx\repo\src\instructions_portable.cpp
; Line 73
	mov	rax, QWORD PTR [rax+r8]
	imul	QWORD PTR [rcx]
; File D:\dev\francium_network\francium_agent\src\ext\randomx\repo\src\bytecode_machine.cpp
; Line 79
	mov	rax, rcx
	mov	QWORD PTR [rcx], rdx
	mov	rbx, QWORD PTR [rsp+16]
	ret	0
$LN14@executeIns:
; File D:\dev\francium_network\francium_agent\src\ext\randomx\repo\src\bytecode_machine.hpp
; Line 186
	mov	rax, QWORD PTR [r11]
	mov	rcx, QWORD PTR [rax]
	not	rcx
	inc	rcx
	mov	QWORD PTR [rax], rcx
; File D:\dev\francium_network\francium_agent\src\ext\randomx\repo\src\bytecode_machine.cpp
; Line 79
	mov	rbx, QWORD PTR [rsp+16]
	ret	0
$LN15@executeIns:
; File D:\dev\francium_network\francium_agent\src\ext\randomx\repo\src\bytecode_machine.hpp
; Line 190
	mov	rcx, QWORD PTR [r11+8]
	mov	rax, QWORD PTR [r11]
	mov	rdx, QWORD PTR [rcx]
	xor	rdx, QWORD PTR [rax]
; File D:\dev\francium_network\francium_agent\src\ext\randomx\repo\src\bytecode_machine.cpp
; Line 79
	mov	QWORD PTR [rax], rdx
	mov	rbx, QWORD PTR [rsp+16]
	ret	0
$LN16@executeIns:
; File D:\dev\francium_network\francium_agent\src\ext\randomx\repo\src\bytecode_machine.hpp
; Line 283
	mov	rax, QWORD PTR [r11+8]
	mov	ecx, DWORD PTR [rax]
	add	ecx, DWORD PTR [r11+16]
	mov	eax, DWORD PTR [r11+28]
	and	rcx, rax
; Line 194
	mov	rax, QWORD PTR [r11]
	mov	rcx, QWORD PTR [rcx+r8]
	xor	rcx, QWORD PTR [rax]
	mov	QWORD PTR [rax], rcx
; File D:\dev\francium_network\francium_agent\src\ext\randomx\repo\src\bytecode_machine.cpp
; Line 79
	mov	rbx, QWORD PTR [rsp+16]
	ret	0
$LN17@executeIns:
; File D:\dev\francium_network\francium_agent\src\ext\randomx\repo\src\bytecode_machine.hpp
; Line 198
	mov	rax, QWORD PTR [r11+8]
	mov	ecx, DWORD PTR [rax]
	mov	rax, QWORD PTR [r11]
	and	ecx, 63					; 0000003fH
; File D:\dev\francium_network\francium_agent\src\ext\randomx\repo\src\instructions_portable.cpp
; Line 58
	mov	rdx, QWORD PTR [rax]
	ror	rdx, cl
; File D:\dev\francium_network\francium_agent\src\ext\randomx\repo\src\bytecode_machine.cpp
; Line 79
	mov	QWORD PTR [rax], rdx
	mov	rbx, QWORD PTR [rsp+16]
	ret	0
$LN18@executeIns:
; File D:\dev\francium_network\francium_agent\src\ext\randomx\repo\src\bytecode_machine.hpp
; Line 202
	mov	rax, QWORD PTR [r11+8]
	mov	ecx, DWORD PTR [rax]
	mov	rax, QWORD PTR [r11]
	and	ecx, 63					; 0000003fH
; File D:\dev\francium_network\francium_agent\src\ext\randomx\repo\src\instructions_portable.cpp
; Line 55
	mov	rdx, QWORD PTR [rax]
	rol	rdx, cl
; File D:\dev\francium_network\francium_agent\src\ext\randomx\repo\src\bytecode_machine.cpp
; Line 79
	mov	QWORD PTR [rax], rdx
	mov	rbx, QWORD PTR [rsp+16]
	ret	0
$LN19@executeIns:
; File D:\dev\francium_network\francium_agent\src\ext\randomx\repo\src\bytecode_machine.hpp
; Line 206
	mov	rax, QWORD PTR [r11+8]
; Line 207
	mov	rcx, QWORD PTR [r11+8]
	mov	rdx, QWORD PTR [rax]
	mov	rax, QWORD PTR [r11]
	mov	rax, QWORD PTR [rax]
	mov	QWORD PTR [rcx], rax
; File D:\dev\francium_network\francium_agent\src\ext\randomx\repo\src\bytecode_machine.cpp
; Line 79
	mov	rax, QWORD PTR [r11]
	mov	QWORD PTR [rax], rdx
	mov	rbx, QWORD PTR [rsp+16]
	ret	0
$LN20@executeIns:
; File D:\dev\francium_network\francium_agent\src\ext\randomx\repo\src\bytecode_machine.hpp
; Line 212
	mov	rax, QWORD PTR [r11]
	movups	xmm0, XMMWORD PTR [rax]
; File D:\dev\francium_network\francium_agent\src\ext\randomx\repo\src\intrin_portable.h
; Line 116
	shufpd	xmm0, xmm0, 1
; File D:\dev\francium_network\francium_agent\src\ext\randomx\repo\src\bytecode_machine.hpp
; Line 212
	movups	XMMWORD PTR [rax], xmm0
; File D:\dev\francium_network\francium_agent\src\ext\randomx\repo\src\bytecode_machine.cpp
; Line 79
	mov	rbx, QWORD PTR [rsp+16]
	ret	0
$LN21@executeIns:
; File D:\dev\francium_network\francium_agent\src\ext\randomx\repo\src\bytecode_machine.hpp
; Line 216
	mov	rax, QWORD PTR [r11+8]
	mov	rcx, QWORD PTR [r11]
	movups	xmm0, XMMWORD PTR [rax]
	mov	rax, rcx
	addpd	xmm0, XMMWORD PTR [rcx]
	movups	XMMWORD PTR [rcx], xmm0
; File D:\dev\francium_network\francium_agent\src\ext\randomx\repo\src\bytecode_machine.cpp
; Line 79
	mov	rbx, QWORD PTR [rsp+16]
	ret	0
$LN22@executeIns:
; File D:\dev\francium_network\francium_agent\src\ext\randomx\repo\src\bytecode_machine.hpp
; Line 283
	mov	rax, QWORD PTR [r11+8]
	mov	edx, DWORD PTR [rax]
	mov	eax, DWORD PTR [r11+28]
	add	edx, DWORD PTR [r11+16]
	and	rdx, rax
; Line 221
	mov	rax, QWORD PTR [r11]
; File D:\dev\francium_network\francium_agent\src\ext\randomx\repo\src\intrin_portable.h
; Line 163
	cvtdq2pd xmm1, QWORD PTR [rdx+r8]
; File D:\dev\francium_network\francium_agent\src\ext\randomx\repo\src\bytecode_machine.hpp
; Line 221
	addpd	xmm1, XMMWORD PTR [rax]
	movups	XMMWORD PTR [rax], xmm1
; File D:\dev\francium_network\francium_agent\src\ext\randomx\repo\src\bytecode_machine.cpp
; Line 79
	mov	rbx, QWORD PTR [rsp+16]
	ret	0
$LN23@executeIns:
; File D:\dev\francium_network\francium_agent\src\ext\randomx\repo\src\bytecode_machine.hpp
; Line 225
	mov	rax, QWORD PTR [r11]
	mov	rcx, QWORD PTR [r11+8]
	movups	xmm0, XMMWORD PTR [rax]
	subpd	xmm0, XMMWORD PTR [rcx]
	movups	XMMWORD PTR [rax], xmm0
; File D:\dev\francium_network\francium_agent\src\ext\randomx\repo\src\bytecode_machine.cpp
; Line 79
	mov	rbx, QWORD PTR [rsp+16]
	ret	0
$LN24@executeIns:
; File D:\dev\francium_network\francium_agent\src\ext\randomx\repo\src\bytecode_machine.hpp
; Line 283
	mov	rax, QWORD PTR [r11+8]
; Line 230
	mov	r8, QWORD PTR [r11]
; Line 283
	mov	edx, DWORD PTR [rax]
	mov	eax, DWORD PTR [r11+28]
	add	edx, DWORD PTR [r11+16]
; Line 230
	movups	xmm2, XMMWORD PTR [r8]
; Line 283
	and	rdx, rax
; Line 230
	mov	rax, r8
; File D:\dev\francium_network\francium_agent\src\ext\randomx\repo\src\intrin_portable.h
; Line 163
	cvtdq2pd xmm1, QWORD PTR [rdx+rbx]
; File D:\dev\francium_network\francium_agent\src\ext\randomx\repo\src\bytecode_machine.hpp
; Line 230
	subpd	xmm2, xmm1
	movups	XMMWORD PTR [rax], xmm2
; File D:\dev\francium_network\francium_agent\src\ext\randomx\repo\src\bytecode_machine.cpp
; Line 79
	mov	rbx, QWORD PTR [rsp+16]
	ret	0
$LN25@executeIns:
; File D:\dev\francium_network\francium_agent\src\ext\randomx\repo\src\bytecode_machine.hpp
; Line 235
	mov	rax, QWORD PTR [r11]
; File D:\dev\francium_network\francium_agent\src\ext\randomx\repo\src\intrin_portable.h
; Line 124
	movdqa	xmm0, XMMWORD PTR __xmm@80f000000000000080f0000000000000
; File D:\dev\francium_network\francium_agent\src\ext\randomx\repo\src\bytecode_machine.hpp
; Line 235
	xorps	xmm0, XMMWORD PTR [rax]
	movups	XMMWORD PTR [rax], xmm0
; File D:\dev\francium_network\francium_agent\src\ext\randomx\repo\src\bytecode_machine.cpp
; Line 79
	mov	rbx, QWORD PTR [rsp+16]
	ret	0
$LN26@executeIns:
; File D:\dev\francium_network\francium_agent\src\ext\randomx\repo\src\bytecode_machine.hpp
; Line 239
	mov	rax, QWORD PTR [r11+8]
	mov	rcx, QWORD PTR [r11]
	movups	xmm0, XMMWORD PTR [rax]
	mov	rax, rcx
	mulpd	xmm0, XMMWORD PTR [rcx]
	movups	XMMWORD PTR [rcx], xmm0
; File D:\dev\francium_network\francium_agent\src\ext\randomx\repo\src\bytecode_machine.cpp
; Line 79
	mov	rbx, QWORD PTR [rsp+16]
	ret	0
$LN27@executeIns:
; File D:\dev\francium_network\francium_agent\src\ext\randomx\repo\src\bytecode_machine.hpp
; Line 283
	mov	rax, QWORD PTR [r11+8]
; Line 247
	mov	r8, QWORD PTR [r11]
; Line 283
	mov	edx, DWORD PTR [rax]
	mov	eax, DWORD PTR [r11+28]
	add	edx, DWORD PTR [r11+16]
; Line 247
	movups	xmm0, XMMWORD PTR [r8]
; Line 283
	and	rdx, rax
; Line 247
	mov	rax, r8
; File D:\dev\francium_network\francium_agent\src\ext\randomx\repo\src\intrin_portable.h
; Line 163
	cvtdq2pd xmm1, QWORD PTR [rdx+rbx]
; File D:\dev\francium_network\francium_agent\src\ext\randomx\repo\src\bytecode_machine.hpp
; Line 272
	andps	xmm1, XMMWORD PTR __xmm@00ffffffffffffff00ffffffffffffff
; Line 273
	orps	xmm1, XMMWORD PTR [r9]
; Line 247
	divpd	xmm0, xmm1
	movups	XMMWORD PTR [rax], xmm0
; File D:\dev\francium_network\francium_agent\src\ext\randomx\repo\src\bytecode_machine.cpp
; Line 79
	mov	rbx, QWORD PTR [rsp+16]
	ret	0
$LN28@executeIns:
; File D:\dev\francium_network\francium_agent\src\ext\randomx\repo\src\bytecode_machine.hpp
; Line 251
	mov	rax, QWORD PTR [r11]
	sqrtpd	xmm0, XMMWORD PTR [rax]
	movups	XMMWORD PTR [rax], xmm0
; File D:\dev\francium_network\francium_agent\src\ext\randomx\repo\src\bytecode_machine.cpp
; Line 79
	mov	rbx, QWORD PTR [rsp+16]
	ret	0
$LN29@executeIns:
; File D:\dev\francium_network\francium_agent\src\ext\randomx\repo\src\bytecode_machine.hpp
; Line 255
	mov	rax, QWORD PTR [r11]
	mov	rcx, QWORD PTR [r11+16]
	add	rcx, QWORD PTR [rax]
	mov	QWORD PTR [rax], rcx
; Line 256
	mov	rax, QWORD PTR [r11]
	mov	ecx, DWORD PTR [r11+28]
	test	rcx, QWORD PTR [rax]
	jne	$LN2@executeIns
; Line 257
	movsx	eax, WORD PTR [r11+26]
	mov	DWORD PTR [rdx], eax
; File D:\dev\francium_network\francium_agent\src\ext\randomx\repo\src\bytecode_machine.cpp
; Line 79
	mov	rbx, QWORD PTR [rsp+16]
	ret	0
$LN30@executeIns:
; File D:\dev\francium_network\francium_agent\src\ext\randomx\repo\src\bytecode_machine.hpp
; Line 262
	mov	rax, QWORD PTR [r11+8]
; File D:\dev\francium_network\francium_agent\src\ext\randomx\repo\src\instructions_portable.cpp
; Line 58
	mov	ecx, DWORD PTR [r11+16]
; File D:\dev\francium_network\francium_agent\src\ext\randomx\repo\src\bytecode_machine.hpp
; Line 262
	mov	rdx, QWORD PTR [rax]
; File D:\dev\francium_network\francium_agent\src\ext\randomx\repo\src\instructions_portable.cpp
; Line 58
	ror	rdx, cl
; File D:\dev\francium_network\francium_agent\src\ext\randomx\repo\src\bytecode_machine.hpp
; Line 262
	and	edx, 3
; File D:\dev\francium_network\francium_agent\src\ext\randomx\repo\src\intrin_portable.h
; Line 173
	shl	edx, 13
	or	edx, 40896				; 00009fc0H
	mov	DWORD PTR tv813[rsp], edx
	ldmxcsr	DWORD PTR tv813[rsp]
; File D:\dev\francium_network\francium_agent\src\ext\randomx\repo\src\bytecode_machine.cpp
; Line 79
	mov	rbx, QWORD PTR [rsp+16]
	ret	0
$LN31@executeIns:
; File D:\dev\francium_network\francium_agent\src\ext\randomx\repo\src\bytecode_machine.hpp
; Line 266
	mov	rax, QWORD PTR [r11]
	mov	rcx, QWORD PTR [r11+16]
	mov	rdx, QWORD PTR [r11+8]
; File D:\dev\francium_network\francium_agent\src\ext\randomx\repo\src\bytecode_machine.cpp
; Line 79
	mov	rbx, QWORD PTR [rsp+16]
; File D:\dev\francium_network\francium_agent\src\ext\randomx\repo\src\bytecode_machine.hpp
; Line 266
	add	rcx, QWORD PTR [rax]
	mov	eax, DWORD PTR [r11+28]
	and	rcx, rax
	mov	rax, QWORD PTR [rdx]
	mov	QWORD PTR [rcx+r8], rax
; File D:\dev\francium_network\francium_agent\src\ext\randomx\repo\src\bytecode_machine.cpp
; Line 79
	ret	0
$LN33@executeIns:
; Line 77
$LN142@executeIns:
$LN141@executeIns:
; Line 79
	DD	$LN4@executeIns
	DD	$LN5@executeIns
	DD	$LN6@executeIns
	DD	$LN7@executeIns
	DD	$LN8@executeIns
	DD	$LN9@executeIns
	DD	$LN10@executeIns
	DD	$LN11@executeIns
	DD	$LN12@executeIns
	DD	$LN13@executeIns
	DD	0
	DD	$LN14@executeIns
	DD	$LN15@executeIns
	DD	$LN16@executeIns
	DD	$LN17@executeIns
	DD	$LN18@executeIns
	DD	$LN19@executeIns
	DD	$LN20@executeIns
	DD	$LN21@executeIns
	DD	$LN22@executeIns
	DD	$LN23@executeIns
	DD	$LN24@executeIns
	DD	$LN25@executeIns
	DD	$LN26@executeIns
	DD	$LN27@executeIns
	DD	$LN28@executeIns
	DD	$LN29@executeIns
	DD	$LN30@executeIns
	DD	$LN31@executeIns
	DD	$LN2@executeIns
?executeInstruction@BytecodeMachine@randomx@@SAXAEAUInstructionByteCode@2@AEAHPEAEAEAUProgramConfiguration@2@@Z ENDP ; randomx::BytecodeMachine::executeInstruction
_TEXT	ENDS
; Function compile flags: /Ogtpy
;	COMDAT ?load64_native@@YA_KPEBX@Z
_TEXT	SEGMENT
src$ = 8
?load64_native@@YA_KPEBX@Z PROC				; load64_native, COMDAT
; File D:\dev\francium_network\francium_agent\src\ext\randomx\repo\src\blake2\endian.h
; Line 47
	mov	rax, QWORD PTR [rcx]
; Line 48
	ret	0
?load64_native@@YA_KPEBX@Z ENDP				; load64_native
_TEXT	ENDS
; Function compile flags: /Ogtpy
;	COMDAT ?load64@@YA_KPEBX@Z
_TEXT	SEGMENT
src$ = 8
?load64@@YA_KPEBX@Z PROC				; load64, COMDAT
; File D:\dev\francium_network\francium_agent\src\ext\randomx\repo\src\blake2\endian.h
; Line 52
	mov	rax, QWORD PTR [rcx]
; Line 65
	ret	0
?load64@@YA_KPEBX@Z ENDP				; load64
_TEXT	ENDS
; Function compile flags: /Ogtpy
;	COMDAT ?store64_native@@YAXPEAX_K@Z
_TEXT	SEGMENT
dst$ = 8
w$ = 16
?store64_native@@YAXPEAX_K@Z PROC			; store64_native, COMDAT
; File D:\dev\francium_network\francium_agent\src\ext\randomx\repo\src\blake2\endian.h
; Line 83
	mov	QWORD PTR [rcx], rdx
; Line 84
	ret	0
?store64_native@@YAXPEAX_K@Z ENDP			; store64_native
_TEXT	ENDS
; Function compile flags: /Ogtpy
;	COMDAT ?store64@@YAXPEAX_K@Z
_TEXT	SEGMENT
dst$ = 8
w$ = 16
?store64@@YAXPEAX_K@Z PROC				; store64, COMDAT
; File D:\dev\francium_network\francium_agent\src\ext\randomx\repo\src\blake2\endian.h
; Line 88
	mov	QWORD PTR [rcx], rdx
; Line 107
	ret	0
?store64@@YAXPEAX_K@Z ENDP				; store64
_TEXT	ENDS
; Function compile flags: /Ogtpy
;	COMDAT ?unsigned64ToSigned2sCompl@@YA_J_K@Z
_TEXT	SEGMENT
x$ = 8
?unsigned64ToSigned2sCompl@@YA_J_K@Z PROC		; unsigned64ToSigned2sCompl, COMDAT
; File D:\dev\francium_network\francium_agent\src\ext\randomx\repo\src\intrin_portable.h
; Line 39
	mov	rax, rcx
; Line 40
	ret	0
?unsigned64ToSigned2sCompl@@YA_J_K@Z ENDP		; unsigned64ToSigned2sCompl
_TEXT	ENDS
; Function compile flags: /Ogtpy
;	COMDAT ?signExtend2sCompl@@YA_KI@Z
_TEXT	SEGMENT
x$ = 8
?signExtend2sCompl@@YA_KI@Z PROC			; signExtend2sCompl, COMDAT
; File D:\dev\francium_network\francium_agent\src\ext\randomx\repo\src\intrin_portable.h
; Line 43
	movsxd	rax, ecx
; Line 44
	ret	0
?signExtend2sCompl@@YA_KI@Z ENDP			; signExtend2sCompl
_TEXT	ENDS
; Function compile flags: /Ogtpy
;	COMDAT ?rx_swap_vec_f128@@YA?AU__m128d@@U1@@Z
_TEXT	SEGMENT
a$ = 8
?rx_swap_vec_f128@@YA?AU__m128d@@U1@@Z PROC		; rx_swap_vec_f128, COMDAT
; File D:\dev\francium_network\francium_agent\src\ext\randomx\repo\src\intrin_portable.h
; Line 116
	movups	xmm0, XMMWORD PTR [rcx]
	shufpd	xmm0, xmm0, 1
; Line 117
	ret	0
?rx_swap_vec_f128@@YA?AU__m128d@@U1@@Z ENDP		; rx_swap_vec_f128
_TEXT	ENDS
; Function compile flags: /Ogtpy
;	COMDAT ?rx_set1_vec_f128@@YA?AU__m128d@@_K@Z
_TEXT	SEGMENT
x$dead$ = 8
?rx_set1_vec_f128@@YA?AU__m128d@@_K@Z PROC		; rx_set1_vec_f128, COMDAT
; File D:\dev\francium_network\francium_agent\src\ext\randomx\repo\src\intrin_portable.h
; Line 124
	movdqa	xmm0, XMMWORD PTR __xmm@80f000000000000080f0000000000000
; Line 125
	ret	0
?rx_set1_vec_f128@@YA?AU__m128d@@_K@Z ENDP		; rx_set1_vec_f128
_TEXT	ENDS
; Function compile flags: /Ogtpy
;	COMDAT ?rx_set_rounding_mode@@YAXI@Z
_TEXT	SEGMENT
tv130 = 8
mode$ = 8
?rx_set_rounding_mode@@YAXI@Z PROC			; rx_set_rounding_mode, COMDAT
; File D:\dev\francium_network\francium_agent\src\ext\randomx\repo\src\intrin_portable.h
; Line 173
	shl	ecx, 13
	or	ecx, 40896				; 00009fc0H
	mov	DWORD PTR tv130[rsp], ecx
	ldmxcsr	DWORD PTR tv130[rsp]
; Line 174
	ret	0
?rx_set_rounding_mode@@YAXI@Z ENDP			; rx_set_rounding_mode
_TEXT	ENDS
; Function compile flags: /Ogtpy
;	COMDAT ?exe_IADD_RS@BytecodeMachine@randomx@@SAXAEAUInstructionByteCode@2@AEAHPEAEAEAUProgramConfiguration@2@@Z
_TEXT	SEGMENT
ibc$ = 8
pc$dead$ = 16
scratchpad$dead$ = 24
config$dead$ = 32
?exe_IADD_RS@BytecodeMachine@randomx@@SAXAEAUInstructionByteCode@2@AEAHPEAEAEAUProgramConfiguration@2@@Z PROC ; randomx::BytecodeMachine::exe_IADD_RS, COMDAT
; File D:\dev\francium_network\francium_agent\src\ext\randomx\repo\src\bytecode_machine.hpp
; Line 146
	mov	r8, QWORD PTR [rcx]
	mov	r9, rcx
	movzx	ecx, BYTE PTR [rcx+26]
	mov	rax, QWORD PTR [r9+8]
	mov	rdx, QWORD PTR [rax]
	shl	rdx, cl
	add	rdx, QWORD PTR [r9+16]
	add	QWORD PTR [r8], rdx
; Line 147
	ret	0
?exe_IADD_RS@BytecodeMachine@randomx@@SAXAEAUInstructionByteCode@2@AEAHPEAEAEAUProgramConfiguration@2@@Z ENDP ; randomx::BytecodeMachine::exe_IADD_RS
_TEXT	ENDS
; Function compile flags: /Ogtpy
;	COMDAT ?exe_IADD_M@BytecodeMachine@randomx@@SAXAEAUInstructionByteCode@2@AEAHPEAEAEAUProgramConfiguration@2@@Z
_TEXT	SEGMENT
ibc$ = 8
pc$dead$ = 16
scratchpad$ = 24
config$dead$ = 32
?exe_IADD_M@BytecodeMachine@randomx@@SAXAEAUInstructionByteCode@2@AEAHPEAEAEAUProgramConfiguration@2@@Z PROC ; randomx::BytecodeMachine::exe_IADD_M, COMDAT
; File D:\dev\francium_network\francium_agent\src\ext\randomx\repo\src\bytecode_machine.hpp
; Line 283
	mov	rax, QWORD PTR [rcx+8]
; Line 150
	mov	r10, QWORD PTR [rcx]
; Line 283
	mov	r9d, DWORD PTR [rax]
	mov	eax, DWORD PTR [rcx+28]
	add	r9d, DWORD PTR [rcx+16]
	and	r9, rax
; Line 150
	mov	rax, QWORD PTR [r9+r8]
	add	QWORD PTR [r10], rax
; Line 151
	ret	0
?exe_IADD_M@BytecodeMachine@randomx@@SAXAEAUInstructionByteCode@2@AEAHPEAEAEAUProgramConfiguration@2@@Z ENDP ; randomx::BytecodeMachine::exe_IADD_M
_TEXT	ENDS
; Function compile flags: /Ogtpy
;	COMDAT ?exe_ISUB_R@BytecodeMachine@randomx@@SAXAEAUInstructionByteCode@2@AEAHPEAEAEAUProgramConfiguration@2@@Z
_TEXT	SEGMENT
ibc$ = 8
pc$dead$ = 16
scratchpad$dead$ = 24
config$dead$ = 32
?exe_ISUB_R@BytecodeMachine@randomx@@SAXAEAUInstructionByteCode@2@AEAHPEAEAEAUProgramConfiguration@2@@Z PROC ; randomx::BytecodeMachine::exe_ISUB_R, COMDAT
; File D:\dev\francium_network\francium_agent\src\ext\randomx\repo\src\bytecode_machine.hpp
; Line 154
	mov	rax, QWORD PTR [rcx+8]
	mov	rdx, QWORD PTR [rcx]
	mov	rcx, QWORD PTR [rax]
	sub	QWORD PTR [rdx], rcx
; Line 155
	ret	0
?exe_ISUB_R@BytecodeMachine@randomx@@SAXAEAUInstructionByteCode@2@AEAHPEAEAEAUProgramConfiguration@2@@Z ENDP ; randomx::BytecodeMachine::exe_ISUB_R
_TEXT	ENDS
; Function compile flags: /Ogtpy
;	COMDAT ?exe_ISUB_M@BytecodeMachine@randomx@@SAXAEAUInstructionByteCode@2@AEAHPEAEAEAUProgramConfiguration@2@@Z
_TEXT	SEGMENT
ibc$ = 8
pc$dead$ = 16
scratchpad$ = 24
config$dead$ = 32
?exe_ISUB_M@BytecodeMachine@randomx@@SAXAEAUInstructionByteCode@2@AEAHPEAEAEAUProgramConfiguration@2@@Z PROC ; randomx::BytecodeMachine::exe_ISUB_M, COMDAT
; File D:\dev\francium_network\francium_agent\src\ext\randomx\repo\src\bytecode_machine.hpp
; Line 283
	mov	rax, QWORD PTR [rcx+8]
; Line 158
	mov	r10, QWORD PTR [rcx]
; Line 283
	mov	r9d, DWORD PTR [rax]
	mov	eax, DWORD PTR [rcx+28]
	add	r9d, DWORD PTR [rcx+16]
	and	r9, rax
; Line 158
	mov	rax, QWORD PTR [r9+r8]
	sub	QWORD PTR [r10], rax
; Line 159
	ret	0
?exe_ISUB_M@BytecodeMachine@randomx@@SAXAEAUInstructionByteCode@2@AEAHPEAEAEAUProgramConfiguration@2@@Z ENDP ; randomx::BytecodeMachine::exe_ISUB_M
_TEXT	ENDS
; Function compile flags: /Ogtpy
;	COMDAT ?exe_IMUL_R@BytecodeMachine@randomx@@SAXAEAUInstructionByteCode@2@AEAHPEAEAEAUProgramConfiguration@2@@Z
_TEXT	SEGMENT
ibc$ = 8
pc$dead$ = 16
scratchpad$dead$ = 24
config$dead$ = 32
?exe_IMUL_R@BytecodeMachine@randomx@@SAXAEAUInstructionByteCode@2@AEAHPEAEAEAUProgramConfiguration@2@@Z PROC ; randomx::BytecodeMachine::exe_IMUL_R, COMDAT
; File D:\dev\francium_network\francium_agent\src\ext\randomx\repo\src\bytecode_machine.hpp
; Line 162
	mov	rdx, QWORD PTR [rcx]
	mov	rax, QWORD PTR [rcx+8]
	mov	rcx, QWORD PTR [rdx]
	imul	rcx, QWORD PTR [rax]
	mov	QWORD PTR [rdx], rcx
; Line 163
	ret	0
?exe_IMUL_R@BytecodeMachine@randomx@@SAXAEAUInstructionByteCode@2@AEAHPEAEAEAUProgramConfiguration@2@@Z ENDP ; randomx::BytecodeMachine::exe_IMUL_R
_TEXT	ENDS
; Function compile flags: /Ogtpy
;	COMDAT ?exe_IMUL_M@BytecodeMachine@randomx@@SAXAEAUInstructionByteCode@2@AEAHPEAEAEAUProgramConfiguration@2@@Z
_TEXT	SEGMENT
ibc$ = 8
pc$dead$ = 16
scratchpad$ = 24
config$dead$ = 32
?exe_IMUL_M@BytecodeMachine@randomx@@SAXAEAUInstructionByteCode@2@AEAHPEAEAEAUProgramConfiguration@2@@Z PROC ; randomx::BytecodeMachine::exe_IMUL_M, COMDAT
; File D:\dev\francium_network\francium_agent\src\ext\randomx\repo\src\bytecode_machine.hpp
; Line 283
	mov	rax, QWORD PTR [rcx+8]
; Line 166
	mov	r10, QWORD PTR [rcx]
; Line 283
	mov	r9d, DWORD PTR [rax]
	mov	eax, DWORD PTR [rcx+28]
	add	r9d, DWORD PTR [rcx+16]
	and	r9, rax
; Line 166
	mov	rax, QWORD PTR [r10]
	imul	rax, QWORD PTR [r9+r8]
	mov	QWORD PTR [r10], rax
; Line 167
	ret	0
?exe_IMUL_M@BytecodeMachine@randomx@@SAXAEAUInstructionByteCode@2@AEAHPEAEAEAUProgramConfiguration@2@@Z ENDP ; randomx::BytecodeMachine::exe_IMUL_M
_TEXT	ENDS
; Function compile flags: /Ogtpy
;	COMDAT ?exe_IMULH_R@BytecodeMachine@randomx@@SAXAEAUInstructionByteCode@2@AEAHPEAEAEAUProgramConfiguration@2@@Z
_TEXT	SEGMENT
ibc$ = 8
pc$dead$ = 16
scratchpad$dead$ = 24
config$dead$ = 32
?exe_IMULH_R@BytecodeMachine@randomx@@SAXAEAUInstructionByteCode@2@AEAHPEAEAEAUProgramConfiguration@2@@Z PROC ; randomx::BytecodeMachine::exe_IMULH_R, COMDAT
; File D:\dev\francium_network\francium_agent\src\ext\randomx\repo\src\bytecode_machine.hpp
; Line 170
	mov	rax, QWORD PTR [rcx+8]
	mov	r8, QWORD PTR [rcx]
; File D:\dev\francium_network\francium_agent\src\ext\randomx\repo\src\instructions_portable.cpp
; Line 65
	mov	rax, QWORD PTR [rax]
	mul	QWORD PTR [r8]
; File D:\dev\francium_network\francium_agent\src\ext\randomx\repo\src\bytecode_machine.hpp
; Line 170
	mov	QWORD PTR [r8], rdx
; Line 171
	ret	0
?exe_IMULH_R@BytecodeMachine@randomx@@SAXAEAUInstructionByteCode@2@AEAHPEAEAEAUProgramConfiguration@2@@Z ENDP ; randomx::BytecodeMachine::exe_IMULH_R
_TEXT	ENDS
; Function compile flags: /Ogtpy
;	COMDAT ?exe_IMULH_M@BytecodeMachine@randomx@@SAXAEAUInstructionByteCode@2@AEAHPEAEAEAUProgramConfiguration@2@@Z
_TEXT	SEGMENT
ibc$ = 8
pc$dead$ = 16
scratchpad$ = 24
config$dead$ = 32
?exe_IMULH_M@BytecodeMachine@randomx@@SAXAEAUInstructionByteCode@2@AEAHPEAEAEAUProgramConfiguration@2@@Z PROC ; randomx::BytecodeMachine::exe_IMULH_M, COMDAT
; File D:\dev\francium_network\francium_agent\src\ext\randomx\repo\src\bytecode_machine.hpp
; Line 283
	mov	rax, QWORD PTR [rcx+8]
	mov	r9d, DWORD PTR [rax]
	mov	eax, DWORD PTR [rcx+28]
	add	r9d, DWORD PTR [rcx+16]
; Line 174
	mov	rcx, QWORD PTR [rcx]
; Line 283
	and	r9, rax
; File D:\dev\francium_network\francium_agent\src\ext\randomx\repo\src\instructions_portable.cpp
; Line 65
	mov	rax, QWORD PTR [r9+r8]
	mul	QWORD PTR [rcx]
; File D:\dev\francium_network\francium_agent\src\ext\randomx\repo\src\bytecode_machine.hpp
; Line 174
	mov	QWORD PTR [rcx], rdx
; Line 175
	ret	0
?exe_IMULH_M@BytecodeMachine@randomx@@SAXAEAUInstructionByteCode@2@AEAHPEAEAEAUProgramConfiguration@2@@Z ENDP ; randomx::BytecodeMachine::exe_IMULH_M
_TEXT	ENDS
; Function compile flags: /Ogtpy
;	COMDAT ?exe_ISMULH_R@BytecodeMachine@randomx@@SAXAEAUInstructionByteCode@2@AEAHPEAEAEAUProgramConfiguration@2@@Z
_TEXT	SEGMENT
ibc$ = 8
pc$dead$ = 16
scratchpad$dead$ = 24
config$dead$ = 32
?exe_ISMULH_R@BytecodeMachine@randomx@@SAXAEAUInstructionByteCode@2@AEAHPEAEAEAUProgramConfiguration@2@@Z PROC ; randomx::BytecodeMachine::exe_ISMULH_R, COMDAT
; File D:\dev\francium_network\francium_agent\src\ext\randomx\repo\src\bytecode_machine.hpp
; Line 178
	mov	rax, QWORD PTR [rcx+8]
	mov	r8, QWORD PTR [rcx]
; File D:\dev\francium_network\francium_agent\src\ext\randomx\repo\src\instructions_portable.cpp
; Line 73
	mov	rax, QWORD PTR [rax]
	imul	QWORD PTR [r8]
; File D:\dev\francium_network\francium_agent\src\ext\randomx\repo\src\bytecode_machine.hpp
; Line 178
	mov	QWORD PTR [r8], rdx
; Line 179
	ret	0
?exe_ISMULH_R@BytecodeMachine@randomx@@SAXAEAUInstructionByteCode@2@AEAHPEAEAEAUProgramConfiguration@2@@Z ENDP ; randomx::BytecodeMachine::exe_ISMULH_R
_TEXT	ENDS
; Function compile flags: /Ogtpy
;	COMDAT ?exe_ISMULH_M@BytecodeMachine@randomx@@SAXAEAUInstructionByteCode@2@AEAHPEAEAEAUProgramConfiguration@2@@Z
_TEXT	SEGMENT
ibc$ = 8
pc$dead$ = 16
scratchpad$ = 24
config$dead$ = 32
?exe_ISMULH_M@BytecodeMachine@randomx@@SAXAEAUInstructionByteCode@2@AEAHPEAEAEAUProgramConfiguration@2@@Z PROC ; randomx::BytecodeMachine::exe_ISMULH_M, COMDAT
; File D:\dev\francium_network\francium_agent\src\ext\randomx\repo\src\bytecode_machine.hpp
; Line 283
	mov	rax, QWORD PTR [rcx+8]
; Line 182
	mov	r9, QWORD PTR [rcx]
; Line 283
	mov	eax, DWORD PTR [rax]
	add	eax, DWORD PTR [rcx+16]
	mov	ecx, DWORD PTR [rcx+28]
	and	rax, rcx
; File D:\dev\francium_network\francium_agent\src\ext\randomx\repo\src\instructions_portable.cpp
; Line 73
	mov	rax, QWORD PTR [rax+r8]
	imul	QWORD PTR [r9]
; File D:\dev\francium_network\francium_agent\src\ext\randomx\repo\src\bytecode_machine.hpp
; Line 182
	mov	QWORD PTR [r9], rdx
; Line 183
	ret	0
?exe_ISMULH_M@BytecodeMachine@randomx@@SAXAEAUInstructionByteCode@2@AEAHPEAEAEAUProgramConfiguration@2@@Z ENDP ; randomx::BytecodeMachine::exe_ISMULH_M
_TEXT	ENDS
; Function compile flags: /Ogtpy
;	COMDAT ?exe_INEG_R@BytecodeMachine@randomx@@SAXAEAUInstructionByteCode@2@AEAHPEAEAEAUProgramConfiguration@2@@Z
_TEXT	SEGMENT
ibc$ = 8
pc$dead$ = 16
scratchpad$dead$ = 24
config$dead$ = 32
?exe_INEG_R@BytecodeMachine@randomx@@SAXAEAUInstructionByteCode@2@AEAHPEAEAEAUProgramConfiguration@2@@Z PROC ; randomx::BytecodeMachine::exe_INEG_R, COMDAT
; File D:\dev\francium_network\francium_agent\src\ext\randomx\repo\src\bytecode_machine.hpp
; Line 186
	mov	rdx, QWORD PTR [rcx]
	mov	rax, QWORD PTR [rdx]
	neg	rax
	mov	QWORD PTR [rdx], rax
; Line 187
	ret	0
?exe_INEG_R@BytecodeMachine@randomx@@SAXAEAUInstructionByteCode@2@AEAHPEAEAEAUProgramConfiguration@2@@Z ENDP ; randomx::BytecodeMachine::exe_INEG_R
_TEXT	ENDS
; Function compile flags: /Ogtpy
;	COMDAT ?exe_IXOR_R@BytecodeMachine@randomx@@SAXAEAUInstructionByteCode@2@AEAHPEAEAEAUProgramConfiguration@2@@Z
_TEXT	SEGMENT
ibc$ = 8
pc$dead$ = 16
scratchpad$dead$ = 24
config$dead$ = 32
?exe_IXOR_R@BytecodeMachine@randomx@@SAXAEAUInstructionByteCode@2@AEAHPEAEAEAUProgramConfiguration@2@@Z PROC ; randomx::BytecodeMachine::exe_IXOR_R, COMDAT
; File D:\dev\francium_network\francium_agent\src\ext\randomx\repo\src\bytecode_machine.hpp
; Line 190
	mov	rax, QWORD PTR [rcx+8]
	mov	rdx, QWORD PTR [rcx]
	mov	rcx, QWORD PTR [rax]
	xor	QWORD PTR [rdx], rcx
; Line 191
	ret	0
?exe_IXOR_R@BytecodeMachine@randomx@@SAXAEAUInstructionByteCode@2@AEAHPEAEAEAUProgramConfiguration@2@@Z ENDP ; randomx::BytecodeMachine::exe_IXOR_R
_TEXT	ENDS
; Function compile flags: /Ogtpy
;	COMDAT ?exe_IXOR_M@BytecodeMachine@randomx@@SAXAEAUInstructionByteCode@2@AEAHPEAEAEAUProgramConfiguration@2@@Z
_TEXT	SEGMENT
ibc$ = 8
pc$dead$ = 16
scratchpad$ = 24
config$dead$ = 32
?exe_IXOR_M@BytecodeMachine@randomx@@SAXAEAUInstructionByteCode@2@AEAHPEAEAEAUProgramConfiguration@2@@Z PROC ; randomx::BytecodeMachine::exe_IXOR_M, COMDAT
; File D:\dev\francium_network\francium_agent\src\ext\randomx\repo\src\bytecode_machine.hpp
; Line 283
	mov	rax, QWORD PTR [rcx+8]
; Line 194
	mov	r10, QWORD PTR [rcx]
; Line 283
	mov	r9d, DWORD PTR [rax]
	mov	eax, DWORD PTR [rcx+28]
	add	r9d, DWORD PTR [rcx+16]
	and	r9, rax
; Line 194
	mov	rax, QWORD PTR [r9+r8]
	xor	QWORD PTR [r10], rax
; Line 195
	ret	0
?exe_IXOR_M@BytecodeMachine@randomx@@SAXAEAUInstructionByteCode@2@AEAHPEAEAEAUProgramConfiguration@2@@Z ENDP ; randomx::BytecodeMachine::exe_IXOR_M
_TEXT	ENDS
; Function compile flags: /Ogtpy
;	COMDAT ?exe_IROR_R@BytecodeMachine@randomx@@SAXAEAUInstructionByteCode@2@AEAHPEAEAEAUProgramConfiguration@2@@Z
_TEXT	SEGMENT
ibc$ = 8
pc$dead$ = 16
scratchpad$dead$ = 24
config$dead$ = 32
?exe_IROR_R@BytecodeMachine@randomx@@SAXAEAUInstructionByteCode@2@AEAHPEAEAEAUProgramConfiguration@2@@Z PROC ; randomx::BytecodeMachine::exe_IROR_R, COMDAT
; File D:\dev\francium_network\francium_agent\src\ext\randomx\repo\src\bytecode_machine.hpp
; Line 198
	mov	rax, QWORD PTR [rcx+8]
	mov	rdx, QWORD PTR [rcx]
	mov	ecx, DWORD PTR [rax]
; File D:\dev\francium_network\francium_agent\src\ext\randomx\repo\src\instructions_portable.cpp
; Line 58
	mov	rax, QWORD PTR [rdx]
; File D:\dev\francium_network\francium_agent\src\ext\randomx\repo\src\bytecode_machine.hpp
; Line 198
	and	ecx, 63					; 0000003fH
; File D:\dev\francium_network\francium_agent\src\ext\randomx\repo\src\instructions_portable.cpp
; Line 58
	ror	rax, cl
; File D:\dev\francium_network\francium_agent\src\ext\randomx\repo\src\bytecode_machine.hpp
; Line 198
	mov	QWORD PTR [rdx], rax
; Line 199
	ret	0
?exe_IROR_R@BytecodeMachine@randomx@@SAXAEAUInstructionByteCode@2@AEAHPEAEAEAUProgramConfiguration@2@@Z ENDP ; randomx::BytecodeMachine::exe_IROR_R
_TEXT	ENDS
; Function compile flags: /Ogtpy
;	COMDAT ?exe_IROL_R@BytecodeMachine@randomx@@SAXAEAUInstructionByteCode@2@AEAHPEAEAEAUProgramConfiguration@2@@Z
_TEXT	SEGMENT
ibc$ = 8
pc$dead$ = 16
scratchpad$dead$ = 24
config$dead$ = 32
?exe_IROL_R@BytecodeMachine@randomx@@SAXAEAUInstructionByteCode@2@AEAHPEAEAEAUProgramConfiguration@2@@Z PROC ; randomx::BytecodeMachine::exe_IROL_R, COMDAT
; File D:\dev\francium_network\francium_agent\src\ext\randomx\repo\src\bytecode_machine.hpp
; Line 202
	mov	rax, QWORD PTR [rcx+8]
	mov	rdx, QWORD PTR [rcx]
	mov	ecx, DWORD PTR [rax]
; File D:\dev\francium_network\francium_agent\src\ext\randomx\repo\src\instructions_portable.cpp
; Line 55
	mov	rax, QWORD PTR [rdx]
; File D:\dev\francium_network\francium_agent\src\ext\randomx\repo\src\bytecode_machine.hpp
; Line 202
	and	ecx, 63					; 0000003fH
; File D:\dev\francium_network\francium_agent\src\ext\randomx\repo\src\instructions_portable.cpp
; Line 55
	rol	rax, cl
; File D:\dev\francium_network\francium_agent\src\ext\randomx\repo\src\bytecode_machine.hpp
; Line 202
	mov	QWORD PTR [rdx], rax
; Line 203
	ret	0
?exe_IROL_R@BytecodeMachine@randomx@@SAXAEAUInstructionByteCode@2@AEAHPEAEAEAUProgramConfiguration@2@@Z ENDP ; randomx::BytecodeMachine::exe_IROL_R
_TEXT	ENDS
; Function compile flags: /Ogtpy
;	COMDAT ?exe_ISWAP_R@BytecodeMachine@randomx@@SAXAEAUInstructionByteCode@2@AEAHPEAEAEAUProgramConfiguration@2@@Z
_TEXT	SEGMENT
ibc$ = 8
pc$dead$ = 16
scratchpad$dead$ = 24
config$dead$ = 32
?exe_ISWAP_R@BytecodeMachine@randomx@@SAXAEAUInstructionByteCode@2@AEAHPEAEAEAUProgramConfiguration@2@@Z PROC ; randomx::BytecodeMachine::exe_ISWAP_R, COMDAT
; File D:\dev\francium_network\francium_agent\src\ext\randomx\repo\src\bytecode_machine.hpp
; Line 207
	mov	rax, QWORD PTR [rcx]
	mov	r8, QWORD PTR [rcx+8]
	mov	rdx, QWORD PTR [rax]
	mov	r9, QWORD PTR [r8]
	mov	QWORD PTR [r8], rdx
; Line 208
	mov	rax, QWORD PTR [rcx]
	mov	QWORD PTR [rax], r9
; Line 209
	ret	0
?exe_ISWAP_R@BytecodeMachine@randomx@@SAXAEAUInstructionByteCode@2@AEAHPEAEAEAUProgramConfiguration@2@@Z ENDP ; randomx::BytecodeMachine::exe_ISWAP_R
_TEXT	ENDS
; Function compile flags: /Ogtpy
;	COMDAT ?exe_FSWAP_R@BytecodeMachine@randomx@@SAXAEAUInstructionByteCode@2@AEAHPEAEAEAUProgramConfiguration@2@@Z
_TEXT	SEGMENT
ibc$ = 8
pc$dead$ = 16
scratchpad$dead$ = 24
config$dead$ = 32
?exe_FSWAP_R@BytecodeMachine@randomx@@SAXAEAUInstructionByteCode@2@AEAHPEAEAEAUProgramConfiguration@2@@Z PROC ; randomx::BytecodeMachine::exe_FSWAP_R, COMDAT
; File D:\dev\francium_network\francium_agent\src\ext\randomx\repo\src\bytecode_machine.hpp
; Line 212
	mov	rax, QWORD PTR [rcx]
	movups	xmm0, XMMWORD PTR [rax]
; File D:\dev\francium_network\francium_agent\src\ext\randomx\repo\src\intrin_portable.h
; Line 116
	shufpd	xmm0, xmm0, 1
; File D:\dev\francium_network\francium_agent\src\ext\randomx\repo\src\bytecode_machine.hpp
; Line 212
	movups	XMMWORD PTR [rax], xmm0
; Line 213
	ret	0
?exe_FSWAP_R@BytecodeMachine@randomx@@SAXAEAUInstructionByteCode@2@AEAHPEAEAEAUProgramConfiguration@2@@Z ENDP ; randomx::BytecodeMachine::exe_FSWAP_R
_TEXT	ENDS
; Function compile flags: /Ogtpy
;	COMDAT ?exe_FADD_R@BytecodeMachine@randomx@@SAXAEAUInstructionByteCode@2@AEAHPEAEAEAUProgramConfiguration@2@@Z
_TEXT	SEGMENT
ibc$ = 8
pc$dead$ = 16
scratchpad$dead$ = 24
config$dead$ = 32
?exe_FADD_R@BytecodeMachine@randomx@@SAXAEAUInstructionByteCode@2@AEAHPEAEAEAUProgramConfiguration@2@@Z PROC ; randomx::BytecodeMachine::exe_FADD_R, COMDAT
; File D:\dev\francium_network\francium_agent\src\ext\randomx\repo\src\bytecode_machine.hpp
; Line 216
	mov	rax, QWORD PTR [rcx+8]
	mov	rdx, QWORD PTR [rcx]
	movups	xmm0, XMMWORD PTR [rax]
	addpd	xmm0, XMMWORD PTR [rdx]
	movups	XMMWORD PTR [rdx], xmm0
; Line 217
	ret	0
?exe_FADD_R@BytecodeMachine@randomx@@SAXAEAUInstructionByteCode@2@AEAHPEAEAEAUProgramConfiguration@2@@Z ENDP ; randomx::BytecodeMachine::exe_FADD_R
_TEXT	ENDS
; Function compile flags: /Ogtpy
;	COMDAT ?exe_FADD_M@BytecodeMachine@randomx@@SAXAEAUInstructionByteCode@2@AEAHPEAEAEAUProgramConfiguration@2@@Z
_TEXT	SEGMENT
ibc$ = 8
pc$dead$ = 16
scratchpad$ = 24
config$dead$ = 32
?exe_FADD_M@BytecodeMachine@randomx@@SAXAEAUInstructionByteCode@2@AEAHPEAEAEAUProgramConfiguration@2@@Z PROC ; randomx::BytecodeMachine::exe_FADD_M, COMDAT
; File D:\dev\francium_network\francium_agent\src\ext\randomx\repo\src\bytecode_machine.hpp
; Line 283
	mov	rax, QWORD PTR [rcx+8]
; Line 221
	mov	r10, QWORD PTR [rcx]
; Line 283
	mov	r9d, DWORD PTR [rax]
	add	r9d, DWORD PTR [rcx+16]
	mov	eax, DWORD PTR [rcx+28]
	and	r9, rax
; File D:\dev\francium_network\francium_agent\src\ext\randomx\repo\src\intrin_portable.h
; Line 163
	cvtdq2pd xmm1, QWORD PTR [r9+r8]
; File D:\dev\francium_network\francium_agent\src\ext\randomx\repo\src\bytecode_machine.hpp
; Line 221
	addpd	xmm1, XMMWORD PTR [r10]
	movups	XMMWORD PTR [r10], xmm1
; Line 222
	ret	0
?exe_FADD_M@BytecodeMachine@randomx@@SAXAEAUInstructionByteCode@2@AEAHPEAEAEAUProgramConfiguration@2@@Z ENDP ; randomx::BytecodeMachine::exe_FADD_M
_TEXT	ENDS
; Function compile flags: /Ogtpy
;	COMDAT ?exe_FSUB_R@BytecodeMachine@randomx@@SAXAEAUInstructionByteCode@2@AEAHPEAEAEAUProgramConfiguration@2@@Z
_TEXT	SEGMENT
ibc$ = 8
pc$dead$ = 16
scratchpad$dead$ = 24
config$dead$ = 32
?exe_FSUB_R@BytecodeMachine@randomx@@SAXAEAUInstructionByteCode@2@AEAHPEAEAEAUProgramConfiguration@2@@Z PROC ; randomx::BytecodeMachine::exe_FSUB_R, COMDAT
; File D:\dev\francium_network\francium_agent\src\ext\randomx\repo\src\bytecode_machine.hpp
; Line 225
	mov	rdx, QWORD PTR [rcx]
	mov	rax, QWORD PTR [rcx+8]
	movups	xmm0, XMMWORD PTR [rdx]
	subpd	xmm0, XMMWORD PTR [rax]
	movups	XMMWORD PTR [rdx], xmm0
; Line 226
	ret	0
?exe_FSUB_R@BytecodeMachine@randomx@@SAXAEAUInstructionByteCode@2@AEAHPEAEAEAUProgramConfiguration@2@@Z ENDP ; randomx::BytecodeMachine::exe_FSUB_R
_TEXT	ENDS
; Function compile flags: /Ogtpy
;	COMDAT ?exe_FSUB_M@BytecodeMachine@randomx@@SAXAEAUInstructionByteCode@2@AEAHPEAEAEAUProgramConfiguration@2@@Z
_TEXT	SEGMENT
ibc$ = 8
pc$dead$ = 16
scratchpad$ = 24
config$dead$ = 32
?exe_FSUB_M@BytecodeMachine@randomx@@SAXAEAUInstructionByteCode@2@AEAHPEAEAEAUProgramConfiguration@2@@Z PROC ; randomx::BytecodeMachine::exe_FSUB_M, COMDAT
; File D:\dev\francium_network\francium_agent\src\ext\randomx\repo\src\bytecode_machine.hpp
; Line 283
	mov	rax, QWORD PTR [rcx+8]
; Line 230
	mov	r10, QWORD PTR [rcx]
; Line 283
	mov	r9d, DWORD PTR [rax]
	add	r9d, DWORD PTR [rcx+16]
	mov	eax, DWORD PTR [rcx+28]
; Line 230
	movups	xmm2, XMMWORD PTR [r10]
; Line 283
	and	r9, rax
; File D:\dev\francium_network\francium_agent\src\ext\randomx\repo\src\intrin_portable.h
; Line 163
	cvtdq2pd xmm1, QWORD PTR [r9+r8]
; File D:\dev\francium_network\francium_agent\src\ext\randomx\repo\src\bytecode_machine.hpp
; Line 230
	subpd	xmm2, xmm1
	movups	XMMWORD PTR [r10], xmm2
; Line 231
	ret	0
?exe_FSUB_M@BytecodeMachine@randomx@@SAXAEAUInstructionByteCode@2@AEAHPEAEAEAUProgramConfiguration@2@@Z ENDP ; randomx::BytecodeMachine::exe_FSUB_M
_TEXT	ENDS
; Function compile flags: /Ogtpy
;	COMDAT ?exe_FSCAL_R@BytecodeMachine@randomx@@SAXAEAUInstructionByteCode@2@AEAHPEAEAEAUProgramConfiguration@2@@Z
_TEXT	SEGMENT
ibc$ = 8
pc$dead$ = 16
scratchpad$dead$ = 24
config$dead$ = 32
?exe_FSCAL_R@BytecodeMachine@randomx@@SAXAEAUInstructionByteCode@2@AEAHPEAEAEAUProgramConfiguration@2@@Z PROC ; randomx::BytecodeMachine::exe_FSCAL_R, COMDAT
; File D:\dev\francium_network\francium_agent\src\ext\randomx\repo\src\bytecode_machine.hpp
; Line 235
	mov	rax, QWORD PTR [rcx]
; File D:\dev\francium_network\francium_agent\src\ext\randomx\repo\src\intrin_portable.h
; Line 124
	movdqa	xmm0, XMMWORD PTR __xmm@80f000000000000080f0000000000000
; File D:\dev\francium_network\francium_agent\src\ext\randomx\repo\src\bytecode_machine.hpp
; Line 235
	xorps	xmm0, XMMWORD PTR [rax]
	movups	XMMWORD PTR [rax], xmm0
; Line 236
	ret	0
?exe_FSCAL_R@BytecodeMachine@randomx@@SAXAEAUInstructionByteCode@2@AEAHPEAEAEAUProgramConfiguration@2@@Z ENDP ; randomx::BytecodeMachine::exe_FSCAL_R
_TEXT	ENDS
; Function compile flags: /Ogtpy
;	COMDAT ?exe_FMUL_R@BytecodeMachine@randomx@@SAXAEAUInstructionByteCode@2@AEAHPEAEAEAUProgramConfiguration@2@@Z
_TEXT	SEGMENT
ibc$ = 8
pc$dead$ = 16
scratchpad$dead$ = 24
config$dead$ = 32
?exe_FMUL_R@BytecodeMachine@randomx@@SAXAEAUInstructionByteCode@2@AEAHPEAEAEAUProgramConfiguration@2@@Z PROC ; randomx::BytecodeMachine::exe_FMUL_R, COMDAT
; File D:\dev\francium_network\francium_agent\src\ext\randomx\repo\src\bytecode_machine.hpp
; Line 239
	mov	rax, QWORD PTR [rcx+8]
	mov	rdx, QWORD PTR [rcx]
	movups	xmm0, XMMWORD PTR [rax]
	mulpd	xmm0, XMMWORD PTR [rdx]
	movups	XMMWORD PTR [rdx], xmm0
; Line 240
	ret	0
?exe_FMUL_R@BytecodeMachine@randomx@@SAXAEAUInstructionByteCode@2@AEAHPEAEAEAUProgramConfiguration@2@@Z ENDP ; randomx::BytecodeMachine::exe_FMUL_R
_TEXT	ENDS
; Function compile flags: /Ogtpy
;	COMDAT ?exe_FDIV_M@BytecodeMachine@randomx@@SAXAEAUInstructionByteCode@2@AEAHPEAEAEAUProgramConfiguration@2@@Z
_TEXT	SEGMENT
ibc$ = 8
pc$dead$ = 16
scratchpad$ = 24
config$ = 32
?exe_FDIV_M@BytecodeMachine@randomx@@SAXAEAUInstructionByteCode@2@AEAHPEAEAEAUProgramConfiguration@2@@Z PROC ; randomx::BytecodeMachine::exe_FDIV_M, COMDAT
; File D:\dev\francium_network\francium_agent\src\ext\randomx\repo\src\bytecode_machine.hpp
; Line 283
	mov	rax, QWORD PTR [rcx+8]
; Line 247
	mov	r11, QWORD PTR [rcx]
; Line 283
	mov	r10d, DWORD PTR [rax]
	add	r10d, DWORD PTR [rcx+16]
	mov	eax, DWORD PTR [rcx+28]
; Line 247
	movups	xmm0, XMMWORD PTR [r11]
; Line 283
	and	r10, rax
; File D:\dev\francium_network\francium_agent\src\ext\randomx\repo\src\intrin_portable.h
; Line 163
	cvtdq2pd xmm1, QWORD PTR [r10+r8]
; File D:\dev\francium_network\francium_agent\src\ext\randomx\repo\src\bytecode_machine.hpp
; Line 272
	andps	xmm1, XMMWORD PTR __xmm@00ffffffffffffff00ffffffffffffff
; Line 273
	orps	xmm1, XMMWORD PTR [r9]
; Line 247
	divpd	xmm0, xmm1
	movups	XMMWORD PTR [r11], xmm0
; Line 248
	ret	0
?exe_FDIV_M@BytecodeMachine@randomx@@SAXAEAUInstructionByteCode@2@AEAHPEAEAEAUProgramConfiguration@2@@Z ENDP ; randomx::BytecodeMachine::exe_FDIV_M
_TEXT	ENDS
; Function compile flags: /Ogtpy
;	COMDAT ?exe_FSQRT_R@BytecodeMachine@randomx@@SAXAEAUInstructionByteCode@2@AEAHPEAEAEAUProgramConfiguration@2@@Z
_TEXT	SEGMENT
ibc$ = 8
pc$dead$ = 16
scratchpad$dead$ = 24
config$dead$ = 32
?exe_FSQRT_R@BytecodeMachine@randomx@@SAXAEAUInstructionByteCode@2@AEAHPEAEAEAUProgramConfiguration@2@@Z PROC ; randomx::BytecodeMachine::exe_FSQRT_R, COMDAT
; File D:\dev\francium_network\francium_agent\src\ext\randomx\repo\src\bytecode_machine.hpp
; Line 251
	mov	rax, QWORD PTR [rcx]
	sqrtpd	xmm0, XMMWORD PTR [rax]
	movups	XMMWORD PTR [rax], xmm0
; Line 252
	ret	0
?exe_FSQRT_R@BytecodeMachine@randomx@@SAXAEAUInstructionByteCode@2@AEAHPEAEAEAUProgramConfiguration@2@@Z ENDP ; randomx::BytecodeMachine::exe_FSQRT_R
_TEXT	ENDS
; Function compile flags: /Ogtpy
;	COMDAT ?exe_CBRANCH@BytecodeMachine@randomx@@SAXAEAUInstructionByteCode@2@AEAHPEAEAEAUProgramConfiguration@2@@Z
_TEXT	SEGMENT
ibc$ = 8
pc$ = 16
scratchpad$dead$ = 24
config$dead$ = 32
?exe_CBRANCH@BytecodeMachine@randomx@@SAXAEAUInstructionByteCode@2@AEAHPEAEAEAUProgramConfiguration@2@@Z PROC ; randomx::BytecodeMachine::exe_CBRANCH, COMDAT
; File D:\dev\francium_network\francium_agent\src\ext\randomx\repo\src\bytecode_machine.hpp
; Line 255
	mov	r8, QWORD PTR [rcx]
	mov	rax, QWORD PTR [rcx+16]
	add	QWORD PTR [r8], rax
; Line 256
	mov	rax, QWORD PTR [rcx]
	mov	r8d, DWORD PTR [rcx+28]
	test	r8, QWORD PTR [rax]
	jne	SHORT $LN2@exe_CBRANC
; Line 257
	movsx	eax, WORD PTR [rcx+26]
	mov	DWORD PTR [rdx], eax
$LN2@exe_CBRANC:
; Line 259
	ret	0
?exe_CBRANCH@BytecodeMachine@randomx@@SAXAEAUInstructionByteCode@2@AEAHPEAEAEAUProgramConfiguration@2@@Z ENDP ; randomx::BytecodeMachine::exe_CBRANCH
_TEXT	ENDS
; Function compile flags: /Ogtpy
;	COMDAT ?exe_CFROUND@BytecodeMachine@randomx@@SAXAEAUInstructionByteCode@2@AEAHPEAEAEAUProgramConfiguration@2@@Z
_TEXT	SEGMENT
ibc$ = 8
pc$dead$ = 16
scratchpad$dead$ = 24
tv144 = 32
config$dead$ = 32
?exe_CFROUND@BytecodeMachine@randomx@@SAXAEAUInstructionByteCode@2@AEAHPEAEAEAUProgramConfiguration@2@@Z PROC ; randomx::BytecodeMachine::exe_CFROUND, COMDAT
; File D:\dev\francium_network\francium_agent\src\ext\randomx\repo\src\bytecode_machine.hpp
; Line 262
	mov	rax, QWORD PTR [rcx+8]
; File D:\dev\francium_network\francium_agent\src\ext\randomx\repo\src\instructions_portable.cpp
; Line 58
	mov	ecx, DWORD PTR [rcx+16]
; File D:\dev\francium_network\francium_agent\src\ext\randomx\repo\src\bytecode_machine.hpp
; Line 261
	mov	QWORD PTR [rsp+32], r9
; Line 262
	mov	r8, QWORD PTR [rax]
; File D:\dev\francium_network\francium_agent\src\ext\randomx\repo\src\instructions_portable.cpp
; Line 58
	ror	r8, cl
; File D:\dev\francium_network\francium_agent\src\ext\randomx\repo\src\bytecode_machine.hpp
; Line 262
	and	r8d, 3
; File D:\dev\francium_network\francium_agent\src\ext\randomx\repo\src\intrin_portable.h
; Line 173
	shl	r8d, 13
	or	r8d, 40896				; 00009fc0H
	mov	DWORD PTR tv144[rsp], r8d
	ldmxcsr	DWORD PTR tv144[rsp]
; File D:\dev\francium_network\francium_agent\src\ext\randomx\repo\src\bytecode_machine.hpp
; Line 263
	ret	0
?exe_CFROUND@BytecodeMachine@randomx@@SAXAEAUInstructionByteCode@2@AEAHPEAEAEAUProgramConfiguration@2@@Z ENDP ; randomx::BytecodeMachine::exe_CFROUND
_TEXT	ENDS
; Function compile flags: /Ogtpy
;	COMDAT ?exe_ISTORE@BytecodeMachine@randomx@@SAXAEAUInstructionByteCode@2@AEAHPEAEAEAUProgramConfiguration@2@@Z
_TEXT	SEGMENT
ibc$ = 8
pc$dead$ = 16
scratchpad$ = 24
config$dead$ = 32
?exe_ISTORE@BytecodeMachine@randomx@@SAXAEAUInstructionByteCode@2@AEAHPEAEAEAUProgramConfiguration@2@@Z PROC ; randomx::BytecodeMachine::exe_ISTORE, COMDAT
; File D:\dev\francium_network\francium_agent\src\ext\randomx\repo\src\bytecode_machine.hpp
; Line 266
	mov	rax, QWORD PTR [rcx]
	mov	rdx, QWORD PTR [rcx+16]
	mov	r9, QWORD PTR [rcx+8]
	add	rdx, QWORD PTR [rax]
	mov	eax, DWORD PTR [rcx+28]
	and	rdx, rax
	mov	rax, QWORD PTR [r9]
	mov	QWORD PTR [rdx+r8], rax
; Line 267
	ret	0
?exe_ISTORE@BytecodeMachine@randomx@@SAXAEAUInstructionByteCode@2@AEAHPEAEAEAUProgramConfiguration@2@@Z ENDP ; randomx::BytecodeMachine::exe_ISTORE
_TEXT	ENDS
; Function compile flags: /Ogtpy
;	COMDAT ?getScratchpadAddress@BytecodeMachine@randomx@@CAPEAXAEAUInstructionByteCode@2@PEAE@Z
_TEXT	SEGMENT
ibc$ = 8
scratchpad$ = 16
?getScratchpadAddress@BytecodeMachine@randomx@@CAPEAXAEAUInstructionByteCode@2@PEAE@Z PROC ; randomx::BytecodeMachine::getScratchpadAddress, COMDAT
; File D:\dev\francium_network\francium_agent\src\ext\randomx\repo\src\bytecode_machine.hpp
; Line 283
	mov	rax, QWORD PTR [rcx+8]
	mov	eax, DWORD PTR [rax]
	add	eax, DWORD PTR [rcx+16]
	mov	ecx, DWORD PTR [rcx+28]
	and	rax, rcx
; Line 284
	add	rax, rdx
; Line 285
	ret	0
?getScratchpadAddress@BytecodeMachine@randomx@@CAPEAXAEAUInstructionByteCode@2@PEAE@Z ENDP ; randomx::BytecodeMachine::getScratchpadAddress
_TEXT	ENDS
END
