; Listing generated by Microsoft (R) Optimizing Compiler Version 19.35.32216.1 

include listing.inc

INCLUDELIB OLDNAMES

PUBLIC	??_C@_08IKFDLLPJ@RandomX?$AD@			; `string'
;	COMDAT ??_C@_08IKFDLLPJ@RandomX?$AD@
CONST	SEGMENT
??_C@_08IKFDLLPJ@RandomX?$AD@ DB 'RandomX', 03H, 00H	; `string'
?_Fake_alloc@std@@3U_Fake_allocator@1@B	ORG $+1		; std::_Fake_alloc
PUBLIC	??$construct@_KAEB_K@?$_Default_allocator_traits@V?$allocator@_K@std@@@std@@SAXAEAV?$allocator@_K@1@QEA_KAEB_K@Z ; std::_Default_allocator_traits<std::allocator<unsigned __int64> >::construct<unsigned __int64,unsigned __int64 const &>
PUBLIC	??$_Construct_in_place@_KAEB_K@std@@YAXAEA_KAEB_K@Z ; std::_Construct_in_place<unsigned __int64,unsigned __int64 const &>
PUBLIC	??$_Emplace_reallocate@AEB_K@?$vector@_KV?$allocator@_K@std@@@std@@AEAAPEA_KQEA_KAEB_K@Z ; std::vector<unsigned __int64,std::allocator<unsigned __int64> >::_Emplace_reallocate<unsigned __int64 const &>
PUBLIC	??$_Emplace_back_with_unused_capacity@AEB_K@?$vector@_KV?$allocator@_K@std@@@std@@AEAAAEA_KAEB_K@Z ; std::vector<unsigned __int64,std::allocator<unsigned __int64> >::_Emplace_back_with_unused_capacity<unsigned __int64 const &>
PUBLIC	??$forward@AEB_K@std@@YAAEB_KAEB_K@Z		; std::forward<unsigned __int64 const &>
PUBLIC	??_GJitCompilerX86@randomx@@QEAAPEAXI@Z		; randomx::JitCompilerX86::`scalar deleting destructor'
PUBLIC	??$_Emplace_one_at_back@AEB_K@?$vector@_KV?$allocator@_K@std@@@std@@AEAAAEA_KAEB_K@Z ; std::vector<unsigned __int64,std::allocator<unsigned __int64> >::_Emplace_one_at_back<unsigned __int64 const &>
PUBLIC	?push_back@?$vector@_KV?$allocator@_K@std@@@std@@QEAAXAEB_K@Z ; std::vector<unsigned __int64,std::allocator<unsigned __int64> >::push_back
PUBLIC	?clear@?$vector@_KV?$allocator@_K@std@@@std@@QEAAXXZ ; std::vector<unsigned __int64,std::allocator<unsigned __int64> >::clear
PUBLIC	?initDatasetItem@randomx@@YAXPEAUrandomx_cache@@PEAE_K@Z ; randomx::initDatasetItem
PUBLIC	?getAddressRegister@SuperscalarProgram@randomx@@QEAAHXZ ; randomx::SuperscalarProgram::getAddressRegister
PUBLIC	??RSuperscalarProgram@randomx@@QEAAAEAVInstruction@1@H@Z ; randomx::SuperscalarProgram::operator()
PUBLIC	?setImm32@Instruction@randomx@@QEAAXI@Z		; randomx::Instruction::setImm32
PUBLIC	?getImm32@Instruction@randomx@@QEBAIXZ		; randomx::Instruction::getImm32
PUBLIC	??$deallocCache@ULargePageAllocator@randomx@@@randomx@@YAXPEAUrandomx_cache@@@Z ; randomx::deallocCache<randomx::LargePageAllocator>
PUBLIC	??$deallocCache@U?$AlignedAllocator@$0EA@@randomx@@@randomx@@YAXPEAUrandomx_cache@@@Z ; randomx::deallocCache<randomx::AlignedAllocator<64> >
PUBLIC	?initCache@randomx@@YAXPEAUrandomx_cache@@PEBX_K@Z ; randomx::initCache
PUBLIC	?initCacheCompile@randomx@@YAXPEAUrandomx_cache@@PEBX_K@Z ; randomx::initCacheCompile
PUBLIC	?initDataset@randomx@@YAXPEAUrandomx_cache@@PEAEII@Z ; randomx::initDataset
;	COMDAT pdata
pdata	SEGMENT
$pdata$??$_Emplace_reallocate@AEB_K@?$vector@_KV?$allocator@_K@std@@@std@@AEAAPEA_KQEA_KAEB_K@Z DD imagerel $LN122
	DD	imagerel $LN122+70
	DD	imagerel $unwind$??$_Emplace_reallocate@AEB_K@?$vector@_KV?$allocator@_K@std@@@std@@AEAAPEA_KQEA_KAEB_K@Z
pdata	ENDS
;	COMDAT pdata
pdata	SEGMENT
$pdata$2$??$_Emplace_reallocate@AEB_K@?$vector@_KV?$allocator@_K@std@@@std@@AEAAPEA_KQEA_KAEB_K@Z DD imagerel $LN122+70
	DD	imagerel $LN122+381
	DD	imagerel $chain$2$??$_Emplace_reallocate@AEB_K@?$vector@_KV?$allocator@_K@std@@@std@@AEAAPEA_KQEA_KAEB_K@Z
pdata	ENDS
;	COMDAT pdata
pdata	SEGMENT
$pdata$4$??$_Emplace_reallocate@AEB_K@?$vector@_KV?$allocator@_K@std@@@std@@AEAAPEA_KQEA_KAEB_K@Z DD imagerel $LN122+381
	DD	imagerel $LN122+393
	DD	imagerel $chain$4$??$_Emplace_reallocate@AEB_K@?$vector@_KV?$allocator@_K@std@@@std@@AEAAPEA_KQEA_KAEB_K@Z
pdata	ENDS
;	COMDAT pdata
pdata	SEGMENT
$pdata$5$??$_Emplace_reallocate@AEB_K@?$vector@_KV?$allocator@_K@std@@@std@@AEAAPEA_KQEA_KAEB_K@Z DD imagerel $LN122+393
	DD	imagerel $LN122+399
	DD	imagerel $chain$5$??$_Emplace_reallocate@AEB_K@?$vector@_KV?$allocator@_K@std@@@std@@AEAAPEA_KQEA_KAEB_K@Z
pdata	ENDS
;	COMDAT pdata
pdata	SEGMENT
$pdata$??_GJitCompilerX86@randomx@@QEAAPEAXI@Z DD imagerel $LN6
	DD	imagerel $LN6+36
	DD	imagerel $unwind$??_GJitCompilerX86@randomx@@QEAAPEAXI@Z
pdata	ENDS
;	COMDAT pdata
pdata	SEGMENT
$pdata$?initDatasetItem@randomx@@YAXPEAUrandomx_cache@@PEAE_K@Z DD imagerel $LN27
	DD	imagerel $LN27+415
	DD	imagerel $unwind$?initDatasetItem@randomx@@YAXPEAUrandomx_cache@@PEAE_K@Z
pdata	ENDS
;	COMDAT pdata
pdata	SEGMENT
$pdata$??$deallocCache@ULargePageAllocator@randomx@@@randomx@@YAXPEAUrandomx_cache@@@Z DD imagerel $LN16
	DD	imagerel $LN16+72
	DD	imagerel $unwind$??$deallocCache@ULargePageAllocator@randomx@@@randomx@@YAXPEAUrandomx_cache@@@Z
pdata	ENDS
;	COMDAT pdata
pdata	SEGMENT
$pdata$??$deallocCache@U?$AlignedAllocator@$0EA@@randomx@@@randomx@@YAXPEAUrandomx_cache@@@Z DD imagerel $LN14
	DD	imagerel $LN14+63
	DD	imagerel $unwind$??$deallocCache@U?$AlignedAllocator@$0EA@@randomx@@@randomx@@YAXPEAUrandomx_cache@@@Z
pdata	ENDS
;	COMDAT pdata
pdata	SEGMENT
$pdata$?initCache@randomx@@YAXPEAUrandomx_cache@@PEBX_K@Z DD imagerel $LN135
	DD	imagerel $LN135+915
	DD	imagerel $unwind$?initCache@randomx@@YAXPEAUrandomx_cache@@PEBX_K@Z
pdata	ENDS
;	COMDAT pdata
pdata	SEGMENT
$pdata$?initCacheCompile@randomx@@YAXPEAUrandomx_cache@@PEBX_K@Z DD imagerel $LN6
	DD	imagerel $LN6+84
	DD	imagerel $unwind$?initCacheCompile@randomx@@YAXPEAUrandomx_cache@@PEBX_K@Z
pdata	ENDS
;	COMDAT pdata
pdata	SEGMENT
$pdata$?initDataset@randomx@@YAXPEAUrandomx_cache@@PEAEII@Z DD imagerel $LN12
	DD	imagerel $LN12+15
	DD	imagerel $unwind$?initDataset@randomx@@YAXPEAUrandomx_cache@@PEAEII@Z
pdata	ENDS
;	COMDAT pdata
pdata	SEGMENT
$pdata$1$?initDataset@randomx@@YAXPEAUrandomx_cache@@PEAEII@Z DD imagerel $LN12+15
	DD	imagerel $LN12+95
	DD	imagerel $chain$1$?initDataset@randomx@@YAXPEAUrandomx_cache@@PEAEII@Z
pdata	ENDS
;	COMDAT pdata
pdata	SEGMENT
$pdata$2$?initDataset@randomx@@YAXPEAUrandomx_cache@@PEAEII@Z DD imagerel $LN12+95
	DD	imagerel $LN12+96
	DD	imagerel $chain$2$?initDataset@randomx@@YAXPEAUrandomx_cache@@PEAEII@Z
;	COMDAT xdata
xdata	SEGMENT
$chain$2$?initDataset@randomx@@YAXPEAUrandomx_cache@@PEAEII@Z DD 021H
	DD	imagerel $LN12
	DD	imagerel $LN12+15
	DD	imagerel $unwind$?initDataset@randomx@@YAXPEAUrandomx_cache@@PEAEII@Z
xdata	ENDS
;	COMDAT xdata
xdata	SEGMENT
$chain$1$?initDataset@randomx@@YAXPEAUrandomx_cache@@PEAEII@Z DD 040d21H
	DD	07640dH
	DD	063405H
	DD	imagerel $LN12
	DD	imagerel $LN12+15
	DD	imagerel $unwind$?initDataset@randomx@@YAXPEAUrandomx_cache@@PEAEII@Z
xdata	ENDS
;	COMDAT xdata
xdata	SEGMENT
$unwind$?initDataset@randomx@@YAXPEAUrandomx_cache@@PEAEII@Z DD 040f01H
	DD	08540fH
	DD	0700b320fH
xdata	ENDS
;	COMDAT xdata
xdata	SEGMENT
$unwind$?initCacheCompile@randomx@@YAXPEAUrandomx_cache@@PEBX_K@Z DD 020601H
	DD	030023206H
xdata	ENDS
;	COMDAT xdata
xdata	SEGMENT
$unwind$?initCache@randomx@@YAXPEAUrandomx_cache@@PEBX_K@Z DD 0b3019H
	DD	0c3341fH
	DD	0b8011fH
	DD	0e00ef010H
	DD	0c00ad00cH
	DD	060077008H
	DD	05006H
	DD	imagerel __GSHandlerCheck
	DD	05b0H
xdata	ENDS
;	COMDAT xdata
xdata	SEGMENT
$unwind$??$deallocCache@U?$AlignedAllocator@$0EA@@randomx@@@randomx@@YAXPEAUrandomx_cache@@@Z DD 020601H
	DD	030023206H
xdata	ENDS
;	COMDAT xdata
xdata	SEGMENT
$unwind$??$deallocCache@ULargePageAllocator@randomx@@@randomx@@YAXPEAUrandomx_cache@@@Z DD 020601H
	DD	030023206H
xdata	ENDS
;	COMDAT xdata
xdata	SEGMENT
$unwind$?initDatasetItem@randomx@@YAXPEAUrandomx_cache@@PEAE_K@Z DD 0a2719H
	DD	0176419H
	DD	0163419H
	DD	0f012d219H
	DD	0c00ee010H
	DD	0500b700cH
	DD	imagerel __GSHandlerCheck
	DD	060H
xdata	ENDS
;	COMDAT xdata
xdata	SEGMENT
$unwind$??_GJitCompilerX86@randomx@@QEAAPEAXI@Z DD 020601H
	DD	030023206H
xdata	ENDS
;	COMDAT xdata
xdata	SEGMENT
$chain$5$??$_Emplace_reallocate@AEB_K@?$vector@_KV?$allocator@_K@std@@@std@@AEAAPEA_KQEA_KAEB_K@Z DD 021H
	DD	imagerel $LN122
	DD	imagerel $LN122+70
	DD	imagerel $unwind$??$_Emplace_reallocate@AEB_K@?$vector@_KV?$allocator@_K@std@@@std@@AEAAPEA_KQEA_KAEB_K@Z
xdata	ENDS
;	COMDAT xdata
xdata	SEGMENT
$chain$4$??$_Emplace_reallocate@AEB_K@?$vector@_KV?$allocator@_K@std@@@std@@AEAAPEA_KQEA_KAEB_K@Z DD 060021H
	DD	04f400H
	DD	0d6400H
	DD	0c3400H
	DD	imagerel $LN122
	DD	imagerel $LN122+70
	DD	imagerel $unwind$??$_Emplace_reallocate@AEB_K@?$vector@_KV?$allocator@_K@std@@@std@@AEAAPEA_KQEA_KAEB_K@Z
xdata	ENDS
;	COMDAT xdata
xdata	SEGMENT
$chain$2$??$_Emplace_reallocate@AEB_K@?$vector@_KV?$allocator@_K@std@@@std@@AEAAPEA_KQEA_KAEB_K@Z DD 061921H
	DD	04f419H
	DD	0d640eH
	DD	0c3405H
	DD	imagerel $LN122
	DD	imagerel $LN122+70
	DD	imagerel $unwind$??$_Emplace_reallocate@AEB_K@?$vector@_KV?$allocator@_K@std@@@std@@AEAAPEA_KQEA_KAEB_K@Z
xdata	ENDS
;	COMDAT xdata
xdata	SEGMENT
$unwind$??$_Emplace_reallocate@AEB_K@?$vector@_KV?$allocator@_K@std@@@std@@AEAAPEA_KQEA_KAEB_K@Z DD 050b01H
	DD	0e007420bH
	DD	07003c005H
	DD	05002H
; Function compile flags: /Ogtpy
;	COMDAT ?initDataset@randomx@@YAXPEAUrandomx_cache@@PEAEII@Z
_TEXT	SEGMENT
cache$ = 48
dataset$ = 56
startItem$ = 64
endItem$ = 72
?initDataset@randomx@@YAXPEAUrandomx_cache@@PEAEII@Z PROC ; randomx::initDataset, COMDAT
; File D:\dev\francium_network\francium_agent\src\ext\randomx\repo\src\dataset.cpp
; Line 192
$LN12:
; Line 193
	cmp	r8d, r9d
	jae	SHORT $LN10@initDatase
	mov	QWORD PTR [rsp+24], rbp
	push	rdi
	sub	rsp, 32					; 00000020H
	mov	QWORD PTR [rsp+48], rbx
	sub	r9d, r8d
	mov	QWORD PTR [rsp+56], rsi
	mov	rdi, rdx
	mov	esi, r9d
	mov	rbp, rcx
	mov	ebx, r8d
	npad	8
$LL4@initDatase:
; Line 194
	mov	r8, rbx
	mov	rdx, rdi
	mov	rcx, rbp
	call	?initDatasetItem@randomx@@YAXPEAUrandomx_cache@@PEAE_K@Z ; randomx::initDatasetItem
	inc	rbx
	add	rdi, 64					; 00000040H
	sub	rsi, 1
	jne	SHORT $LL4@initDatase
; Line 193
	mov	rsi, QWORD PTR [rsp+56]
	mov	rbx, QWORD PTR [rsp+48]
; Line 195
	mov	rbp, QWORD PTR [rsp+64]
	add	rsp, 32					; 00000020H
	pop	rdi
$LN10@initDatase:
	ret	0
?initDataset@randomx@@YAXPEAUrandomx_cache@@PEAEII@Z ENDP ; randomx::initDataset
_TEXT	ENDS
; Function compile flags: /Ogtpy
;	COMDAT ?initCacheCompile@randomx@@YAXPEAUrandomx_cache@@PEBX_K@Z
_TEXT	SEGMENT
cache$ = 48
key$ = 56
keySize$ = 64
?initCacheCompile@randomx@@YAXPEAUrandomx_cache@@PEBX_K@Z PROC ; randomx::initCacheCompile, COMDAT
; File D:\dev\francium_network\francium_agent\src\ext\randomx\repo\src\dataset.cpp
; Line 142
$LN6:
	push	rbx
	sub	rsp, 32					; 00000020H
	mov	rbx, rcx
; Line 143
	call	?initCache@randomx@@YAXPEAUrandomx_cache@@PEBX_K@Z ; randomx::initCache
; Line 144
	mov	rcx, QWORD PTR [rbx+16]
	call	?enableWriting@JitCompilerX86@randomx@@QEAAXXZ ; randomx::JitCompilerX86::enableWriting
; Line 145
	mov	rcx, QWORD PTR [rbx+16]
	lea	r8, QWORD PTR [rbx+33640]
	lea	rdx, QWORD PTR [rbx+40]
	call	??$generateSuperscalarHash@$07@JitCompilerX86@randomx@@QEAAXAEAY07VSuperscalarProgram@1@AEAV?$vector@_KV?$allocator@_K@std@@@std@@@Z ; randomx::JitCompilerX86::generateSuperscalarHash<8>
; File D:\dev\francium_network\francium_agent\src\ext\randomx\repo\src\jit_compiler_x86.cpp
; Line 299
	mov	rcx, QWORD PTR [rbx+16]
	lea	rdx, OFFSET FLAT:randomx_dataset_init
	movsxd	r8, DWORD PTR ?datasetInitSize@randomx@@3HB
	mov	rcx, QWORD PTR [rcx+56]
	call	memcpy
; File D:\dev\francium_network\francium_agent\src\ext\randomx\repo\src\dataset.cpp
; Line 147
	mov	rcx, QWORD PTR [rbx+16]
; Line 148
	add	rsp, 32					; 00000020H
	pop	rbx
; Line 147
	jmp	?enableExecution@JitCompilerX86@randomx@@QEAAXXZ ; randomx::JitCompilerX86::enableExecution
?initCacheCompile@randomx@@YAXPEAUrandomx_cache@@PEBX_K@Z ENDP ; randomx::initCacheCompile
_TEXT	ENDS
; Function compile flags: /Ogtpy
;	COMDAT ?initCache@randomx@@YAXPEAUrandomx_cache@@PEBX_K@Z
_TEXT	SEGMENT
position$3 = 32
rcp$4 = 32
tv916 = 48
instance$ = 64
context$ = 128
$T1 = 256
gen$ = 272
blockhash$5 = 352
blockhash_bytes$6 = 432
__$ArrayPad$ = 1456
cache$ = 1536
key$ = 1544
keySize$ = 1552
?initCache@randomx@@YAXPEAUrandomx_cache@@PEBX_K@Z PROC	; randomx::initCache, COMDAT
; File D:\dev\francium_network\francium_agent\src\ext\randomx\repo\src\dataset.cpp
; Line 71
$LN135:
	mov	QWORD PTR [rsp+32], rbx
	push	rbp
	push	rsi
	push	rdi
	push	r12
	push	r13
	push	r14
	push	r15
	lea	rbp, QWORD PTR [rsp-1216]
	sub	rsp, 1472				; 000005c0H
	mov	rax, QWORD PTR __security_cookie
	xor	rax, rsp
	mov	QWORD PTR __$ArrayPad$[rbp-256], rax
; Line 76
	xor	r12d, r12d
; Line 78
	mov	QWORD PTR context$[rbp-240], rdx
	mov	r14, r8
	mov	QWORD PTR context$[rbp-256], r12
; Line 80
	lea	rax, OFFSET FLAT:??_C@_08IKFDLLPJ@RandomX?$AD@
	mov	DWORD PTR context$[rbp-248], r12d
	mov	QWORD PTR context$[rbp-224], rax
	mov	r15, rdx
; Line 113
	mov	rax, QWORD PTR [rcx]
; File D:\dev\francium_network\francium_agent\src\ext\randomx\repo\src\argon2_core.c
; Line 400
	lea	rdx, QWORD PTR context$[rbp-256]
; File D:\dev\francium_network\francium_agent\src\ext\randomx\repo\src\dataset.cpp
; Line 113
	mov	QWORD PTR instance$[rsp], rax
	mov	r13, rcx
; Line 114
	mov	rax, QWORD PTR [rcx+33696]
	mov	esi, 8
	mov	QWORD PTR instance$[rsp+56], rax
; File D:\dev\francium_network\francium_agent\src\ext\randomx\repo\src\argon2_core.c
; Line 400
	lea	rcx, QWORD PTR blockhash$5[rbp-256]
	lea	rax, QWORD PTR context$[rbp-256]
; File D:\dev\francium_network\francium_agent\src\ext\randomx\repo\src\dataset.cpp
; Line 79
	mov	DWORD PTR context$[rbp-232], r14d
; File D:\dev\francium_network\francium_agent\src\ext\randomx\repo\src\argon2_core.c
; Line 400
	xor	r8d, r8d
	mov	QWORD PTR instance$[rsp+48], rax
; File D:\dev\francium_network\francium_agent\src\ext\randomx\repo\src\dataset.cpp
; Line 81
	mov	QWORD PTR tv916[rsp], rsi
	mov	DWORD PTR context$[rbp-216], esi
; Line 82
	mov	QWORD PTR context$[rbp-208], r12
; Line 83
	mov	DWORD PTR context$[rbp-200], r12d
; Line 84
	mov	QWORD PTR context$[rbp-192], r12
; Line 85
	mov	DWORD PTR context$[rbp-184], r12d
; Line 86
	mov	DWORD PTR context$[rbp-180], 3
; Line 87
	mov	DWORD PTR context$[rbp-176], 262144	; 00040000H
; Line 88
	mov	DWORD PTR context$[rbp-172], 1
; Line 89
	mov	DWORD PTR context$[rbp-168], 1
; Line 90
	mov	QWORD PTR context$[rbp-160], r12
; Line 91
	mov	QWORD PTR context$[rbp-152], r12
; Line 92
	mov	DWORD PTR context$[rbp-144], r12d
; Line 93
	mov	DWORD PTR context$[rbp-164], 19
; Line 104
	mov	DWORD PTR instance$[rsp+8], 19
; Line 106
	mov	DWORD PTR instance$[rsp+12], 3
; Line 107
	mov	DWORD PTR instance$[rsp+16], 262144	; 00040000H
; Line 108
	mov	DWORD PTR instance$[rsp+20], 65536	; 00010000H
; Line 109
	mov	DWORD PTR instance$[rsp+24], 262144	; 00040000H
; Line 110
	mov	DWORD PTR instance$[rsp+28], 1
; Line 111
	mov	QWORD PTR instance$[rsp+32], 1
; File D:\dev\francium_network\francium_agent\src\ext\randomx\repo\src\argon2_core.c
; Line 400
	call	rxa2_initial_hash
; Line 306
	mov	eax, DWORD PTR instance$[rsp+28]
	mov	ebx, r12d
	test	eax, eax
	je	$LN75@initCache
	npad	8
$LL71@initCache:
; Line 310
	lea	r8, QWORD PTR blockhash$5[rbp-256]
	mov	DWORD PTR blockhash$5[rbp-192], r12d
	lea	rcx, QWORD PTR blockhash_bytes$6[rbp-256]
	mov	DWORD PTR blockhash$5[rbp-188], ebx
	call	randomx_blake2b_long
; Line 312
	mov	ecx, ebx
	lea	rdx, QWORD PTR blockhash_bytes$6[rbp-256]
	imul	ecx, DWORD PTR instance$[rsp+24]
	shl	rcx, 10
	add	rcx, QWORD PTR instance$[rsp]
	call	load_block
; Line 316
	lea	r8, QWORD PTR blockhash$5[rbp-256]
	mov	DWORD PTR blockhash$5[rbp-192], 1
	lea	rcx, QWORD PTR blockhash_bytes$6[rbp-256]
	call	randomx_blake2b_long
; Line 318
	mov	ecx, ebx
	lea	rdx, QWORD PTR blockhash_bytes$6[rbp-256]
	imul	ecx, DWORD PTR instance$[rsp+24]
	inc	ecx
	shl	rcx, 10
	add	rcx, QWORD PTR instance$[rsp]
	call	load_block
	mov	eax, DWORD PTR instance$[rsp+28]
	inc	ebx
	cmp	ebx, eax
	jb	SHORT $LL71@initCache
; Line 179
	test	eax, eax
	je	SHORT $LN75@initCache
; Line 166
	mov	esi, r12d
	cmp	DWORD PTR instance$[rsp+12], r12d
	jbe	SHORT $LN131@initCache
	npad	7
$LL80@initCache:
; Line 167
	mov	edi, r12d
$LL83@initCache:
; Line 168
	mov	ebx, r12d
	test	eax, eax
	je	SHORT $LN81@initCache
	npad	6
$LL86@initCache:
; Line 169
	mov	DWORD PTR position$3[rsp], esi
; Line 171
	lea	rdx, QWORD PTR $T1[rbp-256]
	mov	DWORD PTR position$3[rsp+4], ebx
	lea	rcx, QWORD PTR instance$[rsp]
	mov	BYTE PTR position$3[rsp+8], dil
	mov	DWORD PTR position$3[rsp+12], r12d
	movaps	xmm0, XMMWORD PTR position$3[rsp]
	movdqa	XMMWORD PTR $T1[rbp-256], xmm0
	call	QWORD PTR instance$[rsp+56]
	mov	eax, DWORD PTR instance$[rsp+28]
	inc	ebx
	cmp	ebx, eax
	jb	SHORT $LL86@initCache
$LN81@initCache:
; Line 167
	inc	edi
	cmp	edi, 4
	jb	SHORT $LL83@initCache
; Line 166
	inc	esi
	cmp	esi, DWORD PTR instance$[rsp+12]
	jb	SHORT $LL80@initCache
$LN131@initCache:
; File D:\software\Visual Studio 2022\VC\Tools\MSVC\14.35.32215\include\vector
; Line 1825
	mov	esi, 8
$LN75@initCache:
	lea	rbx, QWORD PTR [r13+33640]
; Line 1829
	mov	rax, QWORD PTR [rbx]
	cmp	rax, QWORD PTR [rbx+8]
	je	SHORT $LN88@initCache
; Line 1839
	mov	QWORD PTR [rbx+8], rax
$LN88@initCache:
	xorps	xmm0, xmm0
; File D:\dev\francium_network\francium_agent\src\ext\randomx\repo\src\blake2_generator.cpp
; Line 38
	mov	QWORD PTR gen$[rbp-192], 64		; 00000040H
; Line 40
	mov	eax, 60					; 0000003cH
	lea	rcx, QWORD PTR gen$[rbp-256]
	cmp	r14, rax
	mov	rdx, r15
	movups	XMMWORD PTR gen$[rbp-256], xmm0
	cmova	r14, rax
	mov	r8, r14
	movups	XMMWORD PTR gen$[rbp-240], xmm0
	movups	XMMWORD PTR gen$[rbp-224], xmm0
	movups	XMMWORD PTR gen$[rbp-208], xmm0
	call	memcpy
; Line 41
	mov	DWORD PTR gen$[rbp-196], r12d
	lea	r14, QWORD PTR [r13+4136]
	mov	r15, r12
	lea	r12, QWORD PTR [r13+40]
$LL4@initCache:
; File D:\dev\francium_network\francium_agent\src\ext\randomx\repo\src\dataset.cpp
; Line 130
	lea	rdx, QWORD PTR gen$[rbp-256]
	mov	rcx, r12
	call	?generateSuperscalar@randomx@@YAXAEAVSuperscalarProgram@1@AEAVBlake2Generator@1@@Z ; randomx::generateSuperscalar
; Line 131
	xor	edi, edi
	cmp	DWORD PTR [r14], edi
	jbe	$LN2@initCache
	npad	6
$LL7@initCache:
; File D:\dev\francium_network\francium_agent\src\ext\randomx\repo\src\superscalar_program.hpp
; Line 40
	movsxd	rax, edi
	add	rax, r15
	lea	rsi, QWORD PTR [rax*8]
; File D:\dev\francium_network\francium_agent\src\ext\randomx\repo\src\dataset.cpp
; Line 133
	cmp	BYTE PTR [rsi+r13+40], 13
	jne	$LN5@initCache
; Line 134
	mov	r11d, DWORD PTR [rsi+r13+44]
; File D:\dev\francium_network\francium_agent\src\ext\randomx\repo\src\reciprocal.c
; Line 53
	xor	edx, edx
	mov	rax, -9223372036854775808		; 8000000000000000H
; Line 55
	xor	ecx, ecx
	div	r11
; Line 57
	mov	r8d, r11d
	mov	r10, rdx
	mov	r9, rax
	test	r11, r11
	je	SHORT $LN18@initCache
	npad	2
$LL16@initCache:
; Line 58
	inc	ecx
	shr	r8, 1
	jne	SHORT $LL16@initCache
; Line 60
	test	ecx, ecx
	je	SHORT $LN18@initCache
	mov	r8d, ecx
	npad	2
$LL109@initCache:
; Line 61
	lea	rax, QWORD PTR [r9+r9]
	mov	rdx, r11
	sub	rdx, r10
	lea	rcx, QWORD PTR [r10+r10]
	cmp	r10, rdx
	lea	r9, QWORD PTR [rax+1]
	cmovb	r9, rax
	mov	rax, r10
	mov	r10, rcx
	sub	r10, r11
	cmp	rax, rdx
	cmovb	r10, rcx
	sub	r8, 1
	jne	SHORT $LL109@initCache
$LN18@initCache:
; File D:\software\Visual Studio 2022\VC\Tools\MSVC\14.35.32215\include\vector
; Line 1932
	mov	rax, QWORD PTR [rbx+8]
	sub	rax, QWORD PTR [rbx]
	sar	rax, 3
; File D:\dev\francium_network\francium_agent\src\ext\randomx\repo\src\dataset.cpp
; Line 135
	mov	DWORD PTR [rsi+r13+44], eax
; File D:\software\Visual Studio 2022\VC\Tools\MSVC\14.35.32215\include\vector
; Line 844
	mov	rdx, QWORD PTR [rbx+8]
; File D:\dev\francium_network\francium_agent\src\ext\randomx\repo\src\dataset.cpp
; Line 134
	mov	QWORD PTR rcp$4[rsp], r9
; File D:\software\Visual Studio 2022\VC\Tools\MSVC\14.35.32215\include\vector
; Line 844
	cmp	rdx, QWORD PTR [rbx+16]
	je	SHORT $LN28@initCache
; Line 860
	mov	QWORD PTR [rdx], r9
; Line 869
	add	QWORD PTR [rbx+8], 8
; Line 845
	jmp	SHORT $LN5@initCache
$LN28@initCache:
; Line 848
	lea	r8, QWORD PTR rcp$4[rsp]
	mov	rcx, rbx
	call	??$_Emplace_reallocate@AEB_K@?$vector@_KV?$allocator@_K@std@@@std@@AEAAPEA_KQEA_KAEB_K@Z ; std::vector<unsigned __int64,std::allocator<unsigned __int64> >::_Emplace_reallocate<unsigned __int64 const &>
$LN5@initCache:
; File D:\dev\francium_network\francium_agent\src\ext\randomx\repo\src\dataset.cpp
; Line 131
	inc	edi
	cmp	edi, DWORD PTR [r14]
	jb	$LL7@initCache
	mov	rsi, QWORD PTR tv916[rsp]
$LN2@initCache:
; Line 129
	add	r12, 4200				; 00001068H
	add	r15, 525				; 0000020dH
	add	r14, 4200				; 00001068H
	sub	rsi, 1
	mov	QWORD PTR tv916[rsp], rsi
	jne	$LL4@initCache
; Line 140
	mov	rcx, QWORD PTR __$ArrayPad$[rbp-256]
	xor	rcx, rsp
	call	__security_check_cookie
	mov	rbx, QWORD PTR [rsp+1560]
	add	rsp, 1472				; 000005c0H
	pop	r15
	pop	r14
	pop	r13
	pop	r12
	pop	rdi
	pop	rsi
	pop	rbp
	ret	0
?initCache@randomx@@YAXPEAUrandomx_cache@@PEBX_K@Z ENDP	; randomx::initCache
_TEXT	ENDS
; Function compile flags: /Ogtpy
;	COMDAT ??$deallocCache@U?$AlignedAllocator@$0EA@@randomx@@@randomx@@YAXPEAUrandomx_cache@@@Z
_TEXT	SEGMENT
cache$ = 48
??$deallocCache@U?$AlignedAllocator@$0EA@@randomx@@@randomx@@YAXPEAUrandomx_cache@@@Z PROC ; randomx::deallocCache<randomx::AlignedAllocator<64> >, COMDAT
; File D:\dev\francium_network\francium_agent\src\ext\randomx\repo\src\dataset.cpp
; Line 61
$LN14:
	push	rbx
	sub	rsp, 32					; 00000020H
	mov	rbx, rcx
; Line 62
	mov	rcx, QWORD PTR [rcx]
	test	rcx, rcx
	je	SHORT $LN2@deallocCac
; File D:\dev\francium_network\francium_agent\src\ext\randomx\repo\src\allocator.cpp
; Line 47
	call	_aligned_free
$LN2@deallocCac:
; File D:\dev\francium_network\francium_agent\src\ext\randomx\repo\src\dataset.cpp
; Line 64
	mov	rbx, QWORD PTR [rbx+16]
	test	rbx, rbx
	je	SHORT $LN10@deallocCac
	mov	rcx, rbx
	call	??1JitCompilerX86@randomx@@QEAA@XZ	; randomx::JitCompilerX86::~JitCompilerX86
	mov	edx, 72					; 00000048H
	mov	rcx, rbx
; Line 66
	add	rsp, 32					; 00000020H
	pop	rbx
	jmp	??3@YAXPEAX_K@Z				; operator delete
$LN10@deallocCac:
	add	rsp, 32					; 00000020H
	pop	rbx
	ret	0
??$deallocCache@U?$AlignedAllocator@$0EA@@randomx@@@randomx@@YAXPEAUrandomx_cache@@@Z ENDP ; randomx::deallocCache<randomx::AlignedAllocator<64> >
_TEXT	ENDS
; Function compile flags: /Ogtpy
;	COMDAT ??$deallocCache@ULargePageAllocator@randomx@@@randomx@@YAXPEAUrandomx_cache@@@Z
_TEXT	SEGMENT
cache$ = 48
??$deallocCache@ULargePageAllocator@randomx@@@randomx@@YAXPEAUrandomx_cache@@@Z PROC ; randomx::deallocCache<randomx::LargePageAllocator>, COMDAT
; File D:\dev\francium_network\francium_agent\src\ext\randomx\repo\src\dataset.cpp
; Line 61
$LN16:
	push	rbx
	sub	rsp, 32					; 00000020H
	mov	rbx, rcx
; Line 62
	mov	rcx, QWORD PTR [rcx]
	test	rcx, rcx
	je	SHORT $LN2@deallocCac
; File D:\dev\francium_network\francium_agent\src\ext\randomx\repo\src\virtual_memory.cpp
; Line 185
	xor	edx, edx
	mov	r8d, 32768				; 00008000H
	call	QWORD PTR __imp_VirtualFree
$LN2@deallocCac:
; File D:\dev\francium_network\francium_agent\src\ext\randomx\repo\src\dataset.cpp
; Line 64
	mov	rbx, QWORD PTR [rbx+16]
	test	rbx, rbx
	je	SHORT $LN12@deallocCac
	mov	rcx, rbx
	call	??1JitCompilerX86@randomx@@QEAA@XZ	; randomx::JitCompilerX86::~JitCompilerX86
	mov	edx, 72					; 00000048H
	mov	rcx, rbx
; Line 66
	add	rsp, 32					; 00000020H
	pop	rbx
	jmp	??3@YAXPEAX_K@Z				; operator delete
$LN12@deallocCac:
	add	rsp, 32					; 00000020H
	pop	rbx
	ret	0
??$deallocCache@ULargePageAllocator@randomx@@@randomx@@YAXPEAUrandomx_cache@@@Z ENDP ; randomx::deallocCache<randomx::LargePageAllocator>
_TEXT	ENDS
; Function compile flags: /Ogtpy
;	COMDAT ?load32@@YAIPEBX@Z
_TEXT	SEGMENT
src$ = 8
?load32@@YAIPEBX@Z PROC					; load32, COMDAT
; File D:\dev\francium_network\francium_agent\src\ext\randomx\repo\src\blake2\endian.h
; Line 33
	mov	eax, DWORD PTR [rcx]
; Line 42
	ret	0
?load32@@YAIPEBX@Z ENDP					; load32
_TEXT	ENDS
; Function compile flags: /Ogtpy
;	COMDAT ?load64_native@@YA_KPEBX@Z
_TEXT	SEGMENT
src$ = 8
?load64_native@@YA_KPEBX@Z PROC				; load64_native, COMDAT
; File D:\dev\francium_network\francium_agent\src\ext\randomx\repo\src\blake2\endian.h
; Line 47
	mov	rax, QWORD PTR [rcx]
; Line 48
	ret	0
?load64_native@@YA_KPEBX@Z ENDP				; load64_native
_TEXT	ENDS
; Function compile flags: /Ogtpy
;	COMDAT ?store32@@YAXPEAXI@Z
_TEXT	SEGMENT
dst$ = 8
w$ = 16
?store32@@YAXPEAXI@Z PROC				; store32, COMDAT
; File D:\dev\francium_network\francium_agent\src\ext\randomx\repo\src\blake2\endian.h
; Line 69
	mov	DWORD PTR [rcx], edx
; Line 80
	ret	0
?store32@@YAXPEAXI@Z ENDP				; store32
_TEXT	ENDS
; Function compile flags: /Ogtpy
;	COMDAT ?getImm32@Instruction@randomx@@QEBAIXZ
_TEXT	SEGMENT
this$ = 8
?getImm32@Instruction@randomx@@QEBAIXZ PROC		; randomx::Instruction::getImm32, COMDAT
; File D:\dev\francium_network\francium_agent\src\ext\randomx\repo\src\instruction.hpp
; Line 78
	mov	eax, DWORD PTR [rcx+4]
; Line 79
	ret	0
?getImm32@Instruction@randomx@@QEBAIXZ ENDP		; randomx::Instruction::getImm32
_TEXT	ENDS
; Function compile flags: /Ogtpy
;	COMDAT ?setImm32@Instruction@randomx@@QEAAXI@Z
_TEXT	SEGMENT
this$ = 8
val$ = 16
?setImm32@Instruction@randomx@@QEAAXI@Z PROC		; randomx::Instruction::setImm32, COMDAT
; File D:\dev\francium_network\francium_agent\src\ext\randomx\repo\src\instruction.hpp
; Line 81
	mov	DWORD PTR [rcx+4], edx
; Line 82
	ret	0
?setImm32@Instruction@randomx@@QEAAXI@Z ENDP		; randomx::Instruction::setImm32
_TEXT	ENDS
; Function compile flags: /Ogtpy
;	COMDAT ??RSuperscalarProgram@randomx@@QEAAAEAVInstruction@1@H@Z
_TEXT	SEGMENT
this$ = 8
pc$ = 16
??RSuperscalarProgram@randomx@@QEAAAEAVInstruction@1@H@Z PROC ; randomx::SuperscalarProgram::operator(), COMDAT
; File D:\dev\francium_network\francium_agent\src\ext\randomx\repo\src\superscalar_program.hpp
; Line 40
	movsxd	rax, edx
	lea	rax, QWORD PTR [rcx+rax*8]
; Line 41
	ret	0
??RSuperscalarProgram@randomx@@QEAAAEAVInstruction@1@H@Z ENDP ; randomx::SuperscalarProgram::operator()
_TEXT	ENDS
; Function compile flags: /Ogtpy
;	COMDAT ?getAddressRegister@SuperscalarProgram@randomx@@QEAAHXZ
_TEXT	SEGMENT
this$ = 8
?getAddressRegister@SuperscalarProgram@randomx@@QEAAHXZ PROC ; randomx::SuperscalarProgram::getAddressRegister, COMDAT
; File D:\dev\francium_network\francium_agent\src\ext\randomx\repo\src\superscalar_program.hpp
; Line 53
	mov	eax, DWORD PTR [rcx+4100]
; Line 54
	ret	0
?getAddressRegister@SuperscalarProgram@randomx@@QEAAHXZ ENDP ; randomx::SuperscalarProgram::getAddressRegister
_TEXT	ENDS
; Function compile flags: /Ogtpy
;	COMDAT ?getMixBlock@randomx@@YAPEAE_KPEAE@Z
_TEXT	SEGMENT
registerValue$ = 8
memory$ = 16
?getMixBlock@randomx@@YAPEAE_KPEAE@Z PROC		; randomx::getMixBlock, COMDAT
; File D:\dev\francium_network\francium_agent\src\ext\randomx\repo\src\dataset.cpp
; Line 161
	and	ecx, 4194303				; 003fffffH
	shl	rcx, 6
	lea	rax, QWORD PTR [rdx+rcx]
; Line 162
	ret	0
?getMixBlock@randomx@@YAPEAE_KPEAE@Z ENDP		; randomx::getMixBlock
_TEXT	ENDS
; Function compile flags: /Ogtpy
;	COMDAT ?initDatasetItem@randomx@@YAXPEAUrandomx_cache@@PEAE_K@Z
_TEXT	SEGMENT
rl$ = 32
__$ArrayPad$ = 96
cache$ = 160
out$ = 168
itemNumber$ = 176
?initDatasetItem@randomx@@YAXPEAUrandomx_cache@@PEAE_K@Z PROC ; randomx::initDatasetItem, COMDAT
; File D:\dev\francium_network\francium_agent\src\ext\randomx\repo\src\dataset.cpp
; Line 164
$LN27:
	mov	QWORD PTR [rsp+24], rbx
	mov	QWORD PTR [rsp+32], rsi
	push	rbp
	push	rdi
	push	r12
	push	r14
	push	r15
	mov	rbp, rsp
	sub	rsp, 112				; 00000070H
	mov	rax, QWORD PTR __security_cookie
	xor	rax, rsp
	mov	QWORD PTR __$ArrayPad$[rbp-112], rax
	mov	r15, rcx
	mov	rbx, r8
; Line 168
	inc	r8
	mov	rax, 6364136223846793005		; 5851f42d4c957f2dH
	imul	r8, rax
; Line 169
	mov	rcx, -9148333072579190276		; 810a978a59f5a1fcH
	mov	rsi, rdx
	mov	QWORD PTR rl$[rbp-112], r8
	lea	rdi, QWORD PTR [r15+40]
	mov	rax, r8
	mov	r14d, 8
	xor	rax, rcx
; Line 170
	mov	rcx, -6381431487974942650		; a77099df38c2d846H
	mov	QWORD PTR rl$[rbp-104], rax
	mov	rax, r8
	xor	rax, rcx
; Line 171
	mov	rcx, -9140414860584924836		; 8126b91cbf22495cH
	mov	QWORD PTR rl$[rbp-96], rax
	mov	rax, r8
	xor	rax, rcx
; Line 172
	mov	rcx, 5281919268842080866		; 494d2597179f8a62H
	mov	QWORD PTR rl$[rbp-88], rax
	mov	rax, r8
	xor	rax, rcx
; Line 173
	mov	rcx, -7910590639137690612		; 9237efb9ceaaec0cH
	mov	QWORD PTR rl$[rbp-80], rax
	mov	rax, r8
	xor	rax, rcx
; Line 174
	mov	rcx, 3398623926847679864		; 2f2a56746ce62d78H
	mov	QWORD PTR rl$[rbp-72], rax
	mov	rax, r8
	xor	rax, rcx
	mov	QWORD PTR rl$[rbp-64], rax
; Line 175
	mov	rax, -8897639553701190322		; 84853bf7b62ce54eH
	xor	r8, rax
	mov	QWORD PTR rl$[rbp-56], r8
	npad	8
$LL4@initDatase:
; Line 161
	and	ebx, 4194303				; 003fffffH
	shl	rbx, 6
	add	rbx, QWORD PTR [r15]
; Line 178
	prefetchnta BYTE PTR [rbx]
; Line 181
	lea	r8, QWORD PTR [r15+33640]
	mov	rdx, rdi
	lea	rcx, QWORD PTR rl$[rbp-112]
	call	?executeSuperscalar@randomx@@YAXAEAY07_KAEAVSuperscalarProgram@1@PEAV?$vector@_KV?$allocator@_K@std@@@std@@@Z ; randomx::executeSuperscalar
; Line 184
	mov	rax, QWORD PTR [rbx]
	xor	QWORD PTR rl$[rbp-112], rax
	mov	rax, QWORD PTR [rbx+8]
	xor	QWORD PTR rl$[rbp-104], rax
	mov	rax, QWORD PTR [rbx+16]
	xor	QWORD PTR rl$[rbp-96], rax
	mov	rax, QWORD PTR [rbx+24]
	xor	QWORD PTR rl$[rbp-88], rax
	mov	rax, QWORD PTR [rbx+32]
	xor	QWORD PTR rl$[rbp-80], rax
	mov	rax, QWORD PTR [rbx+40]
	xor	QWORD PTR rl$[rbp-72], rax
	mov	rax, QWORD PTR [rbx+48]
	xor	QWORD PTR rl$[rbp-64], rax
	mov	rax, QWORD PTR [rbx+56]
; Line 186
	movsxd	rbx, DWORD PTR [rdi+4100]
	add	rdi, 4200				; 00001068H
	xor	QWORD PTR rl$[rbp-56], rax
	mov	rbx, QWORD PTR rl$[rbp+rbx*8-112]
	sub	r14, 1
	jne	SHORT $LL4@initDatase
; Line 189
	movaps	xmm0, XMMWORD PTR rl$[rbp-112]
	movaps	xmm1, XMMWORD PTR rl$[rbp-96]
	movups	XMMWORD PTR [rsi], xmm0
	movaps	xmm0, XMMWORD PTR rl$[rbp-80]
	movups	XMMWORD PTR [rsi+16], xmm1
	movaps	xmm1, XMMWORD PTR rl$[rbp-64]
	movups	XMMWORD PTR [rsi+32], xmm0
	movups	XMMWORD PTR [rsi+48], xmm1
; Line 190
	mov	rcx, QWORD PTR __$ArrayPad$[rbp-112]
	xor	rcx, rsp
	call	__security_check_cookie
	lea	r11, QWORD PTR [rsp+112]
	mov	rbx, QWORD PTR [r11+64]
	mov	rsi, QWORD PTR [r11+72]
	mov	rsp, r11
	pop	r15
	pop	r14
	pop	r12
	pop	rdi
	pop	rbp
	ret	0
?initDatasetItem@randomx@@YAXPEAUrandomx_cache@@PEAE_K@Z ENDP ; randomx::initDatasetItem
_TEXT	ENDS
; Function compile flags: /Ogtpy
;	COMDAT ?clear@?$vector@_KV?$allocator@_K@std@@@std@@QEAAXXZ
_TEXT	SEGMENT
this$ = 8
?clear@?$vector@_KV?$allocator@_K@std@@@std@@QEAAXXZ PROC ; std::vector<unsigned __int64,std::allocator<unsigned __int64> >::clear, COMDAT
; File D:\software\Visual Studio 2022\VC\Tools\MSVC\14.35.32215\include\vector
; Line 1829
	mov	rax, QWORD PTR [rcx]
	cmp	rax, QWORD PTR [rcx+8]
	je	SHORT $LN1@clear
; Line 1839
	mov	QWORD PTR [rcx+8], rax
$LN1@clear:
; Line 1840
	ret	0
?clear@?$vector@_KV?$allocator@_K@std@@@std@@QEAAXXZ ENDP ; std::vector<unsigned __int64,std::allocator<unsigned __int64> >::clear
_TEXT	ENDS
; Function compile flags: /Ogtpy
;	COMDAT ?push_back@?$vector@_KV?$allocator@_K@std@@@std@@QEAAXAEB_K@Z
_TEXT	SEGMENT
this$ = 8
_Val$ = 16
?push_back@?$vector@_KV?$allocator@_K@std@@@std@@QEAAXAEB_K@Z PROC ; std::vector<unsigned __int64,std::allocator<unsigned __int64> >::push_back, COMDAT
; File D:\software\Visual Studio 2022\VC\Tools\MSVC\14.35.32215\include\vector
; Line 935
	mov	r8, rdx
; Line 844
	mov	rdx, QWORD PTR [rcx+8]
	cmp	rdx, QWORD PTR [rcx+16]
	je	SHORT $LN4@push_back
; Line 860
	mov	rax, QWORD PTR [r8]
	mov	QWORD PTR [rdx], rax
; Line 869
	add	QWORD PTR [rcx+8], 8
; Line 937
	ret	0
$LN4@push_back:
; Line 848
	jmp	??$_Emplace_reallocate@AEB_K@?$vector@_KV?$allocator@_K@std@@@std@@AEAAPEA_KQEA_KAEB_K@Z ; std::vector<unsigned __int64,std::allocator<unsigned __int64> >::_Emplace_reallocate<unsigned __int64 const &>
?push_back@?$vector@_KV?$allocator@_K@std@@@std@@QEAAXAEB_K@Z ENDP ; std::vector<unsigned __int64,std::allocator<unsigned __int64> >::push_back
_TEXT	ENDS
; Function compile flags: /Ogtpy
;	COMDAT ??$_Emplace_one_at_back@AEB_K@?$vector@_KV?$allocator@_K@std@@@std@@AEAAAEA_KAEB_K@Z
_TEXT	SEGMENT
this$ = 8
<_Val_0>$ = 16
??$_Emplace_one_at_back@AEB_K@?$vector@_KV?$allocator@_K@std@@@std@@AEAAAEA_KAEB_K@Z PROC ; std::vector<unsigned __int64,std::allocator<unsigned __int64> >::_Emplace_one_at_back<unsigned __int64 const &>, COMDAT
; File D:\software\Visual Studio 2022\VC\Tools\MSVC\14.35.32215\include\vector
; Line 839
	mov	r8, rdx
; Line 844
	mov	rdx, QWORD PTR [rcx+8]
	cmp	rdx, QWORD PTR [rcx+16]
	je	SHORT $LN2@Emplace_on
; Line 860
	mov	rax, QWORD PTR [r8]
	mov	QWORD PTR [rdx], rax
; Line 868
	mov	rax, QWORD PTR [rcx+8]
; Line 869
	lea	rdx, QWORD PTR [rax+8]
	mov	QWORD PTR [rcx+8], rdx
; Line 849
	ret	0
$LN2@Emplace_on:
; Line 848
	jmp	??$_Emplace_reallocate@AEB_K@?$vector@_KV?$allocator@_K@std@@@std@@AEAAPEA_KQEA_KAEB_K@Z ; std::vector<unsigned __int64,std::allocator<unsigned __int64> >::_Emplace_reallocate<unsigned __int64 const &>
??$_Emplace_one_at_back@AEB_K@?$vector@_KV?$allocator@_K@std@@@std@@AEAAAEA_KAEB_K@Z ENDP ; std::vector<unsigned __int64,std::allocator<unsigned __int64> >::_Emplace_one_at_back<unsigned __int64 const &>
_TEXT	ENDS
; Function compile flags: /Ogtpy
;	COMDAT ??_GJitCompilerX86@randomx@@QEAAPEAXI@Z
_TEXT	SEGMENT
this$ = 48
__flags$dead$ = 56
??_GJitCompilerX86@randomx@@QEAAPEAXI@Z PROC		; randomx::JitCompilerX86::`scalar deleting destructor', COMDAT
$LN6:
	push	rbx
	sub	rsp, 32					; 00000020H
	mov	rbx, rcx
	call	??1JitCompilerX86@randomx@@QEAA@XZ	; randomx::JitCompilerX86::~JitCompilerX86
	mov	edx, 72					; 00000048H
	mov	rcx, rbx
	call	??3@YAXPEAX_K@Z				; operator delete
	mov	rax, rbx
	add	rsp, 32					; 00000020H
	pop	rbx
	ret	0
??_GJitCompilerX86@randomx@@QEAAPEAXI@Z ENDP		; randomx::JitCompilerX86::`scalar deleting destructor'
_TEXT	ENDS
; Function compile flags: /Ogtpy
;	COMDAT ??$forward@AEB_K@std@@YAAEB_KAEB_K@Z
_TEXT	SEGMENT
_Arg$ = 8
??$forward@AEB_K@std@@YAAEB_KAEB_K@Z PROC		; std::forward<unsigned __int64 const &>, COMDAT
; File D:\software\Visual Studio 2022\VC\Tools\MSVC\14.35.32215\include\type_traits
; Line 1427
	mov	rax, rcx
; Line 1428
	ret	0
??$forward@AEB_K@std@@YAAEB_KAEB_K@Z ENDP		; std::forward<unsigned __int64 const &>
_TEXT	ENDS
; Function compile flags: /Ogtpy
;	COMDAT ??$_Emplace_back_with_unused_capacity@AEB_K@?$vector@_KV?$allocator@_K@std@@@std@@AEAAAEA_KAEB_K@Z
_TEXT	SEGMENT
this$ = 8
<_Val_0>$ = 16
??$_Emplace_back_with_unused_capacity@AEB_K@?$vector@_KV?$allocator@_K@std@@@std@@AEAAAEA_KAEB_K@Z PROC ; std::vector<unsigned __int64,std::allocator<unsigned __int64> >::_Emplace_back_with_unused_capacity<unsigned __int64 const &>, COMDAT
; File D:\software\Visual Studio 2022\VC\Tools\MSVC\14.35.32215\include\vector
; Line 860
	mov	rax, QWORD PTR [rdx]
	mov	r8, QWORD PTR [rcx+8]
	mov	QWORD PTR [r8], rax
; Line 868
	mov	rax, QWORD PTR [rcx+8]
; Line 869
	lea	rdx, QWORD PTR [rax+8]
	mov	QWORD PTR [rcx+8], rdx
; Line 872
	ret	0
??$_Emplace_back_with_unused_capacity@AEB_K@?$vector@_KV?$allocator@_K@std@@@std@@AEAAAEA_KAEB_K@Z ENDP ; std::vector<unsigned __int64,std::allocator<unsigned __int64> >::_Emplace_back_with_unused_capacity<unsigned __int64 const &>
_TEXT	ENDS
; Function compile flags: /Ogtpy
;	COMDAT ??$_Emplace_reallocate@AEB_K@?$vector@_KV?$allocator@_K@std@@@std@@AEAAPEA_KQEA_KAEB_K@Z
_TEXT	SEGMENT
this$ = 80
_Whereptr$ = 88
<_Val_0>$ = 96
??$_Emplace_reallocate@AEB_K@?$vector@_KV?$allocator@_K@std@@@std@@AEAAPEA_KQEA_KAEB_K@Z PROC ; std::vector<unsigned __int64,std::allocator<unsigned __int64> >::_Emplace_reallocate<unsigned __int64 const &>, COMDAT
; File D:\software\Visual Studio 2022\VC\Tools\MSVC\14.35.32215\include\vector
; Line 875
$LN122:
	push	rbp
	push	rdi
	push	r12
	push	r14
	sub	rsp, 40					; 00000028H
; Line 885
	mov	rax, QWORD PTR [rcx+8]
	mov	rbp, rdx
	mov	rdx, QWORD PTR [rcx]
	mov	r14, rbp
	sub	r14, rdx
	sub	rax, rdx
	mov	r12, r8
	sar	r14, 3
	sar	rax, 3
; Line 887
	mov	r8, 2305843009213693951			; 1fffffffffffffffH
	mov	rdi, rcx
	cmp	rax, r8
	je	$LN120@Emplace_re
; Line 1942
	mov	rcx, QWORD PTR [rcx+16]
	sub	rcx, rdx
	mov	QWORD PTR [rsp+96], rbx
	sar	rcx, 3
	mov	QWORD PTR [rsp+104], rsi
; Line 2029
	mov	rdx, rcx
	shr	rdx, 1
	mov	QWORD PTR [rsp+32], r15
; Line 891
	lea	r15, QWORD PTR [rax+1]
; Line 2029
	mov	rax, r8
	sub	rax, rdx
	cmp	rcx, rax
	ja	$LN112@Emplace_re
; Line 2033
	lea	rax, QWORD PTR [rdx+rcx]
; File D:\software\Visual Studio 2022\VC\Tools\MSVC\14.35.32215\include\xmemory
; Line 60
	mov	rsi, r15
	cmp	rax, r15
	cmovae	rsi, rax
	cmp	rsi, r8
	ja	$LN112@Emplace_re
; Line 65
	lea	rsi, QWORD PTR [rsi*8]
; Line 228
	cmp	rsi, 4096				; 00001000H
	jb	SHORT $LN24@Emplace_re
; Line 129
	lea	rcx, QWORD PTR [rsi+39]
; Line 130
	cmp	rcx, rsi
	jbe	$LN112@Emplace_re
; Line 77
	call	??2@YAPEAX_K@Z				; operator new
; Line 135
	test	rax, rax
	je	$LN58@Emplace_re
; Line 136
	lea	rbx, QWORD PTR [rax+39]
	and	rbx, -32				; ffffffffffffffe0H
; Line 137
	mov	QWORD PTR [rbx-8], rax
; Line 229
	jmp	SHORT $LN23@Emplace_re
$LN24@Emplace_re:
; Line 234
	test	rsi, rsi
	je	SHORT $LN25@Emplace_re
; Line 77
	mov	rcx, rsi
	call	??2@YAPEAX_K@Z				; operator new
	mov	rbx, rax
; Line 235
	jmp	SHORT $LN23@Emplace_re
$LN25@Emplace_re:
; Line 238
	xor	ebx, ebx
$LN23@Emplace_re:
; File D:\software\Visual Studio 2022\VC\Tools\MSVC\14.35.32215\include\vector
; Line 899
	mov	rax, QWORD PTR [r12]
	lea	r14, QWORD PTR [rbx+r14*8]
	mov	QWORD PTR [r14], rax
; Line 902
	mov	rcx, rbx
	mov	r8, QWORD PTR [rdi+8]
	mov	rdx, QWORD PTR [rdi]
	cmp	rbp, r8
	jne	SHORT $LN4@Emplace_re
; File D:\software\Visual Studio 2022\VC\Tools\MSVC\14.35.32215\include\xutility
; Line 4238
	sub	r8, rdx
; File D:\software\Visual Studio 2022\VC\Tools\MSVC\14.35.32215\include\vector
; Line 908
	jmp	SHORT $LN118@Emplace_re
$LN4@Emplace_re:
; File D:\software\Visual Studio 2022\VC\Tools\MSVC\14.35.32215\include\xutility
; Line 4238
	mov	r8, rbp
	sub	r8, rdx
; Line 4239
	call	memmove
; Line 4238
	mov	r8, QWORD PTR [rdi+8]
; File D:\software\Visual Studio 2022\VC\Tools\MSVC\14.35.32215\include\vector
; Line 911
	lea	rcx, QWORD PTR [r14+8]
; File D:\software\Visual Studio 2022\VC\Tools\MSVC\14.35.32215\include\xutility
; Line 4238
	sub	r8, rbp
; Line 4239
	mov	rdx, rbp
$LN118@Emplace_re:
; File D:\software\Visual Studio 2022\VC\Tools\MSVC\14.35.32215\include\vector
; Line 911
	call	memmove
; Line 2086
	mov	rcx, QWORD PTR [rdi]
	test	rcx, rcx
	je	SHORT $LN51@Emplace_re
; Line 2089
	mov	rdx, QWORD PTR [rdi+16]
	sub	rdx, rcx
; File D:\software\Visual Studio 2022\VC\Tools\MSVC\14.35.32215\include\xmemory
; Line 829
	and	rdx, -8
; Line 251
	cmp	rdx, 4096				; 00001000H
	jb	SHORT $LN61@Emplace_re
; Line 150
	mov	r8, QWORD PTR [rcx-8]
	add	rdx, 39					; 00000027H
; Line 163
	sub	rcx, r8
; Line 164
	lea	rax, QWORD PTR [rcx-8]
	cmp	rax, 31
	ja	SHORT $LN58@Emplace_re
; Line 165
	mov	rcx, r8
$LN61@Emplace_re:
; Line 255
	call	??3@YAXPEAX_K@Z				; operator delete
$LN51@Emplace_re:
; File D:\software\Visual Studio 2022\VC\Tools\MSVC\14.35.32215\include\vector
; Line 2093
	lea	rcx, QWORD PTR [rbx+r15*8]
	mov	QWORD PTR [rdi], rbx
	mov	r15, QWORD PTR [rsp+32]
; Line 920
	mov	rax, r14
; Line 2093
	mov	QWORD PTR [rdi+8], rcx
; Line 2094
	lea	rcx, QWORD PTR [rsi+rbx]
	mov	rsi, QWORD PTR [rsp+104]
	mov	rbx, QWORD PTR [rsp+96]
	mov	QWORD PTR [rdi+16], rcx
; Line 921
	add	rsp, 40					; 00000028H
	pop	r14
	pop	r12
	pop	rdi
	pop	rbp
	ret	0
$LN58@Emplace_re:
; File D:\software\Visual Studio 2022\VC\Tools\MSVC\14.35.32215\include\xmemory
; Line 164
	call	_invalid_parameter_noinfo_noreturn
	int	3
$LN112@Emplace_re:
; Line 131
	call	?_Throw_bad_array_new_length@std@@YAXXZ	; std::_Throw_bad_array_new_length
	int	3
$LN120@Emplace_re:
; File D:\software\Visual Studio 2022\VC\Tools\MSVC\14.35.32215\include\vector
; Line 888
	call	?_Xlength@?$vector@_KV?$allocator@_K@std@@@std@@CAXXZ ; std::vector<unsigned __int64,std::allocator<unsigned __int64> >::_Xlength
	int	3
$LN117@Emplace_re:
??$_Emplace_reallocate@AEB_K@?$vector@_KV?$allocator@_K@std@@@std@@AEAAPEA_KQEA_KAEB_K@Z ENDP ; std::vector<unsigned __int64,std::allocator<unsigned __int64> >::_Emplace_reallocate<unsigned __int64 const &>
_TEXT	ENDS
; Function compile flags: /Ogtpy
;	COMDAT ??$_Construct_in_place@_KAEB_K@std@@YAXAEA_KAEB_K@Z
_TEXT	SEGMENT
_Obj$ = 8
<_Args_0>$ = 16
??$_Construct_in_place@_KAEB_K@std@@YAXAEA_KAEB_K@Z PROC ; std::_Construct_in_place<unsigned __int64,unsigned __int64 const &>, COMDAT
; File D:\software\Visual Studio 2022\VC\Tools\MSVC\14.35.32215\include\xutility
; Line 275
	mov	rax, QWORD PTR [rdx]
	mov	QWORD PTR [rcx], rax
; Line 277
	ret	0
??$_Construct_in_place@_KAEB_K@std@@YAXAEA_KAEB_K@Z ENDP ; std::_Construct_in_place<unsigned __int64,unsigned __int64 const &>
_TEXT	ENDS
; Function compile flags: /Ogtpy
;	COMDAT ??$construct@_KAEB_K@?$_Default_allocator_traits@V?$allocator@_K@std@@@std@@SAXAEAV?$allocator@_K@1@QEA_KAEB_K@Z
_TEXT	SEGMENT
__formal$dead$ = 8
_Ptr$ = 16
<_Args_0>$ = 24
??$construct@_KAEB_K@?$_Default_allocator_traits@V?$allocator@_K@std@@@std@@SAXAEAV?$allocator@_K@1@QEA_KAEB_K@Z PROC ; std::_Default_allocator_traits<std::allocator<unsigned __int64> >::construct<unsigned __int64,unsigned __int64 const &>, COMDAT
; File D:\software\Visual Studio 2022\VC\Tools\MSVC\14.35.32215\include\xmemory
; Line 680
	mov	rax, QWORD PTR [r8]
	mov	QWORD PTR [rdx], rax
; Line 682
	ret	0
??$construct@_KAEB_K@?$_Default_allocator_traits@V?$allocator@_K@std@@@std@@SAXAEAV?$allocator@_K@1@QEA_KAEB_K@Z ENDP ; std::_Default_allocator_traits<std::allocator<unsigned __int64> >::construct<unsigned __int64,unsigned __int64 const &>
_TEXT	ENDS
END
