; Listing generated by Microsoft (R) Optimizing Compiler Version 19.35.32216.1 

include listing.inc

INCLUDELIB OLDNAMES

PUBLIC	?codeDatasetInit@randomx@@3PEBEEB		; randomx::codeDatasetInit
PUBLIC	?codeLoopEnd@randomx@@3PEBEEB			; randomx::codeLoopEnd
PUBLIC	?engine@JitCompilerX86@randomx@@0PAP812@EAAXAEAVInstruction@2@H@ZA ; randomx::JitCompilerX86::engine
PUBLIC	?codeReadDatasetLightSshInit@randomx@@3PEBEEB	; randomx::codeReadDatasetLightSshInit
PUBLIC	?codeProgamStart@randomx@@3PEBEEB		; randomx::codeProgamStart
PUBLIC	?codeShhPrefetch@randomx@@3PEBEEB		; randomx::codeShhPrefetch
PUBLIC	?codeShhInit@randomx@@3PEBEEB			; randomx::codeShhInit
PUBLIC	?codeLoopBegin@randomx@@3PEBEEB			; randomx::codeLoopBegin
PUBLIC	?codeShhEnd@randomx@@3PEBEEB			; randomx::codeShhEnd
PUBLIC	?codeLoopStore@randomx@@3PEBEEB			; randomx::codeLoopStore
PUBLIC	?codeProgramEnd@randomx@@3PEBEEB		; randomx::codeProgramEnd
PUBLIC	?codeReadDataset@randomx@@3PEBEEB		; randomx::codeReadDataset
PUBLIC	?codeShhLoad@randomx@@3PEBEEB			; randomx::codeShhLoad
PUBLIC	?codeLoopLoad@randomx@@3PEBEEB			; randomx::codeLoopLoad
PUBLIC	?codeEpilogue@randomx@@3PEBEEB			; randomx::codeEpilogue
PUBLIC	?codeReadDatasetLightSshFin@randomx@@3PEBEEB	; randomx::codeReadDatasetLightSshFin
PUBLIC	?codePrologue@randomx@@3PEBEEB			; randomx::codePrologue
EXTRN	randomx_program_read_dataset_sshash_fin:PROC
EXTRN	randomx_program_prologue:PROC
EXTRN	randomx_prefetch_scratchpad:PROC
EXTRN	randomx_program_start:PROC
EXTRN	randomx_program_loop_begin:PROC
EXTRN	randomx_program_loop_load:PROC
EXTRN	randomx_program_read_dataset:PROC
EXTRN	randomx_sshash_load:PROC
EXTRN	randomx_sshash_prefetch:PROC
EXTRN	randomx_sshash_init:PROC
EXTRN	randomx_sshash_end:PROC
EXTRN	randomx_reciprocal_fast:PROC
EXTRN	randomx_program_read_dataset_sshash_init:PROC
EXTRN	randomx_program_loop_store:PROC
EXTRN	randomx_program_end:PROC
EXTRN	randomx_program_epilogue:PROC
EXTRN	randomx_dataset_init:PROC
EXTRN	randomx_prefetch_scratchpad_end:PROC
EXTRN	randomx_program_loop_end:PROC
?_Fake_alloc@std@@3U_Fake_allocator@1@B	ORG $+1		; std::_Fake_alloc
?SHUFPD@randomx@@3QBEB DB 066H				; randomx::SHUFPD
	DB	0fH
	DB	0c6H
?NOP1@randomx@@3QBEB DB 090H				; randomx::NOP1
?REX_LEA@randomx@@3QBEB DB 04fH				; randomx::REX_LEA
	DB	08dH
?LEA_32@randomx@@3QBEB DB 041H				; randomx::LEA_32
	DB	08dH
?REX_MOV_R64R@randomx@@3QBEB DB 04cH			; randomx::REX_MOV_R64R
	DB	08bH
	ORG $+2
?REX_NEG@randomx@@3QBEB DB 049H				; randomx::REX_NEG
	DB	0f7H
	ORG $+2
?REX_XCHG@randomx@@3QBEB DB 04dH			; randomx::REX_XCHG
	DB	087H
	ORG $+2
?REX_ROT_CL@randomx@@3QBEB DB 049H			; randomx::REX_ROT_CL
	DB	0d3H
	ORG $+2
?REX_IMUL_RRI@randomx@@3QBEB DB 04dH			; randomx::REX_IMUL_RRI
	DB	069H
	ORG $+2
?REX_MULPD@randomx@@3QBEB DB 066H			; randomx::REX_MULPD
	DB	041H
	DB	0fH
	DB	059H
?codeDatasetInit@randomx@@3PEBEEB DQ FLAT:randomx_dataset_init ; randomx::codeDatasetInit
?REX_MUL_M@randomx@@3QBEB DB 048H			; randomx::REX_MUL_M
	DB	0f7H
	ORG $+2
?AND_ECX_I@randomx@@3QBEB DB 081H			; randomx::AND_ECX_I
	DB	0e1H
	ORG $+2
?codeLoopEnd@randomx@@3PEBEEB DQ FLAT:randomx_program_loop_end ; randomx::codeLoopEnd
?ROL_RAX@randomx@@3QBEB DB 048H				; randomx::ROL_RAX
	DB	0c1H
	DB	0c0H
	ORG $+5
?engine@JitCompilerX86@randomx@@0PAP812@EAAXAEAVInstruction@2@H@ZA DQ FLAT:?h_IADD_RS@JitCompilerX86@randomx@@AEAAXAEAVInstruction@2@H@Z ; randomx::JitCompilerX86::engine
	DQ	FLAT:?h_IADD_RS@JitCompilerX86@randomx@@AEAAXAEAVInstruction@2@H@Z
	DQ	FLAT:?h_IADD_RS@JitCompilerX86@randomx@@AEAAXAEAVInstruction@2@H@Z
	DQ	FLAT:?h_IADD_RS@JitCompilerX86@randomx@@AEAAXAEAVInstruction@2@H@Z
	DQ	FLAT:?h_IADD_RS@JitCompilerX86@randomx@@AEAAXAEAVInstruction@2@H@Z
	DQ	FLAT:?h_IADD_RS@JitCompilerX86@randomx@@AEAAXAEAVInstruction@2@H@Z
	DQ	FLAT:?h_IADD_RS@JitCompilerX86@randomx@@AEAAXAEAVInstruction@2@H@Z
	DQ	FLAT:?h_IADD_RS@JitCompilerX86@randomx@@AEAAXAEAVInstruction@2@H@Z
	DQ	FLAT:?h_IADD_RS@JitCompilerX86@randomx@@AEAAXAEAVInstruction@2@H@Z
	DQ	FLAT:?h_IADD_RS@JitCompilerX86@randomx@@AEAAXAEAVInstruction@2@H@Z
	DQ	FLAT:?h_IADD_RS@JitCompilerX86@randomx@@AEAAXAEAVInstruction@2@H@Z
	DQ	FLAT:?h_IADD_RS@JitCompilerX86@randomx@@AEAAXAEAVInstruction@2@H@Z
	DQ	FLAT:?h_IADD_RS@JitCompilerX86@randomx@@AEAAXAEAVInstruction@2@H@Z
	DQ	FLAT:?h_IADD_RS@JitCompilerX86@randomx@@AEAAXAEAVInstruction@2@H@Z
	DQ	FLAT:?h_IADD_RS@JitCompilerX86@randomx@@AEAAXAEAVInstruction@2@H@Z
	DQ	FLAT:?h_IADD_RS@JitCompilerX86@randomx@@AEAAXAEAVInstruction@2@H@Z
	DQ	FLAT:?h_IADD_M@JitCompilerX86@randomx@@AEAAXAEAVInstruction@2@H@Z
	DQ	FLAT:?h_IADD_M@JitCompilerX86@randomx@@AEAAXAEAVInstruction@2@H@Z
	DQ	FLAT:?h_IADD_M@JitCompilerX86@randomx@@AEAAXAEAVInstruction@2@H@Z
	DQ	FLAT:?h_IADD_M@JitCompilerX86@randomx@@AEAAXAEAVInstruction@2@H@Z
	DQ	FLAT:?h_IADD_M@JitCompilerX86@randomx@@AEAAXAEAVInstruction@2@H@Z
	DQ	FLAT:?h_IADD_M@JitCompilerX86@randomx@@AEAAXAEAVInstruction@2@H@Z
	DQ	FLAT:?h_IADD_M@JitCompilerX86@randomx@@AEAAXAEAVInstruction@2@H@Z
	DQ	FLAT:?h_ISUB_R@JitCompilerX86@randomx@@AEAAXAEAVInstruction@2@H@Z
	DQ	FLAT:?h_ISUB_R@JitCompilerX86@randomx@@AEAAXAEAVInstruction@2@H@Z
	DQ	FLAT:?h_ISUB_R@JitCompilerX86@randomx@@AEAAXAEAVInstruction@2@H@Z
	DQ	FLAT:?h_ISUB_R@JitCompilerX86@randomx@@AEAAXAEAVInstruction@2@H@Z
	DQ	FLAT:?h_ISUB_R@JitCompilerX86@randomx@@AEAAXAEAVInstruction@2@H@Z
	DQ	FLAT:?h_ISUB_R@JitCompilerX86@randomx@@AEAAXAEAVInstruction@2@H@Z
	DQ	FLAT:?h_ISUB_R@JitCompilerX86@randomx@@AEAAXAEAVInstruction@2@H@Z
	DQ	FLAT:?h_ISUB_R@JitCompilerX86@randomx@@AEAAXAEAVInstruction@2@H@Z
	DQ	FLAT:?h_ISUB_R@JitCompilerX86@randomx@@AEAAXAEAVInstruction@2@H@Z
	DQ	FLAT:?h_ISUB_R@JitCompilerX86@randomx@@AEAAXAEAVInstruction@2@H@Z
	DQ	FLAT:?h_ISUB_R@JitCompilerX86@randomx@@AEAAXAEAVInstruction@2@H@Z
	DQ	FLAT:?h_ISUB_R@JitCompilerX86@randomx@@AEAAXAEAVInstruction@2@H@Z
	DQ	FLAT:?h_ISUB_R@JitCompilerX86@randomx@@AEAAXAEAVInstruction@2@H@Z
	DQ	FLAT:?h_ISUB_R@JitCompilerX86@randomx@@AEAAXAEAVInstruction@2@H@Z
	DQ	FLAT:?h_ISUB_R@JitCompilerX86@randomx@@AEAAXAEAVInstruction@2@H@Z
	DQ	FLAT:?h_ISUB_R@JitCompilerX86@randomx@@AEAAXAEAVInstruction@2@H@Z
	DQ	FLAT:?h_ISUB_M@JitCompilerX86@randomx@@AEAAXAEAVInstruction@2@H@Z
	DQ	FLAT:?h_ISUB_M@JitCompilerX86@randomx@@AEAAXAEAVInstruction@2@H@Z
	DQ	FLAT:?h_ISUB_M@JitCompilerX86@randomx@@AEAAXAEAVInstruction@2@H@Z
	DQ	FLAT:?h_ISUB_M@JitCompilerX86@randomx@@AEAAXAEAVInstruction@2@H@Z
	DQ	FLAT:?h_ISUB_M@JitCompilerX86@randomx@@AEAAXAEAVInstruction@2@H@Z
	DQ	FLAT:?h_ISUB_M@JitCompilerX86@randomx@@AEAAXAEAVInstruction@2@H@Z
	DQ	FLAT:?h_ISUB_M@JitCompilerX86@randomx@@AEAAXAEAVInstruction@2@H@Z
	DQ	FLAT:?h_IMUL_R@JitCompilerX86@randomx@@AEAAXAEAVInstruction@2@H@Z
	DQ	FLAT:?h_IMUL_R@JitCompilerX86@randomx@@AEAAXAEAVInstruction@2@H@Z
	DQ	FLAT:?h_IMUL_R@JitCompilerX86@randomx@@AEAAXAEAVInstruction@2@H@Z
	DQ	FLAT:?h_IMUL_R@JitCompilerX86@randomx@@AEAAXAEAVInstruction@2@H@Z
	DQ	FLAT:?h_IMUL_R@JitCompilerX86@randomx@@AEAAXAEAVInstruction@2@H@Z
	DQ	FLAT:?h_IMUL_R@JitCompilerX86@randomx@@AEAAXAEAVInstruction@2@H@Z
	DQ	FLAT:?h_IMUL_R@JitCompilerX86@randomx@@AEAAXAEAVInstruction@2@H@Z
	DQ	FLAT:?h_IMUL_R@JitCompilerX86@randomx@@AEAAXAEAVInstruction@2@H@Z
	DQ	FLAT:?h_IMUL_R@JitCompilerX86@randomx@@AEAAXAEAVInstruction@2@H@Z
	DQ	FLAT:?h_IMUL_R@JitCompilerX86@randomx@@AEAAXAEAVInstruction@2@H@Z
	DQ	FLAT:?h_IMUL_R@JitCompilerX86@randomx@@AEAAXAEAVInstruction@2@H@Z
	DQ	FLAT:?h_IMUL_R@JitCompilerX86@randomx@@AEAAXAEAVInstruction@2@H@Z
	DQ	FLAT:?h_IMUL_R@JitCompilerX86@randomx@@AEAAXAEAVInstruction@2@H@Z
	DQ	FLAT:?h_IMUL_R@JitCompilerX86@randomx@@AEAAXAEAVInstruction@2@H@Z
	DQ	FLAT:?h_IMUL_R@JitCompilerX86@randomx@@AEAAXAEAVInstruction@2@H@Z
	DQ	FLAT:?h_IMUL_R@JitCompilerX86@randomx@@AEAAXAEAVInstruction@2@H@Z
	DQ	FLAT:?h_IMUL_M@JitCompilerX86@randomx@@AEAAXAEAVInstruction@2@H@Z
	DQ	FLAT:?h_IMUL_M@JitCompilerX86@randomx@@AEAAXAEAVInstruction@2@H@Z
	DQ	FLAT:?h_IMUL_M@JitCompilerX86@randomx@@AEAAXAEAVInstruction@2@H@Z
	DQ	FLAT:?h_IMUL_M@JitCompilerX86@randomx@@AEAAXAEAVInstruction@2@H@Z
	DQ	FLAT:?h_IMULH_R@JitCompilerX86@randomx@@AEAAXAEAVInstruction@2@H@Z
	DQ	FLAT:?h_IMULH_R@JitCompilerX86@randomx@@AEAAXAEAVInstruction@2@H@Z
	DQ	FLAT:?h_IMULH_R@JitCompilerX86@randomx@@AEAAXAEAVInstruction@2@H@Z
	DQ	FLAT:?h_IMULH_R@JitCompilerX86@randomx@@AEAAXAEAVInstruction@2@H@Z
	DQ	FLAT:?h_IMULH_M@JitCompilerX86@randomx@@AEAAXAEAVInstruction@2@H@Z
	DQ	FLAT:?h_ISMULH_R@JitCompilerX86@randomx@@AEAAXAEAVInstruction@2@H@Z
	DQ	FLAT:?h_ISMULH_R@JitCompilerX86@randomx@@AEAAXAEAVInstruction@2@H@Z
	DQ	FLAT:?h_ISMULH_R@JitCompilerX86@randomx@@AEAAXAEAVInstruction@2@H@Z
	DQ	FLAT:?h_ISMULH_R@JitCompilerX86@randomx@@AEAAXAEAVInstruction@2@H@Z
	DQ	FLAT:?h_ISMULH_M@JitCompilerX86@randomx@@AEAAXAEAVInstruction@2@H@Z
	DQ	FLAT:?h_IMUL_RCP@JitCompilerX86@randomx@@AEAAXAEAVInstruction@2@H@Z
	DQ	FLAT:?h_IMUL_RCP@JitCompilerX86@randomx@@AEAAXAEAVInstruction@2@H@Z
	DQ	FLAT:?h_IMUL_RCP@JitCompilerX86@randomx@@AEAAXAEAVInstruction@2@H@Z
	DQ	FLAT:?h_IMUL_RCP@JitCompilerX86@randomx@@AEAAXAEAVInstruction@2@H@Z
	DQ	FLAT:?h_IMUL_RCP@JitCompilerX86@randomx@@AEAAXAEAVInstruction@2@H@Z
	DQ	FLAT:?h_IMUL_RCP@JitCompilerX86@randomx@@AEAAXAEAVInstruction@2@H@Z
	DQ	FLAT:?h_IMUL_RCP@JitCompilerX86@randomx@@AEAAXAEAVInstruction@2@H@Z
	DQ	FLAT:?h_IMUL_RCP@JitCompilerX86@randomx@@AEAAXAEAVInstruction@2@H@Z
	DQ	FLAT:?h_INEG_R@JitCompilerX86@randomx@@AEAAXAEAVInstruction@2@H@Z
	DQ	FLAT:?h_INEG_R@JitCompilerX86@randomx@@AEAAXAEAVInstruction@2@H@Z
	DQ	FLAT:?h_IXOR_R@JitCompilerX86@randomx@@AEAAXAEAVInstruction@2@H@Z
	DQ	FLAT:?h_IXOR_R@JitCompilerX86@randomx@@AEAAXAEAVInstruction@2@H@Z
	DQ	FLAT:?h_IXOR_R@JitCompilerX86@randomx@@AEAAXAEAVInstruction@2@H@Z
	DQ	FLAT:?h_IXOR_R@JitCompilerX86@randomx@@AEAAXAEAVInstruction@2@H@Z
	DQ	FLAT:?h_IXOR_R@JitCompilerX86@randomx@@AEAAXAEAVInstruction@2@H@Z
	DQ	FLAT:?h_IXOR_R@JitCompilerX86@randomx@@AEAAXAEAVInstruction@2@H@Z
	DQ	FLAT:?h_IXOR_R@JitCompilerX86@randomx@@AEAAXAEAVInstruction@2@H@Z
	DQ	FLAT:?h_IXOR_R@JitCompilerX86@randomx@@AEAAXAEAVInstruction@2@H@Z
	DQ	FLAT:?h_IXOR_R@JitCompilerX86@randomx@@AEAAXAEAVInstruction@2@H@Z
	DQ	FLAT:?h_IXOR_R@JitCompilerX86@randomx@@AEAAXAEAVInstruction@2@H@Z
	DQ	FLAT:?h_IXOR_R@JitCompilerX86@randomx@@AEAAXAEAVInstruction@2@H@Z
	DQ	FLAT:?h_IXOR_R@JitCompilerX86@randomx@@AEAAXAEAVInstruction@2@H@Z
	DQ	FLAT:?h_IXOR_R@JitCompilerX86@randomx@@AEAAXAEAVInstruction@2@H@Z
	DQ	FLAT:?h_IXOR_R@JitCompilerX86@randomx@@AEAAXAEAVInstruction@2@H@Z
	DQ	FLAT:?h_IXOR_R@JitCompilerX86@randomx@@AEAAXAEAVInstruction@2@H@Z
	DQ	FLAT:?h_IXOR_M@JitCompilerX86@randomx@@AEAAXAEAVInstruction@2@H@Z
	DQ	FLAT:?h_IXOR_M@JitCompilerX86@randomx@@AEAAXAEAVInstruction@2@H@Z
	DQ	FLAT:?h_IXOR_M@JitCompilerX86@randomx@@AEAAXAEAVInstruction@2@H@Z
	DQ	FLAT:?h_IXOR_M@JitCompilerX86@randomx@@AEAAXAEAVInstruction@2@H@Z
	DQ	FLAT:?h_IXOR_M@JitCompilerX86@randomx@@AEAAXAEAVInstruction@2@H@Z
	DQ	FLAT:?h_IROR_R@JitCompilerX86@randomx@@AEAAXAEAVInstruction@2@H@Z
	DQ	FLAT:?h_IROR_R@JitCompilerX86@randomx@@AEAAXAEAVInstruction@2@H@Z
	DQ	FLAT:?h_IROR_R@JitCompilerX86@randomx@@AEAAXAEAVInstruction@2@H@Z
	DQ	FLAT:?h_IROR_R@JitCompilerX86@randomx@@AEAAXAEAVInstruction@2@H@Z
	DQ	FLAT:?h_IROR_R@JitCompilerX86@randomx@@AEAAXAEAVInstruction@2@H@Z
	DQ	FLAT:?h_IROR_R@JitCompilerX86@randomx@@AEAAXAEAVInstruction@2@H@Z
	DQ	FLAT:?h_IROR_R@JitCompilerX86@randomx@@AEAAXAEAVInstruction@2@H@Z
	DQ	FLAT:?h_IROR_R@JitCompilerX86@randomx@@AEAAXAEAVInstruction@2@H@Z
	DQ	FLAT:?h_IROL_R@JitCompilerX86@randomx@@AEAAXAEAVInstruction@2@H@Z
	DQ	FLAT:?h_IROL_R@JitCompilerX86@randomx@@AEAAXAEAVInstruction@2@H@Z
	DQ	FLAT:?h_ISWAP_R@JitCompilerX86@randomx@@AEAAXAEAVInstruction@2@H@Z
	DQ	FLAT:?h_ISWAP_R@JitCompilerX86@randomx@@AEAAXAEAVInstruction@2@H@Z
	DQ	FLAT:?h_ISWAP_R@JitCompilerX86@randomx@@AEAAXAEAVInstruction@2@H@Z
	DQ	FLAT:?h_ISWAP_R@JitCompilerX86@randomx@@AEAAXAEAVInstruction@2@H@Z
	DQ	FLAT:?h_FSWAP_R@JitCompilerX86@randomx@@AEAAXAEAVInstruction@2@H@Z
	DQ	FLAT:?h_FSWAP_R@JitCompilerX86@randomx@@AEAAXAEAVInstruction@2@H@Z
	DQ	FLAT:?h_FSWAP_R@JitCompilerX86@randomx@@AEAAXAEAVInstruction@2@H@Z
	DQ	FLAT:?h_FSWAP_R@JitCompilerX86@randomx@@AEAAXAEAVInstruction@2@H@Z
	DQ	FLAT:?h_FADD_R@JitCompilerX86@randomx@@AEAAXAEAVInstruction@2@H@Z
	DQ	FLAT:?h_FADD_R@JitCompilerX86@randomx@@AEAAXAEAVInstruction@2@H@Z
	DQ	FLAT:?h_FADD_R@JitCompilerX86@randomx@@AEAAXAEAVInstruction@2@H@Z
	DQ	FLAT:?h_FADD_R@JitCompilerX86@randomx@@AEAAXAEAVInstruction@2@H@Z
	DQ	FLAT:?h_FADD_R@JitCompilerX86@randomx@@AEAAXAEAVInstruction@2@H@Z
	DQ	FLAT:?h_FADD_R@JitCompilerX86@randomx@@AEAAXAEAVInstruction@2@H@Z
	DQ	FLAT:?h_FADD_R@JitCompilerX86@randomx@@AEAAXAEAVInstruction@2@H@Z
	DQ	FLAT:?h_FADD_R@JitCompilerX86@randomx@@AEAAXAEAVInstruction@2@H@Z
	DQ	FLAT:?h_FADD_R@JitCompilerX86@randomx@@AEAAXAEAVInstruction@2@H@Z
	DQ	FLAT:?h_FADD_R@JitCompilerX86@randomx@@AEAAXAEAVInstruction@2@H@Z
	DQ	FLAT:?h_FADD_R@JitCompilerX86@randomx@@AEAAXAEAVInstruction@2@H@Z
	DQ	FLAT:?h_FADD_R@JitCompilerX86@randomx@@AEAAXAEAVInstruction@2@H@Z
	DQ	FLAT:?h_FADD_R@JitCompilerX86@randomx@@AEAAXAEAVInstruction@2@H@Z
	DQ	FLAT:?h_FADD_R@JitCompilerX86@randomx@@AEAAXAEAVInstruction@2@H@Z
	DQ	FLAT:?h_FADD_R@JitCompilerX86@randomx@@AEAAXAEAVInstruction@2@H@Z
	DQ	FLAT:?h_FADD_R@JitCompilerX86@randomx@@AEAAXAEAVInstruction@2@H@Z
	DQ	FLAT:?h_FADD_M@JitCompilerX86@randomx@@AEAAXAEAVInstruction@2@H@Z
	DQ	FLAT:?h_FADD_M@JitCompilerX86@randomx@@AEAAXAEAVInstruction@2@H@Z
	DQ	FLAT:?h_FADD_M@JitCompilerX86@randomx@@AEAAXAEAVInstruction@2@H@Z
	DQ	FLAT:?h_FADD_M@JitCompilerX86@randomx@@AEAAXAEAVInstruction@2@H@Z
	DQ	FLAT:?h_FADD_M@JitCompilerX86@randomx@@AEAAXAEAVInstruction@2@H@Z
	DQ	FLAT:?h_FSUB_R@JitCompilerX86@randomx@@AEAAXAEAVInstruction@2@H@Z
	DQ	FLAT:?h_FSUB_R@JitCompilerX86@randomx@@AEAAXAEAVInstruction@2@H@Z
	DQ	FLAT:?h_FSUB_R@JitCompilerX86@randomx@@AEAAXAEAVInstruction@2@H@Z
	DQ	FLAT:?h_FSUB_R@JitCompilerX86@randomx@@AEAAXAEAVInstruction@2@H@Z
	DQ	FLAT:?h_FSUB_R@JitCompilerX86@randomx@@AEAAXAEAVInstruction@2@H@Z
	DQ	FLAT:?h_FSUB_R@JitCompilerX86@randomx@@AEAAXAEAVInstruction@2@H@Z
	DQ	FLAT:?h_FSUB_R@JitCompilerX86@randomx@@AEAAXAEAVInstruction@2@H@Z
	DQ	FLAT:?h_FSUB_R@JitCompilerX86@randomx@@AEAAXAEAVInstruction@2@H@Z
	DQ	FLAT:?h_FSUB_R@JitCompilerX86@randomx@@AEAAXAEAVInstruction@2@H@Z
	DQ	FLAT:?h_FSUB_R@JitCompilerX86@randomx@@AEAAXAEAVInstruction@2@H@Z
	DQ	FLAT:?h_FSUB_R@JitCompilerX86@randomx@@AEAAXAEAVInstruction@2@H@Z
	DQ	FLAT:?h_FSUB_R@JitCompilerX86@randomx@@AEAAXAEAVInstruction@2@H@Z
	DQ	FLAT:?h_FSUB_R@JitCompilerX86@randomx@@AEAAXAEAVInstruction@2@H@Z
	DQ	FLAT:?h_FSUB_R@JitCompilerX86@randomx@@AEAAXAEAVInstruction@2@H@Z
	DQ	FLAT:?h_FSUB_R@JitCompilerX86@randomx@@AEAAXAEAVInstruction@2@H@Z
	DQ	FLAT:?h_FSUB_R@JitCompilerX86@randomx@@AEAAXAEAVInstruction@2@H@Z
	DQ	FLAT:?h_FSUB_M@JitCompilerX86@randomx@@AEAAXAEAVInstruction@2@H@Z
	DQ	FLAT:?h_FSUB_M@JitCompilerX86@randomx@@AEAAXAEAVInstruction@2@H@Z
	DQ	FLAT:?h_FSUB_M@JitCompilerX86@randomx@@AEAAXAEAVInstruction@2@H@Z
	DQ	FLAT:?h_FSUB_M@JitCompilerX86@randomx@@AEAAXAEAVInstruction@2@H@Z
	DQ	FLAT:?h_FSUB_M@JitCompilerX86@randomx@@AEAAXAEAVInstruction@2@H@Z
	DQ	FLAT:?h_FSCAL_R@JitCompilerX86@randomx@@AEAAXAEAVInstruction@2@H@Z
	DQ	FLAT:?h_FSCAL_R@JitCompilerX86@randomx@@AEAAXAEAVInstruction@2@H@Z
	DQ	FLAT:?h_FSCAL_R@JitCompilerX86@randomx@@AEAAXAEAVInstruction@2@H@Z
	DQ	FLAT:?h_FSCAL_R@JitCompilerX86@randomx@@AEAAXAEAVInstruction@2@H@Z
	DQ	FLAT:?h_FSCAL_R@JitCompilerX86@randomx@@AEAAXAEAVInstruction@2@H@Z
	DQ	FLAT:?h_FSCAL_R@JitCompilerX86@randomx@@AEAAXAEAVInstruction@2@H@Z
	DQ	FLAT:?h_FMUL_R@JitCompilerX86@randomx@@AEAAXAEAVInstruction@2@H@Z
	DQ	FLAT:?h_FMUL_R@JitCompilerX86@randomx@@AEAAXAEAVInstruction@2@H@Z
	DQ	FLAT:?h_FMUL_R@JitCompilerX86@randomx@@AEAAXAEAVInstruction@2@H@Z
	DQ	FLAT:?h_FMUL_R@JitCompilerX86@randomx@@AEAAXAEAVInstruction@2@H@Z
	DQ	FLAT:?h_FMUL_R@JitCompilerX86@randomx@@AEAAXAEAVInstruction@2@H@Z
	DQ	FLAT:?h_FMUL_R@JitCompilerX86@randomx@@AEAAXAEAVInstruction@2@H@Z
	DQ	FLAT:?h_FMUL_R@JitCompilerX86@randomx@@AEAAXAEAVInstruction@2@H@Z
	DQ	FLAT:?h_FMUL_R@JitCompilerX86@randomx@@AEAAXAEAVInstruction@2@H@Z
	DQ	FLAT:?h_FMUL_R@JitCompilerX86@randomx@@AEAAXAEAVInstruction@2@H@Z
	DQ	FLAT:?h_FMUL_R@JitCompilerX86@randomx@@AEAAXAEAVInstruction@2@H@Z
	DQ	FLAT:?h_FMUL_R@JitCompilerX86@randomx@@AEAAXAEAVInstruction@2@H@Z
	DQ	FLAT:?h_FMUL_R@JitCompilerX86@randomx@@AEAAXAEAVInstruction@2@H@Z
	DQ	FLAT:?h_FMUL_R@JitCompilerX86@randomx@@AEAAXAEAVInstruction@2@H@Z
	DQ	FLAT:?h_FMUL_R@JitCompilerX86@randomx@@AEAAXAEAVInstruction@2@H@Z
	DQ	FLAT:?h_FMUL_R@JitCompilerX86@randomx@@AEAAXAEAVInstruction@2@H@Z
	DQ	FLAT:?h_FMUL_R@JitCompilerX86@randomx@@AEAAXAEAVInstruction@2@H@Z
	DQ	FLAT:?h_FMUL_R@JitCompilerX86@randomx@@AEAAXAEAVInstruction@2@H@Z
	DQ	FLAT:?h_FMUL_R@JitCompilerX86@randomx@@AEAAXAEAVInstruction@2@H@Z
	DQ	FLAT:?h_FMUL_R@JitCompilerX86@randomx@@AEAAXAEAVInstruction@2@H@Z
	DQ	FLAT:?h_FMUL_R@JitCompilerX86@randomx@@AEAAXAEAVInstruction@2@H@Z
	DQ	FLAT:?h_FMUL_R@JitCompilerX86@randomx@@AEAAXAEAVInstruction@2@H@Z
	DQ	FLAT:?h_FMUL_R@JitCompilerX86@randomx@@AEAAXAEAVInstruction@2@H@Z
	DQ	FLAT:?h_FMUL_R@JitCompilerX86@randomx@@AEAAXAEAVInstruction@2@H@Z
	DQ	FLAT:?h_FMUL_R@JitCompilerX86@randomx@@AEAAXAEAVInstruction@2@H@Z
	DQ	FLAT:?h_FMUL_R@JitCompilerX86@randomx@@AEAAXAEAVInstruction@2@H@Z
	DQ	FLAT:?h_FMUL_R@JitCompilerX86@randomx@@AEAAXAEAVInstruction@2@H@Z
	DQ	FLAT:?h_FMUL_R@JitCompilerX86@randomx@@AEAAXAEAVInstruction@2@H@Z
	DQ	FLAT:?h_FMUL_R@JitCompilerX86@randomx@@AEAAXAEAVInstruction@2@H@Z
	DQ	FLAT:?h_FMUL_R@JitCompilerX86@randomx@@AEAAXAEAVInstruction@2@H@Z
	DQ	FLAT:?h_FMUL_R@JitCompilerX86@randomx@@AEAAXAEAVInstruction@2@H@Z
	DQ	FLAT:?h_FMUL_R@JitCompilerX86@randomx@@AEAAXAEAVInstruction@2@H@Z
	DQ	FLAT:?h_FMUL_R@JitCompilerX86@randomx@@AEAAXAEAVInstruction@2@H@Z
	DQ	FLAT:?h_FDIV_M@JitCompilerX86@randomx@@AEAAXAEAVInstruction@2@H@Z
	DQ	FLAT:?h_FDIV_M@JitCompilerX86@randomx@@AEAAXAEAVInstruction@2@H@Z
	DQ	FLAT:?h_FDIV_M@JitCompilerX86@randomx@@AEAAXAEAVInstruction@2@H@Z
	DQ	FLAT:?h_FDIV_M@JitCompilerX86@randomx@@AEAAXAEAVInstruction@2@H@Z
	DQ	FLAT:?h_FSQRT_R@JitCompilerX86@randomx@@AEAAXAEAVInstruction@2@H@Z
	DQ	FLAT:?h_FSQRT_R@JitCompilerX86@randomx@@AEAAXAEAVInstruction@2@H@Z
	DQ	FLAT:?h_FSQRT_R@JitCompilerX86@randomx@@AEAAXAEAVInstruction@2@H@Z
	DQ	FLAT:?h_FSQRT_R@JitCompilerX86@randomx@@AEAAXAEAVInstruction@2@H@Z
	DQ	FLAT:?h_FSQRT_R@JitCompilerX86@randomx@@AEAAXAEAVInstruction@2@H@Z
	DQ	FLAT:?h_FSQRT_R@JitCompilerX86@randomx@@AEAAXAEAVInstruction@2@H@Z
	DQ	FLAT:?h_CBRANCH@JitCompilerX86@randomx@@AEAAXAEAVInstruction@2@H@Z
	DQ	FLAT:?h_CBRANCH@JitCompilerX86@randomx@@AEAAXAEAVInstruction@2@H@Z
	DQ	FLAT:?h_CBRANCH@JitCompilerX86@randomx@@AEAAXAEAVInstruction@2@H@Z
	DQ	FLAT:?h_CBRANCH@JitCompilerX86@randomx@@AEAAXAEAVInstruction@2@H@Z
	DQ	FLAT:?h_CBRANCH@JitCompilerX86@randomx@@AEAAXAEAVInstruction@2@H@Z
	DQ	FLAT:?h_CBRANCH@JitCompilerX86@randomx@@AEAAXAEAVInstruction@2@H@Z
	DQ	FLAT:?h_CBRANCH@JitCompilerX86@randomx@@AEAAXAEAVInstruction@2@H@Z
	DQ	FLAT:?h_CBRANCH@JitCompilerX86@randomx@@AEAAXAEAVInstruction@2@H@Z
	DQ	FLAT:?h_CBRANCH@JitCompilerX86@randomx@@AEAAXAEAVInstruction@2@H@Z
	DQ	FLAT:?h_CBRANCH@JitCompilerX86@randomx@@AEAAXAEAVInstruction@2@H@Z
	DQ	FLAT:?h_CBRANCH@JitCompilerX86@randomx@@AEAAXAEAVInstruction@2@H@Z
	DQ	FLAT:?h_CBRANCH@JitCompilerX86@randomx@@AEAAXAEAVInstruction@2@H@Z
	DQ	FLAT:?h_CBRANCH@JitCompilerX86@randomx@@AEAAXAEAVInstruction@2@H@Z
	DQ	FLAT:?h_CBRANCH@JitCompilerX86@randomx@@AEAAXAEAVInstruction@2@H@Z
	DQ	FLAT:?h_CBRANCH@JitCompilerX86@randomx@@AEAAXAEAVInstruction@2@H@Z
	DQ	FLAT:?h_CBRANCH@JitCompilerX86@randomx@@AEAAXAEAVInstruction@2@H@Z
	DQ	FLAT:?h_CBRANCH@JitCompilerX86@randomx@@AEAAXAEAVInstruction@2@H@Z
	DQ	FLAT:?h_CBRANCH@JitCompilerX86@randomx@@AEAAXAEAVInstruction@2@H@Z
	DQ	FLAT:?h_CBRANCH@JitCompilerX86@randomx@@AEAAXAEAVInstruction@2@H@Z
	DQ	FLAT:?h_CBRANCH@JitCompilerX86@randomx@@AEAAXAEAVInstruction@2@H@Z
	DQ	FLAT:?h_CBRANCH@JitCompilerX86@randomx@@AEAAXAEAVInstruction@2@H@Z
	DQ	FLAT:?h_CBRANCH@JitCompilerX86@randomx@@AEAAXAEAVInstruction@2@H@Z
	DQ	FLAT:?h_CBRANCH@JitCompilerX86@randomx@@AEAAXAEAVInstruction@2@H@Z
	DQ	FLAT:?h_CBRANCH@JitCompilerX86@randomx@@AEAAXAEAVInstruction@2@H@Z
	DQ	FLAT:?h_CBRANCH@JitCompilerX86@randomx@@AEAAXAEAVInstruction@2@H@Z
	DQ	FLAT:?h_CFROUND@JitCompilerX86@randomx@@AEAAXAEAVInstruction@2@H@Z
	DQ	FLAT:?h_ISTORE@JitCompilerX86@randomx@@AEAAXAEAVInstruction@2@H@Z
	DQ	FLAT:?h_ISTORE@JitCompilerX86@randomx@@AEAAXAEAVInstruction@2@H@Z
	DQ	FLAT:?h_ISTORE@JitCompilerX86@randomx@@AEAAXAEAVInstruction@2@H@Z
	DQ	FLAT:?h_ISTORE@JitCompilerX86@randomx@@AEAAXAEAVInstruction@2@H@Z
	DQ	FLAT:?h_ISTORE@JitCompilerX86@randomx@@AEAAXAEAVInstruction@2@H@Z
	DQ	FLAT:?h_ISTORE@JitCompilerX86@randomx@@AEAAXAEAVInstruction@2@H@Z
	DQ	FLAT:?h_ISTORE@JitCompilerX86@randomx@@AEAAXAEAVInstruction@2@H@Z
	DQ	FLAT:?h_ISTORE@JitCompilerX86@randomx@@AEAAXAEAVInstruction@2@H@Z
	DQ	FLAT:?h_ISTORE@JitCompilerX86@randomx@@AEAAXAEAVInstruction@2@H@Z
	DQ	FLAT:?h_ISTORE@JitCompilerX86@randomx@@AEAAXAEAVInstruction@2@H@Z
	DQ	FLAT:?h_ISTORE@JitCompilerX86@randomx@@AEAAXAEAVInstruction@2@H@Z
	DQ	FLAT:?h_ISTORE@JitCompilerX86@randomx@@AEAAXAEAVInstruction@2@H@Z
	DQ	FLAT:?h_ISTORE@JitCompilerX86@randomx@@AEAAXAEAVInstruction@2@H@Z
	DQ	FLAT:?h_ISTORE@JitCompilerX86@randomx@@AEAAXAEAVInstruction@2@H@Z
	DQ	FLAT:?h_ISTORE@JitCompilerX86@randomx@@AEAAXAEAVInstruction@2@H@Z
	DQ	FLAT:?h_ISTORE@JitCompilerX86@randomx@@AEAAXAEAVInstruction@2@H@Z
?NOP8@randomx@@3QBEB DB 0fH				; randomx::NOP8
	DB	01fH
	DB	084H
	DB	00H
	DB	00H
	DB	00H
	DB	00H
	DB	00H
?REX_XOR_RAX_R64@randomx@@3QBEB DB 049H			; randomx::REX_XOR_RAX_R64
	DB	033H
	ORG $+2
?REX_IMUL_MEM@randomx@@3QBEB DB 048H			; randomx::REX_IMUL_MEM
	DB	0f7H
	DB	02cH
	DB	0eH
?codeReadDatasetLightSshInit@randomx@@3PEBEEB DQ FLAT:randomx_program_read_dataset_sshash_init ; randomx::codeReadDatasetLightSshInit
?NOP6@randomx@@3QBEB DB 066H				; randomx::NOP6
	DB	0fH
	DB	01fH
	DB	044H
	DB	00H
	DB	00H
	ORG $+2
?REX_CVTDQ2PD_XMM12@randomx@@3QBEB DB 0f3H		; randomx::REX_CVTDQ2PD_XMM12
	DB	044H
	DB	0fH
	DB	0e6H
	DB	024H
	DB	06H
	ORG $+2
?REX_XOR_RI@randomx@@3QBEB DB 049H			; randomx::REX_XOR_RI
	DB	081H
	ORG $+2
?SUB_EBX@randomx@@3QBEB DB 083H				; randomx::SUB_EBX
	DB	0ebH
	DB	01H
	ORG $+1
?codeProgamStart@randomx@@3PEBEEB DQ FLAT:randomx_program_start ; randomx::codeProgamStart
?codeShhPrefetch@randomx@@3PEBEEB DQ FLAT:randomx_sshash_prefetch ; randomx::codeShhPrefetch
?REX_XOR_RR@randomx@@3QBEB DB 04dH			; randomx::REX_XOR_RR
	DB	033H
	ORG $+2
?REX_XOR_RM@randomx@@3QBEB DB 04cH			; randomx::REX_XOR_RM
	DB	033H
	ORG $+2
?REX_TEST@randomx@@3QBEB DB 049H			; randomx::REX_TEST
	DB	0f7H
	ORG $+2
?SQRTPD@randomx@@3QBEB DB 066H				; randomx::SQRTPD
	DB	0fH
	DB	051H
	ORG $+1
?codeShhInit@randomx@@3PEBEEB DQ FLAT:randomx_sshash_init ; randomx::codeShhInit
?codeLoopBegin@randomx@@3PEBEEB DQ FLAT:randomx_program_loop_begin ; randomx::codeLoopBegin
?NOP7@randomx@@3QBEB DB 0fH				; randomx::NOP7
	DB	01fH
	DB	080H
	DB	00H
	DB	00H
	DB	00H
	DB	00H
	ORG $+1
?REX_XORPS@randomx@@3QBEB DB 041H			; randomx::REX_XORPS
	DB	0fH
	DB	057H
	ORG $+1
?JZ@randomx@@3QBEB DB 0fH				; randomx::JZ
	DB	084H
	ORG $+2
?REX_ANDPS_XMM12@randomx@@3QBEB DB 045H			; randomx::REX_ANDPS_XMM12
	DB	0fH
	DB	054H
	DB	0e5H
	DB	045H
	DB	0fH
	DB	056H
	DB	0e6H
?REX_SUBPD@randomx@@3QBEB DB 066H			; randomx::REX_SUBPD
	DB	041H
	DB	0fH
	DB	05cH
?REX_MOV_RR64@randomx@@3QBEB DB 049H			; randomx::REX_MOV_RR64
	DB	08bH
	ORG $+2
?codeShhEnd@randomx@@3PEBEEB DQ FLAT:randomx_sshash_end	; randomx::codeShhEnd
?AND_OR_MOV_LDMXCSR@randomx@@3QBEB DB 025H		; randomx::AND_OR_MOV_LDMXCSR
	DB	00H
	DB	060H
	DB	00H
	DB	00H
	DB	0dH
	DB	0c0H
	DB	09fH
	DB	00H
	DB	00H
	DB	050H
	DB	0fH
	DB	0aeH
	DB	014H
	DB	024H
	DB	058H
?REX_IMUL_RM@randomx@@3QBEB DB 04cH			; randomx::REX_IMUL_RM
	DB	0fH
	DB	0afH
	ORG $+1
?REX_DIVPD@randomx@@3QBEB DB 066H			; randomx::REX_DIVPD
	DB	041H
	DB	0fH
	DB	05eH
?codeLoopStore@randomx@@3PEBEEB DQ FLAT:randomx_program_loop_store ; randomx::codeLoopStore
?NOP3@randomx@@3QBEB DB 066H				; randomx::NOP3
	DB	066H
	DB	090H
	ORG $+1
?JNZ@randomx@@3QBEB DB 0fH				; randomx::JNZ
	DB	085H
	ORG $+2
?REX_MUL_MEM@randomx@@3QBEB DB 048H			; randomx::REX_MUL_MEM
	DB	0f7H
	DB	024H
	DB	0eH
?REX_ADD_RM@randomx@@3QBEB DB 04cH			; randomx::REX_ADD_RM
	DB	03H
	ORG $+2
?codeProgramEnd@randomx@@3PEBEEB DQ FLAT:randomx_program_end ; randomx::codeProgramEnd
?ADD_EBX_I@randomx@@3QBEB DB 081H			; randomx::ADD_EBX_I
	DB	0c3H
	ORG $+2
?REX_MOV_RR@randomx@@3QBEB DB 041H			; randomx::REX_MOV_RR
	DB	08bH
	ORG $+2
?REX_XOR_EAX@randomx@@3QBEB DB 041H			; randomx::REX_XOR_EAX
	DB	033H
	ORG $+2
?MOV_RAX_I@randomx@@3QBEB DB 048H			; randomx::MOV_RAX_I
	DB	0b8H
	ORG $+2
?NOP2@randomx@@3QBEB DB 066H				; randomx::NOP2
	DB	090H
	ORG $+2
?REX_IMUL_RR@randomx@@3QBEB DB 04dH			; randomx::REX_IMUL_RR
	DB	0fH
	DB	0afH
	ORG $+1
?REX_SUB_RR@randomx@@3QBEB DB 04dH			; randomx::REX_SUB_RR
	DB	02bH
	ORG $+2
?REX_SUB_RM@randomx@@3QBEB DB 04cH			; randomx::REX_SUB_RM
	DB	02bH
	ORG $+2
?codeReadDataset@randomx@@3PEBEEB DQ FLAT:randomx_program_read_dataset ; randomx::codeReadDataset
?NOP4@randomx@@3QBEB DB 0fH				; randomx::NOP4
	DB	01fH
	DB	040H
	DB	00H
?REX_MOV_MR@randomx@@3QBEB DB 04cH			; randomx::REX_MOV_MR
	DB	089H
	ORG $+2
?codeShhLoad@randomx@@3PEBEEB DQ FLAT:randomx_sshash_load ; randomx::codeShhLoad
?NOP5@randomx@@3QBEB DB 0fH				; randomx::NOP5
	DB	01fH
	DB	044H
	DB	00H
	DB	00H
	ORG $+3
?codeLoopLoad@randomx@@3PEBEEB DQ FLAT:randomx_program_loop_load ; randomx::codeLoopLoad
?codeEpilogue@randomx@@3PEBEEB DQ FLAT:randomx_program_epilogue ; randomx::codeEpilogue
?REX_81@randomx@@3QBEB DB 049H				; randomx::REX_81
	DB	081H
	ORG $+2
?REX_ADDPD@randomx@@3QBEB DB 066H			; randomx::REX_ADDPD
	DB	041H
	DB	0fH
	DB	058H
?codeReadDatasetLightSshFin@randomx@@3PEBEEB DQ FLAT:randomx_program_read_dataset_sshash_fin ; randomx::codeReadDatasetLightSshFin
?REX_ADD_I@randomx@@3QBEB DB 049H			; randomx::REX_ADD_I
	DB	081H
	ORG $+2
?REX_MUL_R@randomx@@3QBEB DB 049H			; randomx::REX_MUL_R
	DB	0f7H
	ORG $+2
?REX_ROT_I8@randomx@@3QBEB DB 049H			; randomx::REX_ROT_I8
	DB	0c1H
	ORG $+6
?codePrologue@randomx@@3PEBEEB DQ FLAT:randomx_program_prologue ; randomx::codePrologue
PUBLIC	??$construct@HH@?$_Default_allocator_traits@V?$allocator@H@std@@@std@@SAXAEAV?$allocator@H@1@QEAH$$QEAH@Z ; std::_Default_allocator_traits<std::allocator<int> >::construct<int,int>
PUBLIC	??$forward@H@std@@YA$$QEAHAEAH@Z		; std::forward<int>
PUBLIC	??$_Emplace_back@H@?$_Uninitialized_backout_al@V?$allocator@H@std@@@std@@QEAAX$$QEAH@Z ; std::_Uninitialized_backout_al<std::allocator<int> >::_Emplace_back<int>
PUBLIC	??$_To_address@PEAH@std@@YA?A_PAEBQEAH@Z	; std::_To_address<int *>
PUBLIC	??$_Copy_memmove@PEAHPEAH@std@@YAPEAHPEAH00@Z	; std::_Copy_memmove<int *,int *>
PUBLIC	??$_Voidify_iter@PEAH@std@@YAPEAXPEAH@Z		; std::_Voidify_iter<int *>
PUBLIC	??$addressof@H@std@@YAPEAHAEAH@Z		; std::addressof<int>
PUBLIC	??0?$_Uninitialized_backout_al@V?$allocator@H@std@@@std@@QEAA@PEAHAEAV?$allocator@H@1@@Z ; std::_Uninitialized_backout_al<std::allocator<int> >::_Uninitialized_backout_al<std::allocator<int> >
PUBLIC	??1?$_Uninitialized_backout_al@V?$allocator@H@std@@@std@@QEAA@XZ ; std::_Uninitialized_backout_al<std::allocator<int> >::~_Uninitialized_backout_al<std::allocator<int> >
PUBLIC	?_Release@?$_Uninitialized_backout_al@V?$allocator@H@std@@@std@@QEAAPEAHXZ ; std::_Uninitialized_backout_al<std::allocator<int> >::_Release
PUBLIC	??$_Uninitialized_move@PEAHV?$allocator@H@std@@@std@@YAPEAHQEAH0PEAHAEAV?$allocator@H@0@@Z ; std::_Uninitialized_move<int *,std::allocator<int> >
PUBLIC	??$_Get_unwrapped@AEBQEAH@std@@YA?A_TAEBQEAH@Z	; std::_Get_unwrapped<int * const &>
PUBLIC	??$construct@HAEBH@?$_Default_allocator_traits@V?$allocator@H@std@@@std@@SAXAEAV?$allocator@H@1@QEAHAEBH@Z ; std::_Default_allocator_traits<std::allocator<int> >::construct<int,int const &>
PUBLIC	??$_Unfancy@H@std@@YAPEAHPEAH@Z			; std::_Unfancy<int>
PUBLIC	??$_Construct_in_place@HAEBH@std@@YAXAEAHAEBH@Z	; std::_Construct_in_place<int,int const &>
PUBLIC	?_Get_first@?$_Compressed_pair@V?$allocator@H@std@@V?$_Vector_val@U?$_Simple_types@H@std@@@2@$00@std@@QEBAAEBV?$allocator@H@2@XZ ; std::_Compressed_pair<std::allocator<int>,std::_Vector_val<std::_Simple_types<int> >,1>::_Get_first
PUBLIC	?max_size@?$_Default_allocator_traits@V?$allocator@H@std@@@std@@SA_KAEBV?$allocator@H@2@@Z ; std::_Default_allocator_traits<std::allocator<int> >::max_size
PUBLIC	?capacity@?$vector@HV?$allocator@H@std@@@std@@QEBA_KXZ ; std::vector<int,std::allocator<int> >::capacity
PUBLIC	?_Getal@?$vector@HV?$allocator@H@std@@@std@@AEBAAEBV?$allocator@H@2@XZ ; std::vector<int,std::allocator<int> >::_Getal
PUBLIC	?allocate@?$allocator@H@std@@QEAAPEAH_K@Z	; std::allocator<int>::allocate
PUBLIC	?max_size@?$vector@HV?$allocator@H@std@@@std@@QEBA_KXZ ; std::vector<int,std::allocator<int> >::max_size
PUBLIC	?_Calculate_growth@?$vector@HV?$allocator@H@std@@@std@@AEBA_K_K@Z ; std::vector<int,std::allocator<int> >::_Calculate_growth
PUBLIC	?_Change_array@?$vector@HV?$allocator@H@std@@@std@@AEAAXQEAH_K1@Z ; std::vector<int,std::allocator<int> >::_Change_array
PUBLIC	?_Xlength@?$vector@HV?$allocator@H@std@@@std@@CAXXZ ; std::vector<int,std::allocator<int> >::_Xlength
PUBLIC	?_Orphan_range@?$vector@HV?$allocator@H@std@@@std@@AEBAXPEAH0@Z ; std::vector<int,std::allocator<int> >::_Orphan_range
PUBLIC	??$_Emplace_reallocate@AEBH@?$vector@HV?$allocator@H@std@@@std@@AEAAPEAHQEAHAEBH@Z ; std::vector<int,std::allocator<int> >::_Emplace_reallocate<int const &>
PUBLIC	??$_Emplace_back_with_unused_capacity@AEBH@?$vector@HV?$allocator@H@std@@@std@@AEAAAEAHAEBH@Z ; std::vector<int,std::allocator<int> >::_Emplace_back_with_unused_capacity<int const &>
PUBLIC	??$forward@AEBH@std@@YAAEBHAEBH@Z		; std::forward<int const &>
PUBLIC	??$move@AEAH@std@@YA$$QEAHAEAH@Z		; std::move<int &>
PUBLIC	??0?$allocator@H@std@@QEAA@XZ			; std::allocator<int>::allocator<int>
PUBLIC	??0?$_Vector_val@U?$_Simple_types@H@std@@@std@@QEAA@XZ ; std::_Vector_val<std::_Simple_types<int> >::_Vector_val<std::_Simple_types<int> >
PUBLIC	??$?0$$V@?$_Compressed_pair@V?$allocator@H@std@@V?$_Vector_val@U?$_Simple_types@H@std@@@2@$00@std@@QEAA@U_Zero_then_variadic_args_t@1@@Z ; std::_Compressed_pair<std::allocator<int>,std::_Vector_val<std::_Simple_types<int> >,1>::_Compressed_pair<std::allocator<int>,std::_Vector_val<std::_Simple_types<int> >,1><>
PUBLIC	??$_Emplace_one_at_back@AEBH@?$vector@HV?$allocator@H@std@@@std@@AEAAAEAHAEBH@Z ; std::vector<int,std::allocator<int> >::_Emplace_one_at_back<int const &>
PUBLIC	??$_Destroy_range@V?$allocator@H@std@@@std@@YAXPEAHQEAHAEAV?$allocator@H@0@@Z ; std::_Destroy_range<std::allocator<int> >
PUBLIC	??$emit@$0BA@@JitCompilerX86@randomx@@AEAAXAEAY0BA@$$CBE@Z ; randomx::JitCompilerX86::emit<16>
PUBLIC	??$emit@$07@JitCompilerX86@randomx@@AEAAXAEAY07$$CBE@Z ; randomx::JitCompilerX86::emit<8>
PUBLIC	??$emit@$05@JitCompilerX86@randomx@@AEAAXAEAY05$$CBE@Z ; randomx::JitCompilerX86::emit<6>
PUBLIC	??$emit@$03@JitCompilerX86@randomx@@AEAAXAEAY03$$CBE@Z ; randomx::JitCompilerX86::emit<4>
PUBLIC	??$emit@$02@JitCompilerX86@randomx@@AEAAXAEAY02$$CBE@Z ; randomx::JitCompilerX86::emit<3>
PUBLIC	??$emit@$01@JitCompilerX86@randomx@@AEAAXAEAY01$$CBE@Z ; randomx::JitCompilerX86::emit<2>
PUBLIC	?deallocate@?$allocator@H@std@@QEAAXQEAH_K@Z	; std::allocator<int>::deallocate
PUBLIC	?_Get_first@?$_Compressed_pair@V?$allocator@H@std@@V?$_Vector_val@U?$_Simple_types@H@std@@@2@$00@std@@QEAAAEAV?$allocator@H@2@XZ ; std::_Compressed_pair<std::allocator<int>,std::_Vector_val<std::_Simple_types<int> >,1>::_Get_first
PUBLIC	?_Tidy@?$vector@HV?$allocator@H@std@@@std@@AEAAXXZ ; std::vector<int,std::allocator<int> >::_Tidy
PUBLIC	?_Getal@?$vector@HV?$allocator@H@std@@@std@@AEAAAEAV?$allocator@H@2@XZ ; std::vector<int,std::allocator<int> >::_Getal
PUBLIC	??0?$vector@HV?$allocator@H@std@@@std@@QEAA@XZ	; std::vector<int,std::allocator<int> >::vector<int,std::allocator<int> >
PUBLIC	??1?$vector@HV?$allocator@H@std@@@std@@QEAA@XZ	; std::vector<int,std::allocator<int> >::~vector<int,std::allocator<int> >
PUBLIC	?push_back@?$vector@HV?$allocator@H@std@@@std@@QEAAXAEBH@Z ; std::vector<int,std::allocator<int> >::push_back
PUBLIC	?clear@?$vector@HV?$allocator@H@std@@@std@@QEAAXXZ ; std::vector<int,std::allocator<int> >::clear
PUBLIC	??A?$vector@HV?$allocator@H@std@@@std@@QEAAAEAH_K@Z ; std::vector<int,std::allocator<int> >::operator[]
PUBLIC	?h_ISTORE@JitCompilerX86@randomx@@AEAAXAEAVInstruction@2@H@Z ; randomx::JitCompilerX86::h_ISTORE
PUBLIC	?h_CBRANCH@JitCompilerX86@randomx@@AEAAXAEAVInstruction@2@H@Z ; randomx::JitCompilerX86::h_CBRANCH
PUBLIC	?h_CFROUND@JitCompilerX86@randomx@@AEAAXAEAVInstruction@2@H@Z ; randomx::JitCompilerX86::h_CFROUND
PUBLIC	?h_FSQRT_R@JitCompilerX86@randomx@@AEAAXAEAVInstruction@2@H@Z ; randomx::JitCompilerX86::h_FSQRT_R
PUBLIC	?h_FDIV_M@JitCompilerX86@randomx@@AEAAXAEAVInstruction@2@H@Z ; randomx::JitCompilerX86::h_FDIV_M
PUBLIC	?h_FMUL_R@JitCompilerX86@randomx@@AEAAXAEAVInstruction@2@H@Z ; randomx::JitCompilerX86::h_FMUL_R
PUBLIC	?h_FSCAL_R@JitCompilerX86@randomx@@AEAAXAEAVInstruction@2@H@Z ; randomx::JitCompilerX86::h_FSCAL_R
PUBLIC	?h_FSUB_M@JitCompilerX86@randomx@@AEAAXAEAVInstruction@2@H@Z ; randomx::JitCompilerX86::h_FSUB_M
PUBLIC	?h_FSUB_R@JitCompilerX86@randomx@@AEAAXAEAVInstruction@2@H@Z ; randomx::JitCompilerX86::h_FSUB_R
PUBLIC	?h_FADD_M@JitCompilerX86@randomx@@AEAAXAEAVInstruction@2@H@Z ; randomx::JitCompilerX86::h_FADD_M
PUBLIC	?h_FADD_R@JitCompilerX86@randomx@@AEAAXAEAVInstruction@2@H@Z ; randomx::JitCompilerX86::h_FADD_R
PUBLIC	?h_FSWAP_R@JitCompilerX86@randomx@@AEAAXAEAVInstruction@2@H@Z ; randomx::JitCompilerX86::h_FSWAP_R
PUBLIC	?h_ISWAP_R@JitCompilerX86@randomx@@AEAAXAEAVInstruction@2@H@Z ; randomx::JitCompilerX86::h_ISWAP_R
PUBLIC	?h_IROL_R@JitCompilerX86@randomx@@AEAAXAEAVInstruction@2@H@Z ; randomx::JitCompilerX86::h_IROL_R
PUBLIC	?h_IROR_R@JitCompilerX86@randomx@@AEAAXAEAVInstruction@2@H@Z ; randomx::JitCompilerX86::h_IROR_R
PUBLIC	?h_IXOR_M@JitCompilerX86@randomx@@AEAAXAEAVInstruction@2@H@Z ; randomx::JitCompilerX86::h_IXOR_M
PUBLIC	?h_IXOR_R@JitCompilerX86@randomx@@AEAAXAEAVInstruction@2@H@Z ; randomx::JitCompilerX86::h_IXOR_R
PUBLIC	?h_INEG_R@JitCompilerX86@randomx@@AEAAXAEAVInstruction@2@H@Z ; randomx::JitCompilerX86::h_INEG_R
PUBLIC	?h_IMUL_RCP@JitCompilerX86@randomx@@AEAAXAEAVInstruction@2@H@Z ; randomx::JitCompilerX86::h_IMUL_RCP
PUBLIC	?h_ISMULH_M@JitCompilerX86@randomx@@AEAAXAEAVInstruction@2@H@Z ; randomx::JitCompilerX86::h_ISMULH_M
PUBLIC	?h_ISMULH_R@JitCompilerX86@randomx@@AEAAXAEAVInstruction@2@H@Z ; randomx::JitCompilerX86::h_ISMULH_R
PUBLIC	?h_IMULH_M@JitCompilerX86@randomx@@AEAAXAEAVInstruction@2@H@Z ; randomx::JitCompilerX86::h_IMULH_M
PUBLIC	?h_IMULH_R@JitCompilerX86@randomx@@AEAAXAEAVInstruction@2@H@Z ; randomx::JitCompilerX86::h_IMULH_R
PUBLIC	?h_IMUL_M@JitCompilerX86@randomx@@AEAAXAEAVInstruction@2@H@Z ; randomx::JitCompilerX86::h_IMUL_M
PUBLIC	?h_IMUL_R@JitCompilerX86@randomx@@AEAAXAEAVInstruction@2@H@Z ; randomx::JitCompilerX86::h_IMUL_R
PUBLIC	?h_ISUB_M@JitCompilerX86@randomx@@AEAAXAEAVInstruction@2@H@Z ; randomx::JitCompilerX86::h_ISUB_M
PUBLIC	?h_ISUB_R@JitCompilerX86@randomx@@AEAAXAEAVInstruction@2@H@Z ; randomx::JitCompilerX86::h_ISUB_R
PUBLIC	?genSIB@JitCompilerX86@randomx@@AEAAXHHH@Z	; randomx::JitCompilerX86::genSIB
PUBLIC	?h_IADD_M@JitCompilerX86@randomx@@AEAAXAEAVInstruction@2@H@Z ; randomx::JitCompilerX86::h_IADD_M
PUBLIC	?h_IADD_RS@JitCompilerX86@randomx@@AEAAXAEAVInstruction@2@H@Z ; randomx::JitCompilerX86::h_IADD_RS
PUBLIC	?genAddressImm@JitCompilerX86@randomx@@AEAAXAEAVInstruction@2@@Z ; randomx::JitCompilerX86::genAddressImm
PUBLIC	?genAddressRegDst@JitCompilerX86@randomx@@AEAAXAEAVInstruction@2@@Z ; randomx::JitCompilerX86::genAddressRegDst
PUBLIC	?genAddressReg@JitCompilerX86@randomx@@AEAAXAEAVInstruction@2@_N@Z ; randomx::JitCompilerX86::genAddressReg
PUBLIC	?generateSuperscalarCode@JitCompilerX86@randomx@@AEAAXAEAVInstruction@2@AEAV?$vector@_KV?$allocator@_K@std@@@std@@@Z ; randomx::JitCompilerX86::generateSuperscalarCode
PUBLIC	?generateCode@JitCompilerX86@randomx@@AEAAXAEAVInstruction@2@H@Z ; randomx::JitCompilerX86::generateCode
PUBLIC	?generateProgramEpilogue@JitCompilerX86@randomx@@AEAAXAEAVProgram@2@AEAUProgramConfiguration@2@@Z ; randomx::JitCompilerX86::generateProgramEpilogue
PUBLIC	?generateProgramPrologue@JitCompilerX86@randomx@@AEAAXAEAVProgram@2@AEAUProgramConfiguration@2@@Z ; randomx::JitCompilerX86::generateProgramPrologue
PUBLIC	?getSize@Program@randomx@@QEAAIXZ		; randomx::Program::getSize
PUBLIC	?getModCond@Instruction@randomx@@QEBAHXZ	; randomx::Instruction::getModCond
PUBLIC	?getModShift@Instruction@randomx@@QEBAHXZ	; randomx::Instruction::getModShift
PUBLIC	?getModMem@Instruction@randomx@@QEBAHXZ		; randomx::Instruction::getModMem
PUBLIC	?emit@JitCompilerX86@randomx@@AEAAXPEBE_K@Z	; randomx::JitCompilerX86::emit
PUBLIC	?emit64@JitCompilerX86@randomx@@AEAAX_K@Z	; randomx::JitCompilerX86::emit64
PUBLIC	?emit32@JitCompilerX86@randomx@@AEAAXI@Z	; randomx::JitCompilerX86::emit32
PUBLIC	?emitByte@JitCompilerX86@randomx@@AEAAXE@Z	; randomx::JitCompilerX86::emitByte
PUBLIC	?isZeroOrPowerOf2@randomx@@YA_N_K@Z		; randomx::isZeroOrPowerOf2
PUBLIC	?enableAll@JitCompilerX86@randomx@@QEAAXXZ	; randomx::JitCompilerX86::enableAll
PUBLIC	?generateProgram@JitCompilerX86@randomx@@QEAAXAEAVProgram@2@AEAUProgramConfiguration@2@@Z ; randomx::JitCompilerX86::generateProgram
PUBLIC	?generateProgramLight@JitCompilerX86@randomx@@QEAAXAEAVProgram@2@AEAUProgramConfiguration@2@I@Z ; randomx::JitCompilerX86::generateProgramLight
PUBLIC	?enableExecution@JitCompilerX86@randomx@@QEAAXXZ ; randomx::JitCompilerX86::enableExecution
PUBLIC	?enableWriting@JitCompilerX86@randomx@@QEAAXXZ	; randomx::JitCompilerX86::enableWriting
PUBLIC	?generateDatasetInitCode@JitCompilerX86@randomx@@QEAAXXZ ; randomx::JitCompilerX86::generateDatasetInitCode
PUBLIC	??$generateSuperscalarHash@$07@JitCompilerX86@randomx@@QEAAXAEAY07VSuperscalarProgram@1@AEAV?$vector@_KV?$allocator@_K@std@@@std@@@Z ; randomx::JitCompilerX86::generateSuperscalarHash<8>
PUBLIC	??1JitCompilerX86@randomx@@QEAA@XZ		; randomx::JitCompilerX86::~JitCompilerX86
PUBLIC	??0JitCompilerX86@randomx@@QEAA@XZ		; randomx::JitCompilerX86::JitCompilerX86
?prologueSize@randomx@@3HB DD 01H DUP (?)		; randomx::prologueSize
?loopLoadSize@randomx@@3HB DD 01H DUP (?)		; randomx::loopLoadSize
?codeSshPrefetchSize@randomx@@3HB DD 01H DUP (?)	; randomx::codeSshPrefetchSize
?epilogueSize@randomx@@3HB DD 01H DUP (?)		; randomx::epilogueSize
?loopStoreSize@randomx@@3HB DD 01H DUP (?)		; randomx::loopStoreSize
?readDatasetSize@randomx@@3HB DD 01H DUP (?)		; randomx::readDatasetSize
?codeSshLoadSize@randomx@@3HB DD 01H DUP (?)		; randomx::codeSshLoadSize
?readDatasetLightFinSize@randomx@@3HB DD 01H DUP (?)	; randomx::readDatasetLightFinSize
?readDatasetLightInitSize@randomx@@3HB DD 01H DUP (?)	; randomx::readDatasetLightInitSize
?codeSshInitSize@randomx@@3HB DD 01H DUP (?)		; randomx::codeSshInitSize
?epilogueOffset@randomx@@3HB DD 01H DUP (?)		; randomx::epilogueOffset
?datasetInitSize@randomx@@3HB DD 01H DUP (?)		; randomx::datasetInitSize
_BSS	ENDS
;	COMDAT pdata
pdata	SEGMENT
$pdata$??$_Copy_memmove@PEAHPEAH@std@@YAPEAHPEAH00@Z DD imagerel $LN4
	DD	imagerel $LN4+48
	DD	imagerel $unwind$??$_Copy_memmove@PEAHPEAH@std@@YAPEAHPEAH00@Z
pdata	ENDS
;	COMDAT pdata
pdata	SEGMENT
$pdata$??$_Uninitialized_move@PEAHV?$allocator@H@std@@@std@@YAPEAHQEAH0PEAHAEAV?$allocator@H@0@@Z DD imagerel $LN16
	DD	imagerel $LN16+52
	DD	imagerel $unwind$??$_Uninitialized_move@PEAHV?$allocator@H@std@@@std@@YAPEAHQEAH0PEAHAEAV?$allocator@H@0@@Z
pdata	ENDS
;	COMDAT pdata
pdata	SEGMENT
$pdata$?allocate@?$allocator@H@std@@QEAAPEAH_K@Z DD imagerel $LN31
	DD	imagerel $LN31+111
	DD	imagerel $unwind$?allocate@?$allocator@H@std@@QEAAPEAH_K@Z
pdata	ENDS
;	COMDAT pdata
pdata	SEGMENT
$pdata$?_Change_array@?$vector@HV?$allocator@H@std@@@std@@AEAAXQEAH_K1@Z DD imagerel $LN25
	DD	imagerel $LN25+135
	DD	imagerel $unwind$?_Change_array@?$vector@HV?$allocator@H@std@@@std@@AEAAXQEAH_K1@Z
pdata	ENDS
;	COMDAT pdata
pdata	SEGMENT
$pdata$?_Xlength@?$vector@HV?$allocator@H@std@@@std@@CAXXZ DD imagerel $LN4
	DD	imagerel $LN4+17
	DD	imagerel $unwind$?_Xlength@?$vector@HV?$allocator@H@std@@@std@@CAXXZ
pdata	ENDS
;	COMDAT pdata
pdata	SEGMENT
$pdata$??$_Emplace_reallocate@AEBH@?$vector@HV?$allocator@H@std@@@std@@AEAAPEAHQEAHAEBH@Z DD imagerel $LN116
	DD	imagerel $LN116+70
	DD	imagerel $unwind$??$_Emplace_reallocate@AEBH@?$vector@HV?$allocator@H@std@@@std@@AEAAPEAHQEAHAEBH@Z
pdata	ENDS
;	COMDAT pdata
pdata	SEGMENT
$pdata$2$??$_Emplace_reallocate@AEBH@?$vector@HV?$allocator@H@std@@@std@@AEAAPEAHQEAHAEBH@Z DD imagerel $LN116+70
	DD	imagerel $LN116+381
	DD	imagerel $chain$2$??$_Emplace_reallocate@AEBH@?$vector@HV?$allocator@H@std@@@std@@AEAAPEAHQEAHAEBH@Z
pdata	ENDS
;	COMDAT pdata
pdata	SEGMENT
$pdata$4$??$_Emplace_reallocate@AEBH@?$vector@HV?$allocator@H@std@@@std@@AEAAPEAHQEAHAEBH@Z DD imagerel $LN116+381
	DD	imagerel $LN116+393
	DD	imagerel $chain$4$??$_Emplace_reallocate@AEBH@?$vector@HV?$allocator@H@std@@@std@@AEAAPEAHQEAHAEBH@Z
pdata	ENDS
;	COMDAT pdata
pdata	SEGMENT
$pdata$5$??$_Emplace_reallocate@AEBH@?$vector@HV?$allocator@H@std@@@std@@AEAAPEAHQEAHAEBH@Z DD imagerel $LN116+393
	DD	imagerel $LN116+399
	DD	imagerel $chain$5$??$_Emplace_reallocate@AEBH@?$vector@HV?$allocator@H@std@@@std@@AEAAPEAHQEAHAEBH@Z
pdata	ENDS
;	COMDAT pdata
pdata	SEGMENT
$pdata$?deallocate@?$allocator@H@std@@QEAAXQEAH_K@Z DD imagerel $LN21
	DD	imagerel $LN21+66
	DD	imagerel $unwind$?deallocate@?$allocator@H@std@@QEAAXQEAH_K@Z
pdata	ENDS
;	COMDAT pdata
pdata	SEGMENT
$pdata$?_Tidy@?$vector@HV?$allocator@H@std@@@std@@AEAAXXZ DD imagerel $LN25
	DD	imagerel $LN25+91
	DD	imagerel $unwind$?_Tidy@?$vector@HV?$allocator@H@std@@@std@@AEAAXXZ
pdata	ENDS
;	COMDAT pdata
pdata	SEGMENT
$pdata$??1?$vector@HV?$allocator@H@std@@@std@@QEAA@XZ DD imagerel $LN28
	DD	imagerel $LN28+91
	DD	imagerel $unwind$??1?$vector@HV?$allocator@H@std@@@std@@QEAA@XZ
pdata	ENDS
;	COMDAT pdata
pdata	SEGMENT
$pdata$?h_CBRANCH@JitCompilerX86@randomx@@AEAAXAEAVInstruction@2@H@Z DD imagerel $LN46
	DD	imagerel $LN46+282
	DD	imagerel $unwind$?h_CBRANCH@JitCompilerX86@randomx@@AEAAXAEAVInstruction@2@H@Z
pdata	ENDS
;	COMDAT pdata
pdata	SEGMENT
$pdata$?h_FDIV_M@JitCompilerX86@randomx@@AEAAXAEAVInstruction@2@H@Z DD imagerel $LN18
	DD	imagerel $LN18+138
	DD	imagerel $unwind$?h_FDIV_M@JitCompilerX86@randomx@@AEAAXAEAVInstruction@2@H@Z
pdata	ENDS
;	COMDAT pdata
pdata	SEGMENT
$pdata$?h_FSUB_M@JitCompilerX86@randomx@@AEAAXAEAVInstruction@2@H@Z DD imagerel $LN14
	DD	imagerel $LN14+115
	DD	imagerel $unwind$?h_FSUB_M@JitCompilerX86@randomx@@AEAAXAEAVInstruction@2@H@Z
pdata	ENDS
;	COMDAT pdata
pdata	SEGMENT
$pdata$?h_FADD_M@JitCompilerX86@randomx@@AEAAXAEAVInstruction@2@H@Z DD imagerel $LN14
	DD	imagerel $LN14+115
	DD	imagerel $unwind$?h_FADD_M@JitCompilerX86@randomx@@AEAAXAEAVInstruction@2@H@Z
pdata	ENDS
;	COMDAT pdata
pdata	SEGMENT
$pdata$?h_IXOR_M@JitCompilerX86@randomx@@AEAAXAEAVInstruction@2@H@Z DD imagerel $LN24
	DD	imagerel $LN24+213
	DD	imagerel $unwind$?h_IXOR_M@JitCompilerX86@randomx@@AEAAXAEAVInstruction@2@H@Z
pdata	ENDS
;	COMDAT pdata
pdata	SEGMENT
$pdata$?h_IMUL_RCP@JitCompilerX86@randomx@@AEAAXAEAVInstruction@2@H@Z DD imagerel $LN19
	DD	imagerel $LN19+149
	DD	imagerel $unwind$?h_IMUL_RCP@JitCompilerX86@randomx@@AEAAXAEAVInstruction@2@H@Z
pdata	ENDS
;	COMDAT pdata
pdata	SEGMENT
$pdata$?h_ISMULH_M@JitCompilerX86@randomx@@AEAAXAEAVInstruction@2@H@Z DD imagerel $LN38
	DD	imagerel $LN38+313
	DD	imagerel $unwind$?h_ISMULH_M@JitCompilerX86@randomx@@AEAAXAEAVInstruction@2@H@Z
pdata	ENDS
;	COMDAT pdata
pdata	SEGMENT
$pdata$?h_IMULH_M@JitCompilerX86@randomx@@AEAAXAEAVInstruction@2@H@Z DD imagerel $LN38
	DD	imagerel $LN38+313
	DD	imagerel $unwind$?h_IMULH_M@JitCompilerX86@randomx@@AEAAXAEAVInstruction@2@H@Z
pdata	ENDS
;	COMDAT pdata
pdata	SEGMENT
$pdata$?h_IMUL_M@JitCompilerX86@randomx@@AEAAXAEAVInstruction@2@H@Z DD imagerel $LN24
	DD	imagerel $LN24+231
	DD	imagerel $unwind$?h_IMUL_M@JitCompilerX86@randomx@@AEAAXAEAVInstruction@2@H@Z
pdata	ENDS
;	COMDAT pdata
pdata	SEGMENT
$pdata$?h_ISUB_M@JitCompilerX86@randomx@@AEAAXAEAVInstruction@2@H@Z DD imagerel $LN24
	DD	imagerel $LN24+213
	DD	imagerel $unwind$?h_ISUB_M@JitCompilerX86@randomx@@AEAAXAEAVInstruction@2@H@Z
pdata	ENDS
;	COMDAT pdata
pdata	SEGMENT
$pdata$?h_IADD_M@JitCompilerX86@randomx@@AEAAXAEAVInstruction@2@H@Z DD imagerel $LN24
	DD	imagerel $LN24+213
	DD	imagerel $unwind$?h_IADD_M@JitCompilerX86@randomx@@AEAAXAEAVInstruction@2@H@Z
pdata	ENDS
;	COMDAT pdata
pdata	SEGMENT
$pdata$?genAddressReg@JitCompilerX86@randomx@@AEAAXAEAVInstruction@2@_N@Z DD imagerel $LN28
	DD	imagerel $LN28+222
	DD	imagerel $unwind$?genAddressReg@JitCompilerX86@randomx@@AEAAXAEAVInstruction@2@_N@Z
pdata	ENDS
;	COMDAT pdata
pdata	SEGMENT
$pdata$?generateSuperscalarCode@JitCompilerX86@randomx@@AEAAXAEAVInstruction@2@AEAV?$vector@_KV?$allocator@_K@std@@@std@@@Z DD imagerel $LN167
	DD	imagerel $LN167+840
	DD	imagerel $unwind$?generateSuperscalarCode@JitCompilerX86@randomx@@AEAAXAEAVInstruction@2@AEAV?$vector@_KV?$allocator@_K@std@@@std@@@Z
pdata	ENDS
;	COMDAT pdata
pdata	SEGMENT
$pdata$?generateCode@JitCompilerX86@randomx@@AEAAXAEAVInstruction@2@H@Z DD imagerel $LN11
	DD	imagerel $LN11+93
	DD	imagerel $unwind$?generateCode@JitCompilerX86@randomx@@AEAAXAEAVInstruction@2@H@Z
pdata	ENDS
;	COMDAT pdata
pdata	SEGMENT
$pdata$?generateProgramEpilogue@JitCompilerX86@randomx@@AEAAXAEAVProgram@2@AEAUProgramConfiguration@2@@Z DD imagerel $LN32
	DD	imagerel $LN32+322
	DD	imagerel $unwind$?generateProgramEpilogue@JitCompilerX86@randomx@@AEAAXAEAVProgram@2@AEAUProgramConfiguration@2@@Z
pdata	ENDS
;	COMDAT pdata
pdata	SEGMENT
$pdata$?generateProgramPrologue@JitCompilerX86@randomx@@AEAAXAEAVProgram@2@AEAUProgramConfiguration@2@@Z DD imagerel $LN52
	DD	imagerel $LN52+387
	DD	imagerel $unwind$?generateProgramPrologue@JitCompilerX86@randomx@@AEAAXAEAVProgram@2@AEAUProgramConfiguration@2@@Z
pdata	ENDS
;	COMDAT pdata
pdata	SEGMENT
$pdata$?emit@JitCompilerX86@randomx@@AEAAXPEBE_K@Z DD imagerel $LN4
	DD	imagerel $LN4+43
	DD	imagerel $unwind$?emit@JitCompilerX86@randomx@@AEAAXPEBE_K@Z
pdata	ENDS
;	COMDAT pdata
pdata	SEGMENT
$pdata$?enableAll@JitCompilerX86@randomx@@QEAAXXZ DD imagerel $LN18
	DD	imagerel $LN18+116
	DD	imagerel $unwind$?enableAll@JitCompilerX86@randomx@@QEAAXXZ
pdata	ENDS
;	COMDAT pdata
pdata	SEGMENT
$pdata$?generateProgram@JitCompilerX86@randomx@@QEAAXAEAVProgram@2@AEAUProgramConfiguration@2@@Z DD imagerel $LN4
	DD	imagerel $LN4+85
	DD	imagerel $unwind$?generateProgram@JitCompilerX86@randomx@@QEAAXAEAVProgram@2@AEAUProgramConfiguration@2@@Z
pdata	ENDS
;	COMDAT pdata
pdata	SEGMENT
$pdata$?generateProgramLight@JitCompilerX86@randomx@@QEAAXAEAVProgram@2@AEAUProgramConfiguration@2@I@Z DD imagerel $LN18
	DD	imagerel $LN18+213
	DD	imagerel $unwind$?generateProgramLight@JitCompilerX86@randomx@@QEAAXAEAVProgram@2@AEAUProgramConfiguration@2@I@Z
pdata	ENDS
;	COMDAT pdata
pdata	SEGMENT
$pdata$?enableExecution@JitCompilerX86@randomx@@QEAAXXZ DD imagerel $LN18
	DD	imagerel $LN18+116
	DD	imagerel $unwind$?enableExecution@JitCompilerX86@randomx@@QEAAXXZ
pdata	ENDS
;	COMDAT pdata
pdata	SEGMENT
$pdata$?enableWriting@JitCompilerX86@randomx@@QEAAXXZ DD imagerel $LN18
	DD	imagerel $LN18+116
	DD	imagerel $unwind$?enableWriting@JitCompilerX86@randomx@@QEAAXXZ
pdata	ENDS
;	COMDAT pdata
pdata	SEGMENT
$pdata$??$generateSuperscalarHash@$07@JitCompilerX86@randomx@@QEAAXAEAY07VSuperscalarProgram@1@AEAV?$vector@_KV?$allocator@_K@std@@@std@@@Z DD imagerel $LN33
	DD	imagerel $LN33+317
	DD	imagerel $unwind$??$generateSuperscalarHash@$07@JitCompilerX86@randomx@@QEAAXAEAY07VSuperscalarProgram@1@AEAV?$vector@_KV?$allocator@_K@std@@@std@@@Z
pdata	ENDS
;	COMDAT pdata
pdata	SEGMENT
$pdata$??1JitCompilerX86@randomx@@QEAA@XZ DD imagerel $LN33
	DD	imagerel $LN33+109
	DD	imagerel $unwind$??1JitCompilerX86@randomx@@QEAA@XZ
pdata	ENDS
;	COMDAT pdata
pdata	SEGMENT
$pdata$??0JitCompilerX86@randomx@@QEAA@XZ DD imagerel $LN22
	DD	imagerel $LN22+198
	DD	imagerel $unwind$??0JitCompilerX86@randomx@@QEAA@XZ
;	COMDAT xdata
xdata	SEGMENT
$ip2state$??0JitCompilerX86@randomx@@QEAA@XZ DB 06H
	DB	')', 02H
	DB	00H
	DB	'.'
	DB	02H
	DB	'>'
	DB	04H
xdata	ENDS
;	COMDAT xdata
xdata	SEGMENT
$stateUnwindMap$??0JitCompilerX86@randomx@@QEAA@XZ DB 04H
	DB	0cH
	DD	imagerel ??1?$vector@HV?$allocator@H@std@@@std@@QEAA@XZ
	DB	040H
	DB	032H
	DD	imagerel ??1?$basic_string@DU?$char_traits@D@std@@V?$allocator@D@2@@std@@QEAA@XZ
	DB	080H
xdata	ENDS
;	COMDAT xdata
xdata	SEGMENT
$cppxdata$??0JitCompilerX86@randomx@@QEAA@XZ DB 028H
	DD	imagerel $stateUnwindMap$??0JitCompilerX86@randomx@@QEAA@XZ
	DD	imagerel $ip2state$??0JitCompilerX86@randomx@@QEAA@XZ
xdata	ENDS
;	COMDAT xdata
xdata	SEGMENT
$unwind$??0JitCompilerX86@randomx@@QEAA@XZ DD 021519H
	DD	03002d206H
	DD	imagerel __GSHandlerCheck_EH4
	DD	imagerel $cppxdata$??0JitCompilerX86@randomx@@QEAA@XZ
	DD	062H
xdata	ENDS
;	COMDAT xdata
xdata	SEGMENT
$unwind$??1JitCompilerX86@randomx@@QEAA@XZ DD 020601H
	DD	030023206H
xdata	ENDS
;	COMDAT xdata
xdata	SEGMENT
$unwind$??$generateSuperscalarHash@$07@JitCompilerX86@randomx@@QEAAXAEAY07VSuperscalarProgram@1@AEAV?$vector@_KV?$allocator@_K@std@@@std@@@Z DD 0c1e01H
	DD	0b741eH
	DD	0a641eH
	DD	09541eH
	DD	08341eH
	DD	0f01a321eH
	DD	0c016e018H
xdata	ENDS
;	COMDAT xdata
xdata	SEGMENT
$ip2state$?enableWriting@JitCompilerX86@randomx@@QEAAXXZ DB 04H
	DB	'r'
	DB	00H
	DB	'8'
	DB	02H
xdata	ENDS
;	COMDAT xdata
xdata	SEGMENT
$stateUnwindMap$?enableWriting@JitCompilerX86@randomx@@QEAAXXZ DB 02H
	DB	0aH
	DD	imagerel ??1?$basic_string@DU?$char_traits@D@std@@V?$allocator@D@2@@std@@QEAA@XZ
	DB	080H
xdata	ENDS
;	COMDAT xdata
xdata	SEGMENT
$cppxdata$?enableWriting@JitCompilerX86@randomx@@QEAAXXZ DB 028H
	DD	imagerel $stateUnwindMap$?enableWriting@JitCompilerX86@randomx@@QEAAXXZ
	DD	imagerel $ip2state$?enableWriting@JitCompilerX86@randomx@@QEAAXXZ
xdata	ENDS
;	COMDAT xdata
xdata	SEGMENT
$unwind$?enableWriting@JitCompilerX86@randomx@@QEAAXXZ DD 011319H
	DD	0e204H
	DD	imagerel __GSHandlerCheck_EH4
	DD	imagerel $cppxdata$?enableWriting@JitCompilerX86@randomx@@QEAAXXZ
	DD	062H
xdata	ENDS
;	COMDAT xdata
xdata	SEGMENT
$ip2state$?enableExecution@JitCompilerX86@randomx@@QEAAXXZ DB 04H
	DB	'r'
	DB	00H
	DB	'8'
	DB	02H
xdata	ENDS
;	COMDAT xdata
xdata	SEGMENT
$stateUnwindMap$?enableExecution@JitCompilerX86@randomx@@QEAAXXZ DB 02H
	DB	0aH
	DD	imagerel ??1?$basic_string@DU?$char_traits@D@std@@V?$allocator@D@2@@std@@QEAA@XZ
	DB	080H
xdata	ENDS
;	COMDAT xdata
xdata	SEGMENT
$cppxdata$?enableExecution@JitCompilerX86@randomx@@QEAAXXZ DB 028H
	DD	imagerel $stateUnwindMap$?enableExecution@JitCompilerX86@randomx@@QEAAXXZ
	DD	imagerel $ip2state$?enableExecution@JitCompilerX86@randomx@@QEAAXXZ
xdata	ENDS
;	COMDAT xdata
xdata	SEGMENT
$unwind$?enableExecution@JitCompilerX86@randomx@@QEAAXXZ DD 011319H
	DD	0e204H
	DD	imagerel __GSHandlerCheck_EH4
	DD	imagerel $cppxdata$?enableExecution@JitCompilerX86@randomx@@QEAAXXZ
	DD	062H
xdata	ENDS
;	COMDAT xdata
xdata	SEGMENT
$unwind$?generateProgramLight@JitCompilerX86@randomx@@QEAAXAEAVProgram@2@AEAUProgramConfiguration@2@I@Z DD 081401H
	DD	086414H
	DD	075414H
	DD	063414H
	DD	070103214H
xdata	ENDS
;	COMDAT xdata
xdata	SEGMENT
$unwind$?generateProgram@JitCompilerX86@randomx@@QEAAXAEAVProgram@2@AEAUProgramConfiguration@2@@Z DD 060f01H
	DD	07640fH
	DD	06340fH
	DD	0700b320fH
xdata	ENDS
;	COMDAT xdata
xdata	SEGMENT
$ip2state$?enableAll@JitCompilerX86@randomx@@QEAAXXZ DB 04H
	DB	'r'
	DB	00H
	DB	'8'
	DB	02H
xdata	ENDS
;	COMDAT xdata
xdata	SEGMENT
$stateUnwindMap$?enableAll@JitCompilerX86@randomx@@QEAAXXZ DB 02H
	DB	0aH
	DD	imagerel ??1?$basic_string@DU?$char_traits@D@std@@V?$allocator@D@2@@std@@QEAA@XZ
	DB	080H
xdata	ENDS
;	COMDAT xdata
xdata	SEGMENT
$cppxdata$?enableAll@JitCompilerX86@randomx@@QEAAXXZ DB 028H
	DD	imagerel $stateUnwindMap$?enableAll@JitCompilerX86@randomx@@QEAAXXZ
	DD	imagerel $ip2state$?enableAll@JitCompilerX86@randomx@@QEAAXXZ
xdata	ENDS
;	COMDAT xdata
xdata	SEGMENT
$unwind$?enableAll@JitCompilerX86@randomx@@QEAAXXZ DD 011319H
	DD	0e204H
	DD	imagerel __GSHandlerCheck_EH4
	DD	imagerel $cppxdata$?enableAll@JitCompilerX86@randomx@@QEAAXXZ
	DD	062H
xdata	ENDS
;	COMDAT xdata
xdata	SEGMENT
$unwind$?emit@JitCompilerX86@randomx@@AEAAXPEBE_K@Z DD 040a01H
	DD	06340aH
	DD	07006320aH
xdata	ENDS
;	COMDAT xdata
xdata	SEGMENT
$unwind$?generateProgramPrologue@JitCompilerX86@randomx@@AEAAXAEAVProgram@2@AEAUProgramConfiguration@2@@Z DD 0c1e01H
	DD	0b741eH
	DD	0a641eH
	DD	09541eH
	DD	08341eH
	DD	0f01a321eH
	DD	0c016e018H
xdata	ENDS
;	COMDAT xdata
xdata	SEGMENT
$unwind$?generateProgramEpilogue@JitCompilerX86@randomx@@AEAAXAEAVProgram@2@AEAUProgramConfiguration@2@@Z DD 040a01H
	DD	06340aH
	DD	07006320aH
xdata	ENDS
;	COMDAT xdata
xdata	SEGMENT
$unwind$?generateCode@JitCompilerX86@randomx@@AEAAXAEAVInstruction@2@H@Z DD 060f01H
	DD	07640fH
	DD	06340fH
	DD	0700b320fH
xdata	ENDS
;	COMDAT xdata
xdata	SEGMENT
$unwind$?generateSuperscalarCode@JitCompilerX86@randomx@@AEAAXAEAVInstruction@2@AEAV?$vector@_KV?$allocator@_K@std@@@std@@@Z DD 020501H
	DD	013405H
xdata	ENDS
;	COMDAT xdata
xdata	SEGMENT
$unwind$?genAddressReg@JitCompilerX86@randomx@@AEAAXAEAVInstruction@2@_N@Z DD 040a01H
	DD	02740aH
	DD	013405H
xdata	ENDS
;	COMDAT xdata
xdata	SEGMENT
$unwind$?h_IADD_M@JitCompilerX86@randomx@@AEAAXAEAVInstruction@2@H@Z DD 040a01H
	DD	06340aH
	DD	07006320aH
xdata	ENDS
;	COMDAT xdata
xdata	SEGMENT
$unwind$?h_ISUB_M@JitCompilerX86@randomx@@AEAAXAEAVInstruction@2@H@Z DD 040a01H
	DD	06340aH
	DD	07006320aH
xdata	ENDS
;	COMDAT xdata
xdata	SEGMENT
$unwind$?h_IMUL_M@JitCompilerX86@randomx@@AEAAXAEAVInstruction@2@H@Z DD 040a01H
	DD	06340aH
	DD	07006320aH
xdata	ENDS
;	COMDAT xdata
xdata	SEGMENT
$unwind$?h_IMULH_M@JitCompilerX86@randomx@@AEAAXAEAVInstruction@2@H@Z DD 040a01H
	DD	06340aH
	DD	07006320aH
xdata	ENDS
;	COMDAT xdata
xdata	SEGMENT
$unwind$?h_ISMULH_M@JitCompilerX86@randomx@@AEAAXAEAVInstruction@2@H@Z DD 040a01H
	DD	06340aH
	DD	07006320aH
xdata	ENDS
;	COMDAT xdata
xdata	SEGMENT
$unwind$?h_IMUL_RCP@JitCompilerX86@randomx@@AEAAXAEAVInstruction@2@H@Z DD 040a01H
	DD	06340aH
	DD	07006320aH
xdata	ENDS
;	COMDAT xdata
xdata	SEGMENT
$unwind$?h_IXOR_M@JitCompilerX86@randomx@@AEAAXAEAVInstruction@2@H@Z DD 040a01H
	DD	06340aH
	DD	07006320aH
xdata	ENDS
;	COMDAT xdata
xdata	SEGMENT
$unwind$?h_FADD_M@JitCompilerX86@randomx@@AEAAXAEAVInstruction@2@H@Z DD 040a01H
	DD	06340aH
	DD	07006320aH
xdata	ENDS
;	COMDAT xdata
xdata	SEGMENT
$unwind$?h_FSUB_M@JitCompilerX86@randomx@@AEAAXAEAVInstruction@2@H@Z DD 040a01H
	DD	06340aH
	DD	07006320aH
xdata	ENDS
;	COMDAT xdata
xdata	SEGMENT
$unwind$?h_FDIV_M@JitCompilerX86@randomx@@AEAAXAEAVInstruction@2@H@Z DD 040a01H
	DD	06340aH
	DD	07006320aH
xdata	ENDS
;	COMDAT xdata
xdata	SEGMENT
$unwind$?h_CBRANCH@JitCompilerX86@randomx@@AEAAXAEAVInstruction@2@H@Z DD 060f01H
	DD	03740fH
	DD	02640aH
	DD	013405H
xdata	ENDS
;	COMDAT xdata
xdata	SEGMENT
$unwind$??1?$vector@HV?$allocator@H@std@@@std@@QEAA@XZ DD 020601H
	DD	030023206H
xdata	ENDS
;	COMDAT xdata
xdata	SEGMENT
$unwind$?_Tidy@?$vector@HV?$allocator@H@std@@@std@@AEAAXXZ DD 020601H
	DD	030023206H
xdata	ENDS
;	COMDAT xdata
xdata	SEGMENT
$unwind$?deallocate@?$allocator@H@std@@QEAAXQEAH_K@Z DD 010401H
	DD	04204H
xdata	ENDS
;	COMDAT xdata
xdata	SEGMENT
$chain$5$??$_Emplace_reallocate@AEBH@?$vector@HV?$allocator@H@std@@@std@@AEAAPEAHQEAHAEBH@Z DD 021H
	DD	imagerel $LN116
	DD	imagerel $LN116+70
	DD	imagerel $unwind$??$_Emplace_reallocate@AEBH@?$vector@HV?$allocator@H@std@@@std@@AEAAPEAHQEAHAEBH@Z
xdata	ENDS
;	COMDAT xdata
xdata	SEGMENT
$chain$4$??$_Emplace_reallocate@AEBH@?$vector@HV?$allocator@H@std@@@std@@AEAAPEAHQEAHAEBH@Z DD 060021H
	DD	04f400H
	DD	0d6400H
	DD	0c3400H
	DD	imagerel $LN116
	DD	imagerel $LN116+70
	DD	imagerel $unwind$??$_Emplace_reallocate@AEBH@?$vector@HV?$allocator@H@std@@@std@@AEAAPEAHQEAHAEBH@Z
xdata	ENDS
;	COMDAT xdata
xdata	SEGMENT
$chain$2$??$_Emplace_reallocate@AEBH@?$vector@HV?$allocator@H@std@@@std@@AEAAPEAHQEAHAEBH@Z DD 061921H
	DD	04f419H
	DD	0d640eH
	DD	0c3405H
	DD	imagerel $LN116
	DD	imagerel $LN116+70
	DD	imagerel $unwind$??$_Emplace_reallocate@AEBH@?$vector@HV?$allocator@H@std@@@std@@AEAAPEAHQEAHAEBH@Z
xdata	ENDS
;	COMDAT xdata
xdata	SEGMENT
$unwind$??$_Emplace_reallocate@AEBH@?$vector@HV?$allocator@H@std@@@std@@AEAAPEAHQEAHAEBH@Z DD 050b01H
	DD	0e007420bH
	DD	07003c005H
	DD	05002H
xdata	ENDS
;	COMDAT xdata
xdata	SEGMENT
$unwind$?_Xlength@?$vector@HV?$allocator@H@std@@@std@@CAXXZ DD 010401H
	DD	04204H
xdata	ENDS
;	COMDAT xdata
xdata	SEGMENT
$unwind$?_Change_array@?$vector@HV?$allocator@H@std@@@std@@AEAAXQEAH_K1@Z DD 081401H
	DD	096414H
	DD	085414H
	DD	073414H
	DD	070103214H
xdata	ENDS
;	COMDAT xdata
xdata	SEGMENT
$unwind$?allocate@?$allocator@H@std@@QEAAPEAH_K@Z DD 010401H
	DD	04204H
xdata	ENDS
;	COMDAT xdata
xdata	SEGMENT
$unwind$??$_Uninitialized_move@PEAHV?$allocator@H@std@@@std@@YAPEAHQEAH0PEAHAEAV?$allocator@H@0@@Z DD 040a01H
	DD	06340aH
	DD	07006320aH
xdata	ENDS
;	COMDAT xdata
xdata	SEGMENT
$unwind$??$_Copy_memmove@PEAHPEAH@std@@YAPEAHPEAH00@Z DD 040a01H
	DD	06340aH
	DD	07006320aH
	ORG $+48
?prologueSize$initializer$@randomx@@3P6AXXZEA DQ FLAT:??__EprologueSize@randomx@@YAXXZ ; randomx::prologueSize$initializer$
?loopLoadSize$initializer$@randomx@@3P6AXXZEA DQ FLAT:??__EloopLoadSize@randomx@@YAXXZ ; randomx::loopLoadSize$initializer$
?readDatasetSize$initializer$@randomx@@3P6AXXZEA DQ FLAT:??__EreadDatasetSize@randomx@@YAXXZ ; randomx::readDatasetSize$initializer$
?readDatasetLightInitSize$initializer$@randomx@@3P6AXXZEA DQ FLAT:??__EreadDatasetLightInitSize@randomx@@YAXXZ ; randomx::readDatasetLightInitSize$initializer$
?readDatasetLightFinSize$initializer$@randomx@@3P6AXXZEA DQ FLAT:??__EreadDatasetLightFinSize@randomx@@YAXXZ ; randomx::readDatasetLightFinSize$initializer$
?loopStoreSize$initializer$@randomx@@3P6AXXZEA DQ FLAT:??__EloopStoreSize@randomx@@YAXXZ ; randomx::loopStoreSize$initializer$
?datasetInitSize$initializer$@randomx@@3P6AXXZEA DQ FLAT:??__EdatasetInitSize@randomx@@YAXXZ ; randomx::datasetInitSize$initializer$
?epilogueSize$initializer$@randomx@@3P6AXXZEA DQ FLAT:??__EepilogueSize@randomx@@YAXXZ ; randomx::epilogueSize$initializer$
?codeSshLoadSize$initializer$@randomx@@3P6AXXZEA DQ FLAT:??__EcodeSshLoadSize@randomx@@YAXXZ ; randomx::codeSshLoadSize$initializer$
?codeSshPrefetchSize$initializer$@randomx@@3P6AXXZEA DQ FLAT:??__EcodeSshPrefetchSize@randomx@@YAXXZ ; randomx::codeSshPrefetchSize$initializer$
?codeSshInitSize$initializer$@randomx@@3P6AXXZEA DQ FLAT:??__EcodeSshInitSize@randomx@@YAXXZ ; randomx::codeSshInitSize$initializer$
?epilogueOffset$initializer$@randomx@@3P6AXXZEA DQ FLAT:??__EepilogueOffset@randomx@@YAXXZ ; randomx::epilogueOffset$initializer$
; Function compile flags: /Ogtpy
;	COMDAT ??0JitCompilerX86@randomx@@QEAA@XZ
_TEXT	SEGMENT
this$GSCopy$ = 32
$T2 = 40
$T1 = 64
__$ArrayPad$ = 96
this$ = 128
??0JitCompilerX86@randomx@@QEAA@XZ PROC			; randomx::JitCompilerX86::JitCompilerX86, COMDAT
; File D:\dev\francium_network\francium_agent\src\ext\randomx\repo\src\jit_compiler_x86.cpp
; Line 226
$LN22:
	push	rbx
	sub	rsp, 112				; 00000070H
	mov	rax, QWORD PTR __security_cookie
	xor	rax, rsp
	mov	QWORD PTR __$ArrayPad$[rsp], rax
	mov	rbx, rcx
	mov	QWORD PTR this$GSCopy$[rsp], rcx
; File D:\software\Visual Studio 2022\VC\Tools\MSVC\14.35.32215\include\vector
; Line 390
	xor	eax, eax
	mov	QWORD PTR [rcx], rax
	mov	QWORD PTR [rcx+8], rax
	mov	QWORD PTR [rcx+16], rax
; File D:\dev\francium_network\francium_agent\src\ext\randomx\repo\src\virtual_memory.cpp
; Line 98
	mov	edx, 77824				; 00013000H
	xor	ecx, ecx
	lea	r9d, QWORD PTR [rax+4]
	mov	r8d, 4096				; 00001000H
	call	QWORD PTR __imp_VirtualAlloc
; Line 99
	test	rax, rax
	je	SHORT $LN20@JitCompile
; File D:\dev\francium_network\francium_agent\src\ext\randomx\repo\src\jit_compiler_x86.cpp
; Line 227
	mov	QWORD PTR [rbx+56], rax
; Line 228
	movsxd	r8, DWORD PTR ?prologueSize@randomx@@3HB
	lea	rdx, OFFSET FLAT:randomx_program_prologue
	mov	rcx, rax
	call	memcpy
; Line 229
	movsxd	r8, DWORD PTR ?epilogueSize@randomx@@3HB
	movsxd	rcx, DWORD PTR ?epilogueOffset@randomx@@3HB
	add	rcx, QWORD PTR [rbx+56]
	lea	rdx, OFFSET FLAT:randomx_program_epilogue
	call	memcpy
	npad	1
; Line 230
	mov	rax, rbx
	mov	rcx, QWORD PTR __$ArrayPad$[rsp]
	xor	rcx, rsp
	call	__security_check_cookie
	add	rsp, 112				; 00000070H
	pop	rbx
	ret	0
$LN20@JitCompile:
; File D:\dev\francium_network\francium_agent\src\ext\randomx\repo\src\virtual_memory.cpp
; Line 100
	lea	rdx, OFFSET FLAT:??_C@_0CA@IJDFKAKK@allocMemoryPages?5?9?5VirtualAlloc@
	lea	rcx, QWORD PTR $T1[rsp]
	call	?getErrorMessage@@YA?AV?$basic_string@DU?$char_traits@D@std@@V?$allocator@D@2@@std@@PEBD@Z ; getErrorMessage
	npad	1
	mov	rdx, rax
	lea	rcx, QWORD PTR $T2[rsp]
	call	??0runtime_error@std@@QEAA@AEBV?$basic_string@DU?$char_traits@D@std@@V?$allocator@D@2@@1@@Z ; std::runtime_error::runtime_error
	lea	rdx, OFFSET FLAT:_TI2?AVruntime_error@std@@
	lea	rcx, QWORD PTR $T2[rsp]
	call	_CxxThrowException
	int	3
$LN18@JitCompile:
??0JitCompilerX86@randomx@@QEAA@XZ ENDP			; randomx::JitCompilerX86::JitCompilerX86
_TEXT	ENDS
; Function compile flags: /Ogtpy
;	COMDAT text$x
text$x	SEGMENT
this$GSCopy$ = 32
$T2 = 40
$T1 = 64
__$ArrayPad$ = 96
this$ = 128
?dtor$0@?0???0JitCompilerX86@randomx@@QEAA@XZ@4HA PROC	; `randomx::JitCompilerX86::JitCompilerX86'::`1'::dtor$0
	mov	rcx, QWORD PTR this$GSCopy$[rdx]
	jmp	??1?$vector@HV?$allocator@H@std@@@std@@QEAA@XZ ; std::vector<int,std::allocator<int> >::~vector<int,std::allocator<int> >
?dtor$0@?0???0JitCompilerX86@randomx@@QEAA@XZ@4HA ENDP	; `randomx::JitCompilerX86::JitCompilerX86'::`1'::dtor$0
text$x	ENDS
; Function compile flags: /Ogtpy
;	COMDAT text$x
text$x	SEGMENT
this$GSCopy$ = 32
$T2 = 40
$T1 = 64
__$ArrayPad$ = 96
this$ = 128
?dtor$1@?0???0JitCompilerX86@randomx@@QEAA@XZ@4HA PROC	; `randomx::JitCompilerX86::JitCompilerX86'::`1'::dtor$1
	lea	rcx, QWORD PTR $T1[rdx]
	jmp	??1?$basic_string@DU?$char_traits@D@std@@V?$allocator@D@2@@std@@QEAA@XZ ; std::basic_string<char,std::char_traits<char>,std::allocator<char> >::~basic_string<char,std::char_traits<char>,std::allocator<char> >
?dtor$1@?0???0JitCompilerX86@randomx@@QEAA@XZ@4HA ENDP	; `randomx::JitCompilerX86::JitCompilerX86'::`1'::dtor$1
text$x	ENDS
; Function compile flags: /Ogtpy
;	COMDAT ??1JitCompilerX86@randomx@@QEAA@XZ
_TEXT	SEGMENT
this$ = 48
??1JitCompilerX86@randomx@@QEAA@XZ PROC			; randomx::JitCompilerX86::~JitCompilerX86, COMDAT
; File D:\dev\francium_network\francium_agent\src\ext\randomx\repo\src\jit_compiler_x86.cpp
; Line 232
$LN33:
	push	rbx
	sub	rsp, 32					; 00000020H
	mov	rbx, rcx
; File D:\dev\francium_network\francium_agent\src\ext\randomx\repo\src\virtual_memory.cpp
; Line 185
	xor	edx, edx
	mov	rcx, QWORD PTR [rcx+56]
	mov	r8d, 32768				; 00008000H
	call	QWORD PTR __imp_VirtualFree
; File D:\software\Visual Studio 2022\VC\Tools\MSVC\14.35.32215\include\vector
; Line 2107
	mov	rcx, QWORD PTR [rbx]
	test	rcx, rcx
	je	SHORT $LN8@JitCompile
; Line 2110
	mov	rdx, QWORD PTR [rbx+16]
	sub	rdx, rcx
; File D:\software\Visual Studio 2022\VC\Tools\MSVC\14.35.32215\include\xmemory
; Line 829
	and	rdx, -4
; Line 251
	cmp	rdx, 4096				; 00001000H
	jb	SHORT $LN24@JitCompile
; Line 150
	mov	r8, QWORD PTR [rcx-8]
	add	rdx, 39					; 00000027H
; Line 163
	sub	rcx, r8
; Line 164
	lea	rax, QWORD PTR [rcx-8]
	cmp	rax, 31
	ja	SHORT $LN21@JitCompile
; Line 165
	mov	rcx, r8
$LN24@JitCompile:
; Line 255
	call	??3@YAXPEAX_K@Z				; operator delete
; File D:\software\Visual Studio 2022\VC\Tools\MSVC\14.35.32215\include\vector
; Line 2112
	xor	eax, eax
	mov	QWORD PTR [rbx], rax
; Line 2113
	mov	QWORD PTR [rbx+8], rax
; Line 2114
	mov	QWORD PTR [rbx+16], rax
$LN8@JitCompile:
; File D:\dev\francium_network\francium_agent\src\ext\randomx\repo\src\jit_compiler_x86.cpp
; Line 234
	add	rsp, 32					; 00000020H
	pop	rbx
	ret	0
$LN21@JitCompile:
; File D:\software\Visual Studio 2022\VC\Tools\MSVC\14.35.32215\include\xmemory
; Line 164
	call	_invalid_parameter_noinfo_noreturn
	int	3
$LN30@JitCompile:
??1JitCompilerX86@randomx@@QEAA@XZ ENDP			; randomx::JitCompilerX86::~JitCompilerX86
_TEXT	ENDS
; Function compile flags: /Ogtpy
;	COMDAT ??$generateSuperscalarHash@$07@JitCompilerX86@randomx@@QEAAXAEAY07VSuperscalarProgram@1@AEAV?$vector@_KV?$allocator@_K@std@@@std@@@Z
_TEXT	SEGMENT
this$ = 64
programs$ = 72
reciprocalCache$ = 80
??$generateSuperscalarHash@$07@JitCompilerX86@randomx@@QEAAXAEAY07VSuperscalarProgram@1@AEAV?$vector@_KV?$allocator@_K@std@@@std@@@Z PROC ; randomx::JitCompilerX86::generateSuperscalarHash<8>, COMDAT
; File D:\dev\francium_network\francium_agent\src\ext\randomx\repo\src\jit_compiler_x86.cpp
; Line 267
$LN33:
	mov	QWORD PTR [rsp+8], rbx
	mov	QWORD PTR [rsp+16], rbp
	mov	QWORD PTR [rsp+24], rsi
	mov	QWORD PTR [rsp+32], rdi
	push	r12
	push	r14
	push	r15
	sub	rsp, 32					; 00000020H
; Line 268
	movsxd	rbx, DWORD PTR ?codeSshInitSize@randomx@@3HB
	mov	rsi, rcx
	mov	rcx, QWORD PTR [rcx+56]
	mov	r14, r8
	mov	rdi, rdx
	add	rcx, 12288				; 00003000H
	mov	r8, rbx
	lea	rdx, OFFSET FLAT:randomx_sshash_init
	call	memcpy
	movsxd	r15, DWORD PTR ?codeSshLoadSize@randomx@@3HB
; Line 269
	lea	eax, DWORD PTR [rbx+12288]
	movsxd	r12, DWORD PTR ?codeSshPrefetchSize@randomx@@3HB
	xor	ebp, ebp
	mov	DWORD PTR [rsi+64], eax
	add	rdi, 4096				; 00001000H
$LL4@generateSu:
; Line 272
	xor	r9d, r9d
	cmp	DWORD PTR [rdi], r9d
	jbe	SHORT $LN6@generateSu
$LL7@generateSu:
; File D:\dev\francium_network\francium_agent\src\ext\randomx\repo\src\superscalar_program.hpp
; Line 40
	movsxd	rax, r9d
; File D:\dev\francium_network\francium_agent\src\ext\randomx\repo\src\jit_compiler_x86.cpp
; Line 274
	mov	r8, r14
; File D:\dev\francium_network\francium_agent\src\ext\randomx\repo\src\superscalar_program.hpp
; Line 40
	add	rax, -512				; fffffffffffffe00H
; File D:\dev\francium_network\francium_agent\src\ext\randomx\repo\src\jit_compiler_x86.cpp
; Line 274
	mov	rcx, rsi
; File D:\dev\francium_network\francium_agent\src\ext\randomx\repo\src\superscalar_program.hpp
; Line 40
	lea	rdx, QWORD PTR [rdi+rax*8]
; File D:\dev\francium_network\francium_agent\src\ext\randomx\repo\src\jit_compiler_x86.cpp
; Line 274
	call	?generateSuperscalarCode@JitCompilerX86@randomx@@AEAAXAEAVInstruction@2@AEAV?$vector@_KV?$allocator@_K@std@@@std@@@Z ; randomx::JitCompilerX86::generateSuperscalarCode
	inc	r9d
	cmp	r9d, DWORD PTR [rdi]
	jb	SHORT $LL7@generateSu
$LN6@generateSu:
; File D:\dev\francium_network\francium_agent\src\ext\randomx\repo\src\jit_compiler_x86.hpp
; Line 106
	movsxd	rcx, DWORD PTR [rsi+64]
	lea	rdx, OFFSET FLAT:randomx_sshash_load
	add	rcx, QWORD PTR [rsi+56]
	mov	r8, r15
	call	memcpy
; Line 107
	mov	ecx, DWORD PTR [rsi+64]
	add	ecx, r15d
	mov	DWORD PTR [rsi+64], ecx
; File D:\dev\francium_network\francium_agent\src\ext\randomx\repo\src\jit_compiler_x86.cpp
; Line 277
	cmp	ebp, 7
	jae	SHORT $LN2@generateSu
; File D:\dev\francium_network\francium_agent\src\ext\randomx\repo\src\jit_compiler_x86.hpp
; Line 106
	movzx	eax, WORD PTR ?REX_MOV_RR64@randomx@@3QBEB
	mov	r8, r12
	movsxd	rdx, ecx
	mov	rcx, QWORD PTR [rsi+56]
	mov	WORD PTR [rdx+rcx], ax
; Line 107
	add	DWORD PTR [rsi+64], 2
; File D:\dev\francium_network\francium_agent\src\ext\randomx\repo\src\jit_compiler_x86.cpp
; Line 279
	movzx	edx, BYTE PTR [rdi+4]
; File D:\dev\francium_network\francium_agent\src\ext\randomx\repo\src\jit_compiler_x86.hpp
; Line 86
	movsxd	rcx, DWORD PTR [rsi+64]
; File D:\dev\francium_network\francium_agent\src\ext\randomx\repo\src\jit_compiler_x86.cpp
; Line 279
	sub	dl, 40					; 00000028H
; File D:\dev\francium_network\francium_agent\src\ext\randomx\repo\src\jit_compiler_x86.hpp
; Line 86
	mov	rax, QWORD PTR [rsi+56]
	mov	BYTE PTR [rcx+rax], dl
; Line 106
	lea	rdx, OFFSET FLAT:randomx_sshash_prefetch
; Line 87
	inc	DWORD PTR [rsi+64]
; Line 106
	movsxd	rcx, DWORD PTR [rsi+64]
	add	rcx, QWORD PTR [rsi+56]
	call	memcpy
; Line 107
	add	DWORD PTR [rsi+64], r12d
	mov	ecx, DWORD PTR [rsi+64]
$LN2@generateSu:
; File D:\dev\francium_network\francium_agent\src\ext\randomx\repo\src\jit_compiler_x86.cpp
; Line 270
	inc	ebp
	add	rdi, 4200				; 00001068H
	cmp	ebp, 8
	jb	$LL4@generateSu
; File D:\dev\francium_network\francium_agent\src\ext\randomx\repo\src\jit_compiler_x86.hpp
; Line 86
	mov	rax, QWORD PTR [rsi+56]
; File D:\dev\francium_network\francium_agent\src\ext\randomx\repo\src\jit_compiler_x86.cpp
; Line 293
	mov	rbx, QWORD PTR [rsp+64]
	mov	rbp, QWORD PTR [rsp+72]
	mov	rdi, QWORD PTR [rsp+88]
; File D:\dev\francium_network\francium_agent\src\ext\randomx\repo\src\jit_compiler_x86.hpp
; Line 86
	movsxd	rcx, ecx
	mov	BYTE PTR [rcx+rax], 195			; 000000c3H
; Line 87
	inc	DWORD PTR [rsi+64]
; File D:\dev\francium_network\francium_agent\src\ext\randomx\repo\src\jit_compiler_x86.cpp
; Line 293
	mov	rsi, QWORD PTR [rsp+80]
	add	rsp, 32					; 00000020H
	pop	r15
	pop	r14
	pop	r12
	ret	0
??$generateSuperscalarHash@$07@JitCompilerX86@randomx@@QEAAXAEAY07VSuperscalarProgram@1@AEAV?$vector@_KV?$allocator@_K@std@@@std@@@Z ENDP ; randomx::JitCompilerX86::generateSuperscalarHash<8>
_TEXT	ENDS
; Function compile flags: /Ogtpy
;	COMDAT ?generateDatasetInitCode@JitCompilerX86@randomx@@QEAAXXZ
_TEXT	SEGMENT
this$ = 8
?generateDatasetInitCode@JitCompilerX86@randomx@@QEAAXXZ PROC ; randomx::JitCompilerX86::generateDatasetInitCode, COMDAT
; File D:\dev\francium_network\francium_agent\src\ext\randomx\repo\src\jit_compiler_x86.cpp
; Line 299
	movsxd	r8, DWORD PTR ?datasetInitSize@randomx@@3HB
	lea	rdx, OFFSET FLAT:randomx_dataset_init
	mov	rcx, QWORD PTR [rcx+56]
	jmp	memcpy
?generateDatasetInitCode@JitCompilerX86@randomx@@QEAAXXZ ENDP ; randomx::JitCompilerX86::generateDatasetInitCode
_TEXT	ENDS
; Function compile flags: /Ogtpy
;	COMDAT ?enableWriting@JitCompilerX86@randomx@@QEAAXXZ
_TEXT	SEGMENT
oldp$3 = 32
$T2 = 40
$T1 = 64
__$ArrayPad$ = 96
this$ = 128
?enableWriting@JitCompilerX86@randomx@@QEAAXXZ PROC	; randomx::JitCompilerX86::enableWriting, COMDAT
; File D:\dev\francium_network\francium_agent\src\ext\randomx\repo\src\jit_compiler_x86.cpp
; Line 240
$LN18:
	sub	rsp, 120				; 00000078H
	mov	rax, QWORD PTR __security_cookie
	xor	rax, rsp
	mov	QWORD PTR __$ArrayPad$[rsp], rax
; File D:\dev\francium_network\francium_agent\src\ext\randomx\repo\src\virtual_memory.cpp
; Line 127
	lea	r9, QWORD PTR oldp$3[rsp]
	mov	edx, 77824				; 00013000H
	mov	r8d, 4
	mov	rcx, QWORD PTR [rcx+56]
	call	QWORD PTR __imp_VirtualProtect
	test	eax, eax
	je	SHORT $LN16@enableWrit
; File D:\dev\francium_network\francium_agent\src\ext\randomx\repo\src\jit_compiler_x86.cpp
; Line 242
	mov	rcx, QWORD PTR __$ArrayPad$[rsp]
	xor	rcx, rsp
	call	__security_check_cookie
	add	rsp, 120				; 00000078H
	ret	0
$LN16@enableWrit:
; File D:\dev\francium_network\francium_agent\src\ext\randomx\repo\src\virtual_memory.cpp
; Line 128
	lea	rdx, OFFSET FLAT:??_C@_0P@IGDMCLEE@VirtualProtect@
	lea	rcx, QWORD PTR $T1[rsp]
	call	?getErrorMessage@@YA?AV?$basic_string@DU?$char_traits@D@std@@V?$allocator@D@2@@std@@PEBD@Z ; getErrorMessage
	npad	1
	mov	rdx, rax
	lea	rcx, QWORD PTR $T2[rsp]
	call	??0runtime_error@std@@QEAA@AEBV?$basic_string@DU?$char_traits@D@std@@V?$allocator@D@2@@1@@Z ; std::runtime_error::runtime_error
	lea	rdx, OFFSET FLAT:_TI2?AVruntime_error@std@@
	lea	rcx, QWORD PTR $T2[rsp]
	call	_CxxThrowException
	int	3
$LN14@enableWrit:
?enableWriting@JitCompilerX86@randomx@@QEAAXXZ ENDP	; randomx::JitCompilerX86::enableWriting
_TEXT	ENDS
; Function compile flags: /Ogtpy
;	COMDAT text$x
text$x	SEGMENT
oldp$3 = 32
$T2 = 40
$T1 = 64
__$ArrayPad$ = 96
this$ = 128
?dtor$0@?0??enableWriting@JitCompilerX86@randomx@@QEAAXXZ@4HA PROC ; `randomx::JitCompilerX86::enableWriting'::`1'::dtor$0
	lea	rcx, QWORD PTR $T1[rdx]
	jmp	??1?$basic_string@DU?$char_traits@D@std@@V?$allocator@D@2@@std@@QEAA@XZ ; std::basic_string<char,std::char_traits<char>,std::allocator<char> >::~basic_string<char,std::char_traits<char>,std::allocator<char> >
?dtor$0@?0??enableWriting@JitCompilerX86@randomx@@QEAAXXZ@4HA ENDP ; `randomx::JitCompilerX86::enableWriting'::`1'::dtor$0
text$x	ENDS
; Function compile flags: /Ogtpy
;	COMDAT ?enableExecution@JitCompilerX86@randomx@@QEAAXXZ
_TEXT	SEGMENT
oldp$3 = 32
$T2 = 40
$T1 = 64
__$ArrayPad$ = 96
this$ = 128
?enableExecution@JitCompilerX86@randomx@@QEAAXXZ PROC	; randomx::JitCompilerX86::enableExecution, COMDAT
; File D:\dev\francium_network\francium_agent\src\ext\randomx\repo\src\jit_compiler_x86.cpp
; Line 244
$LN18:
	sub	rsp, 120				; 00000078H
	mov	rax, QWORD PTR __security_cookie
	xor	rax, rsp
	mov	QWORD PTR __$ArrayPad$[rsp], rax
; File D:\dev\francium_network\francium_agent\src\ext\randomx\repo\src\virtual_memory.cpp
; Line 127
	lea	r9, QWORD PTR oldp$3[rsp]
	mov	edx, 77824				; 00013000H
	mov	r8d, 32					; 00000020H
	mov	rcx, QWORD PTR [rcx+56]
	call	QWORD PTR __imp_VirtualProtect
	test	eax, eax
	je	SHORT $LN16@enableExec
; File D:\dev\francium_network\francium_agent\src\ext\randomx\repo\src\jit_compiler_x86.cpp
; Line 246
	mov	rcx, QWORD PTR __$ArrayPad$[rsp]
	xor	rcx, rsp
	call	__security_check_cookie
	add	rsp, 120				; 00000078H
	ret	0
$LN16@enableExec:
; File D:\dev\francium_network\francium_agent\src\ext\randomx\repo\src\virtual_memory.cpp
; Line 128
	lea	rdx, OFFSET FLAT:??_C@_0P@IGDMCLEE@VirtualProtect@
	lea	rcx, QWORD PTR $T1[rsp]
	call	?getErrorMessage@@YA?AV?$basic_string@DU?$char_traits@D@std@@V?$allocator@D@2@@std@@PEBD@Z ; getErrorMessage
	npad	1
	mov	rdx, rax
	lea	rcx, QWORD PTR $T2[rsp]
	call	??0runtime_error@std@@QEAA@AEBV?$basic_string@DU?$char_traits@D@std@@V?$allocator@D@2@@1@@Z ; std::runtime_error::runtime_error
	lea	rdx, OFFSET FLAT:_TI2?AVruntime_error@std@@
	lea	rcx, QWORD PTR $T2[rsp]
	call	_CxxThrowException
	int	3
$LN14@enableExec:
?enableExecution@JitCompilerX86@randomx@@QEAAXXZ ENDP	; randomx::JitCompilerX86::enableExecution
_TEXT	ENDS
; Function compile flags: /Ogtpy
;	COMDAT text$x
text$x	SEGMENT
oldp$3 = 32
$T2 = 40
$T1 = 64
__$ArrayPad$ = 96
this$ = 128
?dtor$0@?0??enableExecution@JitCompilerX86@randomx@@QEAAXXZ@4HA PROC ; `randomx::JitCompilerX86::enableExecution'::`1'::dtor$0
	lea	rcx, QWORD PTR $T1[rdx]
	jmp	??1?$basic_string@DU?$char_traits@D@std@@V?$allocator@D@2@@std@@QEAA@XZ ; std::basic_string<char,std::char_traits<char>,std::allocator<char> >::~basic_string<char,std::char_traits<char>,std::allocator<char> >
?dtor$0@?0??enableExecution@JitCompilerX86@randomx@@QEAAXXZ@4HA ENDP ; `randomx::JitCompilerX86::enableExecution'::`1'::dtor$0
text$x	ENDS
; Function compile flags: /Ogtpy
;	COMDAT ?generateProgramLight@JitCompilerX86@randomx@@QEAAXAEAVProgram@2@AEAUProgramConfiguration@2@I@Z
_TEXT	SEGMENT
this$ = 48
prog$ = 56
pcfg$ = 64
datasetOffset$ = 72
?generateProgramLight@JitCompilerX86@randomx@@QEAAXAEAVProgram@2@AEAUProgramConfiguration@2@I@Z PROC ; randomx::JitCompilerX86::generateProgramLight, COMDAT
; File D:\dev\francium_network\francium_agent\src\ext\randomx\repo\src\jit_compiler_x86.cpp
; Line 255
$LN18:
	mov	QWORD PTR [rsp+8], rbx
	mov	QWORD PTR [rsp+16], rbp
	mov	QWORD PTR [rsp+24], rsi
	push	rdi
	sub	rsp, 32					; 00000020H
	mov	edi, r9d
	mov	rbp, r8
	mov	rsi, rcx
; Line 256
	call	?generateProgramPrologue@JitCompilerX86@randomx@@AEAAXAEAVProgram@2@AEAUProgramConfiguration@2@@Z ; randomx::JitCompilerX86::generateProgramPrologue
; File D:\dev\francium_network\francium_agent\src\ext\randomx\repo\src\jit_compiler_x86.hpp
; Line 106
	movsxd	rcx, DWORD PTR [rsi+64]
	lea	rdx, OFFSET FLAT:randomx_program_read_dataset_sshash_init
; File D:\dev\francium_network\francium_agent\src\ext\randomx\repo\src\jit_compiler_x86.cpp
; Line 257
	movsxd	rbx, DWORD PTR ?readDatasetLightInitSize@randomx@@3HB
; File D:\dev\francium_network\francium_agent\src\ext\randomx\repo\src\jit_compiler_x86.hpp
; Line 106
	add	rcx, QWORD PTR [rsi+56]
	mov	r8, rbx
	call	memcpy
; Line 107
	add	DWORD PTR [rsi+64], ebx
; Line 106
	movsxd	rdx, DWORD PTR [rsi+64]
	movzx	eax, WORD PTR ?ADD_EBX_I@randomx@@3QBEB
	mov	rcx, QWORD PTR [rsi+56]
; File D:\dev\francium_network\francium_agent\src\ext\randomx\repo\src\jit_compiler_x86.cpp
; Line 262
	movsxd	rbx, DWORD PTR ?readDatasetLightFinSize@randomx@@3HB
	shr	edi, 6
; File D:\dev\francium_network\francium_agent\src\ext\randomx\repo\src\jit_compiler_x86.hpp
; Line 106
	mov	r8, rbx
	mov	WORD PTR [rdx+rcx], ax
; File D:\dev\francium_network\francium_agent\src\ext\randomx\repo\src\jit_compiler_x86.cpp
; Line 261
	mov	edx, 12284				; 00002ffcH
; File D:\dev\francium_network\francium_agent\src\ext\randomx\repo\src\jit_compiler_x86.hpp
; Line 107
	add	DWORD PTR [rsi+64], 2
; Line 91
	movsxd	rcx, DWORD PTR [rsi+64]
	mov	rax, QWORD PTR [rsi+56]
	mov	DWORD PTR [rcx+rax], edi
; Line 92
	add	DWORD PTR [rsi+64], 4
; Line 86
	movsxd	rcx, DWORD PTR [rsi+64]
	mov	rax, QWORD PTR [rsi+56]
	mov	BYTE PTR [rcx+rax], 232			; 000000e8H
; Line 87
	movsxd	rcx, DWORD PTR [rsi+64]
	lea	eax, DWORD PTR [rcx+1]
	mov	DWORD PTR [rsi+64], eax
; File D:\dev\francium_network\francium_agent\src\ext\randomx\repo\src\jit_compiler_x86.cpp
; Line 261
	sub	edx, eax
; File D:\dev\francium_network\francium_agent\src\ext\randomx\repo\src\jit_compiler_x86.hpp
; Line 91
	mov	rax, QWORD PTR [rsi+56]
	mov	DWORD PTR [rcx+rax+1], edx
; Line 106
	lea	rdx, OFFSET FLAT:randomx_program_read_dataset_sshash_fin
; Line 92
	add	DWORD PTR [rsi+64], 4
; Line 106
	movsxd	rcx, DWORD PTR [rsi+64]
	add	rcx, QWORD PTR [rsi+56]
	call	memcpy
; Line 107
	add	DWORD PTR [rsi+64], ebx
; File D:\dev\francium_network\francium_agent\src\ext\randomx\repo\src\jit_compiler_x86.cpp
; Line 263
	mov	r8, rbp
	mov	rcx, rsi
; Line 264
	mov	rbx, QWORD PTR [rsp+48]
	mov	rbp, QWORD PTR [rsp+56]
	mov	rsi, QWORD PTR [rsp+64]
	add	rsp, 32					; 00000020H
	pop	rdi
; Line 263
	jmp	?generateProgramEpilogue@JitCompilerX86@randomx@@AEAAXAEAVProgram@2@AEAUProgramConfiguration@2@@Z ; randomx::JitCompilerX86::generateProgramEpilogue
?generateProgramLight@JitCompilerX86@randomx@@QEAAXAEAVProgram@2@AEAUProgramConfiguration@2@I@Z ENDP ; randomx::JitCompilerX86::generateProgramLight
_TEXT	ENDS
; Function compile flags: /Ogtpy
;	COMDAT ?generateProgram@JitCompilerX86@randomx@@QEAAXAEAVProgram@2@AEAUProgramConfiguration@2@@Z
_TEXT	SEGMENT
this$ = 48
prog$ = 56
pcfg$ = 64
?generateProgram@JitCompilerX86@randomx@@QEAAXAEAVProgram@2@AEAUProgramConfiguration@2@@Z PROC ; randomx::JitCompilerX86::generateProgram, COMDAT
; File D:\dev\francium_network\francium_agent\src\ext\randomx\repo\src\jit_compiler_x86.cpp
; Line 248
$LN4:
	mov	QWORD PTR [rsp+8], rbx
	mov	QWORD PTR [rsp+16], rsi
	push	rdi
	sub	rsp, 32					; 00000020H
	mov	rsi, r8
	mov	rdi, rcx
; Line 249
	call	?generateProgramPrologue@JitCompilerX86@randomx@@AEAAXAEAVProgram@2@AEAUProgramConfiguration@2@@Z ; randomx::JitCompilerX86::generateProgramPrologue
; Line 250
	movsxd	rcx, DWORD PTR [rdi+64]
	lea	rdx, OFFSET FLAT:randomx_program_read_dataset
	movsxd	rbx, DWORD PTR ?readDatasetSize@randomx@@3HB
	add	rcx, QWORD PTR [rdi+56]
	mov	r8, rbx
	call	memcpy
; Line 251
	add	DWORD PTR [rdi+64], ebx
; Line 252
	mov	r8, rsi
	mov	rcx, rdi
; Line 253
	mov	rbx, QWORD PTR [rsp+48]
	mov	rsi, QWORD PTR [rsp+56]
	add	rsp, 32					; 00000020H
	pop	rdi
; Line 252
	jmp	?generateProgramEpilogue@JitCompilerX86@randomx@@AEAAXAEAVProgram@2@AEAUProgramConfiguration@2@@Z ; randomx::JitCompilerX86::generateProgramEpilogue
?generateProgram@JitCompilerX86@randomx@@QEAAXAEAVProgram@2@AEAUProgramConfiguration@2@@Z ENDP ; randomx::JitCompilerX86::generateProgram
_TEXT	ENDS
; Function compile flags: /Ogtpy
;	COMDAT ?enableAll@JitCompilerX86@randomx@@QEAAXXZ
_TEXT	SEGMENT
oldp$3 = 32
$T2 = 40
$T1 = 64
__$ArrayPad$ = 96
this$ = 128
?enableAll@JitCompilerX86@randomx@@QEAAXXZ PROC		; randomx::JitCompilerX86::enableAll, COMDAT
; File D:\dev\francium_network\francium_agent\src\ext\randomx\repo\src\jit_compiler_x86.cpp
; Line 236
$LN18:
	sub	rsp, 120				; 00000078H
	mov	rax, QWORD PTR __security_cookie
	xor	rax, rsp
	mov	QWORD PTR __$ArrayPad$[rsp], rax
; File D:\dev\francium_network\francium_agent\src\ext\randomx\repo\src\virtual_memory.cpp
; Line 127
	lea	r9, QWORD PTR oldp$3[rsp]
	mov	edx, 77824				; 00013000H
	mov	r8d, 64					; 00000040H
	mov	rcx, QWORD PTR [rcx+56]
	call	QWORD PTR __imp_VirtualProtect
	test	eax, eax
	je	SHORT $LN16@enableAll
; File D:\dev\francium_network\francium_agent\src\ext\randomx\repo\src\jit_compiler_x86.cpp
; Line 238
	mov	rcx, QWORD PTR __$ArrayPad$[rsp]
	xor	rcx, rsp
	call	__security_check_cookie
	add	rsp, 120				; 00000078H
	ret	0
$LN16@enableAll:
; File D:\dev\francium_network\francium_agent\src\ext\randomx\repo\src\virtual_memory.cpp
; Line 128
	lea	rdx, OFFSET FLAT:??_C@_0P@IGDMCLEE@VirtualProtect@
	lea	rcx, QWORD PTR $T1[rsp]
	call	?getErrorMessage@@YA?AV?$basic_string@DU?$char_traits@D@std@@V?$allocator@D@2@@std@@PEBD@Z ; getErrorMessage
	npad	1
	mov	rdx, rax
	lea	rcx, QWORD PTR $T2[rsp]
	call	??0runtime_error@std@@QEAA@AEBV?$basic_string@DU?$char_traits@D@std@@V?$allocator@D@2@@1@@Z ; std::runtime_error::runtime_error
	lea	rdx, OFFSET FLAT:_TI2?AVruntime_error@std@@
	lea	rcx, QWORD PTR $T2[rsp]
	call	_CxxThrowException
	int	3
$LN14@enableAll:
?enableAll@JitCompilerX86@randomx@@QEAAXXZ ENDP		; randomx::JitCompilerX86::enableAll
_TEXT	ENDS
; Function compile flags: /Ogtpy
;	COMDAT text$x
text$x	SEGMENT
oldp$3 = 32
$T2 = 40
$T1 = 64
__$ArrayPad$ = 96
this$ = 128
?dtor$0@?0??enableAll@JitCompilerX86@randomx@@QEAAXXZ@4HA PROC ; `randomx::JitCompilerX86::enableAll'::`1'::dtor$0
	lea	rcx, QWORD PTR $T1[rdx]
	jmp	??1?$basic_string@DU?$char_traits@D@std@@V?$allocator@D@2@@std@@QEAA@XZ ; std::basic_string<char,std::char_traits<char>,std::allocator<char> >::~basic_string<char,std::char_traits<char>,std::allocator<char> >
?dtor$0@?0??enableAll@JitCompilerX86@randomx@@QEAAXXZ@4HA ENDP ; `randomx::JitCompilerX86::enableAll'::`1'::dtor$0
text$x	ENDS
; Function compile flags: /Ogtpy
;	COMDAT ?isZeroOrPowerOf2@randomx@@YA_N_K@Z
_TEXT	SEGMENT
x$ = 8
?isZeroOrPowerOf2@randomx@@YA_N_K@Z PROC		; randomx::isZeroOrPowerOf2, COMDAT
; File D:\dev\francium_network\francium_agent\src\ext\randomx\repo\src\common.hpp
; Line 155
	lea	rax, QWORD PTR [rcx-1]
	test	rax, rcx
	sete	al
; Line 156
	ret	0
?isZeroOrPowerOf2@randomx@@YA_N_K@Z ENDP		; randomx::isZeroOrPowerOf2
_TEXT	ENDS
; Function compile flags: /Ogtpy
;	COMDAT ?emitByte@JitCompilerX86@randomx@@AEAAXE@Z
_TEXT	SEGMENT
this$ = 8
val$ = 16
?emitByte@JitCompilerX86@randomx@@AEAAXE@Z PROC		; randomx::JitCompilerX86::emitByte, COMDAT
; File D:\dev\francium_network\francium_agent\src\ext\randomx\repo\src\jit_compiler_x86.hpp
; Line 86
	movsxd	r8, DWORD PTR [rcx+64]
	mov	rax, QWORD PTR [rcx+56]
	mov	BYTE PTR [r8+rax], dl
; Line 87
	inc	DWORD PTR [rcx+64]
; Line 88
	ret	0
?emitByte@JitCompilerX86@randomx@@AEAAXE@Z ENDP		; randomx::JitCompilerX86::emitByte
_TEXT	ENDS
; Function compile flags: /Ogtpy
;	COMDAT ?emit32@JitCompilerX86@randomx@@AEAAXI@Z
_TEXT	SEGMENT
this$ = 8
val$ = 16
?emit32@JitCompilerX86@randomx@@AEAAXI@Z PROC		; randomx::JitCompilerX86::emit32, COMDAT
; File D:\dev\francium_network\francium_agent\src\ext\randomx\repo\src\jit_compiler_x86.hpp
; Line 91
	movsxd	r8, DWORD PTR [rcx+64]
	mov	rax, QWORD PTR [rcx+56]
	mov	DWORD PTR [r8+rax], edx
; Line 92
	add	DWORD PTR [rcx+64], 4
; Line 93
	ret	0
?emit32@JitCompilerX86@randomx@@AEAAXI@Z ENDP		; randomx::JitCompilerX86::emit32
_TEXT	ENDS
; Function compile flags: /Ogtpy
;	COMDAT ?emit64@JitCompilerX86@randomx@@AEAAX_K@Z
_TEXT	SEGMENT
this$ = 8
val$ = 16
?emit64@JitCompilerX86@randomx@@AEAAX_K@Z PROC		; randomx::JitCompilerX86::emit64, COMDAT
; File D:\dev\francium_network\francium_agent\src\ext\randomx\repo\src\jit_compiler_x86.hpp
; Line 96
	movsxd	r8, DWORD PTR [rcx+64]
	mov	rax, QWORD PTR [rcx+56]
	mov	QWORD PTR [r8+rax], rdx
; Line 97
	add	DWORD PTR [rcx+64], 8
; Line 98
	ret	0
?emit64@JitCompilerX86@randomx@@AEAAX_K@Z ENDP		; randomx::JitCompilerX86::emit64
_TEXT	ENDS
; Function compile flags: /Ogtpy
;	COMDAT ?emit@JitCompilerX86@randomx@@AEAAXPEBE_K@Z
_TEXT	SEGMENT
this$ = 48
src$ = 56
count$ = 64
?emit@JitCompilerX86@randomx@@AEAAXPEBE_K@Z PROC	; randomx::JitCompilerX86::emit, COMDAT
; File D:\dev\francium_network\francium_agent\src\ext\randomx\repo\src\jit_compiler_x86.hpp
; Line 105
$LN4:
	mov	QWORD PTR [rsp+8], rbx
	push	rdi
	sub	rsp, 32					; 00000020H
	mov	rbx, rcx
	mov	rdi, r8
; Line 106
	movsxd	rcx, DWORD PTR [rcx+64]
	add	rcx, QWORD PTR [rbx+56]
	call	memcpy
; Line 107
	add	DWORD PTR [rbx+64], edi
; Line 108
	mov	rbx, QWORD PTR [rsp+48]
	add	rsp, 32					; 00000020H
	pop	rdi
	ret	0
?emit@JitCompilerX86@randomx@@AEAAXPEBE_K@Z ENDP	; randomx::JitCompilerX86::emit
_TEXT	ENDS
; Function compile flags: /Ogtpy
;	COMDAT ?getModMem@Instruction@randomx@@QEBAHXZ
_TEXT	SEGMENT
this$ = 8
?getModMem@Instruction@randomx@@QEBAHXZ PROC		; randomx::Instruction::getModMem, COMDAT
; File D:\dev\francium_network\francium_agent\src\ext\randomx\repo\src\instruction.hpp
; Line 91
	movzx	eax, BYTE PTR [rcx+3]
	and	eax, 3
; Line 92
	ret	0
?getModMem@Instruction@randomx@@QEBAHXZ ENDP		; randomx::Instruction::getModMem
_TEXT	ENDS
; Function compile flags: /Ogtpy
;	COMDAT ?getModShift@Instruction@randomx@@QEBAHXZ
_TEXT	SEGMENT
this$ = 8
?getModShift@Instruction@randomx@@QEBAHXZ PROC		; randomx::Instruction::getModShift, COMDAT
; File D:\dev\francium_network\francium_agent\src\ext\randomx\repo\src\instruction.hpp
; Line 94
	movzx	eax, BYTE PTR [rcx+3]
	shr	eax, 2
	and	eax, -2147483645			; ffffffff80000003H
	jge	SHORT $LN4@getModShif
	dec	eax
	or	eax, -4
	inc	eax
$LN4@getModShif:
; Line 95
	ret	0
?getModShift@Instruction@randomx@@QEBAHXZ ENDP		; randomx::Instruction::getModShift
_TEXT	ENDS
; Function compile flags: /Ogtpy
;	COMDAT ?getModCond@Instruction@randomx@@QEBAHXZ
_TEXT	SEGMENT
this$ = 8
?getModCond@Instruction@randomx@@QEBAHXZ PROC		; randomx::Instruction::getModCond, COMDAT
; File D:\dev\francium_network\francium_agent\src\ext\randomx\repo\src\instruction.hpp
; Line 97
	movzx	eax, BYTE PTR [rcx+3]
	shr	eax, 4
; Line 98
	ret	0
?getModCond@Instruction@randomx@@QEBAHXZ ENDP		; randomx::Instruction::getModCond
_TEXT	ENDS
; Function compile flags: /Ogtpy
;	COMDAT ?getSize@Program@randomx@@QEAAIXZ
_TEXT	SEGMENT
this$dead$ = 8
?getSize@Program@randomx@@QEAAIXZ PROC			; randomx::Program::getSize, COMDAT
; File D:\dev\francium_network\francium_agent\src\ext\randomx\repo\src\program.hpp
; Line 57
	mov	eax, 256				; 00000100H
; Line 58
	ret	0
?getSize@Program@randomx@@QEAAIXZ ENDP			; randomx::Program::getSize
_TEXT	ENDS
; Function compile flags: /Ogtpy
;	COMDAT ??__EprologueSize@randomx@@YAXXZ
text$di	SEGMENT
??__EprologueSize@randomx@@YAXXZ PROC			; randomx::`dynamic initializer for 'prologueSize'', COMDAT
; File D:\dev\francium_network\francium_agent\src\ext\randomx\repo\src\jit_compiler_x86.cpp
; Line 120
	lea	rax, OFFSET FLAT:randomx_program_loop_begin
	lea	rcx, OFFSET FLAT:randomx_program_prologue
	sub	eax, ecx
	mov	DWORD PTR ?prologueSize@randomx@@3HB, eax
	ret	0
??__EprologueSize@randomx@@YAXXZ ENDP			; randomx::`dynamic initializer for 'prologueSize''
text$di	ENDS
; Function compile flags: /Ogtpy
;	COMDAT ??__EloopLoadSize@randomx@@YAXXZ
text$di	SEGMENT
??__EloopLoadSize@randomx@@YAXXZ PROC			; randomx::`dynamic initializer for 'loopLoadSize'', COMDAT
; File D:\dev\francium_network\francium_agent\src\ext\randomx\repo\src\jit_compiler_x86.cpp
; Line 121
	lea	rax, OFFSET FLAT:randomx_program_start
	lea	rcx, OFFSET FLAT:randomx_program_loop_load
	sub	eax, ecx
	mov	DWORD PTR ?loopLoadSize@randomx@@3HB, eax
	ret	0
??__EloopLoadSize@randomx@@YAXXZ ENDP			; randomx::`dynamic initializer for 'loopLoadSize''
text$di	ENDS
; Function compile flags: /Ogtpy
;	COMDAT ??__EreadDatasetSize@randomx@@YAXXZ
text$di	SEGMENT
??__EreadDatasetSize@randomx@@YAXXZ PROC		; randomx::`dynamic initializer for 'readDatasetSize'', COMDAT
; File D:\dev\francium_network\francium_agent\src\ext\randomx\repo\src\jit_compiler_x86.cpp
; Line 122
	lea	rax, OFFSET FLAT:randomx_program_read_dataset_sshash_init
	lea	rcx, OFFSET FLAT:randomx_program_read_dataset
	sub	eax, ecx
	mov	DWORD PTR ?readDatasetSize@randomx@@3HB, eax
	ret	0
??__EreadDatasetSize@randomx@@YAXXZ ENDP		; randomx::`dynamic initializer for 'readDatasetSize''
text$di	ENDS
; Function compile flags: /Ogtpy
;	COMDAT ??__EreadDatasetLightInitSize@randomx@@YAXXZ
text$di	SEGMENT
??__EreadDatasetLightInitSize@randomx@@YAXXZ PROC	; randomx::`dynamic initializer for 'readDatasetLightInitSize'', COMDAT
; File D:\dev\francium_network\francium_agent\src\ext\randomx\repo\src\jit_compiler_x86.cpp
; Line 123
	lea	rax, OFFSET FLAT:randomx_program_read_dataset_sshash_fin
	lea	rcx, OFFSET FLAT:randomx_program_read_dataset_sshash_init
	sub	eax, ecx
	mov	DWORD PTR ?readDatasetLightInitSize@randomx@@3HB, eax
	ret	0
??__EreadDatasetLightInitSize@randomx@@YAXXZ ENDP	; randomx::`dynamic initializer for 'readDatasetLightInitSize''
text$di	ENDS
; Function compile flags: /Ogtpy
;	COMDAT ??__EreadDatasetLightFinSize@randomx@@YAXXZ
text$di	SEGMENT
??__EreadDatasetLightFinSize@randomx@@YAXXZ PROC	; randomx::`dynamic initializer for 'readDatasetLightFinSize'', COMDAT
; File D:\dev\francium_network\francium_agent\src\ext\randomx\repo\src\jit_compiler_x86.cpp
; Line 124
	lea	rax, OFFSET FLAT:randomx_program_loop_store
	lea	rcx, OFFSET FLAT:randomx_program_read_dataset_sshash_fin
	sub	eax, ecx
	mov	DWORD PTR ?readDatasetLightFinSize@randomx@@3HB, eax
	ret	0
??__EreadDatasetLightFinSize@randomx@@YAXXZ ENDP	; randomx::`dynamic initializer for 'readDatasetLightFinSize''
text$di	ENDS
; Function compile flags: /Ogtpy
;	COMDAT ??__EloopStoreSize@randomx@@YAXXZ
text$di	SEGMENT
??__EloopStoreSize@randomx@@YAXXZ PROC			; randomx::`dynamic initializer for 'loopStoreSize'', COMDAT
; File D:\dev\francium_network\francium_agent\src\ext\randomx\repo\src\jit_compiler_x86.cpp
; Line 125
	lea	rax, OFFSET FLAT:randomx_program_loop_end
	lea	rcx, OFFSET FLAT:randomx_program_loop_store
	sub	eax, ecx
	mov	DWORD PTR ?loopStoreSize@randomx@@3HB, eax
	ret	0
??__EloopStoreSize@randomx@@YAXXZ ENDP			; randomx::`dynamic initializer for 'loopStoreSize''
text$di	ENDS
; Function compile flags: /Ogtpy
;	COMDAT ??__EdatasetInitSize@randomx@@YAXXZ
text$di	SEGMENT
??__EdatasetInitSize@randomx@@YAXXZ PROC		; randomx::`dynamic initializer for 'datasetInitSize'', COMDAT
; File D:\dev\francium_network\francium_agent\src\ext\randomx\repo\src\jit_compiler_x86.cpp
; Line 126
	lea	rax, OFFSET FLAT:randomx_program_epilogue
	lea	rcx, OFFSET FLAT:randomx_dataset_init
	sub	eax, ecx
	mov	DWORD PTR ?datasetInitSize@randomx@@3HB, eax
	ret	0
??__EdatasetInitSize@randomx@@YAXXZ ENDP		; randomx::`dynamic initializer for 'datasetInitSize''
text$di	ENDS
; Function compile flags: /Ogtpy
;	COMDAT ??__EepilogueSize@randomx@@YAXXZ
text$di	SEGMENT
??__EepilogueSize@randomx@@YAXXZ PROC			; randomx::`dynamic initializer for 'epilogueSize'', COMDAT
; File D:\dev\francium_network\francium_agent\src\ext\randomx\repo\src\jit_compiler_x86.cpp
; Line 127
	lea	rax, OFFSET FLAT:randomx_sshash_load
	lea	rcx, OFFSET FLAT:randomx_program_epilogue
	sub	eax, ecx
	mov	DWORD PTR ?epilogueSize@randomx@@3HB, eax
	ret	0
??__EepilogueSize@randomx@@YAXXZ ENDP			; randomx::`dynamic initializer for 'epilogueSize''
text$di	ENDS
; Function compile flags: /Ogtpy
;	COMDAT ??__EcodeSshLoadSize@randomx@@YAXXZ
text$di	SEGMENT
??__EcodeSshLoadSize@randomx@@YAXXZ PROC		; randomx::`dynamic initializer for 'codeSshLoadSize'', COMDAT
; File D:\dev\francium_network\francium_agent\src\ext\randomx\repo\src\jit_compiler_x86.cpp
; Line 128
	lea	rax, OFFSET FLAT:randomx_sshash_prefetch
	lea	rcx, OFFSET FLAT:randomx_sshash_load
	sub	eax, ecx
	mov	DWORD PTR ?codeSshLoadSize@randomx@@3HB, eax
	ret	0
??__EcodeSshLoadSize@randomx@@YAXXZ ENDP		; randomx::`dynamic initializer for 'codeSshLoadSize''
text$di	ENDS
; Function compile flags: /Ogtpy
;	COMDAT ??__EcodeSshPrefetchSize@randomx@@YAXXZ
text$di	SEGMENT
??__EcodeSshPrefetchSize@randomx@@YAXXZ PROC		; randomx::`dynamic initializer for 'codeSshPrefetchSize'', COMDAT
; File D:\dev\francium_network\francium_agent\src\ext\randomx\repo\src\jit_compiler_x86.cpp
; Line 129
	lea	rax, OFFSET FLAT:randomx_sshash_end
	lea	rcx, OFFSET FLAT:randomx_sshash_prefetch
	sub	eax, ecx
	mov	DWORD PTR ?codeSshPrefetchSize@randomx@@3HB, eax
	ret	0
??__EcodeSshPrefetchSize@randomx@@YAXXZ ENDP		; randomx::`dynamic initializer for 'codeSshPrefetchSize''
text$di	ENDS
; Function compile flags: /Ogtpy
;	COMDAT ??__EcodeSshInitSize@randomx@@YAXXZ
text$di	SEGMENT
??__EcodeSshInitSize@randomx@@YAXXZ PROC		; randomx::`dynamic initializer for 'codeSshInitSize'', COMDAT
; File D:\dev\francium_network\francium_agent\src\ext\randomx\repo\src\jit_compiler_x86.cpp
; Line 130
	lea	rax, OFFSET FLAT:randomx_program_end
	lea	rcx, OFFSET FLAT:randomx_sshash_init
	sub	eax, ecx
	mov	DWORD PTR ?codeSshInitSize@randomx@@3HB, eax
	ret	0
??__EcodeSshInitSize@randomx@@YAXXZ ENDP		; randomx::`dynamic initializer for 'codeSshInitSize''
text$di	ENDS
; Function compile flags: /Ogtpy
;	COMDAT ??__EepilogueOffset@randomx@@YAXXZ
text$di	SEGMENT
??__EepilogueOffset@randomx@@YAXXZ PROC			; randomx::`dynamic initializer for 'epilogueOffset'', COMDAT
; File D:\dev\francium_network\francium_agent\src\ext\randomx\repo\src\jit_compiler_x86.cpp
; Line 132
	mov	eax, 77824				; 00013000H
	sub	eax, DWORD PTR ?epilogueSize@randomx@@3HB
	mov	DWORD PTR ?epilogueOffset@randomx@@3HB, eax
	ret	0
??__EepilogueOffset@randomx@@YAXXZ ENDP			; randomx::`dynamic initializer for 'epilogueOffset''
text$di	ENDS
; Function compile flags: /Ogtpy
;	COMDAT ?generateProgramPrologue@JitCompilerX86@randomx@@AEAAXAEAVProgram@2@AEAUProgramConfiguration@2@@Z
_TEXT	SEGMENT
this$ = 64
prog$ = 72
pcfg$ = 80
?generateProgramPrologue@JitCompilerX86@randomx@@AEAAXAEAVProgram@2@AEAUProgramConfiguration@2@@Z PROC ; randomx::JitCompilerX86::generateProgramPrologue, COMDAT
; File D:\dev\francium_network\francium_agent\src\ext\randomx\repo\src\jit_compiler_x86.cpp
; Line 302
$LN52:
	mov	QWORD PTR [rsp+8], rbx
	mov	QWORD PTR [rsp+16], rbp
	mov	QWORD PTR [rsp+24], rsi
	mov	QWORD PTR [rsp+32], rdi
	push	r12
	push	r14
	push	r15
	sub	rsp, 32					; 00000020H
; File D:\software\Visual Studio 2022\VC\Tools\MSVC\14.35.32215\include\vector
; Line 1829
	mov	rax, QWORD PTR [rcx]
; File D:\dev\francium_network\francium_agent\src\ext\randomx\repo\src\jit_compiler_x86.cpp
; Line 302
	mov	r15, r8
	mov	rbp, rdx
	mov	rbx, rcx
; File D:\software\Visual Studio 2022\VC\Tools\MSVC\14.35.32215\include\vector
; Line 1829
	cmp	rax, QWORD PTR [rcx+8]
	je	SHORT $LL32@generatePr
; Line 1839
	mov	QWORD PTR [rcx+8], rax
	npad	12
$LL32@generatePr:
; File D:\dev\francium_network\francium_agent\src\ext\randomx\repo\src\jit_compiler_x86.cpp
; Line 308
	movsxd	rax, DWORD PTR ?prologueSize@randomx@@3HB
; Line 310
	lea	rdx, OFFSET FLAT:randomx_program_loop_load
	movsxd	rdi, DWORD PTR ?loopLoadSize@randomx@@3HB
	mov	QWORD PTR [rcx+24], -1
	mov	QWORD PTR [rcx+32], -1
	mov	QWORD PTR [rcx+40], -1
	mov	QWORD PTR [rcx+48], -1
	mov	DWORD PTR [rcx+64], eax
	mov	rcx, rax
	movups	xmm0, XMMWORD PTR [r8]
	mov	rax, QWORD PTR [rbx+56]
	mov	r8, rdi
	movups	XMMWORD PTR [rcx+rax-48], xmm0
	movsxd	rcx, DWORD PTR [rbx+64]
	add	rcx, QWORD PTR [rbx+56]
	call	memcpy
; Line 311
	add	DWORD PTR [rbx+64], edi
; Line 340
	lea	r12, OFFSET FLAT:?engine@JitCompilerX86@randomx@@0PAP812@EAAXAEAVInstruction@2@H@ZA ; randomx::JitCompilerX86::engine
; Line 308
	xor	esi, esi
	npad	12
$LL7@generatePr:
; File D:\dev\francium_network\francium_agent\src\ext\randomx\repo\src\program.hpp
; Line 47
	movsxd	rax, esi
	lea	rdi, QWORD PTR [rbp+128]
; File D:\dev\francium_network\francium_agent\src\ext\randomx\repo\src\jit_compiler_x86.cpp
; Line 314
	and	BYTE PTR [rdi+rax*8+2], 7
; File D:\dev\francium_network\francium_agent\src\ext\randomx\repo\src\program.hpp
; Line 47
	lea	rdi, QWORD PTR [rdi+rax*8]
; File D:\dev\francium_network\francium_agent\src\ext\randomx\repo\src\jit_compiler_x86.cpp
; Line 315
	and	BYTE PTR [rdi+1], 7
; File D:\software\Visual Studio 2022\VC\Tools\MSVC\14.35.32215\include\vector
; Line 844
	mov	rdx, QWORD PTR [rbx+8]
	cmp	rdx, QWORD PTR [rbx+16]
	je	SHORT $LN16@generatePr
; Line 860
	mov	eax, DWORD PTR [rbx+64]
	mov	DWORD PTR [rdx], eax
; Line 869
	add	QWORD PTR [rbx+8], 4
; Line 845
	jmp	SHORT $LN15@generatePr
$LN16@generatePr:
; Line 848
	lea	r8, QWORD PTR [rbx+64]
	mov	rcx, rbx
	call	??$_Emplace_reallocate@AEBH@?$vector@HV?$allocator@H@std@@@std@@AEAAPEAHQEAHAEBH@Z ; std::vector<int,std::allocator<int> >::_Emplace_reallocate<int const &>
$LN15@generatePr:
; File D:\dev\francium_network\francium_agent\src\ext\randomx\repo\src\jit_compiler_x86.cpp
; Line 341
	movzx	eax, BYTE PTR [rdi]
; Line 342
	mov	r8d, esi
	mov	rdx, rdi
	mov	rcx, rbx
	call	QWORD PTR [r12+rax*8]
; Line 312
	inc	esi
	cmp	esi, 256				; 00000100H
	jb	SHORT $LL7@generatePr
; File D:\dev\francium_network\francium_agent\src\ext\randomx\repo\src\jit_compiler_x86.hpp
; Line 106
	movsxd	rdx, DWORD PTR [rbx+64]
	movzx	eax, WORD PTR ?REX_MOV_RR@randomx@@3QBEB
	mov	rcx, QWORD PTR [rbx+56]
; File D:\dev\francium_network\francium_agent\src\ext\randomx\repo\src\jit_compiler_x86.cpp
; Line 322
	mov	rbp, QWORD PTR [rsp+72]
	mov	rsi, QWORD PTR [rsp+80]
	mov	rdi, QWORD PTR [rsp+88]
; File D:\dev\francium_network\francium_agent\src\ext\randomx\repo\src\jit_compiler_x86.hpp
; Line 106
	mov	WORD PTR [rdx+rcx], ax
; Line 107
	add	DWORD PTR [rbx+64], 2
; Line 86
	movsxd	rcx, DWORD PTR [rbx+64]
; File D:\dev\francium_network\francium_agent\src\ext\randomx\repo\src\jit_compiler_x86.cpp
; Line 319
	movzx	edx, BYTE PTR [r15+24]
; File D:\dev\francium_network\francium_agent\src\ext\randomx\repo\src\jit_compiler_x86.hpp
; Line 86
	mov	rax, QWORD PTR [rbx+56]
; File D:\dev\francium_network\francium_agent\src\ext\randomx\repo\src\jit_compiler_x86.cpp
; Line 319
	sub	dl, 64					; 00000040H
; File D:\dev\francium_network\francium_agent\src\ext\randomx\repo\src\jit_compiler_x86.hpp
; Line 86
	mov	BYTE PTR [rcx+rax], dl
; Line 87
	movsxd	rcx, DWORD PTR [rbx+64]
; Line 106
	mov	rdx, rcx
; Line 87
	lea	eax, DWORD PTR [rcx+1]
; Line 106
	mov	rcx, QWORD PTR [rbx+56]
; Line 87
	mov	DWORD PTR [rbx+64], eax
; Line 106
	movzx	eax, WORD PTR ?REX_XOR_EAX@randomx@@3QBEB
	mov	WORD PTR [rdx+rcx+1], ax
; Line 107
	add	DWORD PTR [rbx+64], 2
; Line 86
	movsxd	rcx, DWORD PTR [rbx+64]
; File D:\dev\francium_network\francium_agent\src\ext\randomx\repo\src\jit_compiler_x86.cpp
; Line 321
	movzx	edx, BYTE PTR [r15+28]
; File D:\dev\francium_network\francium_agent\src\ext\randomx\repo\src\jit_compiler_x86.hpp
; Line 86
	mov	rax, QWORD PTR [rbx+56]
; File D:\dev\francium_network\francium_agent\src\ext\randomx\repo\src\jit_compiler_x86.cpp
; Line 321
	sub	dl, 64					; 00000040H
; File D:\dev\francium_network\francium_agent\src\ext\randomx\repo\src\jit_compiler_x86.hpp
; Line 86
	mov	BYTE PTR [rcx+rax], dl
; Line 87
	inc	DWORD PTR [rbx+64]
; File D:\dev\francium_network\francium_agent\src\ext\randomx\repo\src\jit_compiler_x86.cpp
; Line 322
	mov	rbx, QWORD PTR [rsp+64]
	add	rsp, 32					; 00000020H
	pop	r15
	pop	r14
	pop	r12
	ret	0
?generateProgramPrologue@JitCompilerX86@randomx@@AEAAXAEAVProgram@2@AEAUProgramConfiguration@2@@Z ENDP ; randomx::JitCompilerX86::generateProgramPrologue
_TEXT	ENDS
; Function compile flags: /Ogtpy
;	COMDAT ?generateProgramEpilogue@JitCompilerX86@randomx@@AEAAXAEAVProgram@2@AEAUProgramConfiguration@2@@Z
_TEXT	SEGMENT
this$ = 48
prog$dead$ = 56
pcfg$ = 64
?generateProgramEpilogue@JitCompilerX86@randomx@@AEAAXAEAVProgram@2@AEAUProgramConfiguration@2@@Z PROC ; randomx::JitCompilerX86::generateProgramEpilogue, COMDAT
; File D:\dev\francium_network\francium_agent\src\ext\randomx\repo\src\jit_compiler_x86.cpp
; Line 324
$LN32:
	mov	QWORD PTR [rsp+8], rbx
	push	rdi
	sub	rsp, 32					; 00000020H
; File D:\dev\francium_network\francium_agent\src\ext\randomx\repo\src\jit_compiler_x86.hpp
; Line 106
	movsxd	r9, DWORD PTR [rcx+64]
; File D:\dev\francium_network\francium_agent\src\ext\randomx\repo\src\jit_compiler_x86.cpp
; Line 329
	lea	rbx, OFFSET FLAT:randomx_prefetch_scratchpad_end
; File D:\dev\francium_network\francium_agent\src\ext\randomx\repo\src\jit_compiler_x86.hpp
; Line 106
	mov	rdx, QWORD PTR [rcx+56]
; File D:\dev\francium_network\francium_agent\src\ext\randomx\repo\src\jit_compiler_x86.cpp
; Line 324
	mov	rdi, rcx
; File D:\dev\francium_network\francium_agent\src\ext\randomx\repo\src\jit_compiler_x86.hpp
; Line 106
	movzx	eax, WORD PTR ?REX_MOV_RR64@randomx@@3QBEB
	mov	WORD PTR [r9+rdx], ax
; Line 107
	add	DWORD PTR [rcx+64], 2
; Line 86
	movsxd	rdx, DWORD PTR [rcx+64]
	mov	rax, QWORD PTR [rcx+56]
; File D:\dev\francium_network\francium_agent\src\ext\randomx\repo\src\jit_compiler_x86.cpp
; Line 326
	movzx	r9d, BYTE PTR [r8+16]
	sub	r9b, 64					; 00000040H
; File D:\dev\francium_network\francium_agent\src\ext\randomx\repo\src\jit_compiler_x86.hpp
; Line 86
	mov	BYTE PTR [rdx+rax], r9b
; Line 87
	movsxd	rcx, DWORD PTR [rcx+64]
; Line 106
	mov	rdx, rcx
; Line 87
	lea	eax, DWORD PTR [rcx+1]
; Line 106
	mov	rcx, QWORD PTR [rdi+56]
; Line 87
	mov	DWORD PTR [rdi+64], eax
; Line 106
	movzx	eax, WORD PTR ?REX_XOR_RAX_R64@randomx@@3QBEB
	mov	WORD PTR [rdx+rcx+1], ax
; Line 107
	add	DWORD PTR [rdi+64], 2
; File D:\dev\francium_network\francium_agent\src\ext\randomx\repo\src\jit_compiler_x86.cpp
; Line 328
	movzx	edx, BYTE PTR [r8+20]
; File D:\dev\francium_network\francium_agent\src\ext\randomx\repo\src\jit_compiler_x86.hpp
; Line 86
	movsxd	rcx, DWORD PTR [rdi+64]
; File D:\dev\francium_network\francium_agent\src\ext\randomx\repo\src\jit_compiler_x86.cpp
; Line 328
	sub	dl, 64					; 00000040H
; File D:\dev\francium_network\francium_agent\src\ext\randomx\repo\src\jit_compiler_x86.hpp
; Line 86
	mov	rax, QWORD PTR [rdi+56]
	mov	BYTE PTR [rcx+rax], dl
; File D:\dev\francium_network\francium_agent\src\ext\randomx\repo\src\jit_compiler_x86.cpp
; Line 329
	lea	rdx, OFFSET FLAT:randomx_prefetch_scratchpad
; File D:\dev\francium_network\francium_agent\src\ext\randomx\repo\src\jit_compiler_x86.hpp
; Line 87
	inc	DWORD PTR [rdi+64]
; File D:\dev\francium_network\francium_agent\src\ext\randomx\repo\src\jit_compiler_x86.cpp
; Line 329
	sub	rbx, rdx
; File D:\dev\francium_network\francium_agent\src\ext\randomx\repo\src\jit_compiler_x86.hpp
; Line 106
	movsxd	rcx, DWORD PTR [rdi+64]
	mov	r8, rbx
	add	rcx, QWORD PTR [rdi+56]
	call	memcpy
; Line 107
	add	DWORD PTR [rdi+64], ebx
; File D:\dev\francium_network\francium_agent\src\ext\randomx\repo\src\jit_compiler_x86.cpp
; Line 330
	lea	rdx, OFFSET FLAT:randomx_program_loop_store
	movsxd	rcx, DWORD PTR [rdi+64]
	movsxd	rbx, DWORD PTR ?loopStoreSize@randomx@@3HB
	add	rcx, QWORD PTR [rdi+56]
	mov	r8, rbx
	call	memcpy
; Line 331
	add	DWORD PTR [rdi+64], ebx
; File D:\dev\francium_network\francium_agent\src\ext\randomx\repo\src\jit_compiler_x86.hpp
; Line 106
	movzx	eax, WORD PTR ?SUB_EBX@randomx@@3QBEB
	movsxd	rdx, DWORD PTR [rdi+64]
	add	rdx, QWORD PTR [rdi+56]
; File D:\dev\francium_network\francium_agent\src\ext\randomx\repo\src\jit_compiler_x86.cpp
; Line 337
	mov	rbx, QWORD PTR [rsp+48]
; File D:\dev\francium_network\francium_agent\src\ext\randomx\repo\src\jit_compiler_x86.hpp
; Line 106
	mov	WORD PTR [rdx], ax
	movzx	eax, BYTE PTR ?SUB_EBX@randomx@@3QBEB+2
	mov	BYTE PTR [rdx+2], al
; Line 107
	add	DWORD PTR [rdi+64], 3
; Line 106
	movsxd	rdx, DWORD PTR [rdi+64]
	movzx	eax, WORD PTR ?JNZ@randomx@@3QBEB
	mov	rcx, QWORD PTR [rdi+56]
	mov	WORD PTR [rdx+rcx], ax
; Line 107
	add	DWORD PTR [rdi+64], 2
	movsxd	rax, DWORD PTR [rdi+64]
; Line 91
	mov	edx, DWORD PTR ?prologueSize@randomx@@3HB
	mov	rcx, rax
	sub	edx, eax
	mov	rax, QWORD PTR [rdi+56]
; File D:\dev\francium_network\francium_agent\src\ext\randomx\repo\src\jit_compiler_x86.cpp
; Line 334
	sub	edx, 4
; File D:\dev\francium_network\francium_agent\src\ext\randomx\repo\src\jit_compiler_x86.hpp
; Line 91
	mov	DWORD PTR [rcx+rax], edx
; Line 92
	add	DWORD PTR [rdi+64], 4
; Line 86
	movsxd	rcx, DWORD PTR [rdi+64]
	mov	rax, QWORD PTR [rdi+56]
; Line 91
	mov	edx, DWORD PTR ?epilogueOffset@randomx@@3HB
; Line 86
	mov	BYTE PTR [rcx+rax], 233			; 000000e9H
; Line 87
	movsxd	rcx, DWORD PTR [rdi+64]
	lea	eax, DWORD PTR [rcx+1]
	mov	DWORD PTR [rdi+64], eax
; Line 91
	sub	edx, eax
	mov	rax, QWORD PTR [rdi+56]
; File D:\dev\francium_network\francium_agent\src\ext\randomx\repo\src\jit_compiler_x86.cpp
; Line 336
	sub	edx, 4
; File D:\dev\francium_network\francium_agent\src\ext\randomx\repo\src\jit_compiler_x86.hpp
; Line 91
	mov	DWORD PTR [rcx+rax+1], edx
; Line 92
	add	DWORD PTR [rdi+64], 4
; File D:\dev\francium_network\francium_agent\src\ext\randomx\repo\src\jit_compiler_x86.cpp
; Line 337
	add	rsp, 32					; 00000020H
	pop	rdi
	ret	0
?generateProgramEpilogue@JitCompilerX86@randomx@@AEAAXAEAVProgram@2@AEAUProgramConfiguration@2@@Z ENDP ; randomx::JitCompilerX86::generateProgramEpilogue
_TEXT	ENDS
; Function compile flags: /Ogtpy
;	COMDAT ?generateCode@JitCompilerX86@randomx@@AEAAXAEAVInstruction@2@H@Z
_TEXT	SEGMENT
this$ = 48
instr$ = 56
i$ = 64
?generateCode@JitCompilerX86@randomx@@AEAAXAEAVInstruction@2@H@Z PROC ; randomx::JitCompilerX86::generateCode, COMDAT
; File D:\dev\francium_network\francium_agent\src\ext\randomx\repo\src\jit_compiler_x86.cpp
; Line 339
$LN11:
	mov	QWORD PTR [rsp+8], rbx
	mov	QWORD PTR [rsp+16], rsi
	push	rdi
	sub	rsp, 32					; 00000020H
	mov	rdi, rdx
	mov	esi, r8d
; File D:\software\Visual Studio 2022\VC\Tools\MSVC\14.35.32215\include\vector
; Line 844
	mov	rdx, QWORD PTR [rcx+8]
; File D:\dev\francium_network\francium_agent\src\ext\randomx\repo\src\jit_compiler_x86.cpp
; Line 340
	lea	r8, QWORD PTR [rcx+64]
	mov	rbx, rcx
; File D:\software\Visual Studio 2022\VC\Tools\MSVC\14.35.32215\include\vector
; Line 844
	cmp	rdx, QWORD PTR [rcx+16]
	je	SHORT $LN6@generateCo
; Line 860
	mov	eax, DWORD PTR [r8]
	mov	DWORD PTR [rdx], eax
; Line 869
	add	QWORD PTR [rcx+8], 4
; Line 845
	jmp	SHORT $LN5@generateCo
$LN6@generateCo:
; Line 848
	call	??$_Emplace_reallocate@AEBH@?$vector@HV?$allocator@H@std@@@std@@AEAAPEAHQEAHAEBH@Z ; std::vector<int,std::allocator<int> >::_Emplace_reallocate<int const &>
$LN5@generateCo:
; File D:\dev\francium_network\francium_agent\src\ext\randomx\repo\src\jit_compiler_x86.cpp
; Line 341
	movzx	eax, BYTE PTR [rdi]
	lea	r9, OFFSET FLAT:?engine@JitCompilerX86@randomx@@0PAP812@EAAXAEAVInstruction@2@H@ZA ; randomx::JitCompilerX86::engine
; Line 342
	mov	r8d, esi
	mov	rdx, rdi
	mov	rcx, rbx
; Line 343
	mov	rbx, QWORD PTR [rsp+48]
	mov	rsi, QWORD PTR [rsp+56]
	add	rsp, 32					; 00000020H
	pop	rdi
; Line 342
	rex_jmp	QWORD PTR [r9+rax*8]
?generateCode@JitCompilerX86@randomx@@AEAAXAEAVInstruction@2@H@Z ENDP ; randomx::JitCompilerX86::generateCode
_TEXT	ENDS
; Function compile flags: /Ogtpy
;	COMDAT ?generateSuperscalarCode@JitCompilerX86@randomx@@AEAAXAEAVInstruction@2@AEAV?$vector@_KV?$allocator@_K@std@@@std@@@Z
_TEXT	SEGMENT
this$ = 8
instr$ = 16
reciprocalCache$ = 24
?generateSuperscalarCode@JitCompilerX86@randomx@@AEAAXAEAVInstruction@2@AEAV?$vector@_KV?$allocator@_K@std@@@std@@@Z PROC ; randomx::JitCompilerX86::generateSuperscalarCode, COMDAT
; File D:\dev\francium_network\francium_agent\src\ext\randomx\repo\src\jit_compiler_x86.cpp
; Line 345
$LN167:
	mov	QWORD PTR [rsp+8], rbx
; Line 346
	movzx	eax, BYTE PTR [rdx]
	mov	r10, rcx
	lea	rcx, OFFSET FLAT:__ImageBase
	mov	rbx, r8
	mov	r11, rdx
	mov	eax, DWORD PTR $LN157@generateSu[rcx+rax*4]
	add	rax, rcx
	jmp	rax
$LN4@generateSu:
; File D:\dev\francium_network\francium_agent\src\ext\randomx\repo\src\jit_compiler_x86.hpp
; Line 106
	movsxd	r8, DWORD PTR [r10+64]
	mov	rdx, QWORD PTR [r10+56]
	movzx	eax, WORD PTR ?REX_SUB_RR@randomx@@3QBEB
	mov	WORD PTR [r8+rdx], ax
$LN159@generateSu:
; File D:\dev\francium_network\francium_agent\src\ext\randomx\repo\src\jit_compiler_x86.cpp
; Line 437
	add	DWORD PTR [r10+64], 2
$LN161@generateSu:
	movzx	edx, BYTE PTR [r11+1]
	shl	dl, 3
	sub	dl, 64					; 00000040H
	add	dl, BYTE PTR [r11+2]
$LN162@generateSu:
	movsxd	rcx, DWORD PTR [r10+64]
	mov	rax, QWORD PTR [r10+56]
	mov	BYTE PTR [rcx+rax], dl
	inc	DWORD PTR [r10+64]
	mov	rbx, QWORD PTR [rsp+8]
	ret	0
$LN5@generateSu:
; File D:\dev\francium_network\francium_agent\src\ext\randomx\repo\src\jit_compiler_x86.hpp
; Line 106
	movsxd	rdx, DWORD PTR [r10+64]
	mov	rcx, QWORD PTR [r10+56]
	movzx	eax, WORD PTR ?REX_XOR_RR@randomx@@3QBEB
	mov	WORD PTR [rdx+rcx], ax
; File D:\dev\francium_network\francium_agent\src\ext\randomx\repo\src\jit_compiler_x86.cpp
; Line 355
	jmp	SHORT $LN159@generateSu
$LN6@generateSu:
; File D:\dev\francium_network\francium_agent\src\ext\randomx\repo\src\jit_compiler_x86.hpp
; Line 106
	movsxd	rdx, DWORD PTR [r10+64]
	movzx	eax, WORD PTR ?REX_LEA@randomx@@3QBEB
	mov	rcx, QWORD PTR [r10+56]
	mov	WORD PTR [rdx+rcx], ax
; Line 107
	add	DWORD PTR [r10+64], 2
; File D:\dev\francium_network\francium_agent\src\ext\randomx\repo\src\jit_compiler_x86.cpp
; Line 358
	movzx	edx, BYTE PTR [r11+1]
; File D:\dev\francium_network\francium_agent\src\ext\randomx\repo\src\jit_compiler_x86.hpp
; Line 86
	movsxd	rcx, DWORD PTR [r10+64]
	mov	rax, QWORD PTR [r10+56]
; File D:\dev\francium_network\francium_agent\src\ext\randomx\repo\src\jit_compiler_x86.cpp
; Line 358
	shl	dl, 3
	add	dl, 4
; File D:\dev\francium_network\francium_agent\src\ext\randomx\repo\src\jit_compiler_x86.hpp
; Line 86
	mov	BYTE PTR [rcx+rax], dl
; Line 87
	movsxd	rcx, DWORD PTR [r10+64]
	lea	eax, DWORD PTR [rcx+1]
	mov	DWORD PTR [r10+64], eax
; File D:\dev\francium_network\francium_agent\src\ext\randomx\repo\src\instruction.hpp
; Line 94
	movzx	edx, BYTE PTR [r11+3]
	shr	edx, 2
	and	edx, -2147483645			; ffffffff80000003H
	jge	SHORT $LN156@generateSu
	dec	edx
	or	edx, -4
	inc	edx
$LN156@generateSu:
; File D:\dev\francium_network\francium_agent\src\ext\randomx\repo\src\jit_compiler_x86.hpp
; Line 86
	mov	rax, QWORD PTR [r10+56]
; File D:\dev\francium_network\francium_agent\src\ext\randomx\repo\src\instruction.hpp
; Line 94
	shl	dl, 3
; File D:\dev\francium_network\francium_agent\src\ext\randomx\repo\src\jit_compiler_x86.cpp
; Line 501
	or	dl, BYTE PTR [r11+2]
	shl	dl, 3
	or	dl, BYTE PTR [r11+1]
; File D:\dev\francium_network\francium_agent\src\ext\randomx\repo\src\jit_compiler_x86.hpp
; Line 86
	mov	BYTE PTR [rcx+rax+1], dl
; File D:\dev\francium_network\francium_agent\src\ext\randomx\repo\src\jit_compiler_x86.cpp
; Line 437
	inc	DWORD PTR [r10+64]
	mov	rbx, QWORD PTR [rsp+8]
	ret	0
$LN7@generateSu:
; File D:\dev\francium_network\francium_agent\src\ext\randomx\repo\src\jit_compiler_x86.hpp
; Line 106
	movsxd	rdx, DWORD PTR [r10+64]
	movzx	eax, WORD PTR ?REX_IMUL_RR@randomx@@3QBEB
	add	rdx, QWORD PTR [r10+56]
	mov	WORD PTR [rdx], ax
	movzx	eax, BYTE PTR ?REX_IMUL_RR@randomx@@3QBEB+2
	mov	BYTE PTR [rdx+2], al
; Line 107
	add	DWORD PTR [r10+64], 3
; File D:\dev\francium_network\francium_agent\src\ext\randomx\repo\src\jit_compiler_x86.cpp
; Line 364
	jmp	$LN161@generateSu
$LN8@generateSu:
; File D:\dev\francium_network\francium_agent\src\ext\randomx\repo\src\jit_compiler_x86.hpp
; Line 106
	movsxd	rdx, DWORD PTR [r10+64]
	movzx	eax, WORD PTR ?REX_ROT_I8@randomx@@3QBEB
	mov	rcx, QWORD PTR [r10+56]
	mov	WORD PTR [rdx+rcx], ax
; Line 107
	add	DWORD PTR [r10+64], 2
; Line 86
	movsxd	rcx, DWORD PTR [r10+64]
; File D:\dev\francium_network\francium_agent\src\ext\randomx\repo\src\jit_compiler_x86.cpp
; Line 367
	movzx	edx, BYTE PTR [r11+1]
; File D:\dev\francium_network\francium_agent\src\ext\randomx\repo\src\jit_compiler_x86.hpp
; Line 86
	mov	rax, QWORD PTR [r10+56]
; File D:\dev\francium_network\francium_agent\src\ext\randomx\repo\src\jit_compiler_x86.cpp
; Line 367
	sub	dl, 56					; 00000038H
; File D:\dev\francium_network\francium_agent\src\ext\randomx\repo\src\jit_compiler_x86.hpp
; Line 86
	mov	BYTE PTR [rcx+rax], dl
; Line 87
	movsxd	rcx, DWORD PTR [r10+64]
	lea	eax, DWORD PTR [rcx+1]
	mov	DWORD PTR [r10+64], eax
; File D:\dev\francium_network\francium_agent\src\ext\randomx\repo\src\jit_compiler_x86.cpp
; Line 368
	movzx	edx, BYTE PTR [r11+4]
; File D:\dev\francium_network\francium_agent\src\ext\randomx\repo\src\jit_compiler_x86.hpp
; Line 86
	mov	rax, QWORD PTR [r10+56]
; File D:\dev\francium_network\francium_agent\src\ext\randomx\repo\src\jit_compiler_x86.cpp
; Line 368
	and	dl, 63					; 0000003fH
; File D:\dev\francium_network\francium_agent\src\ext\randomx\repo\src\jit_compiler_x86.hpp
; Line 86
	mov	BYTE PTR [rcx+rax+1], dl
; File D:\dev\francium_network\francium_agent\src\ext\randomx\repo\src\jit_compiler_x86.cpp
; Line 437
	inc	DWORD PTR [r10+64]
	mov	rbx, QWORD PTR [rsp+8]
	ret	0
$LN9@generateSu:
	movsxd	rdx, DWORD PTR [r10+64]
	movzx	eax, WORD PTR ?REX_81@randomx@@3QBEB
	mov	rcx, QWORD PTR [r10+56]
	mov	WORD PTR [rdx+rcx], ax
	add	DWORD PTR [r10+64], 2
	movzx	edx, BYTE PTR [r11+1]
	sub	dl, 64					; 00000040H
$LN163@generateSu:
	movsxd	rcx, DWORD PTR [r10+64]
	mov	rax, QWORD PTR [r10+56]
	mov	rbx, QWORD PTR [rsp+8]
	mov	BYTE PTR [rcx+rax], dl
	movsxd	rcx, DWORD PTR [r10+64]
	mov	rdx, rcx
	lea	eax, DWORD PTR [rcx+1]
	mov	rcx, QWORD PTR [r10+56]
	mov	DWORD PTR [r10+64], eax
	mov	eax, DWORD PTR [r11+4]
	mov	DWORD PTR [rdx+rcx+1], eax
	add	DWORD PTR [r10+64], 4
	ret	0
$LN10@generateSu:
	movsxd	rdx, DWORD PTR [r10+64]
	movzx	eax, WORD PTR ?REX_XOR_RI@randomx@@3QBEB
	mov	rcx, QWORD PTR [r10+56]
	mov	WORD PTR [rdx+rcx], ax
	add	DWORD PTR [r10+64], 2
	movzx	edx, BYTE PTR [r11+1]
	sub	dl, 16
	jmp	SHORT $LN163@generateSu
$LN15@generateSu:
; File D:\dev\francium_network\francium_agent\src\ext\randomx\repo\src\jit_compiler_x86.hpp
; Line 106
	movsxd	rdx, DWORD PTR [r10+64]
	movzx	eax, WORD PTR ?REX_MOV_RR64@randomx@@3QBEB
	mov	rcx, QWORD PTR [r10+56]
	mov	WORD PTR [rdx+rcx], ax
; Line 107
	add	DWORD PTR [r10+64], 2
; File D:\dev\francium_network\francium_agent\src\ext\randomx\repo\src\jit_compiler_x86.cpp
; Line 414
	movzx	edx, BYTE PTR [r11+1]
; File D:\dev\francium_network\francium_agent\src\ext\randomx\repo\src\jit_compiler_x86.hpp
; Line 86
	movsxd	rcx, DWORD PTR [r10+64]
; File D:\dev\francium_network\francium_agent\src\ext\randomx\repo\src\jit_compiler_x86.cpp
; Line 414
	sub	dl, 64					; 00000040H
; File D:\dev\francium_network\francium_agent\src\ext\randomx\repo\src\jit_compiler_x86.hpp
; Line 86
	mov	rax, QWORD PTR [r10+56]
	mov	BYTE PTR [rcx+rax], dl
; Line 87
	inc	DWORD PTR [r10+64]
; Line 106
	movsxd	rdx, DWORD PTR [r10+64]
	movzx	eax, WORD PTR ?REX_MUL_R@randomx@@3QBEB
	mov	rcx, QWORD PTR [r10+56]
	mov	WORD PTR [rdx+rcx], ax
; Line 107
	add	DWORD PTR [r10+64], 2
; File D:\dev\francium_network\francium_agent\src\ext\randomx\repo\src\jit_compiler_x86.cpp
; Line 416
	movzx	edx, BYTE PTR [r11+2]
	sub	dl, 32					; 00000020H
$LN164@generateSu:
; Line 437
	movsxd	rcx, DWORD PTR [r10+64]
	mov	rax, QWORD PTR [r10+56]
	mov	BYTE PTR [rcx+rax], dl
	inc	DWORD PTR [r10+64]
	movsxd	rdx, DWORD PTR [r10+64]
	movzx	eax, WORD PTR ?REX_MOV_R64R@randomx@@3QBEB
	mov	rcx, QWORD PTR [r10+56]
	mov	WORD PTR [rdx+rcx], ax
	add	DWORD PTR [r10+64], 2
	movzx	edx, BYTE PTR [r11+1]
	shl	dl, 3
	sub	dl, 62					; 0000003eH
	jmp	$LN162@generateSu
$LN16@generateSu:
; File D:\dev\francium_network\francium_agent\src\ext\randomx\repo\src\jit_compiler_x86.hpp
; Line 106
	movsxd	rdx, DWORD PTR [r10+64]
	movzx	eax, WORD PTR ?REX_MOV_RR64@randomx@@3QBEB
	mov	rcx, QWORD PTR [r10+56]
	mov	WORD PTR [rdx+rcx], ax
; Line 107
	add	DWORD PTR [r10+64], 2
; File D:\dev\francium_network\francium_agent\src\ext\randomx\repo\src\jit_compiler_x86.cpp
; Line 422
	movzx	edx, BYTE PTR [r11+1]
; File D:\dev\francium_network\francium_agent\src\ext\randomx\repo\src\jit_compiler_x86.hpp
; Line 86
	movsxd	rcx, DWORD PTR [r10+64]
; File D:\dev\francium_network\francium_agent\src\ext\randomx\repo\src\jit_compiler_x86.cpp
; Line 422
	sub	dl, 64					; 00000040H
; File D:\dev\francium_network\francium_agent\src\ext\randomx\repo\src\jit_compiler_x86.hpp
; Line 86
	mov	rax, QWORD PTR [r10+56]
	mov	BYTE PTR [rcx+rax], dl
; Line 87
	inc	DWORD PTR [r10+64]
; Line 106
	movsxd	rdx, DWORD PTR [r10+64]
	movzx	eax, WORD PTR ?REX_MUL_R@randomx@@3QBEB
	mov	rcx, QWORD PTR [r10+56]
	mov	WORD PTR [rdx+rcx], ax
; Line 107
	add	DWORD PTR [r10+64], 2
; File D:\dev\francium_network\francium_agent\src\ext\randomx\repo\src\jit_compiler_x86.cpp
; Line 424
	movzx	edx, BYTE PTR [r11+2]
	sub	dl, 24
; Line 427
	jmp	$LN164@generateSu
$LN17@generateSu:
; File D:\dev\francium_network\francium_agent\src\ext\randomx\repo\src\jit_compiler_x86.hpp
; Line 106
	movsxd	rdx, DWORD PTR [r10+64]
	movzx	eax, WORD PTR ?MOV_RAX_I@randomx@@3QBEB
	mov	rcx, QWORD PTR [r10+56]
	mov	WORD PTR [rdx+rcx], ax
; Line 107
	add	DWORD PTR [r10+64], 2
; File D:\dev\francium_network\francium_agent\src\ext\randomx\repo\src\jit_compiler_x86.cpp
; Line 430
	mov	r8d, DWORD PTR [r11+4]
; File D:\dev\francium_network\francium_agent\src\ext\randomx\repo\src\jit_compiler_x86.hpp
; Line 96
	mov	rax, QWORD PTR [rbx]
	movsxd	rdx, DWORD PTR [r10+64]
	mov	rcx, QWORD PTR [r10+56]
	mov	rax, QWORD PTR [rax+r8*8]
	mov	QWORD PTR [rdx+rcx], rax
; Line 97
	add	DWORD PTR [r10+64], 8
; Line 106
	movsxd	rdx, DWORD PTR [r10+64]
	add	rdx, QWORD PTR [r10+56]
	movzx	eax, WORD PTR ?REX_IMUL_RM@randomx@@3QBEB
	mov	WORD PTR [rdx], ax
	movzx	eax, BYTE PTR ?REX_IMUL_RM@randomx@@3QBEB+2
	mov	BYTE PTR [rdx+2], al
; Line 107
	add	DWORD PTR [r10+64], 3
; File D:\dev\francium_network\francium_agent\src\ext\randomx\repo\src\jit_compiler_x86.cpp
; Line 432
	movzx	edx, BYTE PTR [r11+1]
	shl	dl, 3
	sub	dl, 64					; 00000040H
; Line 433
	jmp	$LN162@generateSu
$LN18@generateSu:
; Line 435
$LN158@generateSu:
	npad	3
$LN157@generateSu:
; Line 437
	DD	$LN4@generateSu
	DD	$LN5@generateSu
	DD	$LN6@generateSu
	DD	$LN7@generateSu
	DD	$LN8@generateSu
	DD	$LN9@generateSu
	DD	$LN10@generateSu
	DD	$LN9@generateSu
	DD	$LN10@generateSu
	DD	$LN9@generateSu
	DD	$LN10@generateSu
	DD	$LN15@generateSu
	DD	$LN16@generateSu
	DD	$LN17@generateSu
?generateSuperscalarCode@JitCompilerX86@randomx@@AEAAXAEAVInstruction@2@AEAV?$vector@_KV?$allocator@_K@std@@@std@@@Z ENDP ; randomx::JitCompilerX86::generateSuperscalarCode
_TEXT	ENDS
; Function compile flags: /Ogtpy
;	COMDAT ?genAddressReg@JitCompilerX86@randomx@@AEAAXAEAVInstruction@2@_N@Z
_TEXT	SEGMENT
this$ = 8
instr$ = 16
rax$ = 24
?genAddressReg@JitCompilerX86@randomx@@AEAAXAEAVInstruction@2@_N@Z PROC ; randomx::JitCompilerX86::genAddressReg, COMDAT
; File D:\dev\francium_network\francium_agent\src\ext\randomx\repo\src\jit_compiler_x86.cpp
; Line 439
$LN28:
	mov	QWORD PTR [rsp+8], rbx
	mov	QWORD PTR [rsp+16], rdi
; File D:\dev\francium_network\francium_agent\src\ext\randomx\repo\src\jit_compiler_x86.hpp
; Line 106
	movsxd	r10, DWORD PTR [rcx+64]
; File D:\dev\francium_network\francium_agent\src\ext\randomx\repo\src\jit_compiler_x86.cpp
; Line 439
	mov	r11, rcx
; File D:\dev\francium_network\francium_agent\src\ext\randomx\repo\src\jit_compiler_x86.hpp
; Line 106
	movzx	eax, WORD PTR ?LEA_32@randomx@@3QBEB
; File D:\dev\francium_network\francium_agent\src\ext\randomx\repo\src\jit_compiler_x86.cpp
; Line 439
	movzx	edi, r8b
; File D:\dev\francium_network\francium_agent\src\ext\randomx\repo\src\jit_compiler_x86.hpp
; Line 106
	mov	r9, QWORD PTR [rcx+56]
; File D:\dev\francium_network\francium_agent\src\ext\randomx\repo\src\jit_compiler_x86.cpp
; Line 441
	xor	r8b, 1
	shl	r8b, 3
	mov	rbx, rdx
	add	r8b, 128				; 00000080H
; File D:\dev\francium_network\francium_agent\src\ext\randomx\repo\src\jit_compiler_x86.hpp
; Line 106
	mov	WORD PTR [r10+r9], ax
; Line 107
	add	DWORD PTR [rcx+64], 2
; File D:\dev\francium_network\francium_agent\src\ext\randomx\repo\src\jit_compiler_x86.cpp
; Line 441
	add	r8b, BYTE PTR [rdx+2]
; File D:\dev\francium_network\francium_agent\src\ext\randomx\repo\src\jit_compiler_x86.hpp
; Line 86
	movsxd	rcx, DWORD PTR [rcx+64]
	mov	rax, QWORD PTR [r11+56]
	mov	BYTE PTR [rcx+rax], r8b
; Line 87
	mov	eax, DWORD PTR [r11+64]
	inc	eax
	mov	DWORD PTR [r11+64], eax
; File D:\dev\francium_network\francium_agent\src\ext\randomx\repo\src\jit_compiler_x86.cpp
; Line 442
	cmp	BYTE PTR [rdx+2], 4
	jne	SHORT $LN2@genAddress
; File D:\dev\francium_network\francium_agent\src\ext\randomx\repo\src\jit_compiler_x86.hpp
; Line 86
	movsxd	rcx, eax
	mov	rax, QWORD PTR [r11+56]
	mov	BYTE PTR [rcx+rax], 36			; 00000024H
; Line 87
	inc	DWORD PTR [r11+64]
	mov	eax, DWORD PTR [r11+64]
$LN2@genAddress:
; Line 91
	mov	rcx, QWORD PTR [r11+56]
	movsxd	rdx, eax
	mov	eax, DWORD PTR [rbx+4]
	mov	DWORD PTR [rdx+rcx], eax
; Line 92
	mov	eax, DWORD PTR [r11+64]
	mov	rdx, QWORD PTR [r11+56]
	add	eax, 4
	mov	DWORD PTR [r11+64], eax
; File D:\dev\francium_network\francium_agent\src\ext\randomx\repo\src\jit_compiler_x86.cpp
; Line 446
	test	dil, dil
	je	SHORT $LN3@genAddress
; File D:\dev\francium_network\francium_agent\src\ext\randomx\repo\src\jit_compiler_x86.hpp
; Line 86
	cdqe
	mov	BYTE PTR [rax+rdx], 37			; 00000025H
; Line 87
	mov	eax, DWORD PTR [r11+64]
	inc	eax
; File D:\dev\francium_network\francium_agent\src\ext\randomx\repo\src\jit_compiler_x86.cpp
; Line 447
	jmp	SHORT $LN26@genAddress
$LN3@genAddress:
; File D:\dev\francium_network\francium_agent\src\ext\randomx\repo\src\jit_compiler_x86.hpp
; Line 106
	movsxd	rcx, eax
	movzx	eax, WORD PTR ?AND_ECX_I@randomx@@3QBEB
	mov	WORD PTR [rcx+rdx], ax
; Line 107
	mov	eax, DWORD PTR [r11+64]
	add	eax, 2
$LN26@genAddress:
; File D:\dev\francium_network\francium_agent\src\ext\randomx\repo\src\jit_compiler_x86.cpp
; Line 451
	mov	rdi, QWORD PTR [rsp+16]
	mov	ecx, 16376				; 00003ff8H
; File D:\dev\francium_network\francium_agent\src\ext\randomx\repo\src\instruction.hpp
; Line 91
	mov	DWORD PTR [r11+64], eax
; File D:\dev\francium_network\francium_agent\src\ext\randomx\repo\src\jit_compiler_x86.cpp
; Line 450
	mov	edx, 262136				; 0003fff8H
; File D:\dev\francium_network\francium_agent\src\ext\randomx\repo\src\instruction.hpp
; Line 91
	test	BYTE PTR [rbx+3], 3
; File D:\dev\francium_network\francium_agent\src\ext\randomx\repo\src\jit_compiler_x86.cpp
; Line 451
	mov	rbx, QWORD PTR [rsp+8]
	cmovne	edx, ecx
; File D:\dev\francium_network\francium_agent\src\ext\randomx\repo\src\jit_compiler_x86.hpp
; Line 91
	movsxd	rcx, eax
	mov	rax, QWORD PTR [r11+56]
	mov	DWORD PTR [rcx+rax], edx
; Line 92
	add	DWORD PTR [r11+64], 4
; File D:\dev\francium_network\francium_agent\src\ext\randomx\repo\src\jit_compiler_x86.cpp
; Line 451
	ret	0
?genAddressReg@JitCompilerX86@randomx@@AEAAXAEAVInstruction@2@_N@Z ENDP ; randomx::JitCompilerX86::genAddressReg
_TEXT	ENDS
; Function compile flags: /Ogtpy
;	COMDAT ?genAddressRegDst@JitCompilerX86@randomx@@AEAAXAEAVInstruction@2@@Z
_TEXT	SEGMENT
this$ = 8
instr$ = 16
?genAddressRegDst@JitCompilerX86@randomx@@AEAAXAEAVInstruction@2@@Z PROC ; randomx::JitCompilerX86::genAddressRegDst, COMDAT
; File D:\dev\francium_network\francium_agent\src\ext\randomx\repo\src\jit_compiler_x86.cpp
; File D:\dev\francium_network\francium_agent\src\ext\randomx\repo\src\jit_compiler_x86.hpp
; Line 106
	movsxd	r9, DWORD PTR [rcx+64]
; File D:\dev\francium_network\francium_agent\src\ext\randomx\repo\src\jit_compiler_x86.cpp
; Line 453
	mov	r10, rcx
; File D:\dev\francium_network\francium_agent\src\ext\randomx\repo\src\jit_compiler_x86.hpp
; Line 106
	movzx	eax, WORD PTR ?LEA_32@randomx@@3QBEB
; File D:\dev\francium_network\francium_agent\src\ext\randomx\repo\src\jit_compiler_x86.cpp
; Line 453
	mov	r11, rdx
; File D:\dev\francium_network\francium_agent\src\ext\randomx\repo\src\jit_compiler_x86.hpp
; Line 106
	mov	r8, QWORD PTR [rcx+56]
	mov	WORD PTR [r9+r8], ax
; Line 107
	add	DWORD PTR [rcx+64], 2
; File D:\dev\francium_network\francium_agent\src\ext\randomx\repo\src\jit_compiler_x86.cpp
; Line 455
	movzx	r8d, BYTE PTR [rdx+1]
; File D:\dev\francium_network\francium_agent\src\ext\randomx\repo\src\jit_compiler_x86.hpp
; Line 86
	movsxd	rcx, DWORD PTR [rcx+64]
; File D:\dev\francium_network\francium_agent\src\ext\randomx\repo\src\jit_compiler_x86.cpp
; Line 455
	add	r8b, 128				; 00000080H
; File D:\dev\francium_network\francium_agent\src\ext\randomx\repo\src\jit_compiler_x86.hpp
; Line 86
	mov	rax, QWORD PTR [r10+56]
	mov	BYTE PTR [rcx+rax], r8b
; Line 87
	mov	eax, DWORD PTR [r10+64]
	inc	eax
	mov	DWORD PTR [r10+64], eax
; File D:\dev\francium_network\francium_agent\src\ext\randomx\repo\src\jit_compiler_x86.cpp
; Line 456
	cmp	BYTE PTR [rdx+1], 4
	jne	SHORT $LN2@genAddress
; File D:\dev\francium_network\francium_agent\src\ext\randomx\repo\src\jit_compiler_x86.hpp
; Line 86
	movsxd	rcx, eax
	mov	rax, QWORD PTR [r10+56]
	mov	BYTE PTR [rcx+rax], 36			; 00000024H
; Line 87
	inc	DWORD PTR [r10+64]
	mov	eax, DWORD PTR [r10+64]
$LN2@genAddress:
; Line 91
	mov	rcx, QWORD PTR [r10+56]
	movsxd	rdx, eax
	mov	eax, DWORD PTR [r11+4]
	mov	DWORD PTR [rdx+rcx], eax
; Line 92
	add	DWORD PTR [r10+64], 4
; Line 86
	movsxd	rcx, DWORD PTR [r10+64]
	mov	rax, QWORD PTR [r10+56]
	mov	BYTE PTR [rcx+rax], 37			; 00000025H
; Line 87
	movsxd	rcx, DWORD PTR [r10+64]
; File D:\dev\francium_network\francium_agent\src\ext\randomx\repo\src\instruction.hpp
; Line 97
	mov	rdx, rcx
; File D:\dev\francium_network\francium_agent\src\ext\randomx\repo\src\jit_compiler_x86.hpp
; Line 87
	lea	eax, DWORD PTR [rcx+1]
; File D:\dev\francium_network\francium_agent\src\ext\randomx\repo\src\instruction.hpp
; Line 97
	mov	rcx, QWORD PTR [r10+56]
; File D:\dev\francium_network\francium_agent\src\ext\randomx\repo\src\jit_compiler_x86.hpp
; Line 87
	mov	DWORD PTR [r10+64], eax
; File D:\dev\francium_network\francium_agent\src\ext\randomx\repo\src\instruction.hpp
; Line 97
	movzx	r8d, BYTE PTR [r11+3]
; File D:\dev\francium_network\francium_agent\src\ext\randomx\repo\src\jit_compiler_x86.cpp
; Line 461
	movzx	eax, r8b
	and	al, 240					; 000000f0H
	cmp	al, 224					; 000000e0H
	jae	SHORT $LN3@genAddress
; File D:\dev\francium_network\francium_agent\src\ext\randomx\repo\src\instruction.hpp
; Line 91
	test	r8b, 3
; File D:\dev\francium_network\francium_agent\src\ext\randomx\repo\src\jit_compiler_x86.cpp
; Line 462
	mov	eax, 262136				; 0003fff8H
	mov	r8d, 16376				; 00003ff8H
	cmovne	eax, r8d
; File D:\dev\francium_network\francium_agent\src\ext\randomx\repo\src\jit_compiler_x86.hpp
; Line 91
	mov	DWORD PTR [rcx+rdx+1], eax
; File D:\dev\francium_network\francium_agent\src\ext\randomx\repo\src\jit_compiler_x86.cpp
; Line 467
	add	DWORD PTR [r10+64], 4
	ret	0
$LN3@genAddress:
; File D:\dev\francium_network\francium_agent\src\ext\randomx\repo\src\jit_compiler_x86.hpp
; Line 91
	mov	DWORD PTR [rcx+rdx+1], 2097144		; 001ffff8H
; File D:\dev\francium_network\francium_agent\src\ext\randomx\repo\src\jit_compiler_x86.cpp
; Line 467
	add	DWORD PTR [r10+64], 4
	ret	0
?genAddressRegDst@JitCompilerX86@randomx@@AEAAXAEAVInstruction@2@@Z ENDP ; randomx::JitCompilerX86::genAddressRegDst
_TEXT	ENDS
; Function compile flags: /Ogtpy
;	COMDAT ?genAddressImm@JitCompilerX86@randomx@@AEAAXAEAVInstruction@2@@Z
_TEXT	SEGMENT
this$ = 8
instr$ = 16
?genAddressImm@JitCompilerX86@randomx@@AEAAXAEAVInstruction@2@@Z PROC ; randomx::JitCompilerX86::genAddressImm, COMDAT
; File D:\dev\francium_network\francium_agent\src\ext\randomx\repo\src\jit_compiler_x86.cpp
; Line 470
	mov	r8d, DWORD PTR [rdx+4]
; File D:\dev\francium_network\francium_agent\src\ext\randomx\repo\src\jit_compiler_x86.hpp
; Line 91
	movsxd	rdx, DWORD PTR [rcx+64]
; File D:\dev\francium_network\francium_agent\src\ext\randomx\repo\src\jit_compiler_x86.cpp
; Line 470
	and	r8d, 2097144				; 001ffff8H
; File D:\dev\francium_network\francium_agent\src\ext\randomx\repo\src\jit_compiler_x86.hpp
; Line 91
	mov	rax, QWORD PTR [rcx+56]
	mov	DWORD PTR [rdx+rax], r8d
; Line 92
	add	DWORD PTR [rcx+64], 4
; File D:\dev\francium_network\francium_agent\src\ext\randomx\repo\src\jit_compiler_x86.cpp
; Line 471
	ret	0
?genAddressImm@JitCompilerX86@randomx@@AEAAXAEAVInstruction@2@@Z ENDP ; randomx::JitCompilerX86::genAddressImm
_TEXT	ENDS
; Function compile flags: /Ogtpy
;	COMDAT ?h_IADD_RS@JitCompilerX86@randomx@@AEAAXAEAVInstruction@2@H@Z
_TEXT	SEGMENT
this$ = 8
instr$ = 16
i$ = 24
?h_IADD_RS@JitCompilerX86@randomx@@AEAAXAEAVInstruction@2@H@Z PROC ; randomx::JitCompilerX86::h_IADD_RS, COMDAT
; File D:\dev\francium_network\francium_agent\src\ext\randomx\repo\src\jit_compiler_x86.cpp
; Line 474
	movzx	eax, BYTE PTR [rdx+1]
	mov	r10, rcx
	mov	r11, rdx
	mov	DWORD PTR [rcx+rax*4+24], r8d
; File D:\dev\francium_network\francium_agent\src\ext\randomx\repo\src\jit_compiler_x86.hpp
; Line 106
	movzx	eax, WORD PTR ?REX_LEA@randomx@@3QBEB
	movsxd	r9, DWORD PTR [rcx+64]
	mov	r8, QWORD PTR [rcx+56]
	mov	WORD PTR [r9+r8], ax
; Line 107
	mov	eax, DWORD PTR [rcx+64]
	add	eax, 2
	mov	DWORD PTR [rcx+64], eax
; File D:\dev\francium_network\francium_agent\src\ext\randomx\repo\src\jit_compiler_x86.cpp
; Line 476
	movzx	ecx, BYTE PTR [rdx+1]
	mov	rdx, QWORD PTR [r10+56]
	cdqe
	cmp	cl, 5
	jne	SHORT $LN2@h_IADD_RS
; File D:\dev\francium_network\francium_agent\src\ext\randomx\repo\src\jit_compiler_x86.hpp
; Line 86
	mov	BYTE PTR [rax+rdx], 172			; 000000acH
; File D:\dev\francium_network\francium_agent\src\ext\randomx\repo\src\jit_compiler_x86.cpp
; Line 477
	jmp	SHORT $LN23@h_IADD_RS
$LN2@h_IADD_RS:
; Line 479
	shl	cl, 3
	add	cl, 4
; File D:\dev\francium_network\francium_agent\src\ext\randomx\repo\src\jit_compiler_x86.hpp
; Line 86
	mov	BYTE PTR [rax+rdx], cl
$LN23@h_IADD_RS:
; File D:\dev\francium_network\francium_agent\src\ext\randomx\repo\src\instruction.hpp
; Line 94
	mov	eax, DWORD PTR [r10+64]
	inc	eax
	mov	DWORD PTR [r10+64], eax
	movzx	edx, BYTE PTR [r11+3]
	shr	edx, 2
	and	edx, -2147483645			; ffffffff80000003H
	jge	SHORT $LN22@h_IADD_RS
	dec	edx
	or	edx, -4
	inc	edx
$LN22@h_IADD_RS:
	shl	dl, 3
; File D:\dev\francium_network\francium_agent\src\ext\randomx\repo\src\jit_compiler_x86.cpp
; Line 501
	or	dl, BYTE PTR [r11+2]
; File D:\dev\francium_network\francium_agent\src\ext\randomx\repo\src\jit_compiler_x86.hpp
; Line 86
	movsxd	rcx, eax
	mov	rax, QWORD PTR [r10+56]
; File D:\dev\francium_network\francium_agent\src\ext\randomx\repo\src\jit_compiler_x86.cpp
; Line 501
	shl	dl, 3
	or	dl, BYTE PTR [r11+1]
; File D:\dev\francium_network\francium_agent\src\ext\randomx\repo\src\jit_compiler_x86.hpp
; Line 86
	mov	BYTE PTR [rcx+rax], dl
; Line 87
	movsxd	rcx, DWORD PTR [r10+64]
	lea	eax, DWORD PTR [rcx+1]
	mov	DWORD PTR [r10+64], eax
; File D:\dev\francium_network\francium_agent\src\ext\randomx\repo\src\jit_compiler_x86.cpp
; Line 481
	cmp	BYTE PTR [r11+1], 5
	jne	SHORT $LN4@h_IADD_RS
; File D:\dev\francium_network\francium_agent\src\ext\randomx\repo\src\jit_compiler_x86.hpp
; Line 91
	mov	eax, DWORD PTR [r11+4]
	mov	rdx, rcx
	mov	rcx, QWORD PTR [r10+56]
	mov	DWORD PTR [rdx+rcx+1], eax
; Line 92
	add	DWORD PTR [r10+64], 4
$LN4@h_IADD_RS:
; File D:\dev\francium_network\francium_agent\src\ext\randomx\repo\src\jit_compiler_x86.cpp
; Line 483
	ret	0
?h_IADD_RS@JitCompilerX86@randomx@@AEAAXAEAVInstruction@2@H@Z ENDP ; randomx::JitCompilerX86::h_IADD_RS
_TEXT	ENDS
; Function compile flags: /Ogtpy
;	COMDAT ?h_IADD_M@JitCompilerX86@randomx@@AEAAXAEAVInstruction@2@H@Z
_TEXT	SEGMENT
this$ = 48
instr$ = 56
i$ = 64
?h_IADD_M@JitCompilerX86@randomx@@AEAAXAEAVInstruction@2@H@Z PROC ; randomx::JitCompilerX86::h_IADD_M, COMDAT
; File D:\dev\francium_network\francium_agent\src\ext\randomx\repo\src\jit_compiler_x86.cpp
; Line 485
$LN24:
	mov	QWORD PTR [rsp+8], rbx
	push	rdi
	sub	rsp, 32					; 00000020H
; Line 486
	movzx	eax, BYTE PTR [rdx+1]
	mov	rdi, rdx
	mov	rbx, rcx
	mov	DWORD PTR [rcx+rax*4+24], r8d
; Line 487
	movzx	eax, BYTE PTR [rdx+1]
	cmp	BYTE PTR [rdx+2], al
	je	SHORT $LN2@h_IADD_M
; Line 488
	mov	r8b, 1
	call	?genAddressReg@JitCompilerX86@randomx@@AEAAXAEAVInstruction@2@_N@Z ; randomx::JitCompilerX86::genAddressReg
; File D:\dev\francium_network\francium_agent\src\ext\randomx\repo\src\jit_compiler_x86.hpp
; Line 106
	movzx	eax, WORD PTR ?REX_ADD_RM@randomx@@3QBEB
	movsxd	rdx, DWORD PTR [rbx+64]
	mov	rcx, QWORD PTR [rbx+56]
	mov	WORD PTR [rdx+rcx], ax
; Line 107
	mov	eax, DWORD PTR [rbx+64]
	add	eax, 2
	mov	DWORD PTR [rbx+64], eax
; File D:\dev\francium_network\francium_agent\src\ext\randomx\repo\src\jit_compiler_x86.cpp
; Line 490
	movzx	edx, BYTE PTR [rdi+1]
; File D:\dev\francium_network\francium_agent\src\ext\randomx\repo\src\jit_compiler_x86.hpp
; Line 86
	movsxd	rcx, eax
	mov	rax, QWORD PTR [rbx+56]
; File D:\dev\francium_network\francium_agent\src\ext\randomx\repo\src\jit_compiler_x86.cpp
; Line 490
	shl	dl, 3
	add	dl, 4
; File D:\dev\francium_network\francium_agent\src\ext\randomx\repo\src\jit_compiler_x86.hpp
; Line 86
	mov	BYTE PTR [rcx+rax], dl
; Line 87
	movsxd	rcx, DWORD PTR [rbx+64]
	lea	eax, DWORD PTR [rcx+1]
	mov	DWORD PTR [rbx+64], eax
; Line 86
	mov	rax, QWORD PTR [rbx+56]
	mov	BYTE PTR [rcx+rax+1], 6
; Line 87
	inc	DWORD PTR [rbx+64]
; File D:\dev\francium_network\francium_agent\src\ext\randomx\repo\src\jit_compiler_x86.cpp
; Line 498
	mov	rbx, QWORD PTR [rsp+48]
	add	rsp, 32					; 00000020H
	pop	rdi
	ret	0
$LN2@h_IADD_M:
; File D:\dev\francium_network\francium_agent\src\ext\randomx\repo\src\jit_compiler_x86.hpp
; Line 106
	movsxd	rdx, DWORD PTR [rcx+64]
	movzx	eax, WORD PTR ?REX_ADD_RM@randomx@@3QBEB
	mov	rcx, QWORD PTR [rcx+56]
	mov	WORD PTR [rdx+rcx], ax
; Line 107
	mov	eax, DWORD PTR [rbx+64]
	add	eax, 2
	mov	DWORD PTR [rbx+64], eax
; File D:\dev\francium_network\francium_agent\src\ext\randomx\repo\src\jit_compiler_x86.cpp
; Line 495
	movzx	edx, BYTE PTR [rdi+1]
; File D:\dev\francium_network\francium_agent\src\ext\randomx\repo\src\jit_compiler_x86.hpp
; Line 86
	movsxd	rcx, eax
	mov	rax, QWORD PTR [rbx+56]
; File D:\dev\francium_network\francium_agent\src\ext\randomx\repo\src\jit_compiler_x86.cpp
; Line 495
	shl	dl, 3
	sub	dl, 122					; 0000007aH
; File D:\dev\francium_network\francium_agent\src\ext\randomx\repo\src\jit_compiler_x86.hpp
; Line 86
	mov	BYTE PTR [rcx+rax], dl
; Line 87
	movsxd	rcx, DWORD PTR [rbx+64]
	lea	eax, DWORD PTR [rcx+1]
	mov	DWORD PTR [rbx+64], eax
; File D:\dev\francium_network\francium_agent\src\ext\randomx\repo\src\jit_compiler_x86.cpp
; Line 470
	mov	edx, DWORD PTR [rdi+4]
; File D:\dev\francium_network\francium_agent\src\ext\randomx\repo\src\jit_compiler_x86.hpp
; Line 91
	mov	rax, QWORD PTR [rbx+56]
; File D:\dev\francium_network\francium_agent\src\ext\randomx\repo\src\jit_compiler_x86.cpp
; Line 470
	and	edx, 2097144				; 001ffff8H
; File D:\dev\francium_network\francium_agent\src\ext\randomx\repo\src\jit_compiler_x86.hpp
; Line 91
	mov	DWORD PTR [rcx+rax+1], edx
; Line 92
	add	DWORD PTR [rbx+64], 4
; File D:\dev\francium_network\francium_agent\src\ext\randomx\repo\src\jit_compiler_x86.cpp
; Line 498
	mov	rbx, QWORD PTR [rsp+48]
	add	rsp, 32					; 00000020H
	pop	rdi
	ret	0
?h_IADD_M@JitCompilerX86@randomx@@AEAAXAEAVInstruction@2@H@Z ENDP ; randomx::JitCompilerX86::h_IADD_M
_TEXT	ENDS
; Function compile flags: /Ogtpy
;	COMDAT ?genSIB@JitCompilerX86@randomx@@AEAAXHHH@Z
_TEXT	SEGMENT
this$ = 8
scale$ = 16
index$ = 24
base$ = 32
?genSIB@JitCompilerX86@randomx@@AEAAXHHH@Z PROC		; randomx::JitCompilerX86::genSIB, COMDAT
; File D:\dev\francium_network\francium_agent\src\ext\randomx\repo\src\jit_compiler_x86.cpp
; File D:\dev\francium_network\francium_agent\src\ext\randomx\repo\src\jit_compiler_x86.hpp
; Line 86
	mov	rax, QWORD PTR [rcx+56]
; File D:\dev\francium_network\francium_agent\src\ext\randomx\repo\src\jit_compiler_x86.cpp
; Line 501
	shl	dl, 3
	or	dl, r8b
; File D:\dev\francium_network\francium_agent\src\ext\randomx\repo\src\jit_compiler_x86.hpp
; Line 86
	movsxd	r8, DWORD PTR [rcx+64]
; File D:\dev\francium_network\francium_agent\src\ext\randomx\repo\src\jit_compiler_x86.cpp
; Line 501
	shl	dl, 3
	or	dl, r9b
; File D:\dev\francium_network\francium_agent\src\ext\randomx\repo\src\jit_compiler_x86.hpp
; Line 86
	mov	BYTE PTR [r8+rax], dl
; Line 87
	inc	DWORD PTR [rcx+64]
; File D:\dev\francium_network\francium_agent\src\ext\randomx\repo\src\jit_compiler_x86.cpp
; Line 502
	ret	0
?genSIB@JitCompilerX86@randomx@@AEAAXHHH@Z ENDP		; randomx::JitCompilerX86::genSIB
_TEXT	ENDS
; Function compile flags: /Ogtpy
;	COMDAT ?h_ISUB_R@JitCompilerX86@randomx@@AEAAXAEAVInstruction@2@H@Z
_TEXT	SEGMENT
this$ = 8
instr$ = 16
i$ = 24
?h_ISUB_R@JitCompilerX86@randomx@@AEAAXAEAVInstruction@2@H@Z PROC ; randomx::JitCompilerX86::h_ISUB_R, COMDAT
; File D:\dev\francium_network\francium_agent\src\ext\randomx\repo\src\jit_compiler_x86.cpp
; Line 505
	movzx	eax, BYTE PTR [rdx+1]
	mov	r10, rdx
	mov	r9, rcx
	mov	DWORD PTR [rcx+rax*4+24], r8d
; Line 506
	movzx	eax, BYTE PTR [r10+1]
	movsxd	rcx, DWORD PTR [rcx+64]
	mov	rdx, QWORD PTR [r9+56]
	cmp	BYTE PTR [r10+2], al
	je	SHORT $LN2@h_ISUB_R
; File D:\dev\francium_network\francium_agent\src\ext\randomx\repo\src\jit_compiler_x86.hpp
; Line 106
	movzx	eax, WORD PTR ?REX_SUB_RR@randomx@@3QBEB
	mov	WORD PTR [rcx+rdx], ax
; Line 107
	mov	eax, DWORD PTR [r9+64]
	add	eax, 2
	mov	DWORD PTR [r9+64], eax
; File D:\dev\francium_network\francium_agent\src\ext\randomx\repo\src\jit_compiler_x86.cpp
; Line 508
	movzx	edx, BYTE PTR [r10+1]
	shl	dl, 3
; File D:\dev\francium_network\francium_agent\src\ext\randomx\repo\src\jit_compiler_x86.hpp
; Line 86
	movsxd	rcx, eax
; File D:\dev\francium_network\francium_agent\src\ext\randomx\repo\src\jit_compiler_x86.cpp
; Line 508
	sub	dl, 64					; 00000040H
	add	dl, BYTE PTR [r10+2]
; File D:\dev\francium_network\francium_agent\src\ext\randomx\repo\src\jit_compiler_x86.hpp
; Line 86
	mov	rax, QWORD PTR [r9+56]
	mov	BYTE PTR [rcx+rax], dl
; Line 87
	inc	DWORD PTR [r9+64]
; File D:\dev\francium_network\francium_agent\src\ext\randomx\repo\src\jit_compiler_x86.cpp
; Line 515
	ret	0
$LN2@h_ISUB_R:
; File D:\dev\francium_network\francium_agent\src\ext\randomx\repo\src\jit_compiler_x86.hpp
; Line 106
	movzx	eax, WORD PTR ?REX_81@randomx@@3QBEB
	mov	WORD PTR [rcx+rdx], ax
; Line 107
	mov	eax, DWORD PTR [r9+64]
	add	eax, 2
	mov	DWORD PTR [r9+64], eax
; File D:\dev\francium_network\francium_agent\src\ext\randomx\repo\src\jit_compiler_x86.cpp
; Line 512
	movzx	edx, BYTE PTR [r10+1]
; File D:\dev\francium_network\francium_agent\src\ext\randomx\repo\src\jit_compiler_x86.hpp
; Line 86
	movsxd	rcx, eax
; File D:\dev\francium_network\francium_agent\src\ext\randomx\repo\src\jit_compiler_x86.cpp
; Line 512
	sub	dl, 24
; File D:\dev\francium_network\francium_agent\src\ext\randomx\repo\src\jit_compiler_x86.hpp
; Line 86
	mov	rax, QWORD PTR [r9+56]
	mov	BYTE PTR [rcx+rax], dl
; Line 87
	movsxd	rcx, DWORD PTR [r9+64]
; Line 91
	mov	rdx, rcx
; Line 87
	lea	eax, DWORD PTR [rcx+1]
; Line 91
	mov	rcx, QWORD PTR [r9+56]
; Line 87
	mov	DWORD PTR [r9+64], eax
; Line 91
	mov	eax, DWORD PTR [r10+4]
	mov	DWORD PTR [rdx+rcx+1], eax
; Line 92
	add	DWORD PTR [r9+64], 4
; File D:\dev\francium_network\francium_agent\src\ext\randomx\repo\src\jit_compiler_x86.cpp
; Line 515
	ret	0
?h_ISUB_R@JitCompilerX86@randomx@@AEAAXAEAVInstruction@2@H@Z ENDP ; randomx::JitCompilerX86::h_ISUB_R
_TEXT	ENDS
; Function compile flags: /Ogtpy
;	COMDAT ?h_ISUB_M@JitCompilerX86@randomx@@AEAAXAEAVInstruction@2@H@Z
_TEXT	SEGMENT
this$ = 48
instr$ = 56
i$ = 64
?h_ISUB_M@JitCompilerX86@randomx@@AEAAXAEAVInstruction@2@H@Z PROC ; randomx::JitCompilerX86::h_ISUB_M, COMDAT
; File D:\dev\francium_network\francium_agent\src\ext\randomx\repo\src\jit_compiler_x86.cpp
; Line 517
$LN24:
	mov	QWORD PTR [rsp+8], rbx
	push	rdi
	sub	rsp, 32					; 00000020H
; Line 518
	movzx	eax, BYTE PTR [rdx+1]
	mov	rdi, rdx
	mov	rbx, rcx
	mov	DWORD PTR [rcx+rax*4+24], r8d
; Line 519
	movzx	eax, BYTE PTR [rdx+1]
	cmp	BYTE PTR [rdx+2], al
	je	SHORT $LN2@h_ISUB_M
; Line 520
	mov	r8b, 1
	call	?genAddressReg@JitCompilerX86@randomx@@AEAAXAEAVInstruction@2@_N@Z ; randomx::JitCompilerX86::genAddressReg
; File D:\dev\francium_network\francium_agent\src\ext\randomx\repo\src\jit_compiler_x86.hpp
; Line 106
	movzx	eax, WORD PTR ?REX_SUB_RM@randomx@@3QBEB
	movsxd	rdx, DWORD PTR [rbx+64]
	mov	rcx, QWORD PTR [rbx+56]
	mov	WORD PTR [rdx+rcx], ax
; Line 107
	mov	eax, DWORD PTR [rbx+64]
	add	eax, 2
	mov	DWORD PTR [rbx+64], eax
; File D:\dev\francium_network\francium_agent\src\ext\randomx\repo\src\jit_compiler_x86.cpp
; Line 522
	movzx	edx, BYTE PTR [rdi+1]
; File D:\dev\francium_network\francium_agent\src\ext\randomx\repo\src\jit_compiler_x86.hpp
; Line 86
	movsxd	rcx, eax
	mov	rax, QWORD PTR [rbx+56]
; File D:\dev\francium_network\francium_agent\src\ext\randomx\repo\src\jit_compiler_x86.cpp
; Line 522
	shl	dl, 3
	add	dl, 4
; File D:\dev\francium_network\francium_agent\src\ext\randomx\repo\src\jit_compiler_x86.hpp
; Line 86
	mov	BYTE PTR [rcx+rax], dl
; Line 87
	movsxd	rcx, DWORD PTR [rbx+64]
	lea	eax, DWORD PTR [rcx+1]
	mov	DWORD PTR [rbx+64], eax
; Line 86
	mov	rax, QWORD PTR [rbx+56]
	mov	BYTE PTR [rcx+rax+1], 6
; Line 87
	inc	DWORD PTR [rbx+64]
; File D:\dev\francium_network\francium_agent\src\ext\randomx\repo\src\jit_compiler_x86.cpp
; Line 530
	mov	rbx, QWORD PTR [rsp+48]
	add	rsp, 32					; 00000020H
	pop	rdi
	ret	0
$LN2@h_ISUB_M:
; File D:\dev\francium_network\francium_agent\src\ext\randomx\repo\src\jit_compiler_x86.hpp
; Line 106
	movsxd	rdx, DWORD PTR [rcx+64]
	movzx	eax, WORD PTR ?REX_SUB_RM@randomx@@3QBEB
	mov	rcx, QWORD PTR [rcx+56]
	mov	WORD PTR [rdx+rcx], ax
; Line 107
	mov	eax, DWORD PTR [rbx+64]
	add	eax, 2
	mov	DWORD PTR [rbx+64], eax
; File D:\dev\francium_network\francium_agent\src\ext\randomx\repo\src\jit_compiler_x86.cpp
; Line 527
	movzx	edx, BYTE PTR [rdi+1]
; File D:\dev\francium_network\francium_agent\src\ext\randomx\repo\src\jit_compiler_x86.hpp
; Line 86
	movsxd	rcx, eax
	mov	rax, QWORD PTR [rbx+56]
; File D:\dev\francium_network\francium_agent\src\ext\randomx\repo\src\jit_compiler_x86.cpp
; Line 527
	shl	dl, 3
	sub	dl, 122					; 0000007aH
; File D:\dev\francium_network\francium_agent\src\ext\randomx\repo\src\jit_compiler_x86.hpp
; Line 86
	mov	BYTE PTR [rcx+rax], dl
; Line 87
	movsxd	rcx, DWORD PTR [rbx+64]
	lea	eax, DWORD PTR [rcx+1]
	mov	DWORD PTR [rbx+64], eax
; File D:\dev\francium_network\francium_agent\src\ext\randomx\repo\src\jit_compiler_x86.cpp
; Line 470
	mov	edx, DWORD PTR [rdi+4]
; File D:\dev\francium_network\francium_agent\src\ext\randomx\repo\src\jit_compiler_x86.hpp
; Line 91
	mov	rax, QWORD PTR [rbx+56]
; File D:\dev\francium_network\francium_agent\src\ext\randomx\repo\src\jit_compiler_x86.cpp
; Line 470
	and	edx, 2097144				; 001ffff8H
; File D:\dev\francium_network\francium_agent\src\ext\randomx\repo\src\jit_compiler_x86.hpp
; Line 91
	mov	DWORD PTR [rcx+rax+1], edx
; Line 92
	add	DWORD PTR [rbx+64], 4
; File D:\dev\francium_network\francium_agent\src\ext\randomx\repo\src\jit_compiler_x86.cpp
; Line 530
	mov	rbx, QWORD PTR [rsp+48]
	add	rsp, 32					; 00000020H
	pop	rdi
	ret	0
?h_ISUB_M@JitCompilerX86@randomx@@AEAAXAEAVInstruction@2@H@Z ENDP ; randomx::JitCompilerX86::h_ISUB_M
_TEXT	ENDS
; Function compile flags: /Ogtpy
;	COMDAT ?h_IMUL_R@JitCompilerX86@randomx@@AEAAXAEAVInstruction@2@H@Z
_TEXT	SEGMENT
this$ = 8
instr$ = 16
i$ = 24
?h_IMUL_R@JitCompilerX86@randomx@@AEAAXAEAVInstruction@2@H@Z PROC ; randomx::JitCompilerX86::h_IMUL_R, COMDAT
; File D:\dev\francium_network\francium_agent\src\ext\randomx\repo\src\jit_compiler_x86.cpp
; Line 533
	movzx	eax, BYTE PTR [rdx+1]
	mov	r10, rdx
	mov	r9, rcx
	mov	DWORD PTR [rcx+rax*4+24], r8d
; Line 534
	movzx	eax, BYTE PTR [r10+1]
	movsxd	rcx, DWORD PTR [rcx+64]
	mov	rdx, QWORD PTR [r9+56]
	cmp	BYTE PTR [r10+2], al
	je	SHORT $LN2@h_IMUL_R
; File D:\dev\francium_network\francium_agent\src\ext\randomx\repo\src\jit_compiler_x86.hpp
; Line 106
	movzx	eax, WORD PTR ?REX_IMUL_RR@randomx@@3QBEB
	mov	WORD PTR [rcx+rdx], ax
	movzx	eax, BYTE PTR ?REX_IMUL_RR@randomx@@3QBEB+2
	mov	BYTE PTR [rcx+rdx+2], al
; Line 107
	mov	eax, DWORD PTR [r9+64]
	add	eax, 3
	mov	DWORD PTR [r9+64], eax
; File D:\dev\francium_network\francium_agent\src\ext\randomx\repo\src\jit_compiler_x86.cpp
; Line 536
	movzx	edx, BYTE PTR [r10+1]
	shl	dl, 3
; File D:\dev\francium_network\francium_agent\src\ext\randomx\repo\src\jit_compiler_x86.hpp
; Line 86
	movsxd	rcx, eax
; File D:\dev\francium_network\francium_agent\src\ext\randomx\repo\src\jit_compiler_x86.cpp
; Line 536
	sub	dl, 64					; 00000040H
	add	dl, BYTE PTR [r10+2]
; File D:\dev\francium_network\francium_agent\src\ext\randomx\repo\src\jit_compiler_x86.hpp
; Line 86
	mov	rax, QWORD PTR [r9+56]
	mov	BYTE PTR [rcx+rax], dl
; Line 87
	inc	DWORD PTR [r9+64]
; File D:\dev\francium_network\francium_agent\src\ext\randomx\repo\src\jit_compiler_x86.cpp
; Line 543
	ret	0
$LN2@h_IMUL_R:
; File D:\dev\francium_network\francium_agent\src\ext\randomx\repo\src\jit_compiler_x86.hpp
; Line 106
	movzx	eax, WORD PTR ?REX_IMUL_RRI@randomx@@3QBEB
	mov	WORD PTR [rcx+rdx], ax
; Line 107
	mov	ecx, DWORD PTR [r9+64]
	add	ecx, 2
	mov	DWORD PTR [r9+64], ecx
; File D:\dev\francium_network\francium_agent\src\ext\randomx\repo\src\jit_compiler_x86.cpp
; Line 540
	movzx	edx, BYTE PTR [r10+1]
	movzx	eax, dl
; File D:\dev\francium_network\francium_agent\src\ext\randomx\repo\src\jit_compiler_x86.hpp
; Line 86
	movsxd	rcx, ecx
; File D:\dev\francium_network\francium_agent\src\ext\randomx\repo\src\jit_compiler_x86.cpp
; Line 540
	shl	al, 3
	sub	dl, 64					; 00000040H
	add	dl, al
; File D:\dev\francium_network\francium_agent\src\ext\randomx\repo\src\jit_compiler_x86.hpp
; Line 86
	mov	rax, QWORD PTR [r9+56]
	mov	BYTE PTR [rcx+rax], dl
; Line 87
	movsxd	rcx, DWORD PTR [r9+64]
; Line 91
	mov	rdx, rcx
; Line 87
	lea	eax, DWORD PTR [rcx+1]
; Line 91
	mov	rcx, QWORD PTR [r9+56]
; Line 87
	mov	DWORD PTR [r9+64], eax
; Line 91
	mov	eax, DWORD PTR [r10+4]
	mov	DWORD PTR [rdx+rcx+1], eax
; Line 92
	add	DWORD PTR [r9+64], 4
; File D:\dev\francium_network\francium_agent\src\ext\randomx\repo\src\jit_compiler_x86.cpp
; Line 543
	ret	0
?h_IMUL_R@JitCompilerX86@randomx@@AEAAXAEAVInstruction@2@H@Z ENDP ; randomx::JitCompilerX86::h_IMUL_R
_TEXT	ENDS
; Function compile flags: /Ogtpy
;	COMDAT ?h_IMUL_M@JitCompilerX86@randomx@@AEAAXAEAVInstruction@2@H@Z
_TEXT	SEGMENT
this$ = 48
instr$ = 56
i$ = 64
?h_IMUL_M@JitCompilerX86@randomx@@AEAAXAEAVInstruction@2@H@Z PROC ; randomx::JitCompilerX86::h_IMUL_M, COMDAT
; File D:\dev\francium_network\francium_agent\src\ext\randomx\repo\src\jit_compiler_x86.cpp
; Line 545
$LN24:
	mov	QWORD PTR [rsp+8], rbx
	push	rdi
	sub	rsp, 32					; 00000020H
; Line 546
	movzx	eax, BYTE PTR [rdx+1]
	mov	rdi, rdx
	mov	rbx, rcx
	mov	DWORD PTR [rcx+rax*4+24], r8d
; Line 547
	movzx	eax, BYTE PTR [rdx+1]
	cmp	BYTE PTR [rdx+2], al
	je	SHORT $LN2@h_IMUL_M
; Line 548
	mov	r8b, 1
	call	?genAddressReg@JitCompilerX86@randomx@@AEAAXAEAVInstruction@2@_N@Z ; randomx::JitCompilerX86::genAddressReg
; File D:\dev\francium_network\francium_agent\src\ext\randomx\repo\src\jit_compiler_x86.hpp
; Line 106
	movzx	eax, WORD PTR ?REX_IMUL_RM@randomx@@3QBEB
	movsxd	rdx, DWORD PTR [rbx+64]
	add	rdx, QWORD PTR [rbx+56]
	mov	WORD PTR [rdx], ax
	movzx	eax, BYTE PTR ?REX_IMUL_RM@randomx@@3QBEB+2
	mov	BYTE PTR [rdx+2], al
; Line 107
	mov	eax, DWORD PTR [rbx+64]
	add	eax, 3
	mov	DWORD PTR [rbx+64], eax
; File D:\dev\francium_network\francium_agent\src\ext\randomx\repo\src\jit_compiler_x86.cpp
; Line 550
	movzx	edx, BYTE PTR [rdi+1]
; File D:\dev\francium_network\francium_agent\src\ext\randomx\repo\src\jit_compiler_x86.hpp
; Line 86
	movsxd	rcx, eax
	mov	rax, QWORD PTR [rbx+56]
; File D:\dev\francium_network\francium_agent\src\ext\randomx\repo\src\jit_compiler_x86.cpp
; Line 550
	shl	dl, 3
	add	dl, 4
; File D:\dev\francium_network\francium_agent\src\ext\randomx\repo\src\jit_compiler_x86.hpp
; Line 86
	mov	BYTE PTR [rcx+rax], dl
; Line 87
	movsxd	rcx, DWORD PTR [rbx+64]
	lea	eax, DWORD PTR [rcx+1]
	mov	DWORD PTR [rbx+64], eax
; Line 86
	mov	rax, QWORD PTR [rbx+56]
	mov	BYTE PTR [rcx+rax+1], 6
; Line 87
	inc	DWORD PTR [rbx+64]
; File D:\dev\francium_network\francium_agent\src\ext\randomx\repo\src\jit_compiler_x86.cpp
; Line 558
	mov	rbx, QWORD PTR [rsp+48]
	add	rsp, 32					; 00000020H
	pop	rdi
	ret	0
$LN2@h_IMUL_M:
; File D:\dev\francium_network\francium_agent\src\ext\randomx\repo\src\jit_compiler_x86.hpp
; Line 106
	movsxd	rdx, DWORD PTR [rcx+64]
	add	rdx, QWORD PTR [rcx+56]
	movzx	eax, WORD PTR ?REX_IMUL_RM@randomx@@3QBEB
	mov	WORD PTR [rdx], ax
	movzx	eax, BYTE PTR ?REX_IMUL_RM@randomx@@3QBEB+2
	mov	BYTE PTR [rdx+2], al
; Line 107
	mov	eax, DWORD PTR [rcx+64]
	add	eax, 3
	mov	DWORD PTR [rcx+64], eax
; File D:\dev\francium_network\francium_agent\src\ext\randomx\repo\src\jit_compiler_x86.cpp
; Line 555
	movzx	edx, BYTE PTR [rdi+1]
; File D:\dev\francium_network\francium_agent\src\ext\randomx\repo\src\jit_compiler_x86.hpp
; Line 86
	movsxd	rcx, eax
	mov	rax, QWORD PTR [rbx+56]
; File D:\dev\francium_network\francium_agent\src\ext\randomx\repo\src\jit_compiler_x86.cpp
; Line 555
	shl	dl, 3
	sub	dl, 122					; 0000007aH
; File D:\dev\francium_network\francium_agent\src\ext\randomx\repo\src\jit_compiler_x86.hpp
; Line 86
	mov	BYTE PTR [rcx+rax], dl
; Line 87
	movsxd	rcx, DWORD PTR [rbx+64]
	lea	eax, DWORD PTR [rcx+1]
	mov	DWORD PTR [rbx+64], eax
; File D:\dev\francium_network\francium_agent\src\ext\randomx\repo\src\jit_compiler_x86.cpp
; Line 470
	mov	edx, DWORD PTR [rdi+4]
; File D:\dev\francium_network\francium_agent\src\ext\randomx\repo\src\jit_compiler_x86.hpp
; Line 91
	mov	rax, QWORD PTR [rbx+56]
; File D:\dev\francium_network\francium_agent\src\ext\randomx\repo\src\jit_compiler_x86.cpp
; Line 470
	and	edx, 2097144				; 001ffff8H
; File D:\dev\francium_network\francium_agent\src\ext\randomx\repo\src\jit_compiler_x86.hpp
; Line 91
	mov	DWORD PTR [rcx+rax+1], edx
; Line 92
	add	DWORD PTR [rbx+64], 4
; File D:\dev\francium_network\francium_agent\src\ext\randomx\repo\src\jit_compiler_x86.cpp
; Line 558
	mov	rbx, QWORD PTR [rsp+48]
	add	rsp, 32					; 00000020H
	pop	rdi
	ret	0
?h_IMUL_M@JitCompilerX86@randomx@@AEAAXAEAVInstruction@2@H@Z ENDP ; randomx::JitCompilerX86::h_IMUL_M
_TEXT	ENDS
; Function compile flags: /Ogtpy
;	COMDAT ?h_IMULH_R@JitCompilerX86@randomx@@AEAAXAEAVInstruction@2@H@Z
_TEXT	SEGMENT
this$ = 8
instr$ = 16
i$ = 24
?h_IMULH_R@JitCompilerX86@randomx@@AEAAXAEAVInstruction@2@H@Z PROC ; randomx::JitCompilerX86::h_IMULH_R, COMDAT
; File D:\dev\francium_network\francium_agent\src\ext\randomx\repo\src\jit_compiler_x86.cpp
; Line 561
	movzx	eax, BYTE PTR [rdx+1]
	mov	r11, rcx
	mov	r10, rdx
	mov	DWORD PTR [rcx+rax*4+24], r8d
; File D:\dev\francium_network\francium_agent\src\ext\randomx\repo\src\jit_compiler_x86.hpp
; Line 106
	movsxd	r9, DWORD PTR [rcx+64]
	mov	r8, QWORD PTR [rcx+56]
	movzx	eax, WORD PTR ?REX_MOV_RR64@randomx@@3QBEB
	mov	WORD PTR [r9+r8], ax
; Line 107
	add	DWORD PTR [rcx+64], 2
; File D:\dev\francium_network\francium_agent\src\ext\randomx\repo\src\jit_compiler_x86.cpp
; Line 563
	movzx	edx, BYTE PTR [rdx+1]
; File D:\dev\francium_network\francium_agent\src\ext\randomx\repo\src\jit_compiler_x86.hpp
; Line 86
	movsxd	rcx, DWORD PTR [rcx+64]
; File D:\dev\francium_network\francium_agent\src\ext\randomx\repo\src\jit_compiler_x86.cpp
; Line 563
	sub	dl, 64					; 00000040H
; File D:\dev\francium_network\francium_agent\src\ext\randomx\repo\src\jit_compiler_x86.hpp
; Line 86
	mov	rax, QWORD PTR [r11+56]
	mov	BYTE PTR [rcx+rax], dl
; Line 87
	movsxd	rcx, DWORD PTR [r11+64]
; Line 106
	mov	rdx, rcx
; Line 87
	lea	eax, DWORD PTR [rcx+1]
; Line 106
	mov	rcx, QWORD PTR [r11+56]
; Line 87
	mov	DWORD PTR [r11+64], eax
; Line 106
	movzx	eax, WORD PTR ?REX_MUL_R@randomx@@3QBEB
	mov	WORD PTR [rdx+rcx+1], ax
; Line 107
	add	DWORD PTR [r11+64], 2
; File D:\dev\francium_network\francium_agent\src\ext\randomx\repo\src\jit_compiler_x86.cpp
; Line 565
	movzx	edx, BYTE PTR [r10+2]
; File D:\dev\francium_network\francium_agent\src\ext\randomx\repo\src\jit_compiler_x86.hpp
; Line 86
	movsxd	rcx, DWORD PTR [r11+64]
; File D:\dev\francium_network\francium_agent\src\ext\randomx\repo\src\jit_compiler_x86.cpp
; Line 565
	sub	dl, 32					; 00000020H
; File D:\dev\francium_network\francium_agent\src\ext\randomx\repo\src\jit_compiler_x86.hpp
; Line 86
	mov	rax, QWORD PTR [r11+56]
	mov	BYTE PTR [rcx+rax], dl
; Line 87
	movsxd	rcx, DWORD PTR [r11+64]
; Line 106
	mov	rdx, rcx
; Line 87
	lea	eax, DWORD PTR [rcx+1]
; Line 106
	mov	rcx, QWORD PTR [r11+56]
; Line 87
	mov	DWORD PTR [r11+64], eax
; Line 106
	movzx	eax, WORD PTR ?REX_MOV_R64R@randomx@@3QBEB
	mov	WORD PTR [rdx+rcx+1], ax
; Line 107
	add	DWORD PTR [r11+64], 2
; File D:\dev\francium_network\francium_agent\src\ext\randomx\repo\src\jit_compiler_x86.cpp
; Line 567
	movzx	edx, BYTE PTR [r10+1]
; File D:\dev\francium_network\francium_agent\src\ext\randomx\repo\src\jit_compiler_x86.hpp
; Line 86
	movsxd	rcx, DWORD PTR [r11+64]
	mov	rax, QWORD PTR [r11+56]
; File D:\dev\francium_network\francium_agent\src\ext\randomx\repo\src\jit_compiler_x86.cpp
; Line 567
	shl	dl, 3
	sub	dl, 62					; 0000003eH
; File D:\dev\francium_network\francium_agent\src\ext\randomx\repo\src\jit_compiler_x86.hpp
; Line 86
	mov	BYTE PTR [rcx+rax], dl
; Line 87
	inc	DWORD PTR [r11+64]
; File D:\dev\francium_network\francium_agent\src\ext\randomx\repo\src\jit_compiler_x86.cpp
; Line 568
	ret	0
?h_IMULH_R@JitCompilerX86@randomx@@AEAAXAEAVInstruction@2@H@Z ENDP ; randomx::JitCompilerX86::h_IMULH_R
_TEXT	ENDS
; Function compile flags: /Ogtpy
;	COMDAT ?h_IMULH_M@JitCompilerX86@randomx@@AEAAXAEAVInstruction@2@H@Z
_TEXT	SEGMENT
this$ = 48
instr$ = 56
i$ = 64
?h_IMULH_M@JitCompilerX86@randomx@@AEAAXAEAVInstruction@2@H@Z PROC ; randomx::JitCompilerX86::h_IMULH_M, COMDAT
; File D:\dev\francium_network\francium_agent\src\ext\randomx\repo\src\jit_compiler_x86.cpp
; Line 570
$LN38:
	mov	QWORD PTR [rsp+8], rbx
	push	rdi
	sub	rsp, 32					; 00000020H
; Line 571
	movzx	eax, BYTE PTR [rdx+1]
	mov	rdi, rdx
	mov	rbx, rcx
	mov	DWORD PTR [rcx+rax*4+24], r8d
; Line 572
	movzx	eax, BYTE PTR [rdx+1]
	cmp	BYTE PTR [rdx+2], al
	je	SHORT $LN2@h_IMULH_M
; Line 573
	xor	r8d, r8d
	call	?genAddressReg@JitCompilerX86@randomx@@AEAAXAEAVInstruction@2@_N@Z ; randomx::JitCompilerX86::genAddressReg
; File D:\dev\francium_network\francium_agent\src\ext\randomx\repo\src\jit_compiler_x86.hpp
; Line 106
	movsxd	rdx, DWORD PTR [rbx+64]
	movzx	eax, WORD PTR ?REX_MOV_RR64@randomx@@3QBEB
	mov	rcx, QWORD PTR [rbx+56]
	mov	WORD PTR [rdx+rcx], ax
; Line 107
	mov	eax, DWORD PTR [rbx+64]
	add	eax, 2
	mov	DWORD PTR [rbx+64], eax
; File D:\dev\francium_network\francium_agent\src\ext\randomx\repo\src\jit_compiler_x86.cpp
; Line 575
	movzx	edx, BYTE PTR [rdi+1]
; File D:\dev\francium_network\francium_agent\src\ext\randomx\repo\src\jit_compiler_x86.hpp
; Line 86
	movsxd	rcx, eax
; File D:\dev\francium_network\francium_agent\src\ext\randomx\repo\src\jit_compiler_x86.cpp
; Line 575
	sub	dl, 64					; 00000040H
; File D:\dev\francium_network\francium_agent\src\ext\randomx\repo\src\jit_compiler_x86.hpp
; Line 86
	mov	rax, QWORD PTR [rbx+56]
	mov	BYTE PTR [rcx+rax], dl
; Line 87
	movsxd	rcx, DWORD PTR [rbx+64]
; Line 106
	mov	rdx, rcx
; Line 87
	lea	eax, DWORD PTR [rcx+1]
; Line 106
	mov	rcx, QWORD PTR [rbx+56]
; Line 87
	mov	DWORD PTR [rbx+64], eax
; Line 106
	mov	eax, DWORD PTR ?REX_MUL_MEM@randomx@@3QBEB
	mov	DWORD PTR [rdx+rcx+1], eax
; Line 107
	mov	eax, DWORD PTR [rbx+64]
	add	eax, 4
	mov	DWORD PTR [rbx+64], eax
; File D:\dev\francium_network\francium_agent\src\ext\randomx\repo\src\jit_compiler_x86.cpp
; Line 577
	jmp	$LN3@h_IMULH_M
$LN2@h_IMULH_M:
; File D:\dev\francium_network\francium_agent\src\ext\randomx\repo\src\jit_compiler_x86.hpp
; Line 106
	movsxd	rdx, DWORD PTR [rcx+64]
	movzx	eax, WORD PTR ?REX_MOV_RR64@randomx@@3QBEB
	mov	rcx, QWORD PTR [rcx+56]
	mov	WORD PTR [rdx+rcx], ax
; Line 107
	mov	eax, DWORD PTR [rbx+64]
	add	eax, 2
	mov	DWORD PTR [rbx+64], eax
; File D:\dev\francium_network\francium_agent\src\ext\randomx\repo\src\jit_compiler_x86.cpp
; Line 580
	movzx	edx, BYTE PTR [rdi+1]
; File D:\dev\francium_network\francium_agent\src\ext\randomx\repo\src\jit_compiler_x86.hpp
; Line 86
	movsxd	rcx, eax
; File D:\dev\francium_network\francium_agent\src\ext\randomx\repo\src\jit_compiler_x86.cpp
; Line 580
	sub	dl, 64					; 00000040H
; File D:\dev\francium_network\francium_agent\src\ext\randomx\repo\src\jit_compiler_x86.hpp
; Line 86
	mov	rax, QWORD PTR [rbx+56]
	mov	BYTE PTR [rcx+rax], dl
; Line 87
	movsxd	rcx, DWORD PTR [rbx+64]
; Line 106
	mov	rdx, rcx
; Line 87
	lea	eax, DWORD PTR [rcx+1]
; Line 106
	mov	rcx, QWORD PTR [rbx+56]
; Line 87
	mov	DWORD PTR [rbx+64], eax
; Line 106
	movzx	eax, WORD PTR ?REX_MUL_M@randomx@@3QBEB
	mov	WORD PTR [rdx+rcx+1], ax
; Line 107
	mov	eax, DWORD PTR [rbx+64]
	add	eax, 2
	mov	DWORD PTR [rbx+64], eax
; Line 86
	movsxd	rcx, eax
	mov	rax, QWORD PTR [rbx+56]
	mov	BYTE PTR [rcx+rax], 166			; 000000a6H
; Line 87
	movsxd	rcx, DWORD PTR [rbx+64]
	lea	eax, DWORD PTR [rcx+1]
	mov	DWORD PTR [rbx+64], eax
; File D:\dev\francium_network\francium_agent\src\ext\randomx\repo\src\jit_compiler_x86.cpp
; Line 470
	mov	edx, DWORD PTR [rdi+4]
; File D:\dev\francium_network\francium_agent\src\ext\randomx\repo\src\jit_compiler_x86.hpp
; Line 91
	mov	rax, QWORD PTR [rbx+56]
; File D:\dev\francium_network\francium_agent\src\ext\randomx\repo\src\jit_compiler_x86.cpp
; Line 470
	and	edx, 2097144				; 001ffff8H
; File D:\dev\francium_network\francium_agent\src\ext\randomx\repo\src\jit_compiler_x86.hpp
; Line 91
	mov	DWORD PTR [rcx+rax+1], edx
; Line 92
	add	DWORD PTR [rbx+64], 4
	mov	eax, DWORD PTR [rbx+64]
$LN3@h_IMULH_M:
; Line 106
	mov	rcx, QWORD PTR [rbx+56]
	movsxd	rdx, eax
	movzx	eax, WORD PTR ?REX_MOV_R64R@randomx@@3QBEB
	mov	WORD PTR [rdx+rcx], ax
; Line 107
	add	DWORD PTR [rbx+64], 2
; File D:\dev\francium_network\francium_agent\src\ext\randomx\repo\src\jit_compiler_x86.cpp
; Line 586
	movzx	edx, BYTE PTR [rdi+1]
; File D:\dev\francium_network\francium_agent\src\ext\randomx\repo\src\jit_compiler_x86.hpp
; Line 86
	movsxd	rcx, DWORD PTR [rbx+64]
	mov	rax, QWORD PTR [rbx+56]
; File D:\dev\francium_network\francium_agent\src\ext\randomx\repo\src\jit_compiler_x86.cpp
; Line 586
	shl	dl, 3
	sub	dl, 62					; 0000003eH
; File D:\dev\francium_network\francium_agent\src\ext\randomx\repo\src\jit_compiler_x86.hpp
; Line 86
	mov	BYTE PTR [rcx+rax], dl
; Line 87
	inc	DWORD PTR [rbx+64]
; File D:\dev\francium_network\francium_agent\src\ext\randomx\repo\src\jit_compiler_x86.cpp
; Line 587
	mov	rbx, QWORD PTR [rsp+48]
	add	rsp, 32					; 00000020H
	pop	rdi
	ret	0
?h_IMULH_M@JitCompilerX86@randomx@@AEAAXAEAVInstruction@2@H@Z ENDP ; randomx::JitCompilerX86::h_IMULH_M
_TEXT	ENDS
; Function compile flags: /Ogtpy
;	COMDAT ?h_ISMULH_R@JitCompilerX86@randomx@@AEAAXAEAVInstruction@2@H@Z
_TEXT	SEGMENT
this$ = 8
instr$ = 16
i$ = 24
?h_ISMULH_R@JitCompilerX86@randomx@@AEAAXAEAVInstruction@2@H@Z PROC ; randomx::JitCompilerX86::h_ISMULH_R, COMDAT
; File D:\dev\francium_network\francium_agent\src\ext\randomx\repo\src\jit_compiler_x86.cpp
; Line 590
	movzx	eax, BYTE PTR [rdx+1]
	mov	r11, rcx
	mov	r10, rdx
	mov	DWORD PTR [rcx+rax*4+24], r8d
; File D:\dev\francium_network\francium_agent\src\ext\randomx\repo\src\jit_compiler_x86.hpp
; Line 106
	movsxd	r9, DWORD PTR [rcx+64]
	mov	r8, QWORD PTR [rcx+56]
	movzx	eax, WORD PTR ?REX_MOV_RR64@randomx@@3QBEB
	mov	WORD PTR [r9+r8], ax
; Line 107
	add	DWORD PTR [rcx+64], 2
; File D:\dev\francium_network\francium_agent\src\ext\randomx\repo\src\jit_compiler_x86.cpp
; Line 592
	movzx	edx, BYTE PTR [rdx+1]
; File D:\dev\francium_network\francium_agent\src\ext\randomx\repo\src\jit_compiler_x86.hpp
; Line 86
	movsxd	rcx, DWORD PTR [rcx+64]
; File D:\dev\francium_network\francium_agent\src\ext\randomx\repo\src\jit_compiler_x86.cpp
; Line 592
	sub	dl, 64					; 00000040H
; File D:\dev\francium_network\francium_agent\src\ext\randomx\repo\src\jit_compiler_x86.hpp
; Line 86
	mov	rax, QWORD PTR [r11+56]
	mov	BYTE PTR [rcx+rax], dl
; Line 87
	movsxd	rcx, DWORD PTR [r11+64]
; Line 106
	mov	rdx, rcx
; Line 87
	lea	eax, DWORD PTR [rcx+1]
; Line 106
	mov	rcx, QWORD PTR [r11+56]
; Line 87
	mov	DWORD PTR [r11+64], eax
; Line 106
	movzx	eax, WORD PTR ?REX_MUL_R@randomx@@3QBEB
	mov	WORD PTR [rdx+rcx+1], ax
; Line 107
	add	DWORD PTR [r11+64], 2
; File D:\dev\francium_network\francium_agent\src\ext\randomx\repo\src\jit_compiler_x86.cpp
; Line 594
	movzx	edx, BYTE PTR [r10+2]
; File D:\dev\francium_network\francium_agent\src\ext\randomx\repo\src\jit_compiler_x86.hpp
; Line 86
	movsxd	rcx, DWORD PTR [r11+64]
; File D:\dev\francium_network\francium_agent\src\ext\randomx\repo\src\jit_compiler_x86.cpp
; Line 594
	sub	dl, 24
; File D:\dev\francium_network\francium_agent\src\ext\randomx\repo\src\jit_compiler_x86.hpp
; Line 86
	mov	rax, QWORD PTR [r11+56]
	mov	BYTE PTR [rcx+rax], dl
; Line 87
	movsxd	rcx, DWORD PTR [r11+64]
; Line 106
	mov	rdx, rcx
; Line 87
	lea	eax, DWORD PTR [rcx+1]
; Line 106
	mov	rcx, QWORD PTR [r11+56]
; Line 87
	mov	DWORD PTR [r11+64], eax
; Line 106
	movzx	eax, WORD PTR ?REX_MOV_R64R@randomx@@3QBEB
	mov	WORD PTR [rdx+rcx+1], ax
; Line 107
	add	DWORD PTR [r11+64], 2
; File D:\dev\francium_network\francium_agent\src\ext\randomx\repo\src\jit_compiler_x86.cpp
; Line 596
	movzx	edx, BYTE PTR [r10+1]
; File D:\dev\francium_network\francium_agent\src\ext\randomx\repo\src\jit_compiler_x86.hpp
; Line 86
	movsxd	rcx, DWORD PTR [r11+64]
	mov	rax, QWORD PTR [r11+56]
; File D:\dev\francium_network\francium_agent\src\ext\randomx\repo\src\jit_compiler_x86.cpp
; Line 596
	shl	dl, 3
	sub	dl, 62					; 0000003eH
; File D:\dev\francium_network\francium_agent\src\ext\randomx\repo\src\jit_compiler_x86.hpp
; Line 86
	mov	BYTE PTR [rcx+rax], dl
; Line 87
	inc	DWORD PTR [r11+64]
; File D:\dev\francium_network\francium_agent\src\ext\randomx\repo\src\jit_compiler_x86.cpp
; Line 597
	ret	0
?h_ISMULH_R@JitCompilerX86@randomx@@AEAAXAEAVInstruction@2@H@Z ENDP ; randomx::JitCompilerX86::h_ISMULH_R
_TEXT	ENDS
; Function compile flags: /Ogtpy
;	COMDAT ?h_ISMULH_M@JitCompilerX86@randomx@@AEAAXAEAVInstruction@2@H@Z
_TEXT	SEGMENT
this$ = 48
instr$ = 56
i$ = 64
?h_ISMULH_M@JitCompilerX86@randomx@@AEAAXAEAVInstruction@2@H@Z PROC ; randomx::JitCompilerX86::h_ISMULH_M, COMDAT
; File D:\dev\francium_network\francium_agent\src\ext\randomx\repo\src\jit_compiler_x86.cpp
; Line 599
$LN38:
	mov	QWORD PTR [rsp+8], rbx
	push	rdi
	sub	rsp, 32					; 00000020H
; Line 600
	movzx	eax, BYTE PTR [rdx+1]
	mov	rdi, rdx
	mov	rbx, rcx
	mov	DWORD PTR [rcx+rax*4+24], r8d
; Line 601
	movzx	eax, BYTE PTR [rdx+1]
	cmp	BYTE PTR [rdx+2], al
	je	SHORT $LN2@h_ISMULH_M
; Line 602
	xor	r8d, r8d
	call	?genAddressReg@JitCompilerX86@randomx@@AEAAXAEAVInstruction@2@_N@Z ; randomx::JitCompilerX86::genAddressReg
; File D:\dev\francium_network\francium_agent\src\ext\randomx\repo\src\jit_compiler_x86.hpp
; Line 106
	movsxd	rdx, DWORD PTR [rbx+64]
	movzx	eax, WORD PTR ?REX_MOV_RR64@randomx@@3QBEB
	mov	rcx, QWORD PTR [rbx+56]
	mov	WORD PTR [rdx+rcx], ax
; Line 107
	mov	eax, DWORD PTR [rbx+64]
	add	eax, 2
	mov	DWORD PTR [rbx+64], eax
; File D:\dev\francium_network\francium_agent\src\ext\randomx\repo\src\jit_compiler_x86.cpp
; Line 604
	movzx	edx, BYTE PTR [rdi+1]
; File D:\dev\francium_network\francium_agent\src\ext\randomx\repo\src\jit_compiler_x86.hpp
; Line 86
	movsxd	rcx, eax
; File D:\dev\francium_network\francium_agent\src\ext\randomx\repo\src\jit_compiler_x86.cpp
; Line 604
	sub	dl, 64					; 00000040H
; File D:\dev\francium_network\francium_agent\src\ext\randomx\repo\src\jit_compiler_x86.hpp
; Line 86
	mov	rax, QWORD PTR [rbx+56]
	mov	BYTE PTR [rcx+rax], dl
; Line 87
	movsxd	rcx, DWORD PTR [rbx+64]
; Line 106
	mov	rdx, rcx
; Line 87
	lea	eax, DWORD PTR [rcx+1]
; Line 106
	mov	rcx, QWORD PTR [rbx+56]
; Line 87
	mov	DWORD PTR [rbx+64], eax
; Line 106
	mov	eax, DWORD PTR ?REX_IMUL_MEM@randomx@@3QBEB
	mov	DWORD PTR [rdx+rcx+1], eax
; Line 107
	mov	eax, DWORD PTR [rbx+64]
	add	eax, 4
	mov	DWORD PTR [rbx+64], eax
; File D:\dev\francium_network\francium_agent\src\ext\randomx\repo\src\jit_compiler_x86.cpp
; Line 606
	jmp	$LN3@h_ISMULH_M
$LN2@h_ISMULH_M:
; File D:\dev\francium_network\francium_agent\src\ext\randomx\repo\src\jit_compiler_x86.hpp
; Line 106
	movsxd	rdx, DWORD PTR [rcx+64]
	movzx	eax, WORD PTR ?REX_MOV_RR64@randomx@@3QBEB
	mov	rcx, QWORD PTR [rcx+56]
	mov	WORD PTR [rdx+rcx], ax
; Line 107
	mov	eax, DWORD PTR [rbx+64]
	add	eax, 2
	mov	DWORD PTR [rbx+64], eax
; File D:\dev\francium_network\francium_agent\src\ext\randomx\repo\src\jit_compiler_x86.cpp
; Line 609
	movzx	edx, BYTE PTR [rdi+1]
; File D:\dev\francium_network\francium_agent\src\ext\randomx\repo\src\jit_compiler_x86.hpp
; Line 86
	movsxd	rcx, eax
; File D:\dev\francium_network\francium_agent\src\ext\randomx\repo\src\jit_compiler_x86.cpp
; Line 609
	sub	dl, 64					; 00000040H
; File D:\dev\francium_network\francium_agent\src\ext\randomx\repo\src\jit_compiler_x86.hpp
; Line 86
	mov	rax, QWORD PTR [rbx+56]
	mov	BYTE PTR [rcx+rax], dl
; Line 87
	movsxd	rcx, DWORD PTR [rbx+64]
; Line 106
	mov	rdx, rcx
; Line 87
	lea	eax, DWORD PTR [rcx+1]
; Line 106
	mov	rcx, QWORD PTR [rbx+56]
; Line 87
	mov	DWORD PTR [rbx+64], eax
; Line 106
	movzx	eax, WORD PTR ?REX_MUL_M@randomx@@3QBEB
	mov	WORD PTR [rdx+rcx+1], ax
; Line 107
	mov	eax, DWORD PTR [rbx+64]
	add	eax, 2
	mov	DWORD PTR [rbx+64], eax
; Line 86
	movsxd	rcx, eax
	mov	rax, QWORD PTR [rbx+56]
	mov	BYTE PTR [rcx+rax], 174			; 000000aeH
; Line 87
	movsxd	rcx, DWORD PTR [rbx+64]
	lea	eax, DWORD PTR [rcx+1]
	mov	DWORD PTR [rbx+64], eax
; File D:\dev\francium_network\francium_agent\src\ext\randomx\repo\src\jit_compiler_x86.cpp
; Line 470
	mov	edx, DWORD PTR [rdi+4]
; File D:\dev\francium_network\francium_agent\src\ext\randomx\repo\src\jit_compiler_x86.hpp
; Line 91
	mov	rax, QWORD PTR [rbx+56]
; File D:\dev\francium_network\francium_agent\src\ext\randomx\repo\src\jit_compiler_x86.cpp
; Line 470
	and	edx, 2097144				; 001ffff8H
; File D:\dev\francium_network\francium_agent\src\ext\randomx\repo\src\jit_compiler_x86.hpp
; Line 91
	mov	DWORD PTR [rcx+rax+1], edx
; Line 92
	add	DWORD PTR [rbx+64], 4
	mov	eax, DWORD PTR [rbx+64]
$LN3@h_ISMULH_M:
; Line 106
	mov	rcx, QWORD PTR [rbx+56]
	movsxd	rdx, eax
	movzx	eax, WORD PTR ?REX_MOV_R64R@randomx@@3QBEB
	mov	WORD PTR [rdx+rcx], ax
; Line 107
	add	DWORD PTR [rbx+64], 2
; File D:\dev\francium_network\francium_agent\src\ext\randomx\repo\src\jit_compiler_x86.cpp
; Line 615
	movzx	edx, BYTE PTR [rdi+1]
; File D:\dev\francium_network\francium_agent\src\ext\randomx\repo\src\jit_compiler_x86.hpp
; Line 86
	movsxd	rcx, DWORD PTR [rbx+64]
	mov	rax, QWORD PTR [rbx+56]
; File D:\dev\francium_network\francium_agent\src\ext\randomx\repo\src\jit_compiler_x86.cpp
; Line 615
	shl	dl, 3
	sub	dl, 62					; 0000003eH
; File D:\dev\francium_network\francium_agent\src\ext\randomx\repo\src\jit_compiler_x86.hpp
; Line 86
	mov	BYTE PTR [rcx+rax], dl
; Line 87
	inc	DWORD PTR [rbx+64]
; File D:\dev\francium_network\francium_agent\src\ext\randomx\repo\src\jit_compiler_x86.cpp
; Line 616
	mov	rbx, QWORD PTR [rsp+48]
	add	rsp, 32					; 00000020H
	pop	rdi
	ret	0
?h_ISMULH_M@JitCompilerX86@randomx@@AEAAXAEAVInstruction@2@H@Z ENDP ; randomx::JitCompilerX86::h_ISMULH_M
_TEXT	ENDS
; Function compile flags: /Ogtpy
;	COMDAT ?h_IMUL_RCP@JitCompilerX86@randomx@@AEAAXAEAVInstruction@2@H@Z
_TEXT	SEGMENT
this$ = 48
instr$ = 56
i$ = 64
?h_IMUL_RCP@JitCompilerX86@randomx@@AEAAXAEAVInstruction@2@H@Z PROC ; randomx::JitCompilerX86::h_IMUL_RCP, COMDAT
; File D:\dev\francium_network\francium_agent\src\ext\randomx\repo\src\jit_compiler_x86.cpp
; Line 618
$LN19:
	mov	QWORD PTR [rsp+8], rbx
	push	rdi
	sub	rsp, 32					; 00000020H
	mov	rbx, rcx
	mov	rdi, rdx
; Line 619
	mov	ecx, DWORD PTR [rdx+4]
; File D:\dev\francium_network\francium_agent\src\ext\randomx\repo\src\common.hpp
; Line 155
	lea	rax, QWORD PTR [rcx-1]
	test	rax, rcx
; File D:\dev\francium_network\francium_agent\src\ext\randomx\repo\src\jit_compiler_x86.cpp
; Line 620
	je	SHORT $LN2@h_IMUL_RCP
; Line 621
	movzx	eax, BYTE PTR [rdx+1]
	mov	DWORD PTR [rbx+rax*4+24], r8d
; File D:\dev\francium_network\francium_agent\src\ext\randomx\repo\src\jit_compiler_x86.hpp
; Line 106
	movsxd	r8, DWORD PTR [rbx+64]
	movzx	eax, WORD PTR ?MOV_RAX_I@randomx@@3QBEB
	mov	rdx, QWORD PTR [rbx+56]
	mov	WORD PTR [r8+rdx], ax
; Line 107
	add	DWORD PTR [rbx+64], 2
; File D:\dev\francium_network\francium_agent\src\ext\randomx\repo\src\jit_compiler_x86.cpp
; Line 623
	call	randomx_reciprocal_fast
; File D:\dev\francium_network\francium_agent\src\ext\randomx\repo\src\jit_compiler_x86.hpp
; Line 96
	movsxd	rdx, DWORD PTR [rbx+64]
	mov	rcx, QWORD PTR [rbx+56]
	mov	QWORD PTR [rdx+rcx], rax
; Line 97
	add	DWORD PTR [rbx+64], 8
; Line 106
	movzx	eax, WORD PTR ?REX_IMUL_RM@randomx@@3QBEB
	movsxd	rdx, DWORD PTR [rbx+64]
	add	rdx, QWORD PTR [rbx+56]
	mov	WORD PTR [rdx], ax
	movzx	eax, BYTE PTR ?REX_IMUL_RM@randomx@@3QBEB+2
	mov	BYTE PTR [rdx+2], al
; Line 107
	add	DWORD PTR [rbx+64], 3
; File D:\dev\francium_network\francium_agent\src\ext\randomx\repo\src\jit_compiler_x86.cpp
; Line 625
	movzx	edx, BYTE PTR [rdi+1]
; File D:\dev\francium_network\francium_agent\src\ext\randomx\repo\src\jit_compiler_x86.hpp
; Line 86
	movsxd	rcx, DWORD PTR [rbx+64]
	mov	rax, QWORD PTR [rbx+56]
; File D:\dev\francium_network\francium_agent\src\ext\randomx\repo\src\jit_compiler_x86.cpp
; Line 625
	shl	dl, 3
	sub	dl, 64					; 00000040H
; File D:\dev\francium_network\francium_agent\src\ext\randomx\repo\src\jit_compiler_x86.hpp
; Line 86
	mov	BYTE PTR [rcx+rax], dl
; Line 87
	inc	DWORD PTR [rbx+64]
$LN2@h_IMUL_RCP:
; File D:\dev\francium_network\francium_agent\src\ext\randomx\repo\src\jit_compiler_x86.cpp
; Line 627
	mov	rbx, QWORD PTR [rsp+48]
	add	rsp, 32					; 00000020H
	pop	rdi
	ret	0
?h_IMUL_RCP@JitCompilerX86@randomx@@AEAAXAEAVInstruction@2@H@Z ENDP ; randomx::JitCompilerX86::h_IMUL_RCP
_TEXT	ENDS
; Function compile flags: /Ogtpy
;	COMDAT ?h_INEG_R@JitCompilerX86@randomx@@AEAAXAEAVInstruction@2@H@Z
_TEXT	SEGMENT
this$ = 8
instr$ = 16
i$ = 24
?h_INEG_R@JitCompilerX86@randomx@@AEAAXAEAVInstruction@2@H@Z PROC ; randomx::JitCompilerX86::h_INEG_R, COMDAT
; File D:\dev\francium_network\francium_agent\src\ext\randomx\repo\src\jit_compiler_x86.cpp
; Line 630
	movzx	eax, BYTE PTR [rdx+1]
	mov	r10, rcx
	mov	DWORD PTR [rcx+rax*4+24], r8d
; File D:\dev\francium_network\francium_agent\src\ext\randomx\repo\src\jit_compiler_x86.hpp
; Line 106
	movsxd	r9, DWORD PTR [rcx+64]
	movzx	eax, WORD PTR ?REX_NEG@randomx@@3QBEB
	mov	r8, QWORD PTR [rcx+56]
	mov	WORD PTR [r9+r8], ax
; Line 107
	add	DWORD PTR [rcx+64], 2
; File D:\dev\francium_network\francium_agent\src\ext\randomx\repo\src\jit_compiler_x86.cpp
; Line 632
	movzx	edx, BYTE PTR [rdx+1]
; File D:\dev\francium_network\francium_agent\src\ext\randomx\repo\src\jit_compiler_x86.hpp
; Line 86
	movsxd	rcx, DWORD PTR [rcx+64]
; File D:\dev\francium_network\francium_agent\src\ext\randomx\repo\src\jit_compiler_x86.cpp
; Line 632
	sub	dl, 40					; 00000028H
; File D:\dev\francium_network\francium_agent\src\ext\randomx\repo\src\jit_compiler_x86.hpp
; Line 86
	mov	rax, QWORD PTR [r10+56]
	mov	BYTE PTR [rcx+rax], dl
; Line 87
	inc	DWORD PTR [r10+64]
; File D:\dev\francium_network\francium_agent\src\ext\randomx\repo\src\jit_compiler_x86.cpp
; Line 633
	ret	0
?h_INEG_R@JitCompilerX86@randomx@@AEAAXAEAVInstruction@2@H@Z ENDP ; randomx::JitCompilerX86::h_INEG_R
_TEXT	ENDS
; Function compile flags: /Ogtpy
;	COMDAT ?h_IXOR_R@JitCompilerX86@randomx@@AEAAXAEAVInstruction@2@H@Z
_TEXT	SEGMENT
this$ = 8
instr$ = 16
i$ = 24
?h_IXOR_R@JitCompilerX86@randomx@@AEAAXAEAVInstruction@2@H@Z PROC ; randomx::JitCompilerX86::h_IXOR_R, COMDAT
; File D:\dev\francium_network\francium_agent\src\ext\randomx\repo\src\jit_compiler_x86.cpp
; Line 636
	movzx	eax, BYTE PTR [rdx+1]
	mov	r10, rdx
	mov	r9, rcx
	mov	DWORD PTR [rcx+rax*4+24], r8d
; Line 637
	movzx	eax, BYTE PTR [r10+1]
	movsxd	rcx, DWORD PTR [rcx+64]
	mov	rdx, QWORD PTR [r9+56]
	cmp	BYTE PTR [r10+2], al
	je	SHORT $LN2@h_IXOR_R
; File D:\dev\francium_network\francium_agent\src\ext\randomx\repo\src\jit_compiler_x86.hpp
; Line 106
	movzx	eax, WORD PTR ?REX_XOR_RR@randomx@@3QBEB
	mov	WORD PTR [rcx+rdx], ax
; Line 107
	mov	eax, DWORD PTR [r9+64]
	add	eax, 2
	mov	DWORD PTR [r9+64], eax
; File D:\dev\francium_network\francium_agent\src\ext\randomx\repo\src\jit_compiler_x86.cpp
; Line 639
	movzx	edx, BYTE PTR [r10+1]
	shl	dl, 3
; File D:\dev\francium_network\francium_agent\src\ext\randomx\repo\src\jit_compiler_x86.hpp
; Line 86
	movsxd	rcx, eax
; File D:\dev\francium_network\francium_agent\src\ext\randomx\repo\src\jit_compiler_x86.cpp
; Line 639
	sub	dl, 64					; 00000040H
	add	dl, BYTE PTR [r10+2]
; File D:\dev\francium_network\francium_agent\src\ext\randomx\repo\src\jit_compiler_x86.hpp
; Line 86
	mov	rax, QWORD PTR [r9+56]
	mov	BYTE PTR [rcx+rax], dl
; Line 87
	inc	DWORD PTR [r9+64]
; File D:\dev\francium_network\francium_agent\src\ext\randomx\repo\src\jit_compiler_x86.cpp
; Line 646
	ret	0
$LN2@h_IXOR_R:
; File D:\dev\francium_network\francium_agent\src\ext\randomx\repo\src\jit_compiler_x86.hpp
; Line 106
	movzx	eax, WORD PTR ?REX_XOR_RI@randomx@@3QBEB
	mov	WORD PTR [rcx+rdx], ax
; Line 107
	mov	eax, DWORD PTR [r9+64]
	add	eax, 2
	mov	DWORD PTR [r9+64], eax
; File D:\dev\francium_network\francium_agent\src\ext\randomx\repo\src\jit_compiler_x86.cpp
; Line 643
	movzx	edx, BYTE PTR [r10+1]
; File D:\dev\francium_network\francium_agent\src\ext\randomx\repo\src\jit_compiler_x86.hpp
; Line 86
	movsxd	rcx, eax
; File D:\dev\francium_network\francium_agent\src\ext\randomx\repo\src\jit_compiler_x86.cpp
; Line 643
	sub	dl, 16
; File D:\dev\francium_network\francium_agent\src\ext\randomx\repo\src\jit_compiler_x86.hpp
; Line 86
	mov	rax, QWORD PTR [r9+56]
	mov	BYTE PTR [rcx+rax], dl
; Line 87
	movsxd	rcx, DWORD PTR [r9+64]
; Line 91
	mov	rdx, rcx
; Line 87
	lea	eax, DWORD PTR [rcx+1]
; Line 91
	mov	rcx, QWORD PTR [r9+56]
; Line 87
	mov	DWORD PTR [r9+64], eax
; Line 91
	mov	eax, DWORD PTR [r10+4]
	mov	DWORD PTR [rdx+rcx+1], eax
; Line 92
	add	DWORD PTR [r9+64], 4
; File D:\dev\francium_network\francium_agent\src\ext\randomx\repo\src\jit_compiler_x86.cpp
; Line 646
	ret	0
?h_IXOR_R@JitCompilerX86@randomx@@AEAAXAEAVInstruction@2@H@Z ENDP ; randomx::JitCompilerX86::h_IXOR_R
_TEXT	ENDS
; Function compile flags: /Ogtpy
;	COMDAT ?h_IXOR_M@JitCompilerX86@randomx@@AEAAXAEAVInstruction@2@H@Z
_TEXT	SEGMENT
this$ = 48
instr$ = 56
i$ = 64
?h_IXOR_M@JitCompilerX86@randomx@@AEAAXAEAVInstruction@2@H@Z PROC ; randomx::JitCompilerX86::h_IXOR_M, COMDAT
; File D:\dev\francium_network\francium_agent\src\ext\randomx\repo\src\jit_compiler_x86.cpp
; Line 648
$LN24:
	mov	QWORD PTR [rsp+8], rbx
	push	rdi
	sub	rsp, 32					; 00000020H
; Line 649
	movzx	eax, BYTE PTR [rdx+1]
	mov	rdi, rdx
	mov	rbx, rcx
	mov	DWORD PTR [rcx+rax*4+24], r8d
; Line 650
	movzx	eax, BYTE PTR [rdx+1]
	cmp	BYTE PTR [rdx+2], al
	je	SHORT $LN2@h_IXOR_M
; Line 651
	mov	r8b, 1
	call	?genAddressReg@JitCompilerX86@randomx@@AEAAXAEAVInstruction@2@_N@Z ; randomx::JitCompilerX86::genAddressReg
; File D:\dev\francium_network\francium_agent\src\ext\randomx\repo\src\jit_compiler_x86.hpp
; Line 106
	movzx	eax, WORD PTR ?REX_XOR_RM@randomx@@3QBEB
	movsxd	rdx, DWORD PTR [rbx+64]
	mov	rcx, QWORD PTR [rbx+56]
	mov	WORD PTR [rdx+rcx], ax
; Line 107
	mov	eax, DWORD PTR [rbx+64]
	add	eax, 2
	mov	DWORD PTR [rbx+64], eax
; File D:\dev\francium_network\francium_agent\src\ext\randomx\repo\src\jit_compiler_x86.cpp
; Line 653
	movzx	edx, BYTE PTR [rdi+1]
; File D:\dev\francium_network\francium_agent\src\ext\randomx\repo\src\jit_compiler_x86.hpp
; Line 86
	movsxd	rcx, eax
	mov	rax, QWORD PTR [rbx+56]
; File D:\dev\francium_network\francium_agent\src\ext\randomx\repo\src\jit_compiler_x86.cpp
; Line 653
	shl	dl, 3
	add	dl, 4
; File D:\dev\francium_network\francium_agent\src\ext\randomx\repo\src\jit_compiler_x86.hpp
; Line 86
	mov	BYTE PTR [rcx+rax], dl
; Line 87
	movsxd	rcx, DWORD PTR [rbx+64]
	lea	eax, DWORD PTR [rcx+1]
	mov	DWORD PTR [rbx+64], eax
; Line 86
	mov	rax, QWORD PTR [rbx+56]
	mov	BYTE PTR [rcx+rax+1], 6
; Line 87
	inc	DWORD PTR [rbx+64]
; File D:\dev\francium_network\francium_agent\src\ext\randomx\repo\src\jit_compiler_x86.cpp
; Line 661
	mov	rbx, QWORD PTR [rsp+48]
	add	rsp, 32					; 00000020H
	pop	rdi
	ret	0
$LN2@h_IXOR_M:
; File D:\dev\francium_network\francium_agent\src\ext\randomx\repo\src\jit_compiler_x86.hpp
; Line 106
	movsxd	rdx, DWORD PTR [rcx+64]
	movzx	eax, WORD PTR ?REX_XOR_RM@randomx@@3QBEB
	mov	rcx, QWORD PTR [rcx+56]
	mov	WORD PTR [rdx+rcx], ax
; Line 107
	mov	eax, DWORD PTR [rbx+64]
	add	eax, 2
	mov	DWORD PTR [rbx+64], eax
; File D:\dev\francium_network\francium_agent\src\ext\randomx\repo\src\jit_compiler_x86.cpp
; Line 658
	movzx	edx, BYTE PTR [rdi+1]
; File D:\dev\francium_network\francium_agent\src\ext\randomx\repo\src\jit_compiler_x86.hpp
; Line 86
	movsxd	rcx, eax
	mov	rax, QWORD PTR [rbx+56]
; File D:\dev\francium_network\francium_agent\src\ext\randomx\repo\src\jit_compiler_x86.cpp
; Line 658
	shl	dl, 3
	sub	dl, 122					; 0000007aH
; File D:\dev\francium_network\francium_agent\src\ext\randomx\repo\src\jit_compiler_x86.hpp
; Line 86
	mov	BYTE PTR [rcx+rax], dl
; Line 87
	movsxd	rcx, DWORD PTR [rbx+64]
	lea	eax, DWORD PTR [rcx+1]
	mov	DWORD PTR [rbx+64], eax
; File D:\dev\francium_network\francium_agent\src\ext\randomx\repo\src\jit_compiler_x86.cpp
; Line 470
	mov	edx, DWORD PTR [rdi+4]
; File D:\dev\francium_network\francium_agent\src\ext\randomx\repo\src\jit_compiler_x86.hpp
; Line 91
	mov	rax, QWORD PTR [rbx+56]
; File D:\dev\francium_network\francium_agent\src\ext\randomx\repo\src\jit_compiler_x86.cpp
; Line 470
	and	edx, 2097144				; 001ffff8H
; File D:\dev\francium_network\francium_agent\src\ext\randomx\repo\src\jit_compiler_x86.hpp
; Line 91
	mov	DWORD PTR [rcx+rax+1], edx
; Line 92
	add	DWORD PTR [rbx+64], 4
; File D:\dev\francium_network\francium_agent\src\ext\randomx\repo\src\jit_compiler_x86.cpp
; Line 661
	mov	rbx, QWORD PTR [rsp+48]
	add	rsp, 32					; 00000020H
	pop	rdi
	ret	0
?h_IXOR_M@JitCompilerX86@randomx@@AEAAXAEAVInstruction@2@H@Z ENDP ; randomx::JitCompilerX86::h_IXOR_M
_TEXT	ENDS
; Function compile flags: /Ogtpy
;	COMDAT ?h_IROR_R@JitCompilerX86@randomx@@AEAAXAEAVInstruction@2@H@Z
_TEXT	SEGMENT
this$ = 8
instr$ = 16
i$ = 24
?h_IROR_R@JitCompilerX86@randomx@@AEAAXAEAVInstruction@2@H@Z PROC ; randomx::JitCompilerX86::h_IROR_R, COMDAT
; File D:\dev\francium_network\francium_agent\src\ext\randomx\repo\src\jit_compiler_x86.cpp
; Line 664
	movzx	eax, BYTE PTR [rdx+1]
	mov	r10, rdx
	mov	r9, rcx
	mov	DWORD PTR [rcx+rax*4+24], r8d
; Line 665
	movzx	eax, BYTE PTR [r10+1]
	movsxd	rcx, DWORD PTR [rcx+64]
	mov	rdx, QWORD PTR [r9+56]
	cmp	BYTE PTR [r10+2], al
	je	SHORT $LN2@h_IROR_R
; File D:\dev\francium_network\francium_agent\src\ext\randomx\repo\src\jit_compiler_x86.hpp
; Line 106
	movzx	eax, WORD PTR ?REX_MOV_RR@randomx@@3QBEB
	mov	WORD PTR [rcx+rdx], ax
; Line 107
	mov	eax, DWORD PTR [r9+64]
	add	eax, 2
	mov	DWORD PTR [r9+64], eax
; File D:\dev\francium_network\francium_agent\src\ext\randomx\repo\src\jit_compiler_x86.cpp
; Line 667
	movzx	edx, BYTE PTR [r10+2]
; File D:\dev\francium_network\francium_agent\src\ext\randomx\repo\src\jit_compiler_x86.hpp
; Line 86
	movsxd	rcx, eax
; File D:\dev\francium_network\francium_agent\src\ext\randomx\repo\src\jit_compiler_x86.cpp
; Line 667
	sub	dl, 56					; 00000038H
; File D:\dev\francium_network\francium_agent\src\ext\randomx\repo\src\jit_compiler_x86.hpp
; Line 86
	mov	rax, QWORD PTR [r9+56]
	mov	BYTE PTR [rcx+rax], dl
; Line 87
	movsxd	rcx, DWORD PTR [r9+64]
; Line 106
	mov	rdx, rcx
; Line 87
	lea	eax, DWORD PTR [rcx+1]
; Line 106
	mov	rcx, QWORD PTR [r9+56]
; Line 87
	mov	DWORD PTR [r9+64], eax
; Line 106
	movzx	eax, WORD PTR ?REX_ROT_CL@randomx@@3QBEB
	mov	WORD PTR [rdx+rcx+1], ax
; Line 107
	mov	eax, DWORD PTR [r9+64]
	add	eax, 2
	mov	DWORD PTR [r9+64], eax
; File D:\dev\francium_network\francium_agent\src\ext\randomx\repo\src\jit_compiler_x86.cpp
; Line 669
	movzx	edx, BYTE PTR [r10+1]
; File D:\dev\francium_network\francium_agent\src\ext\randomx\repo\src\jit_compiler_x86.hpp
; Line 86
	movsxd	rcx, eax
; File D:\dev\francium_network\francium_agent\src\ext\randomx\repo\src\jit_compiler_x86.cpp
; Line 669
	sub	dl, 56					; 00000038H
; File D:\dev\francium_network\francium_agent\src\ext\randomx\repo\src\jit_compiler_x86.hpp
; Line 86
	mov	rax, QWORD PTR [r9+56]
	mov	BYTE PTR [rcx+rax], dl
; File D:\dev\francium_network\francium_agent\src\ext\randomx\repo\src\jit_compiler_x86.cpp
; Line 676
	inc	DWORD PTR [r9+64]
	ret	0
$LN2@h_IROR_R:
; File D:\dev\francium_network\francium_agent\src\ext\randomx\repo\src\jit_compiler_x86.hpp
; Line 106
	movzx	eax, WORD PTR ?REX_ROT_I8@randomx@@3QBEB
	mov	WORD PTR [rcx+rdx], ax
; Line 107
	mov	eax, DWORD PTR [r9+64]
	add	eax, 2
	mov	DWORD PTR [r9+64], eax
; File D:\dev\francium_network\francium_agent\src\ext\randomx\repo\src\jit_compiler_x86.cpp
; Line 673
	movzx	edx, BYTE PTR [r10+1]
; File D:\dev\francium_network\francium_agent\src\ext\randomx\repo\src\jit_compiler_x86.hpp
; Line 86
	movsxd	rcx, eax
; File D:\dev\francium_network\francium_agent\src\ext\randomx\repo\src\jit_compiler_x86.cpp
; Line 673
	sub	dl, 56					; 00000038H
; File D:\dev\francium_network\francium_agent\src\ext\randomx\repo\src\jit_compiler_x86.hpp
; Line 86
	mov	rax, QWORD PTR [r9+56]
	mov	BYTE PTR [rcx+rax], dl
; Line 87
	movsxd	rcx, DWORD PTR [r9+64]
	lea	eax, DWORD PTR [rcx+1]
	mov	DWORD PTR [r9+64], eax
; File D:\dev\francium_network\francium_agent\src\ext\randomx\repo\src\jit_compiler_x86.cpp
; Line 674
	movzx	edx, BYTE PTR [r10+4]
; File D:\dev\francium_network\francium_agent\src\ext\randomx\repo\src\jit_compiler_x86.hpp
; Line 86
	mov	rax, QWORD PTR [r9+56]
; File D:\dev\francium_network\francium_agent\src\ext\randomx\repo\src\jit_compiler_x86.cpp
; Line 674
	and	dl, 63					; 0000003fH
; File D:\dev\francium_network\francium_agent\src\ext\randomx\repo\src\jit_compiler_x86.hpp
; Line 86
	mov	BYTE PTR [rcx+rax+1], dl
; File D:\dev\francium_network\francium_agent\src\ext\randomx\repo\src\jit_compiler_x86.cpp
; Line 676
	inc	DWORD PTR [r9+64]
	ret	0
?h_IROR_R@JitCompilerX86@randomx@@AEAAXAEAVInstruction@2@H@Z ENDP ; randomx::JitCompilerX86::h_IROR_R
_TEXT	ENDS
; Function compile flags: /Ogtpy
;	COMDAT ?h_IROL_R@JitCompilerX86@randomx@@AEAAXAEAVInstruction@2@H@Z
_TEXT	SEGMENT
this$ = 8
instr$ = 16
i$ = 24
?h_IROL_R@JitCompilerX86@randomx@@AEAAXAEAVInstruction@2@H@Z PROC ; randomx::JitCompilerX86::h_IROL_R, COMDAT
; File D:\dev\francium_network\francium_agent\src\ext\randomx\repo\src\jit_compiler_x86.cpp
; Line 679
	movzx	eax, BYTE PTR [rdx+1]
	mov	r10, rdx
	mov	r9, rcx
	mov	DWORD PTR [rcx+rax*4+24], r8d
; Line 680
	movzx	eax, BYTE PTR [r10+1]
	movsxd	rcx, DWORD PTR [rcx+64]
	mov	rdx, QWORD PTR [r9+56]
	cmp	BYTE PTR [r10+2], al
	je	SHORT $LN2@h_IROL_R
; File D:\dev\francium_network\francium_agent\src\ext\randomx\repo\src\jit_compiler_x86.hpp
; Line 106
	movzx	eax, WORD PTR ?REX_MOV_RR@randomx@@3QBEB
	mov	WORD PTR [rcx+rdx], ax
; Line 107
	mov	eax, DWORD PTR [r9+64]
	add	eax, 2
	mov	DWORD PTR [r9+64], eax
; File D:\dev\francium_network\francium_agent\src\ext\randomx\repo\src\jit_compiler_x86.cpp
; Line 682
	movzx	edx, BYTE PTR [r10+2]
; File D:\dev\francium_network\francium_agent\src\ext\randomx\repo\src\jit_compiler_x86.hpp
; Line 86
	movsxd	rcx, eax
; File D:\dev\francium_network\francium_agent\src\ext\randomx\repo\src\jit_compiler_x86.cpp
; Line 682
	sub	dl, 56					; 00000038H
; File D:\dev\francium_network\francium_agent\src\ext\randomx\repo\src\jit_compiler_x86.hpp
; Line 86
	mov	rax, QWORD PTR [r9+56]
	mov	BYTE PTR [rcx+rax], dl
; Line 87
	movsxd	rcx, DWORD PTR [r9+64]
; Line 106
	mov	rdx, rcx
; Line 87
	lea	eax, DWORD PTR [rcx+1]
; Line 106
	mov	rcx, QWORD PTR [r9+56]
; Line 87
	mov	DWORD PTR [r9+64], eax
; Line 106
	movzx	eax, WORD PTR ?REX_ROT_CL@randomx@@3QBEB
	mov	WORD PTR [rdx+rcx+1], ax
; Line 107
	mov	eax, DWORD PTR [r9+64]
	add	eax, 2
	mov	DWORD PTR [r9+64], eax
; File D:\dev\francium_network\francium_agent\src\ext\randomx\repo\src\jit_compiler_x86.cpp
; Line 684
	movzx	edx, BYTE PTR [r10+1]
; File D:\dev\francium_network\francium_agent\src\ext\randomx\repo\src\jit_compiler_x86.hpp
; Line 86
	movsxd	rcx, eax
; File D:\dev\francium_network\francium_agent\src\ext\randomx\repo\src\jit_compiler_x86.cpp
; Line 684
	sub	dl, 64					; 00000040H
; File D:\dev\francium_network\francium_agent\src\ext\randomx\repo\src\jit_compiler_x86.hpp
; Line 86
	mov	rax, QWORD PTR [r9+56]
	mov	BYTE PTR [rcx+rax], dl
; File D:\dev\francium_network\francium_agent\src\ext\randomx\repo\src\jit_compiler_x86.cpp
; Line 691
	inc	DWORD PTR [r9+64]
	ret	0
$LN2@h_IROL_R:
; File D:\dev\francium_network\francium_agent\src\ext\randomx\repo\src\jit_compiler_x86.hpp
; Line 106
	movzx	eax, WORD PTR ?REX_ROT_I8@randomx@@3QBEB
	mov	WORD PTR [rcx+rdx], ax
; Line 107
	mov	eax, DWORD PTR [r9+64]
	add	eax, 2
	mov	DWORD PTR [r9+64], eax
; File D:\dev\francium_network\francium_agent\src\ext\randomx\repo\src\jit_compiler_x86.cpp
; Line 688
	movzx	edx, BYTE PTR [r10+1]
; File D:\dev\francium_network\francium_agent\src\ext\randomx\repo\src\jit_compiler_x86.hpp
; Line 86
	movsxd	rcx, eax
; File D:\dev\francium_network\francium_agent\src\ext\randomx\repo\src\jit_compiler_x86.cpp
; Line 688
	sub	dl, 64					; 00000040H
; File D:\dev\francium_network\francium_agent\src\ext\randomx\repo\src\jit_compiler_x86.hpp
; Line 86
	mov	rax, QWORD PTR [r9+56]
	mov	BYTE PTR [rcx+rax], dl
; Line 87
	movsxd	rcx, DWORD PTR [r9+64]
	lea	eax, DWORD PTR [rcx+1]
	mov	DWORD PTR [r9+64], eax
; File D:\dev\francium_network\francium_agent\src\ext\randomx\repo\src\jit_compiler_x86.cpp
; Line 689
	movzx	edx, BYTE PTR [r10+4]
; File D:\dev\francium_network\francium_agent\src\ext\randomx\repo\src\jit_compiler_x86.hpp
; Line 86
	mov	rax, QWORD PTR [r9+56]
; File D:\dev\francium_network\francium_agent\src\ext\randomx\repo\src\jit_compiler_x86.cpp
; Line 689
	and	dl, 63					; 0000003fH
; File D:\dev\francium_network\francium_agent\src\ext\randomx\repo\src\jit_compiler_x86.hpp
; Line 86
	mov	BYTE PTR [rcx+rax+1], dl
; File D:\dev\francium_network\francium_agent\src\ext\randomx\repo\src\jit_compiler_x86.cpp
; Line 691
	inc	DWORD PTR [r9+64]
	ret	0
?h_IROL_R@JitCompilerX86@randomx@@AEAAXAEAVInstruction@2@H@Z ENDP ; randomx::JitCompilerX86::h_IROL_R
_TEXT	ENDS
; Function compile flags: /Ogtpy
;	COMDAT ?h_ISWAP_R@JitCompilerX86@randomx@@AEAAXAEAVInstruction@2@H@Z
_TEXT	SEGMENT
this$ = 8
instr$ = 16
i$ = 24
?h_ISWAP_R@JitCompilerX86@randomx@@AEAAXAEAVInstruction@2@H@Z PROC ; randomx::JitCompilerX86::h_ISWAP_R, COMDAT
; File D:\dev\francium_network\francium_agent\src\ext\randomx\repo\src\jit_compiler_x86.cpp
; Line 694
	movzx	eax, BYTE PTR [rdx+1]
	mov	r10, rdx
	mov	r9, rcx
	cmp	BYTE PTR [rdx+2], al
	je	SHORT $LN2@h_ISWAP_R
; Line 695
	mov	DWORD PTR [rcx+rax*4+24], r8d
; Line 696
	movzx	eax, BYTE PTR [rdx+2]
	mov	DWORD PTR [rcx+rax*4+24], r8d
; File D:\dev\francium_network\francium_agent\src\ext\randomx\repo\src\jit_compiler_x86.hpp
; Line 106
	movsxd	rdx, DWORD PTR [rcx+64]
	movzx	eax, WORD PTR ?REX_XCHG@randomx@@3QBEB
	mov	rcx, QWORD PTR [rcx+56]
	mov	WORD PTR [rdx+rcx], ax
; Line 107
	add	DWORD PTR [r9+64], 2
; File D:\dev\francium_network\francium_agent\src\ext\randomx\repo\src\jit_compiler_x86.cpp
; Line 698
	movzx	edx, BYTE PTR [r10+1]
; File D:\dev\francium_network\francium_agent\src\ext\randomx\repo\src\jit_compiler_x86.hpp
; Line 86
	movsxd	rcx, DWORD PTR [r9+64]
	mov	rax, QWORD PTR [r9+56]
; File D:\dev\francium_network\francium_agent\src\ext\randomx\repo\src\jit_compiler_x86.cpp
; Line 698
	shl	dl, 3
	sub	dl, 64					; 00000040H
	add	dl, BYTE PTR [r10+2]
; File D:\dev\francium_network\francium_agent\src\ext\randomx\repo\src\jit_compiler_x86.hpp
; Line 86
	mov	BYTE PTR [rcx+rax], dl
; Line 87
	inc	DWORD PTR [r9+64]
$LN2@h_ISWAP_R:
; File D:\dev\francium_network\francium_agent\src\ext\randomx\repo\src\jit_compiler_x86.cpp
; Line 700
	ret	0
?h_ISWAP_R@JitCompilerX86@randomx@@AEAAXAEAVInstruction@2@H@Z ENDP ; randomx::JitCompilerX86::h_ISWAP_R
_TEXT	ENDS
; Function compile flags: /Ogtpy
;	COMDAT ?h_FSWAP_R@JitCompilerX86@randomx@@AEAAXAEAVInstruction@2@H@Z
_TEXT	SEGMENT
this$ = 8
instr$ = 16
i$ = 24
?h_FSWAP_R@JitCompilerX86@randomx@@AEAAXAEAVInstruction@2@H@Z PROC ; randomx::JitCompilerX86::h_FSWAP_R, COMDAT
; File D:\dev\francium_network\francium_agent\src\ext\randomx\repo\src\jit_compiler_x86.cpp
; File D:\dev\francium_network\francium_agent\src\ext\randomx\repo\src\jit_compiler_x86.hpp
; Line 106
	movsxd	r9, DWORD PTR [rcx+64]
; File D:\dev\francium_network\francium_agent\src\ext\randomx\repo\src\jit_compiler_x86.cpp
; Line 702
	mov	r10, rcx
; File D:\dev\francium_network\francium_agent\src\ext\randomx\repo\src\jit_compiler_x86.hpp
; Line 106
	movzx	eax, WORD PTR ?SHUFPD@randomx@@3QBEB
	add	r9, QWORD PTR [rcx+56]
	mov	WORD PTR [r9], ax
	movzx	eax, BYTE PTR ?SHUFPD@randomx@@3QBEB+2
	mov	BYTE PTR [r9+2], al
; Line 107
	add	DWORD PTR [rcx+64], 3
; File D:\dev\francium_network\francium_agent\src\ext\randomx\repo\src\jit_compiler_x86.cpp
; Line 704
	movzx	edx, BYTE PTR [rdx+1]
; File D:\dev\francium_network\francium_agent\src\ext\randomx\repo\src\jit_compiler_x86.hpp
; Line 86
	movsxd	rcx, DWORD PTR [rcx+64]
; File D:\dev\francium_network\francium_agent\src\ext\randomx\repo\src\jit_compiler_x86.cpp
; Line 704
	movzx	eax, dl
	shl	al, 3
	sub	dl, 64					; 00000040H
	add	dl, al
; File D:\dev\francium_network\francium_agent\src\ext\randomx\repo\src\jit_compiler_x86.hpp
; Line 86
	mov	rax, QWORD PTR [r10+56]
	mov	BYTE PTR [rcx+rax], dl
; Line 87
	movsxd	rcx, DWORD PTR [r10+64]
	lea	eax, DWORD PTR [rcx+1]
	mov	DWORD PTR [r10+64], eax
; Line 86
	mov	rax, QWORD PTR [r10+56]
	mov	BYTE PTR [rcx+rax+1], 1
; Line 87
	inc	DWORD PTR [r10+64]
; File D:\dev\francium_network\francium_agent\src\ext\randomx\repo\src\jit_compiler_x86.cpp
; Line 706
	ret	0
?h_FSWAP_R@JitCompilerX86@randomx@@AEAAXAEAVInstruction@2@H@Z ENDP ; randomx::JitCompilerX86::h_FSWAP_R
_TEXT	ENDS
; Function compile flags: /Ogtpy
;	COMDAT ?h_FADD_R@JitCompilerX86@randomx@@AEAAXAEAVInstruction@2@H@Z
_TEXT	SEGMENT
this$ = 8
instr$ = 16
i$ = 24
?h_FADD_R@JitCompilerX86@randomx@@AEAAXAEAVInstruction@2@H@Z PROC ; randomx::JitCompilerX86::h_FADD_R, COMDAT
; File D:\dev\francium_network\francium_agent\src\ext\randomx\repo\src\jit_compiler_x86.cpp
; Line 709
	and	BYTE PTR [rdx+1], 3
	mov	r8, rdx
; Line 710
	and	BYTE PTR [rdx+2], 3
	mov	r9, rcx
; File D:\dev\francium_network\francium_agent\src\ext\randomx\repo\src\jit_compiler_x86.hpp
; Line 106
	movsxd	rdx, DWORD PTR [rcx+64]
	mov	eax, DWORD PTR ?REX_ADDPD@randomx@@3QBEB
	mov	rcx, QWORD PTR [rcx+56]
	mov	DWORD PTR [rdx+rcx], eax
; Line 107
	add	DWORD PTR [r9+64], 4
; File D:\dev\francium_network\francium_agent\src\ext\randomx\repo\src\jit_compiler_x86.cpp
; Line 712
	movzx	edx, BYTE PTR [r8+1]
; File D:\dev\francium_network\francium_agent\src\ext\randomx\repo\src\jit_compiler_x86.hpp
; Line 86
	movsxd	rcx, DWORD PTR [r9+64]
	mov	rax, QWORD PTR [r9+56]
; File D:\dev\francium_network\francium_agent\src\ext\randomx\repo\src\jit_compiler_x86.cpp
; Line 712
	shl	dl, 3
	sub	dl, 64					; 00000040H
	add	dl, BYTE PTR [r8+2]
; File D:\dev\francium_network\francium_agent\src\ext\randomx\repo\src\jit_compiler_x86.hpp
; Line 86
	mov	BYTE PTR [rcx+rax], dl
; Line 87
	inc	DWORD PTR [r9+64]
; File D:\dev\francium_network\francium_agent\src\ext\randomx\repo\src\jit_compiler_x86.cpp
; Line 713
	ret	0
?h_FADD_R@JitCompilerX86@randomx@@AEAAXAEAVInstruction@2@H@Z ENDP ; randomx::JitCompilerX86::h_FADD_R
_TEXT	ENDS
; Function compile flags: /Ogtpy
;	COMDAT ?h_FADD_M@JitCompilerX86@randomx@@AEAAXAEAVInstruction@2@H@Z
_TEXT	SEGMENT
this$ = 48
instr$ = 56
i$ = 64
?h_FADD_M@JitCompilerX86@randomx@@AEAAXAEAVInstruction@2@H@Z PROC ; randomx::JitCompilerX86::h_FADD_M, COMDAT
; File D:\dev\francium_network\francium_agent\src\ext\randomx\repo\src\jit_compiler_x86.cpp
; Line 715
$LN14:
	mov	QWORD PTR [rsp+8], rbx
	push	rdi
	sub	rsp, 32					; 00000020H
; Line 716
	and	BYTE PTR [rdx+1], 3
; Line 717
	mov	r8b, 1
	mov	rbx, rdx
	mov	rdi, rcx
	call	?genAddressReg@JitCompilerX86@randomx@@AEAAXAEAVInstruction@2@_N@Z ; randomx::JitCompilerX86::genAddressReg
; File D:\dev\francium_network\francium_agent\src\ext\randomx\repo\src\jit_compiler_x86.hpp
; Line 106
	mov	eax, DWORD PTR ?REX_CVTDQ2PD_XMM12@randomx@@3QBEB
	movsxd	rdx, DWORD PTR [rdi+64]
	add	rdx, QWORD PTR [rdi+56]
	mov	DWORD PTR [rdx], eax
	movzx	eax, WORD PTR ?REX_CVTDQ2PD_XMM12@randomx@@3QBEB+4
	mov	WORD PTR [rdx+4], ax
; Line 107
	add	DWORD PTR [rdi+64], 6
; Line 106
	movsxd	rdx, DWORD PTR [rdi+64]
	mov	eax, DWORD PTR ?REX_ADDPD@randomx@@3QBEB
	mov	rcx, QWORD PTR [rdi+56]
	mov	DWORD PTR [rdx+rcx], eax
; Line 107
	add	DWORD PTR [rdi+64], 4
; File D:\dev\francium_network\francium_agent\src\ext\randomx\repo\src\jit_compiler_x86.cpp
; Line 720
	movzx	edx, BYTE PTR [rbx+1]
; File D:\dev\francium_network\francium_agent\src\ext\randomx\repo\src\jit_compiler_x86.hpp
; Line 86
	movsxd	rcx, DWORD PTR [rdi+64]
	mov	rax, QWORD PTR [rdi+56]
; File D:\dev\francium_network\francium_agent\src\ext\randomx\repo\src\jit_compiler_x86.cpp
; Line 721
	mov	rbx, QWORD PTR [rsp+48]
	shl	dl, 3
	sub	dl, 60					; 0000003cH
; File D:\dev\francium_network\francium_agent\src\ext\randomx\repo\src\jit_compiler_x86.hpp
; Line 86
	mov	BYTE PTR [rcx+rax], dl
; Line 87
	inc	DWORD PTR [rdi+64]
; File D:\dev\francium_network\francium_agent\src\ext\randomx\repo\src\jit_compiler_x86.cpp
; Line 721
	add	rsp, 32					; 00000020H
	pop	rdi
	ret	0
?h_FADD_M@JitCompilerX86@randomx@@AEAAXAEAVInstruction@2@H@Z ENDP ; randomx::JitCompilerX86::h_FADD_M
_TEXT	ENDS
; Function compile flags: /Ogtpy
;	COMDAT ?h_FSUB_R@JitCompilerX86@randomx@@AEAAXAEAVInstruction@2@H@Z
_TEXT	SEGMENT
this$ = 8
instr$ = 16
i$ = 24
?h_FSUB_R@JitCompilerX86@randomx@@AEAAXAEAVInstruction@2@H@Z PROC ; randomx::JitCompilerX86::h_FSUB_R, COMDAT
; File D:\dev\francium_network\francium_agent\src\ext\randomx\repo\src\jit_compiler_x86.cpp
; Line 724
	and	BYTE PTR [rdx+1], 3
	mov	r8, rdx
; Line 725
	and	BYTE PTR [rdx+2], 3
	mov	r9, rcx
; File D:\dev\francium_network\francium_agent\src\ext\randomx\repo\src\jit_compiler_x86.hpp
; Line 106
	movsxd	rdx, DWORD PTR [rcx+64]
	mov	eax, DWORD PTR ?REX_SUBPD@randomx@@3QBEB
	mov	rcx, QWORD PTR [rcx+56]
	mov	DWORD PTR [rdx+rcx], eax
; Line 107
	add	DWORD PTR [r9+64], 4
; File D:\dev\francium_network\francium_agent\src\ext\randomx\repo\src\jit_compiler_x86.cpp
; Line 727
	movzx	edx, BYTE PTR [r8+1]
; File D:\dev\francium_network\francium_agent\src\ext\randomx\repo\src\jit_compiler_x86.hpp
; Line 86
	movsxd	rcx, DWORD PTR [r9+64]
	mov	rax, QWORD PTR [r9+56]
; File D:\dev\francium_network\francium_agent\src\ext\randomx\repo\src\jit_compiler_x86.cpp
; Line 727
	shl	dl, 3
	sub	dl, 64					; 00000040H
	add	dl, BYTE PTR [r8+2]
; File D:\dev\francium_network\francium_agent\src\ext\randomx\repo\src\jit_compiler_x86.hpp
; Line 86
	mov	BYTE PTR [rcx+rax], dl
; Line 87
	inc	DWORD PTR [r9+64]
; File D:\dev\francium_network\francium_agent\src\ext\randomx\repo\src\jit_compiler_x86.cpp
; Line 728
	ret	0
?h_FSUB_R@JitCompilerX86@randomx@@AEAAXAEAVInstruction@2@H@Z ENDP ; randomx::JitCompilerX86::h_FSUB_R
_TEXT	ENDS
; Function compile flags: /Ogtpy
;	COMDAT ?h_FSUB_M@JitCompilerX86@randomx@@AEAAXAEAVInstruction@2@H@Z
_TEXT	SEGMENT
this$ = 48
instr$ = 56
i$ = 64
?h_FSUB_M@JitCompilerX86@randomx@@AEAAXAEAVInstruction@2@H@Z PROC ; randomx::JitCompilerX86::h_FSUB_M, COMDAT
; File D:\dev\francium_network\francium_agent\src\ext\randomx\repo\src\jit_compiler_x86.cpp
; Line 730
$LN14:
	mov	QWORD PTR [rsp+8], rbx
	push	rdi
	sub	rsp, 32					; 00000020H
; Line 731
	and	BYTE PTR [rdx+1], 3
; Line 732
	mov	r8b, 1
	mov	rbx, rdx
	mov	rdi, rcx
	call	?genAddressReg@JitCompilerX86@randomx@@AEAAXAEAVInstruction@2@_N@Z ; randomx::JitCompilerX86::genAddressReg
; File D:\dev\francium_network\francium_agent\src\ext\randomx\repo\src\jit_compiler_x86.hpp
; Line 106
	mov	eax, DWORD PTR ?REX_CVTDQ2PD_XMM12@randomx@@3QBEB
	movsxd	rdx, DWORD PTR [rdi+64]
	add	rdx, QWORD PTR [rdi+56]
	mov	DWORD PTR [rdx], eax
	movzx	eax, WORD PTR ?REX_CVTDQ2PD_XMM12@randomx@@3QBEB+4
	mov	WORD PTR [rdx+4], ax
; Line 107
	add	DWORD PTR [rdi+64], 6
; Line 106
	movsxd	rdx, DWORD PTR [rdi+64]
	mov	eax, DWORD PTR ?REX_SUBPD@randomx@@3QBEB
	mov	rcx, QWORD PTR [rdi+56]
	mov	DWORD PTR [rdx+rcx], eax
; Line 107
	add	DWORD PTR [rdi+64], 4
; File D:\dev\francium_network\francium_agent\src\ext\randomx\repo\src\jit_compiler_x86.cpp
; Line 735
	movzx	edx, BYTE PTR [rbx+1]
; File D:\dev\francium_network\francium_agent\src\ext\randomx\repo\src\jit_compiler_x86.hpp
; Line 86
	movsxd	rcx, DWORD PTR [rdi+64]
	mov	rax, QWORD PTR [rdi+56]
; File D:\dev\francium_network\francium_agent\src\ext\randomx\repo\src\jit_compiler_x86.cpp
; Line 736
	mov	rbx, QWORD PTR [rsp+48]
	shl	dl, 3
	sub	dl, 60					; 0000003cH
; File D:\dev\francium_network\francium_agent\src\ext\randomx\repo\src\jit_compiler_x86.hpp
; Line 86
	mov	BYTE PTR [rcx+rax], dl
; Line 87
	inc	DWORD PTR [rdi+64]
; File D:\dev\francium_network\francium_agent\src\ext\randomx\repo\src\jit_compiler_x86.cpp
; Line 736
	add	rsp, 32					; 00000020H
	pop	rdi
	ret	0
?h_FSUB_M@JitCompilerX86@randomx@@AEAAXAEAVInstruction@2@H@Z ENDP ; randomx::JitCompilerX86::h_FSUB_M
_TEXT	ENDS
; Function compile flags: /Ogtpy
;	COMDAT ?h_FSCAL_R@JitCompilerX86@randomx@@AEAAXAEAVInstruction@2@H@Z
_TEXT	SEGMENT
this$ = 8
instr$ = 16
i$ = 24
?h_FSCAL_R@JitCompilerX86@randomx@@AEAAXAEAVInstruction@2@H@Z PROC ; randomx::JitCompilerX86::h_FSCAL_R, COMDAT
; File D:\dev\francium_network\francium_agent\src\ext\randomx\repo\src\jit_compiler_x86.cpp
; Line 739
	and	BYTE PTR [rdx+1], 3
	mov	r10, rcx
; File D:\dev\francium_network\francium_agent\src\ext\randomx\repo\src\jit_compiler_x86.hpp
; Line 106
	movsxd	r9, DWORD PTR [rcx+64]
	movzx	eax, WORD PTR ?REX_XORPS@randomx@@3QBEB
	add	r9, QWORD PTR [rcx+56]
	mov	WORD PTR [r9], ax
	movzx	eax, BYTE PTR ?REX_XORPS@randomx@@3QBEB+2
	mov	BYTE PTR [r9+2], al
; Line 107
	add	DWORD PTR [rcx+64], 3
; File D:\dev\francium_network\francium_agent\src\ext\randomx\repo\src\jit_compiler_x86.cpp
; Line 741
	movzx	edx, BYTE PTR [rdx+1]
; File D:\dev\francium_network\francium_agent\src\ext\randomx\repo\src\jit_compiler_x86.hpp
; Line 86
	movsxd	rcx, DWORD PTR [rcx+64]
	mov	rax, QWORD PTR [r10+56]
; File D:\dev\francium_network\francium_agent\src\ext\randomx\repo\src\jit_compiler_x86.cpp
; Line 741
	shl	dl, 3
	sub	dl, 57					; 00000039H
; File D:\dev\francium_network\francium_agent\src\ext\randomx\repo\src\jit_compiler_x86.hpp
; Line 86
	mov	BYTE PTR [rcx+rax], dl
; Line 87
	inc	DWORD PTR [r10+64]
; File D:\dev\francium_network\francium_agent\src\ext\randomx\repo\src\jit_compiler_x86.cpp
; Line 742
	ret	0
?h_FSCAL_R@JitCompilerX86@randomx@@AEAAXAEAVInstruction@2@H@Z ENDP ; randomx::JitCompilerX86::h_FSCAL_R
_TEXT	ENDS
; Function compile flags: /Ogtpy
;	COMDAT ?h_FMUL_R@JitCompilerX86@randomx@@AEAAXAEAVInstruction@2@H@Z
_TEXT	SEGMENT
this$ = 8
instr$ = 16
i$ = 24
?h_FMUL_R@JitCompilerX86@randomx@@AEAAXAEAVInstruction@2@H@Z PROC ; randomx::JitCompilerX86::h_FMUL_R, COMDAT
; File D:\dev\francium_network\francium_agent\src\ext\randomx\repo\src\jit_compiler_x86.cpp
; Line 745
	and	BYTE PTR [rdx+1], 3
	mov	r8, rdx
; Line 746
	and	BYTE PTR [rdx+2], 3
	mov	r9, rcx
; File D:\dev\francium_network\francium_agent\src\ext\randomx\repo\src\jit_compiler_x86.hpp
; Line 106
	movsxd	rdx, DWORD PTR [rcx+64]
	mov	eax, DWORD PTR ?REX_MULPD@randomx@@3QBEB
	mov	rcx, QWORD PTR [rcx+56]
	mov	DWORD PTR [rdx+rcx], eax
; Line 107
	add	DWORD PTR [r9+64], 4
; File D:\dev\francium_network\francium_agent\src\ext\randomx\repo\src\jit_compiler_x86.cpp
; Line 748
	movzx	edx, BYTE PTR [r8+1]
; File D:\dev\francium_network\francium_agent\src\ext\randomx\repo\src\jit_compiler_x86.hpp
; Line 86
	movsxd	rcx, DWORD PTR [r9+64]
	mov	rax, QWORD PTR [r9+56]
; File D:\dev\francium_network\francium_agent\src\ext\randomx\repo\src\jit_compiler_x86.cpp
; Line 748
	shl	dl, 3
	sub	dl, 32					; 00000020H
	add	dl, BYTE PTR [r8+2]
; File D:\dev\francium_network\francium_agent\src\ext\randomx\repo\src\jit_compiler_x86.hpp
; Line 86
	mov	BYTE PTR [rcx+rax], dl
; Line 87
	inc	DWORD PTR [r9+64]
; File D:\dev\francium_network\francium_agent\src\ext\randomx\repo\src\jit_compiler_x86.cpp
; Line 749
	ret	0
?h_FMUL_R@JitCompilerX86@randomx@@AEAAXAEAVInstruction@2@H@Z ENDP ; randomx::JitCompilerX86::h_FMUL_R
_TEXT	ENDS
; Function compile flags: /Ogtpy
;	COMDAT ?h_FDIV_M@JitCompilerX86@randomx@@AEAAXAEAVInstruction@2@H@Z
_TEXT	SEGMENT
this$ = 48
instr$ = 56
i$ = 64
?h_FDIV_M@JitCompilerX86@randomx@@AEAAXAEAVInstruction@2@H@Z PROC ; randomx::JitCompilerX86::h_FDIV_M, COMDAT
; File D:\dev\francium_network\francium_agent\src\ext\randomx\repo\src\jit_compiler_x86.cpp
; Line 751
$LN18:
	mov	QWORD PTR [rsp+8], rbx
	push	rdi
	sub	rsp, 32					; 00000020H
; Line 752
	and	BYTE PTR [rdx+1], 3
; Line 753
	mov	r8b, 1
	mov	rbx, rdx
	mov	rdi, rcx
	call	?genAddressReg@JitCompilerX86@randomx@@AEAAXAEAVInstruction@2@_N@Z ; randomx::JitCompilerX86::genAddressReg
; File D:\dev\francium_network\francium_agent\src\ext\randomx\repo\src\jit_compiler_x86.hpp
; Line 106
	mov	eax, DWORD PTR ?REX_CVTDQ2PD_XMM12@randomx@@3QBEB
	movsxd	rdx, DWORD PTR [rdi+64]
	add	rdx, QWORD PTR [rdi+56]
	mov	DWORD PTR [rdx], eax
	movzx	eax, WORD PTR ?REX_CVTDQ2PD_XMM12@randomx@@3QBEB+4
	mov	WORD PTR [rdx+4], ax
; Line 107
	add	DWORD PTR [rdi+64], 6
; Line 106
	mov	rax, QWORD PTR ?REX_ANDPS_XMM12@randomx@@3QBEB
	movsxd	rdx, DWORD PTR [rdi+64]
	mov	rcx, QWORD PTR [rdi+56]
	mov	QWORD PTR [rdx+rcx], rax
; Line 107
	add	DWORD PTR [rdi+64], 8
; Line 106
	movsxd	rdx, DWORD PTR [rdi+64]
	mov	eax, DWORD PTR ?REX_DIVPD@randomx@@3QBEB
	mov	rcx, QWORD PTR [rdi+56]
	mov	DWORD PTR [rdx+rcx], eax
; Line 107
	add	DWORD PTR [rdi+64], 4
; File D:\dev\francium_network\francium_agent\src\ext\randomx\repo\src\jit_compiler_x86.cpp
; Line 757
	movzx	edx, BYTE PTR [rbx+1]
; File D:\dev\francium_network\francium_agent\src\ext\randomx\repo\src\jit_compiler_x86.hpp
; Line 86
	movsxd	rcx, DWORD PTR [rdi+64]
	mov	rax, QWORD PTR [rdi+56]
; File D:\dev\francium_network\francium_agent\src\ext\randomx\repo\src\jit_compiler_x86.cpp
; Line 758
	mov	rbx, QWORD PTR [rsp+48]
	shl	dl, 3
	sub	dl, 28
; File D:\dev\francium_network\francium_agent\src\ext\randomx\repo\src\jit_compiler_x86.hpp
; Line 86
	mov	BYTE PTR [rcx+rax], dl
; Line 87
	inc	DWORD PTR [rdi+64]
; File D:\dev\francium_network\francium_agent\src\ext\randomx\repo\src\jit_compiler_x86.cpp
; Line 758
	add	rsp, 32					; 00000020H
	pop	rdi
	ret	0
?h_FDIV_M@JitCompilerX86@randomx@@AEAAXAEAVInstruction@2@H@Z ENDP ; randomx::JitCompilerX86::h_FDIV_M
_TEXT	ENDS
; Function compile flags: /Ogtpy
;	COMDAT ?h_FSQRT_R@JitCompilerX86@randomx@@AEAAXAEAVInstruction@2@H@Z
_TEXT	SEGMENT
this$ = 8
instr$ = 16
i$ = 24
?h_FSQRT_R@JitCompilerX86@randomx@@AEAAXAEAVInstruction@2@H@Z PROC ; randomx::JitCompilerX86::h_FSQRT_R, COMDAT
; File D:\dev\francium_network\francium_agent\src\ext\randomx\repo\src\jit_compiler_x86.cpp
; Line 761
	and	BYTE PTR [rdx+1], 3
	mov	r10, rcx
; File D:\dev\francium_network\francium_agent\src\ext\randomx\repo\src\jit_compiler_x86.hpp
; Line 106
	movsxd	r9, DWORD PTR [rcx+64]
	movzx	eax, WORD PTR ?SQRTPD@randomx@@3QBEB
	add	r9, QWORD PTR [rcx+56]
	mov	WORD PTR [r9], ax
	movzx	eax, BYTE PTR ?SQRTPD@randomx@@3QBEB+2
	mov	BYTE PTR [r9+2], al
; Line 107
	add	DWORD PTR [rcx+64], 3
; File D:\dev\francium_network\francium_agent\src\ext\randomx\repo\src\jit_compiler_x86.cpp
; Line 763
	movzx	edx, BYTE PTR [rdx+1]
; File D:\dev\francium_network\francium_agent\src\ext\randomx\repo\src\jit_compiler_x86.hpp
; Line 86
	movsxd	rcx, DWORD PTR [rcx+64]
; File D:\dev\francium_network\francium_agent\src\ext\randomx\repo\src\jit_compiler_x86.cpp
; Line 763
	movzx	eax, dl
	shl	al, 3
	sub	dl, 28
	add	dl, al
; File D:\dev\francium_network\francium_agent\src\ext\randomx\repo\src\jit_compiler_x86.hpp
; Line 86
	mov	rax, QWORD PTR [r10+56]
	mov	BYTE PTR [rcx+rax], dl
; Line 87
	inc	DWORD PTR [r10+64]
; File D:\dev\francium_network\francium_agent\src\ext\randomx\repo\src\jit_compiler_x86.cpp
; Line 764
	ret	0
?h_FSQRT_R@JitCompilerX86@randomx@@AEAAXAEAVInstruction@2@H@Z ENDP ; randomx::JitCompilerX86::h_FSQRT_R
_TEXT	ENDS
; Function compile flags: /Ogtpy
;	COMDAT ?h_CFROUND@JitCompilerX86@randomx@@AEAAXAEAVInstruction@2@H@Z
_TEXT	SEGMENT
this$ = 8
instr$ = 16
i$ = 24
?h_CFROUND@JitCompilerX86@randomx@@AEAAXAEAVInstruction@2@H@Z PROC ; randomx::JitCompilerX86::h_CFROUND, COMDAT
; File D:\dev\francium_network\francium_agent\src\ext\randomx\repo\src\jit_compiler_x86.cpp
; File D:\dev\francium_network\francium_agent\src\ext\randomx\repo\src\jit_compiler_x86.hpp
; Line 106
	movzx	eax, WORD PTR ?REX_MOV_RR64@randomx@@3QBEB
; File D:\dev\francium_network\francium_agent\src\ext\randomx\repo\src\jit_compiler_x86.cpp
; Line 766
	mov	r10, rdx
; File D:\dev\francium_network\francium_agent\src\ext\randomx\repo\src\jit_compiler_x86.hpp
; Line 106
	movsxd	r9, DWORD PTR [rcx+64]
; File D:\dev\francium_network\francium_agent\src\ext\randomx\repo\src\jit_compiler_x86.cpp
; Line 766
	mov	r11, rcx
; File D:\dev\francium_network\francium_agent\src\ext\randomx\repo\src\jit_compiler_x86.hpp
; Line 106
	mov	r8, QWORD PTR [rcx+56]
	mov	WORD PTR [r9+r8], ax
; Line 107
	add	DWORD PTR [rcx+64], 2
; File D:\dev\francium_network\francium_agent\src\ext\randomx\repo\src\jit_compiler_x86.cpp
; Line 768
	movzx	r8d, BYTE PTR [rdx+2]
; File D:\dev\francium_network\francium_agent\src\ext\randomx\repo\src\jit_compiler_x86.hpp
; Line 86
	movsxd	rdx, DWORD PTR [rcx+64]
; File D:\dev\francium_network\francium_agent\src\ext\randomx\repo\src\jit_compiler_x86.cpp
; Line 768
	sub	r8b, 64					; 00000040H
; File D:\dev\francium_network\francium_agent\src\ext\randomx\repo\src\jit_compiler_x86.hpp
; Line 86
	mov	rax, QWORD PTR [rcx+56]
	mov	BYTE PTR [rdx+rax], r8b
; File D:\dev\francium_network\francium_agent\src\ext\randomx\repo\src\jit_compiler_x86.cpp
; Line 769
	mov	r8d, 13
; File D:\dev\francium_network\francium_agent\src\ext\randomx\repo\src\jit_compiler_x86.hpp
; Line 87
	mov	eax, DWORD PTR [rcx+64]
	inc	eax
	mov	DWORD PTR [rcx+64], eax
; File D:\dev\francium_network\francium_agent\src\ext\randomx\repo\src\jit_compiler_x86.cpp
; Line 769
	sub	r8d, DWORD PTR [r10+4]
	and	r8d, 63					; 0000003fH
; Line 770
	je	SHORT $LN2@h_CFROUND
; File D:\dev\francium_network\francium_agent\src\ext\randomx\repo\src\jit_compiler_x86.hpp
; Line 106
	movsxd	rdx, eax
	movzx	eax, WORD PTR ?ROL_RAX@randomx@@3QBEB
	add	rdx, QWORD PTR [rcx+56]
	mov	WORD PTR [rdx], ax
	movzx	eax, BYTE PTR ?ROL_RAX@randomx@@3QBEB+2
	mov	BYTE PTR [rdx+2], al
; Line 107
	add	DWORD PTR [rcx+64], 3
; Line 86
	movsxd	rcx, DWORD PTR [rcx+64]
	mov	rax, QWORD PTR [r11+56]
	mov	BYTE PTR [rcx+rax], r8b
; Line 87
	inc	DWORD PTR [r11+64]
	mov	eax, DWORD PTR [r11+64]
$LN2@h_CFROUND:
; Line 106
	movups	xmm0, XMMWORD PTR ?AND_OR_MOV_LDMXCSR@randomx@@3QBEB
	movsxd	rcx, eax
	mov	rax, QWORD PTR [r11+56]
	movups	XMMWORD PTR [rcx+rax], xmm0
; Line 107
	add	DWORD PTR [r11+64], 16
; File D:\dev\francium_network\francium_agent\src\ext\randomx\repo\src\jit_compiler_x86.cpp
; Line 775
	ret	0
?h_CFROUND@JitCompilerX86@randomx@@AEAAXAEAVInstruction@2@H@Z ENDP ; randomx::JitCompilerX86::h_CFROUND
_TEXT	ENDS
; Function compile flags: /Ogtpy
;	COMDAT ?h_CBRANCH@JitCompilerX86@randomx@@AEAAXAEAVInstruction@2@H@Z
_TEXT	SEGMENT
this$ = 8
instr$ = 16
i$ = 24
?h_CBRANCH@JitCompilerX86@randomx@@AEAAXAEAVInstruction@2@H@Z PROC ; randomx::JitCompilerX86::h_CBRANCH, COMDAT
; File D:\dev\francium_network\francium_agent\src\ext\randomx\repo\src\jit_compiler_x86.cpp
; Line 777
$LN46:
	mov	QWORD PTR [rsp+8], rbx
	mov	QWORD PTR [rsp+16], rsi
	mov	QWORD PTR [rsp+24], rdi
; Line 778
	movzx	r11d, BYTE PTR [rdx+1]
	mov	rdi, rcx
; File D:\dev\francium_network\francium_agent\src\ext\randomx\repo\src\jit_compiler_x86.hpp
; Line 106
	movsxd	r10, DWORD PTR [rcx+64]
; File D:\dev\francium_network\francium_agent\src\ext\randomx\repo\src\jit_compiler_x86.cpp
; Line 777
	mov	esi, r8d
; File D:\dev\francium_network\francium_agent\src\ext\randomx\repo\src\jit_compiler_x86.hpp
; Line 106
	movzx	eax, WORD PTR ?REX_ADD_I@randomx@@3QBEB
	mov	r9, QWORD PTR [rcx+56]
; File D:\dev\francium_network\francium_agent\src\ext\randomx\repo\src\jit_compiler_x86.cpp
; Line 779
	movsxd	rbx, DWORD PTR [rcx+r11*4+24]
; Line 781
	sub	r11b, 64				; 00000040H
; File D:\dev\francium_network\francium_agent\src\ext\randomx\repo\src\jit_compiler_x86.hpp
; Line 106
	mov	WORD PTR [r10+r9], ax
; Line 107
	add	DWORD PTR [rcx+64], 2
; Line 86
	movsxd	rcx, DWORD PTR [rcx+64]
	mov	rax, QWORD PTR [rdi+56]
	mov	BYTE PTR [rcx+rax], r11b
; Line 87
	movsxd	rcx, DWORD PTR [rdi+64]
	lea	eax, DWORD PTR [rcx+1]
	mov	DWORD PTR [rdi+64], eax
; File D:\dev\francium_network\francium_agent\src\ext\randomx\repo\src\instruction.hpp
; Line 97
	movzx	r9d, BYTE PTR [rdx+3]
; File D:\dev\francium_network\francium_agent\src\ext\randomx\repo\src\jit_compiler_x86.cpp
; Line 783
	mov	edx, DWORD PTR [rdx+4]
; File D:\dev\francium_network\francium_agent\src\ext\randomx\repo\src\instruction.hpp
; Line 97
	shr	r9d, 4
; File D:\dev\francium_network\francium_agent\src\ext\randomx\repo\src\jit_compiler_x86.cpp
; Line 782
	add	r9d, 8
; Line 783
	bts	edx, r9d
; Line 785
	lea	eax, DWORD PTR [r9-1]
	btr	edx, eax
; File D:\dev\francium_network\francium_agent\src\ext\randomx\repo\src\jit_compiler_x86.hpp
; Line 91
	mov	rax, QWORD PTR [rdi+56]
	mov	DWORD PTR [rcx+rax+1], edx
; File D:\dev\francium_network\francium_agent\src\ext\randomx\repo\src\jit_compiler_x86.cpp
; Line 789
	mov	ecx, r9d
; File D:\dev\francium_network\francium_agent\src\ext\randomx\repo\src\jit_compiler_x86.hpp
; Line 92
	add	DWORD PTR [rdi+64], 4
; Line 106
	movsxd	r8, DWORD PTR [rdi+64]
	movzx	eax, WORD PTR ?REX_TEST@randomx@@3QBEB
	mov	rdx, QWORD PTR [rdi+56]
	mov	WORD PTR [r8+rdx], ax
; Line 107
	add	DWORD PTR [rdi+64], 2
; Line 86
	movsxd	rdx, DWORD PTR [rdi+64]
	mov	rax, QWORD PTR [rdi+56]
	mov	BYTE PTR [rdx+rax], r11b
; File D:\dev\francium_network\francium_agent\src\ext\randomx\repo\src\jit_compiler_x86.cpp
; Line 789
	mov	edx, 255				; 000000ffH
; File D:\dev\francium_network\francium_agent\src\ext\randomx\repo\src\jit_compiler_x86.hpp
; Line 87
	movsxd	r8, DWORD PTR [rdi+64]
; File D:\dev\francium_network\francium_agent\src\ext\randomx\repo\src\jit_compiler_x86.cpp
; Line 789
	shl	edx, cl
; File D:\dev\francium_network\francium_agent\src\ext\randomx\repo\src\jit_compiler_x86.hpp
; Line 87
	lea	eax, DWORD PTR [r8+1]
	mov	DWORD PTR [rdi+64], eax
; Line 91
	mov	rax, QWORD PTR [rdi+56]
	mov	DWORD PTR [r8+rax+1], edx
; Line 92
	add	DWORD PTR [rdi+64], 4
; Line 106
	movsxd	rdx, DWORD PTR [rdi+64]
	movzx	eax, WORD PTR ?JZ@randomx@@3QBEB
	mov	rcx, QWORD PTR [rdi+56]
	mov	WORD PTR [rdx+rcx], ax
; Line 107
	add	DWORD PTR [rdi+64], 2
; Line 91
	mov	rax, QWORD PTR [rdi]
; Line 107
	movsxd	r8, DWORD PTR [rdi+64]
; Line 91
	mov	edx, DWORD PTR [rax+rbx*4+4]
	mov	rax, QWORD PTR [rdi+56]
	sub	edx, r8d
; File D:\dev\francium_network\francium_agent\src\ext\randomx\repo\src\jit_compiler_x86.cpp
; Line 796
	mov	rbx, QWORD PTR [rsp+8]
	sub	edx, 4
; File D:\dev\francium_network\francium_agent\src\ext\randomx\repo\src\jit_compiler_x86.hpp
; Line 91
	mov	DWORD PTR [r8+rax], edx
; Line 92
	add	DWORD PTR [rdi+64], 4
; File D:\dev\francium_network\francium_agent\src\ext\randomx\repo\src\jit_compiler_x86.cpp
; Line 794
	mov	DWORD PTR [rdi+24], esi
	mov	DWORD PTR [rdi+28], esi
	mov	DWORD PTR [rdi+32], esi
	mov	DWORD PTR [rdi+36], esi
	mov	DWORD PTR [rdi+40], esi
	mov	DWORD PTR [rdi+44], esi
	mov	DWORD PTR [rdi+48], esi
	mov	DWORD PTR [rdi+52], esi
; Line 796
	mov	rsi, QWORD PTR [rsp+16]
	mov	rdi, QWORD PTR [rsp+24]
	ret	0
?h_CBRANCH@JitCompilerX86@randomx@@AEAAXAEAVInstruction@2@H@Z ENDP ; randomx::JitCompilerX86::h_CBRANCH
_TEXT	ENDS
; Function compile flags: /Ogtpy
;	COMDAT ?h_ISTORE@JitCompilerX86@randomx@@AEAAXAEAVInstruction@2@H@Z
_TEXT	SEGMENT
this$ = 8
instr$ = 16
i$ = 24
?h_ISTORE@JitCompilerX86@randomx@@AEAAXAEAVInstruction@2@H@Z PROC ; randomx::JitCompilerX86::h_ISTORE, COMDAT
; File D:\dev\francium_network\francium_agent\src\ext\randomx\repo\src\jit_compiler_x86.cpp
; File D:\dev\francium_network\francium_agent\src\ext\randomx\repo\src\jit_compiler_x86.hpp
; Line 106
	movsxd	r9, DWORD PTR [rcx+64]
; File D:\dev\francium_network\francium_agent\src\ext\randomx\repo\src\jit_compiler_x86.cpp
; Line 798
	mov	r10, rcx
; File D:\dev\francium_network\francium_agent\src\ext\randomx\repo\src\jit_compiler_x86.hpp
; Line 106
	movzx	eax, WORD PTR ?LEA_32@randomx@@3QBEB
; File D:\dev\francium_network\francium_agent\src\ext\randomx\repo\src\jit_compiler_x86.cpp
; Line 798
	mov	r11, rdx
; File D:\dev\francium_network\francium_agent\src\ext\randomx\repo\src\jit_compiler_x86.hpp
; Line 106
	mov	r8, QWORD PTR [rcx+56]
	mov	WORD PTR [r9+r8], ax
; Line 107
	add	DWORD PTR [rcx+64], 2
; File D:\dev\francium_network\francium_agent\src\ext\randomx\repo\src\jit_compiler_x86.cpp
; Line 455
	movzx	r8d, BYTE PTR [rdx+1]
; File D:\dev\francium_network\francium_agent\src\ext\randomx\repo\src\jit_compiler_x86.hpp
; Line 86
	movsxd	rcx, DWORD PTR [rcx+64]
; File D:\dev\francium_network\francium_agent\src\ext\randomx\repo\src\jit_compiler_x86.cpp
; Line 455
	add	r8b, 128				; 00000080H
; File D:\dev\francium_network\francium_agent\src\ext\randomx\repo\src\jit_compiler_x86.hpp
; Line 86
	mov	rax, QWORD PTR [r10+56]
	mov	BYTE PTR [rcx+rax], r8b
; Line 87
	mov	eax, DWORD PTR [r10+64]
	inc	eax
	mov	DWORD PTR [r10+64], eax
; File D:\dev\francium_network\francium_agent\src\ext\randomx\repo\src\jit_compiler_x86.cpp
; Line 456
	cmp	BYTE PTR [rdx+1], 4
	jne	SHORT $LN4@h_ISTORE
; File D:\dev\francium_network\francium_agent\src\ext\randomx\repo\src\jit_compiler_x86.hpp
; Line 86
	movsxd	rcx, eax
	mov	rax, QWORD PTR [r10+56]
	mov	BYTE PTR [rcx+rax], 36			; 00000024H
; Line 87
	inc	DWORD PTR [r10+64]
	mov	eax, DWORD PTR [r10+64]
$LN4@h_ISTORE:
; Line 91
	mov	rcx, QWORD PTR [r10+56]
	movsxd	rdx, eax
	mov	eax, DWORD PTR [r11+4]
	mov	DWORD PTR [rdx+rcx], eax
; Line 92
	add	DWORD PTR [r10+64], 4
; Line 86
	movsxd	rcx, DWORD PTR [r10+64]
	mov	rax, QWORD PTR [r10+56]
	mov	BYTE PTR [rcx+rax], 37			; 00000025H
; Line 87
	movsxd	rcx, DWORD PTR [r10+64]
; File D:\dev\francium_network\francium_agent\src\ext\randomx\repo\src\instruction.hpp
; Line 97
	mov	rdx, QWORD PTR [r10+56]
	mov	r8, rcx
; File D:\dev\francium_network\francium_agent\src\ext\randomx\repo\src\jit_compiler_x86.hpp
; Line 87
	lea	eax, DWORD PTR [rcx+1]
	mov	DWORD PTR [r10+64], eax
; File D:\dev\francium_network\francium_agent\src\ext\randomx\repo\src\instruction.hpp
; Line 97
	movzx	r9d, BYTE PTR [r11+3]
; File D:\dev\francium_network\francium_agent\src\ext\randomx\repo\src\jit_compiler_x86.cpp
; Line 461
	movzx	eax, r9b
	and	al, 240					; 000000f0H
	cmp	al, 224					; 000000e0H
	jae	SHORT $LN5@h_ISTORE
; File D:\dev\francium_network\francium_agent\src\ext\randomx\repo\src\instruction.hpp
; Line 91
	test	r9b, 3
; File D:\dev\francium_network\francium_agent\src\ext\randomx\repo\src\jit_compiler_x86.cpp
; Line 462
	mov	eax, 262136				; 0003fff8H
	mov	ecx, 16376				; 00003ff8H
	cmovne	eax, ecx
; File D:\dev\francium_network\francium_agent\src\ext\randomx\repo\src\jit_compiler_x86.hpp
; Line 91
	mov	DWORD PTR [r8+rdx+1], eax
; File D:\dev\francium_network\francium_agent\src\ext\randomx\repo\src\jit_compiler_x86.cpp
; Line 463
	jmp	SHORT $LN36@h_ISTORE
$LN5@h_ISTORE:
; File D:\dev\francium_network\francium_agent\src\ext\randomx\repo\src\jit_compiler_x86.hpp
; Line 91
	mov	DWORD PTR [rcx+rdx+1], 2097144		; 001ffff8H
$LN36@h_ISTORE:
; Line 106
	mov	eax, DWORD PTR [r10+64]
	mov	rcx, QWORD PTR [r10+56]
	add	eax, 4
	mov	DWORD PTR [r10+64], eax
	movsxd	rdx, eax
	movzx	eax, WORD PTR ?REX_MOV_MR@randomx@@3QBEB
	mov	WORD PTR [rdx+rcx], ax
; Line 107
	add	DWORD PTR [r10+64], 2
; File D:\dev\francium_network\francium_agent\src\ext\randomx\repo\src\jit_compiler_x86.cpp
; Line 801
	movzx	edx, BYTE PTR [r11+2]
; File D:\dev\francium_network\francium_agent\src\ext\randomx\repo\src\jit_compiler_x86.hpp
; Line 86
	movsxd	rcx, DWORD PTR [r10+64]
	mov	rax, QWORD PTR [r10+56]
; File D:\dev\francium_network\francium_agent\src\ext\randomx\repo\src\jit_compiler_x86.cpp
; Line 801
	shl	dl, 3
	add	dl, 4
; File D:\dev\francium_network\francium_agent\src\ext\randomx\repo\src\jit_compiler_x86.hpp
; Line 86
	mov	BYTE PTR [rcx+rax], dl
; Line 87
	movsxd	rcx, DWORD PTR [r10+64]
	lea	eax, DWORD PTR [rcx+1]
	mov	DWORD PTR [r10+64], eax
; Line 86
	mov	rax, QWORD PTR [r10+56]
	mov	BYTE PTR [rcx+rax+1], 6
; Line 87
	inc	DWORD PTR [r10+64]
; File D:\dev\francium_network\francium_agent\src\ext\randomx\repo\src\jit_compiler_x86.cpp
; Line 803
	ret	0
?h_ISTORE@JitCompilerX86@randomx@@AEAAXAEAVInstruction@2@H@Z ENDP ; randomx::JitCompilerX86::h_ISTORE
_TEXT	ENDS
; Function compile flags: /Ogtpy
;	COMDAT ??A?$vector@HV?$allocator@H@std@@@std@@QEAAAEAH_K@Z
_TEXT	SEGMENT
this$ = 8
_Pos$ = 16
??A?$vector@HV?$allocator@H@std@@@std@@QEAAAEAH_K@Z PROC ; std::vector<int,std::allocator<int> >::operator[], COMDAT
; File D:\software\Visual Studio 2022\VC\Tools\MSVC\14.35.32215\include\vector
; Line 1952
	mov	rax, QWORD PTR [rcx]
	lea	rax, QWORD PTR [rax+rdx*4]
; Line 1953
	ret	0
??A?$vector@HV?$allocator@H@std@@@std@@QEAAAEAH_K@Z ENDP ; std::vector<int,std::allocator<int> >::operator[]
_TEXT	ENDS
; Function compile flags: /Ogtpy
;	COMDAT ?clear@?$vector@HV?$allocator@H@std@@@std@@QEAAXXZ
_TEXT	SEGMENT
this$ = 8
?clear@?$vector@HV?$allocator@H@std@@@std@@QEAAXXZ PROC	; std::vector<int,std::allocator<int> >::clear, COMDAT
; File D:\software\Visual Studio 2022\VC\Tools\MSVC\14.35.32215\include\vector
; Line 1829
	mov	rax, QWORD PTR [rcx]
	cmp	rax, QWORD PTR [rcx+8]
	je	SHORT $LN1@clear
; Line 1839
	mov	QWORD PTR [rcx+8], rax
$LN1@clear:
; Line 1840
	ret	0
?clear@?$vector@HV?$allocator@H@std@@@std@@QEAAXXZ ENDP	; std::vector<int,std::allocator<int> >::clear
_TEXT	ENDS
; Function compile flags: /Ogtpy
;	COMDAT ?push_back@?$vector@HV?$allocator@H@std@@@std@@QEAAXAEBH@Z
_TEXT	SEGMENT
this$ = 8
_Val$ = 16
?push_back@?$vector@HV?$allocator@H@std@@@std@@QEAAXAEBH@Z PROC ; std::vector<int,std::allocator<int> >::push_back, COMDAT
; File D:\software\Visual Studio 2022\VC\Tools\MSVC\14.35.32215\include\vector
; Line 935
	mov	r8, rdx
; Line 844
	mov	rdx, QWORD PTR [rcx+8]
	cmp	rdx, QWORD PTR [rcx+16]
	je	SHORT $LN4@push_back
; Line 860
	mov	eax, DWORD PTR [r8]
	mov	DWORD PTR [rdx], eax
; Line 869
	add	QWORD PTR [rcx+8], 4
; Line 937
	ret	0
$LN4@push_back:
; Line 848
	jmp	??$_Emplace_reallocate@AEBH@?$vector@HV?$allocator@H@std@@@std@@AEAAPEAHQEAHAEBH@Z ; std::vector<int,std::allocator<int> >::_Emplace_reallocate<int const &>
?push_back@?$vector@HV?$allocator@H@std@@@std@@QEAAXAEBH@Z ENDP ; std::vector<int,std::allocator<int> >::push_back
_TEXT	ENDS
; Function compile flags: /Ogtpy
;	COMDAT ??1?$vector@HV?$allocator@H@std@@@std@@QEAA@XZ
_TEXT	SEGMENT
this$ = 48
??1?$vector@HV?$allocator@H@std@@@std@@QEAA@XZ PROC	; std::vector<int,std::allocator<int> >::~vector<int,std::allocator<int> >, COMDAT
; File D:\software\Visual Studio 2022\VC\Tools\MSVC\14.35.32215\include\vector
; Line 829
$LN28:
	push	rbx
	sub	rsp, 32					; 00000020H
	mov	rbx, rcx
; Line 2107
	mov	rcx, QWORD PTR [rcx]
	test	rcx, rcx
	je	SHORT $LN4@vector
; Line 2110
	mov	rdx, QWORD PTR [rbx+16]
	sub	rdx, rcx
; File D:\software\Visual Studio 2022\VC\Tools\MSVC\14.35.32215\include\xmemory
; Line 829
	and	rdx, -4
; Line 251
	cmp	rdx, 4096				; 00001000H
	jb	SHORT $LN20@vector
; Line 150
	mov	r8, QWORD PTR [rcx-8]
	add	rdx, 39					; 00000027H
; Line 163
	sub	rcx, r8
; Line 164
	lea	rax, QWORD PTR [rcx-8]
	cmp	rax, 31
	ja	SHORT $LN17@vector
; Line 165
	mov	rcx, r8
$LN20@vector:
; Line 255
	call	??3@YAXPEAX_K@Z				; operator delete
; File D:\software\Visual Studio 2022\VC\Tools\MSVC\14.35.32215\include\vector
; Line 2112
	xor	eax, eax
	mov	QWORD PTR [rbx], rax
; Line 2113
	mov	QWORD PTR [rbx+8], rax
; Line 2114
	mov	QWORD PTR [rbx+16], rax
$LN4@vector:
; Line 835
	add	rsp, 32					; 00000020H
	pop	rbx
	ret	0
$LN17@vector:
; File D:\software\Visual Studio 2022\VC\Tools\MSVC\14.35.32215\include\xmemory
; Line 164
	call	_invalid_parameter_noinfo_noreturn
	int	3
$LN25@vector:
??1?$vector@HV?$allocator@H@std@@@std@@QEAA@XZ ENDP	; std::vector<int,std::allocator<int> >::~vector<int,std::allocator<int> >
_TEXT	ENDS
; Function compile flags: /Ogtpy
;	COMDAT ??0?$vector@HV?$allocator@H@std@@@std@@QEAA@XZ
_TEXT	SEGMENT
this$ = 8
??0?$vector@HV?$allocator@H@std@@@std@@QEAA@XZ PROC	; std::vector<int,std::allocator<int> >::vector<int,std::allocator<int> >, COMDAT
; File D:\software\Visual Studio 2022\VC\Tools\MSVC\14.35.32215\include\vector
; Line 390
	xor	eax, eax
	mov	QWORD PTR [rcx], rax
	mov	QWORD PTR [rcx+8], rax
	mov	QWORD PTR [rcx+16], rax
; Line 675
	mov	rax, rcx
	ret	0
??0?$vector@HV?$allocator@H@std@@@std@@QEAA@XZ ENDP	; std::vector<int,std::allocator<int> >::vector<int,std::allocator<int> >
_TEXT	ENDS
; Function compile flags: /Ogtpy
;	COMDAT ?_Getal@?$vector@HV?$allocator@H@std@@@std@@AEAAAEAV?$allocator@H@2@XZ
_TEXT	SEGMENT
this$ = 8
?_Getal@?$vector@HV?$allocator@H@std@@@std@@AEAAAEAV?$allocator@H@2@XZ PROC ; std::vector<int,std::allocator<int> >::_Getal, COMDAT
; File D:\software\Visual Studio 2022\VC\Tools\MSVC\14.35.32215\include\vector
; Line 2244
	mov	rax, rcx
; Line 2245
	ret	0
?_Getal@?$vector@HV?$allocator@H@std@@@std@@AEAAAEAV?$allocator@H@2@XZ ENDP ; std::vector<int,std::allocator<int> >::_Getal
_TEXT	ENDS
; Function compile flags: /Ogtpy
;	COMDAT ?_Tidy@?$vector@HV?$allocator@H@std@@@std@@AEAAXXZ
_TEXT	SEGMENT
this$ = 48
?_Tidy@?$vector@HV?$allocator@H@std@@@std@@AEAAXXZ PROC	; std::vector<int,std::allocator<int> >::_Tidy, COMDAT
; File D:\software\Visual Studio 2022\VC\Tools\MSVC\14.35.32215\include\vector
; Line 2098
$LN25:
	push	rbx
	sub	rsp, 32					; 00000020H
	mov	rbx, rcx
; Line 2107
	mov	rcx, QWORD PTR [rcx]
	test	rcx, rcx
	je	SHORT $LN2@Tidy
; Line 2110
	mov	rdx, QWORD PTR [rbx+16]
	sub	rdx, rcx
; File D:\software\Visual Studio 2022\VC\Tools\MSVC\14.35.32215\include\xmemory
; Line 829
	and	rdx, -4
; Line 251
	cmp	rdx, 4096				; 00001000H
	jb	SHORT $LN18@Tidy
; Line 150
	mov	r8, QWORD PTR [rcx-8]
	add	rdx, 39					; 00000027H
; Line 163
	sub	rcx, r8
; Line 164
	lea	rax, QWORD PTR [rcx-8]
	cmp	rax, 31
	ja	SHORT $LN15@Tidy
; Line 165
	mov	rcx, r8
$LN18@Tidy:
; Line 255
	call	??3@YAXPEAX_K@Z				; operator delete
; File D:\software\Visual Studio 2022\VC\Tools\MSVC\14.35.32215\include\vector
; Line 2112
	xor	eax, eax
	mov	QWORD PTR [rbx], rax
; Line 2113
	mov	QWORD PTR [rbx+8], rax
; Line 2114
	mov	QWORD PTR [rbx+16], rax
$LN2@Tidy:
; Line 2116
	add	rsp, 32					; 00000020H
	pop	rbx
	ret	0
$LN15@Tidy:
; File D:\software\Visual Studio 2022\VC\Tools\MSVC\14.35.32215\include\xmemory
; Line 164
	call	_invalid_parameter_noinfo_noreturn
	int	3
$LN22@Tidy:
?_Tidy@?$vector@HV?$allocator@H@std@@@std@@AEAAXXZ ENDP	; std::vector<int,std::allocator<int> >::_Tidy
_TEXT	ENDS
; Function compile flags: /Ogtpy
;	COMDAT ?_Get_first@?$_Compressed_pair@V?$allocator@H@std@@V?$_Vector_val@U?$_Simple_types@H@std@@@2@$00@std@@QEAAAEAV?$allocator@H@2@XZ
_TEXT	SEGMENT
this$ = 8
?_Get_first@?$_Compressed_pair@V?$allocator@H@std@@V?$_Vector_val@U?$_Simple_types@H@std@@@2@$00@std@@QEAAAEAV?$allocator@H@2@XZ PROC ; std::_Compressed_pair<std::allocator<int>,std::_Vector_val<std::_Simple_types<int> >,1>::_Get_first, COMDAT
; File D:\software\Visual Studio 2022\VC\Tools\MSVC\14.35.32215\include\xmemory
; Line 1383
	mov	rax, rcx
; Line 1384
	ret	0
?_Get_first@?$_Compressed_pair@V?$allocator@H@std@@V?$_Vector_val@U?$_Simple_types@H@std@@@2@$00@std@@QEAAAEAV?$allocator@H@2@XZ ENDP ; std::_Compressed_pair<std::allocator<int>,std::_Vector_val<std::_Simple_types<int> >,1>::_Get_first
_TEXT	ENDS
; Function compile flags: /Ogtpy
;	COMDAT ?deallocate@?$allocator@H@std@@QEAAXQEAH_K@Z
_TEXT	SEGMENT
this$dead$ = 48
_Ptr$ = 56
_Count$ = 64
?deallocate@?$allocator@H@std@@QEAAXQEAH_K@Z PROC	; std::allocator<int>::deallocate, COMDAT
; File D:\software\Visual Studio 2022\VC\Tools\MSVC\14.35.32215\include\xmemory
; Line 826
$LN21:
	sub	rsp, 40					; 00000028H
	mov	rax, rdx
; Line 829
	lea	rdx, QWORD PTR [r8*4]
; Line 251
	cmp	rdx, 4096				; 00001000H
	jb	SHORT $LN15@deallocate
; Line 150
	mov	rcx, QWORD PTR [rax-8]
	add	rdx, 39					; 00000027H
; Line 163
	sub	rax, rcx
; Line 164
	add	rax, -8
	cmp	rax, 31
	ja	SHORT $LN12@deallocate
; Line 165
	mov	rax, rcx
$LN15@deallocate:
; Line 255
	mov	rcx, rax
; Line 830
	add	rsp, 40					; 00000028H
; Line 255
	jmp	??3@YAXPEAX_K@Z				; operator delete
$LN12@deallocate:
; Line 164
	call	_invalid_parameter_noinfo_noreturn
	int	3
$LN18@deallocate:
?deallocate@?$allocator@H@std@@QEAAXQEAH_K@Z ENDP	; std::allocator<int>::deallocate
_TEXT	ENDS
; Function compile flags: /Ogtpy
;	COMDAT ??$emit@$01@JitCompilerX86@randomx@@AEAAXAEAY01$$CBE@Z
_TEXT	SEGMENT
this$ = 8
src$ = 16
??$emit@$01@JitCompilerX86@randomx@@AEAAXAEAY01$$CBE@Z PROC ; randomx::JitCompilerX86::emit<2>, COMDAT
; File D:\dev\francium_network\francium_agent\src\ext\randomx\repo\src\jit_compiler_x86.hpp
; Line 106
	movsxd	r9, DWORD PTR [rcx+64]
	movzx	eax, WORD PTR [rdx]
	mov	r8, QWORD PTR [rcx+56]
	mov	WORD PTR [r9+r8], ax
; Line 107
	add	DWORD PTR [rcx+64], 2
; Line 103
	ret	0
??$emit@$01@JitCompilerX86@randomx@@AEAAXAEAY01$$CBE@Z ENDP ; randomx::JitCompilerX86::emit<2>
_TEXT	ENDS
; Function compile flags: /Ogtpy
;	COMDAT ??$emit@$02@JitCompilerX86@randomx@@AEAAXAEAY02$$CBE@Z
_TEXT	SEGMENT
this$ = 8
src$ = 16
??$emit@$02@JitCompilerX86@randomx@@AEAAXAEAY02$$CBE@Z PROC ; randomx::JitCompilerX86::emit<3>, COMDAT
; File D:\dev\francium_network\francium_agent\src\ext\randomx\repo\src\jit_compiler_x86.hpp
; Line 106
	movzx	eax, WORD PTR [rdx]
	movsxd	r8, DWORD PTR [rcx+64]
	mov	r9, QWORD PTR [rcx+56]
	mov	WORD PTR [r9+r8], ax
	movzx	eax, BYTE PTR [rdx+2]
	mov	BYTE PTR [r9+r8+2], al
; Line 107
	add	DWORD PTR [rcx+64], 3
; Line 103
	ret	0
??$emit@$02@JitCompilerX86@randomx@@AEAAXAEAY02$$CBE@Z ENDP ; randomx::JitCompilerX86::emit<3>
_TEXT	ENDS
; Function compile flags: /Ogtpy
;	COMDAT ??$emit@$03@JitCompilerX86@randomx@@AEAAXAEAY03$$CBE@Z
_TEXT	SEGMENT
this$ = 8
src$ = 16
??$emit@$03@JitCompilerX86@randomx@@AEAAXAEAY03$$CBE@Z PROC ; randomx::JitCompilerX86::emit<4>, COMDAT
; File D:\dev\francium_network\francium_agent\src\ext\randomx\repo\src\jit_compiler_x86.hpp
; Line 106
	movsxd	r9, DWORD PTR [rcx+64]
	mov	eax, DWORD PTR [rdx]
	mov	r8, QWORD PTR [rcx+56]
	mov	DWORD PTR [r9+r8], eax
; Line 107
	add	DWORD PTR [rcx+64], 4
; Line 103
	ret	0
??$emit@$03@JitCompilerX86@randomx@@AEAAXAEAY03$$CBE@Z ENDP ; randomx::JitCompilerX86::emit<4>
_TEXT	ENDS
; Function compile flags: /Ogtpy
;	COMDAT ??$emit@$05@JitCompilerX86@randomx@@AEAAXAEAY05$$CBE@Z
_TEXT	SEGMENT
this$ = 8
src$dead$ = 16
??$emit@$05@JitCompilerX86@randomx@@AEAAXAEAY05$$CBE@Z PROC ; randomx::JitCompilerX86::emit<6>, COMDAT
; File D:\dev\francium_network\francium_agent\src\ext\randomx\repo\src\jit_compiler_x86.hpp
; Line 106
	mov	eax, DWORD PTR ?REX_CVTDQ2PD_XMM12@randomx@@3QBEB
	movsxd	rdx, DWORD PTR [rcx+64]
	mov	r8, QWORD PTR [rcx+56]
	mov	DWORD PTR [r8+rdx], eax
	movzx	eax, WORD PTR ?REX_CVTDQ2PD_XMM12@randomx@@3QBEB+4
	mov	WORD PTR [r8+rdx+4], ax
; Line 107
	add	DWORD PTR [rcx+64], 6
; Line 103
	ret	0
??$emit@$05@JitCompilerX86@randomx@@AEAAXAEAY05$$CBE@Z ENDP ; randomx::JitCompilerX86::emit<6>
_TEXT	ENDS
; Function compile flags: /Ogtpy
;	COMDAT ??$emit@$07@JitCompilerX86@randomx@@AEAAXAEAY07$$CBE@Z
_TEXT	SEGMENT
this$ = 8
src$dead$ = 16
??$emit@$07@JitCompilerX86@randomx@@AEAAXAEAY07$$CBE@Z PROC ; randomx::JitCompilerX86::emit<8>, COMDAT
; File D:\dev\francium_network\francium_agent\src\ext\randomx\repo\src\jit_compiler_x86.hpp
; Line 106
	movsxd	r8, DWORD PTR [rcx+64]
	mov	rax, QWORD PTR ?REX_ANDPS_XMM12@randomx@@3QBEB
	mov	rdx, QWORD PTR [rcx+56]
	mov	QWORD PTR [r8+rdx], rax
; Line 107
	add	DWORD PTR [rcx+64], 8
; Line 103
	ret	0
??$emit@$07@JitCompilerX86@randomx@@AEAAXAEAY07$$CBE@Z ENDP ; randomx::JitCompilerX86::emit<8>
_TEXT	ENDS
; Function compile flags: /Ogtpy
;	COMDAT ??$emit@$0BA@@JitCompilerX86@randomx@@AEAAXAEAY0BA@$$CBE@Z
_TEXT	SEGMENT
this$ = 8
src$dead$ = 16
??$emit@$0BA@@JitCompilerX86@randomx@@AEAAXAEAY0BA@$$CBE@Z PROC ; randomx::JitCompilerX86::emit<16>, COMDAT
; File D:\dev\francium_network\francium_agent\src\ext\randomx\repo\src\jit_compiler_x86.hpp
; Line 106
	movsxd	rdx, DWORD PTR [rcx+64]
	movups	xmm0, XMMWORD PTR ?AND_OR_MOV_LDMXCSR@randomx@@3QBEB
	mov	rax, QWORD PTR [rcx+56]
	movups	XMMWORD PTR [rax+rdx], xmm0
; Line 107
	add	DWORD PTR [rcx+64], 16
; Line 103
	ret	0
??$emit@$0BA@@JitCompilerX86@randomx@@AEAAXAEAY0BA@$$CBE@Z ENDP ; randomx::JitCompilerX86::emit<16>
_TEXT	ENDS
; Function compile flags: /Ogtpy
;	COMDAT ??$_Destroy_range@V?$allocator@H@std@@@std@@YAXPEAHQEAHAEAV?$allocator@H@0@@Z
_TEXT	SEGMENT
_First$dead$ = 8
_Last$dead$ = 16
_Al$dead$ = 24
??$_Destroy_range@V?$allocator@H@std@@@std@@YAXPEAHQEAHAEAV?$allocator@H@0@@Z PROC ; std::_Destroy_range<std::allocator<int> >, COMDAT
; File D:\software\Visual Studio 2022\VC\Tools\MSVC\14.35.32215\include\xmemory
; Line 950
	ret	0
??$_Destroy_range@V?$allocator@H@std@@@std@@YAXPEAHQEAHAEAV?$allocator@H@0@@Z ENDP ; std::_Destroy_range<std::allocator<int> >
_TEXT	ENDS
; Function compile flags: /Ogtpy
;	COMDAT ??$_Emplace_one_at_back@AEBH@?$vector@HV?$allocator@H@std@@@std@@AEAAAEAHAEBH@Z
_TEXT	SEGMENT
this$ = 8
<_Val_0>$ = 16
??$_Emplace_one_at_back@AEBH@?$vector@HV?$allocator@H@std@@@std@@AEAAAEAHAEBH@Z PROC ; std::vector<int,std::allocator<int> >::_Emplace_one_at_back<int const &>, COMDAT
; File D:\software\Visual Studio 2022\VC\Tools\MSVC\14.35.32215\include\vector
; Line 839
	mov	r8, rdx
; Line 844
	mov	rdx, QWORD PTR [rcx+8]
	cmp	rdx, QWORD PTR [rcx+16]
	je	SHORT $LN2@Emplace_on
; Line 860
	mov	eax, DWORD PTR [r8]
	mov	DWORD PTR [rdx], eax
; Line 868
	mov	rax, QWORD PTR [rcx+8]
; Line 869
	lea	rdx, QWORD PTR [rax+4]
	mov	QWORD PTR [rcx+8], rdx
; Line 849
	ret	0
$LN2@Emplace_on:
; Line 848
	jmp	??$_Emplace_reallocate@AEBH@?$vector@HV?$allocator@H@std@@@std@@AEAAPEAHQEAHAEBH@Z ; std::vector<int,std::allocator<int> >::_Emplace_reallocate<int const &>
??$_Emplace_one_at_back@AEBH@?$vector@HV?$allocator@H@std@@@std@@AEAAAEAHAEBH@Z ENDP ; std::vector<int,std::allocator<int> >::_Emplace_one_at_back<int const &>
_TEXT	ENDS
; Function compile flags: /Ogtpy
;	COMDAT ??$?0$$V@?$_Compressed_pair@V?$allocator@H@std@@V?$_Vector_val@U?$_Simple_types@H@std@@@2@$00@std@@QEAA@U_Zero_then_variadic_args_t@1@@Z
_TEXT	SEGMENT
this$ = 8
__formal$dead$ = 16
??$?0$$V@?$_Compressed_pair@V?$allocator@H@std@@V?$_Vector_val@U?$_Simple_types@H@std@@@2@$00@std@@QEAA@U_Zero_then_variadic_args_t@1@@Z PROC ; std::_Compressed_pair<std::allocator<int>,std::_Vector_val<std::_Simple_types<int> >,1>::_Compressed_pair<std::allocator<int>,std::_Vector_val<std::_Simple_types<int> >,1><>, COMDAT
; File D:\software\Visual Studio 2022\VC\Tools\MSVC\14.35.32215\include\xmemory
; File D:\software\Visual Studio 2022\VC\Tools\MSVC\14.35.32215\include\vector
; Line 390
	xor	eax, eax
	mov	QWORD PTR [rcx], rax
	mov	QWORD PTR [rcx+8], rax
	mov	QWORD PTR [rcx+16], rax
; File D:\software\Visual Studio 2022\VC\Tools\MSVC\14.35.32215\include\xmemory
; Line 1375
	mov	rax, rcx
	ret	0
??$?0$$V@?$_Compressed_pair@V?$allocator@H@std@@V?$_Vector_val@U?$_Simple_types@H@std@@@2@$00@std@@QEAA@U_Zero_then_variadic_args_t@1@@Z ENDP ; std::_Compressed_pair<std::allocator<int>,std::_Vector_val<std::_Simple_types<int> >,1>::_Compressed_pair<std::allocator<int>,std::_Vector_val<std::_Simple_types<int> >,1><>
_TEXT	ENDS
; Function compile flags: /Ogtpy
;	COMDAT ??0?$_Vector_val@U?$_Simple_types@H@std@@@std@@QEAA@XZ
_TEXT	SEGMENT
this$ = 8
??0?$_Vector_val@U?$_Simple_types@H@std@@@std@@QEAA@XZ PROC ; std::_Vector_val<std::_Simple_types<int> >::_Vector_val<std::_Simple_types<int> >, COMDAT
; File D:\software\Visual Studio 2022\VC\Tools\MSVC\14.35.32215\include\vector
; Line 390
	xor	eax, eax
	mov	QWORD PTR [rcx], rax
	mov	QWORD PTR [rcx+8], rax
	mov	QWORD PTR [rcx+16], rax
	mov	rax, rcx
	ret	0
??0?$_Vector_val@U?$_Simple_types@H@std@@@std@@QEAA@XZ ENDP ; std::_Vector_val<std::_Simple_types<int> >::_Vector_val<std::_Simple_types<int> >
_TEXT	ENDS
; Function compile flags: /Ogtpy
;	COMDAT ??0?$allocator@H@std@@QEAA@XZ
_TEXT	SEGMENT
this$ = 8
??0?$allocator@H@std@@QEAA@XZ PROC			; std::allocator<int>::allocator<int>, COMDAT
; File D:\software\Visual Studio 2022\VC\Tools\MSVC\14.35.32215\include\xmemory
; Line 818
	mov	rax, rcx
	ret	0
??0?$allocator@H@std@@QEAA@XZ ENDP			; std::allocator<int>::allocator<int>
_TEXT	ENDS
; Function compile flags: /Ogtpy
;	COMDAT ??$move@AEAH@std@@YA$$QEAHAEAH@Z
_TEXT	SEGMENT
_Arg$ = 8
??$move@AEAH@std@@YA$$QEAHAEAH@Z PROC			; std::move<int &>, COMDAT
; File D:\software\Visual Studio 2022\VC\Tools\MSVC\14.35.32215\include\type_traits
; Line 1438
	mov	rax, rcx
; Line 1439
	ret	0
??$move@AEAH@std@@YA$$QEAHAEAH@Z ENDP			; std::move<int &>
_TEXT	ENDS
; Function compile flags: /Ogtpy
;	COMDAT ??$forward@AEBH@std@@YAAEBHAEBH@Z
_TEXT	SEGMENT
_Arg$ = 8
??$forward@AEBH@std@@YAAEBHAEBH@Z PROC			; std::forward<int const &>, COMDAT
; File D:\software\Visual Studio 2022\VC\Tools\MSVC\14.35.32215\include\type_traits
; Line 1427
	mov	rax, rcx
; Line 1428
	ret	0
??$forward@AEBH@std@@YAAEBHAEBH@Z ENDP			; std::forward<int const &>
_TEXT	ENDS
; Function compile flags: /Ogtpy
;	COMDAT ??$_Emplace_back_with_unused_capacity@AEBH@?$vector@HV?$allocator@H@std@@@std@@AEAAAEAHAEBH@Z
_TEXT	SEGMENT
this$ = 8
<_Val_0>$ = 16
??$_Emplace_back_with_unused_capacity@AEBH@?$vector@HV?$allocator@H@std@@@std@@AEAAAEAHAEBH@Z PROC ; std::vector<int,std::allocator<int> >::_Emplace_back_with_unused_capacity<int const &>, COMDAT
; File D:\software\Visual Studio 2022\VC\Tools\MSVC\14.35.32215\include\vector
; Line 860
	mov	eax, DWORD PTR [rdx]
	mov	r8, QWORD PTR [rcx+8]
	mov	DWORD PTR [r8], eax
; Line 868
	mov	rax, QWORD PTR [rcx+8]
; Line 869
	lea	rdx, QWORD PTR [rax+4]
	mov	QWORD PTR [rcx+8], rdx
; Line 872
	ret	0
??$_Emplace_back_with_unused_capacity@AEBH@?$vector@HV?$allocator@H@std@@@std@@AEAAAEAHAEBH@Z ENDP ; std::vector<int,std::allocator<int> >::_Emplace_back_with_unused_capacity<int const &>
_TEXT	ENDS
; Function compile flags: /Ogtpy
;	COMDAT ??$_Emplace_reallocate@AEBH@?$vector@HV?$allocator@H@std@@@std@@AEAAPEAHQEAHAEBH@Z
_TEXT	SEGMENT
this$ = 80
_Whereptr$ = 88
<_Val_0>$ = 96
??$_Emplace_reallocate@AEBH@?$vector@HV?$allocator@H@std@@@std@@AEAAPEAHQEAHAEBH@Z PROC ; std::vector<int,std::allocator<int> >::_Emplace_reallocate<int const &>, COMDAT
; File D:\software\Visual Studio 2022\VC\Tools\MSVC\14.35.32215\include\vector
; Line 875
$LN116:
	push	rbp
	push	rdi
	push	r12
	push	r14
	sub	rsp, 40					; 00000028H
; Line 885
	mov	rax, QWORD PTR [rcx+8]
	mov	rbp, rdx
	mov	rdx, QWORD PTR [rcx]
	mov	r14, rbp
	sub	r14, rdx
	sub	rax, rdx
	mov	r12, r8
	sar	r14, 2
	sar	rax, 2
; Line 887
	mov	r8, 4611686018427387903			; 3fffffffffffffffH
	mov	rdi, rcx
	cmp	rax, r8
	je	$LN114@Emplace_re
; Line 1942
	mov	rcx, QWORD PTR [rcx+16]
	sub	rcx, rdx
	mov	QWORD PTR [rsp+96], rbx
	sar	rcx, 2
	mov	QWORD PTR [rsp+104], rsi
; Line 2029
	mov	rdx, rcx
	shr	rdx, 1
	mov	QWORD PTR [rsp+32], r15
; Line 891
	lea	r15, QWORD PTR [rax+1]
; Line 2029
	mov	rax, r8
	sub	rax, rdx
	cmp	rcx, rax
	ja	$LN106@Emplace_re
; Line 2033
	lea	rax, QWORD PTR [rdx+rcx]
; File D:\software\Visual Studio 2022\VC\Tools\MSVC\14.35.32215\include\xmemory
; Line 60
	mov	rsi, r15
	cmp	rax, r15
	cmovae	rsi, rax
	cmp	rsi, r8
	ja	$LN106@Emplace_re
; Line 65
	lea	rsi, QWORD PTR [rsi*4]
; Line 228
	cmp	rsi, 4096				; 00001000H
	jb	SHORT $LN24@Emplace_re
; Line 129
	lea	rcx, QWORD PTR [rsi+39]
; Line 130
	cmp	rcx, rsi
	jbe	$LN106@Emplace_re
; Line 77
	call	??2@YAPEAX_K@Z				; operator new
; Line 135
	test	rax, rax
	je	$LN58@Emplace_re
; Line 136
	lea	rbx, QWORD PTR [rax+39]
	and	rbx, -32				; ffffffffffffffe0H
; Line 137
	mov	QWORD PTR [rbx-8], rax
; Line 229
	jmp	SHORT $LN23@Emplace_re
$LN24@Emplace_re:
; Line 234
	test	rsi, rsi
	je	SHORT $LN25@Emplace_re
; Line 77
	mov	rcx, rsi
	call	??2@YAPEAX_K@Z				; operator new
	mov	rbx, rax
; Line 235
	jmp	SHORT $LN23@Emplace_re
$LN25@Emplace_re:
; Line 238
	xor	ebx, ebx
$LN23@Emplace_re:
; File D:\software\Visual Studio 2022\VC\Tools\MSVC\14.35.32215\include\vector
; Line 899
	mov	eax, DWORD PTR [r12]
	lea	r14, QWORD PTR [rbx+r14*4]
	mov	DWORD PTR [r14], eax
; Line 902
	mov	rcx, rbx
	mov	r8, QWORD PTR [rdi+8]
	mov	rdx, QWORD PTR [rdi]
	cmp	rbp, r8
	jne	SHORT $LN4@Emplace_re
; File D:\software\Visual Studio 2022\VC\Tools\MSVC\14.35.32215\include\xutility
; Line 4238
	sub	r8, rdx
; File D:\software\Visual Studio 2022\VC\Tools\MSVC\14.35.32215\include\vector
; Line 908
	jmp	SHORT $LN112@Emplace_re
$LN4@Emplace_re:
; File D:\software\Visual Studio 2022\VC\Tools\MSVC\14.35.32215\include\xutility
; Line 4238
	mov	r8, rbp
	sub	r8, rdx
; Line 4239
	call	memmove
; Line 4238
	mov	r8, QWORD PTR [rdi+8]
; File D:\software\Visual Studio 2022\VC\Tools\MSVC\14.35.32215\include\vector
; Line 911
	lea	rcx, QWORD PTR [r14+4]
; File D:\software\Visual Studio 2022\VC\Tools\MSVC\14.35.32215\include\xutility
; Line 4238
	sub	r8, rbp
; Line 4239
	mov	rdx, rbp
$LN112@Emplace_re:
; File D:\software\Visual Studio 2022\VC\Tools\MSVC\14.35.32215\include\vector
; Line 911
	call	memmove
; Line 2086
	mov	rcx, QWORD PTR [rdi]
	test	rcx, rcx
	je	SHORT $LN51@Emplace_re
; Line 2089
	mov	rdx, QWORD PTR [rdi+16]
	sub	rdx, rcx
; File D:\software\Visual Studio 2022\VC\Tools\MSVC\14.35.32215\include\xmemory
; Line 829
	and	rdx, -4
; Line 251
	cmp	rdx, 4096				; 00001000H
	jb	SHORT $LN61@Emplace_re
; Line 150
	mov	r8, QWORD PTR [rcx-8]
	add	rdx, 39					; 00000027H
; Line 163
	sub	rcx, r8
; Line 164
	lea	rax, QWORD PTR [rcx-8]
	cmp	rax, 31
	ja	SHORT $LN58@Emplace_re
; Line 165
	mov	rcx, r8
$LN61@Emplace_re:
; Line 255
	call	??3@YAXPEAX_K@Z				; operator delete
$LN51@Emplace_re:
; File D:\software\Visual Studio 2022\VC\Tools\MSVC\14.35.32215\include\vector
; Line 2093
	lea	rcx, QWORD PTR [rbx+r15*4]
	mov	QWORD PTR [rdi], rbx
	mov	r15, QWORD PTR [rsp+32]
; Line 920
	mov	rax, r14
; Line 2093
	mov	QWORD PTR [rdi+8], rcx
; Line 2094
	lea	rcx, QWORD PTR [rsi+rbx]
	mov	rsi, QWORD PTR [rsp+104]
	mov	rbx, QWORD PTR [rsp+96]
	mov	QWORD PTR [rdi+16], rcx
; Line 921
	add	rsp, 40					; 00000028H
	pop	r14
	pop	r12
	pop	rdi
	pop	rbp
	ret	0
$LN58@Emplace_re:
; File D:\software\Visual Studio 2022\VC\Tools\MSVC\14.35.32215\include\xmemory
; Line 164
	call	_invalid_parameter_noinfo_noreturn
	int	3
$LN106@Emplace_re:
; Line 131
	call	?_Throw_bad_array_new_length@std@@YAXXZ	; std::_Throw_bad_array_new_length
	int	3
$LN114@Emplace_re:
; File D:\software\Visual Studio 2022\VC\Tools\MSVC\14.35.32215\include\vector
; Line 888
	call	?_Xlength@?$vector@HV?$allocator@H@std@@@std@@CAXXZ ; std::vector<int,std::allocator<int> >::_Xlength
	int	3
$LN111@Emplace_re:
??$_Emplace_reallocate@AEBH@?$vector@HV?$allocator@H@std@@@std@@AEAAPEAHQEAHAEBH@Z ENDP ; std::vector<int,std::allocator<int> >::_Emplace_reallocate<int const &>
_TEXT	ENDS
; Function compile flags: /Ogtpy
;	COMDAT ?_Orphan_range@?$vector@HV?$allocator@H@std@@@std@@AEBAXPEAH0@Z
_TEXT	SEGMENT
this$dead$ = 8
__formal$dead$ = 16
__formal$dead$ = 24
?_Orphan_range@?$vector@HV?$allocator@H@std@@@std@@AEBAXPEAH0@Z PROC ; std::vector<int,std::allocator<int> >::_Orphan_range, COMDAT
; File D:\software\Visual Studio 2022\VC\Tools\MSVC\14.35.32215\include\vector
; Line 2240
	ret	0
?_Orphan_range@?$vector@HV?$allocator@H@std@@@std@@AEBAXPEAH0@Z ENDP ; std::vector<int,std::allocator<int> >::_Orphan_range
_TEXT	ENDS
; Function compile flags: /Ogtpy
;	COMDAT ?_Xlength@?$vector@HV?$allocator@H@std@@@std@@CAXXZ
_TEXT	SEGMENT
?_Xlength@?$vector@HV?$allocator@H@std@@@std@@CAXXZ PROC ; std::vector<int,std::allocator<int> >::_Xlength, COMDAT
; File D:\software\Visual Studio 2022\VC\Tools\MSVC\14.35.32215\include\vector
; Line 2200
$LN4:
	sub	rsp, 40					; 00000028H
; Line 2201
	lea	rcx, OFFSET FLAT:??_C@_0BA@FOIKENOD@vector?5too?5long@
	call	?_Xlength_error@std@@YAXPEBD@Z		; std::_Xlength_error
	int	3
$LN3@Xlength:
?_Xlength@?$vector@HV?$allocator@H@std@@@std@@CAXXZ ENDP ; std::vector<int,std::allocator<int> >::_Xlength
_TEXT	ENDS
; Function compile flags: /Ogtpy
;	COMDAT ?_Change_array@?$vector@HV?$allocator@H@std@@@std@@AEAAXQEAH_K1@Z
_TEXT	SEGMENT
this$ = 48
_Newvec$ = 56
_Newsize$ = 64
_Newcapacity$ = 72
?_Change_array@?$vector@HV?$allocator@H@std@@@std@@AEAAXQEAH_K1@Z PROC ; std::vector<int,std::allocator<int> >::_Change_array, COMDAT
; File D:\software\Visual Studio 2022\VC\Tools\MSVC\14.35.32215\include\vector
; Line 2076
$LN25:
	mov	QWORD PTR [rsp+16], rbx
	mov	QWORD PTR [rsp+24], rbp
	mov	QWORD PTR [rsp+32], rsi
	push	rdi
	sub	rsp, 32					; 00000020H
	mov	rbx, rcx
	mov	rsi, r9
; Line 2086
	mov	rcx, QWORD PTR [rcx]
	mov	rbp, r8
	mov	rdi, rdx
	test	rcx, rcx
	je	SHORT $LN8@Change_arr
; Line 2089
	mov	rdx, QWORD PTR [rbx+16]
	sub	rdx, rcx
; File D:\software\Visual Studio 2022\VC\Tools\MSVC\14.35.32215\include\xmemory
; Line 829
	and	rdx, -4
; Line 251
	cmp	rdx, 4096				; 00001000H
	jb	SHORT $LN18@Change_arr
; Line 150
	mov	r8, QWORD PTR [rcx-8]
	add	rdx, 39					; 00000027H
; Line 163
	sub	rcx, r8
; Line 164
	lea	rax, QWORD PTR [rcx-8]
	cmp	rax, 31
	ja	SHORT $LN15@Change_arr
; Line 165
	mov	rcx, r8
$LN18@Change_arr:
; Line 255
	call	??3@YAXPEAX_K@Z				; operator delete
$LN8@Change_arr:
; File D:\software\Visual Studio 2022\VC\Tools\MSVC\14.35.32215\include\vector
; Line 2093
	lea	rax, QWORD PTR [rdi+rbp*4]
	mov	QWORD PTR [rbx], rdi
; Line 2096
	mov	rbp, QWORD PTR [rsp+64]
	mov	QWORD PTR [rbx+8], rax
	lea	rax, QWORD PTR [rdi+rsi*4]
	mov	rsi, QWORD PTR [rsp+72]
	mov	QWORD PTR [rbx+16], rax
	mov	rbx, QWORD PTR [rsp+56]
	add	rsp, 32					; 00000020H
	pop	rdi
	ret	0
$LN15@Change_arr:
; File D:\software\Visual Studio 2022\VC\Tools\MSVC\14.35.32215\include\xmemory
; Line 164
	call	_invalid_parameter_noinfo_noreturn
	int	3
$LN22@Change_arr:
?_Change_array@?$vector@HV?$allocator@H@std@@@std@@AEAAXQEAH_K1@Z ENDP ; std::vector<int,std::allocator<int> >::_Change_array
_TEXT	ENDS
; Function compile flags: /Ogtpy
;	COMDAT ?_Calculate_growth@?$vector@HV?$allocator@H@std@@@std@@AEBA_K_K@Z
_TEXT	SEGMENT
this$ = 8
_Newsize$ = 16
?_Calculate_growth@?$vector@HV?$allocator@H@std@@@std@@AEBA_K_K@Z PROC ; std::vector<int,std::allocator<int> >::_Calculate_growth, COMDAT
; File D:\software\Visual Studio 2022\VC\Tools\MSVC\14.35.32215\include\vector
; Line 1942
	mov	r8, QWORD PTR [rcx+16]
; Line 2029
	mov	rax, 4611686018427387903		; 3fffffffffffffffH
; Line 1942
	sub	r8, QWORD PTR [rcx]
; Line 2029
	mov	rcx, rax
; Line 1942
	sar	r8, 2
; Line 2029
	mov	r9, r8
	shr	r9, 1
	sub	rcx, r9
	cmp	r8, rcx
	ja	SHORT $LN1@Calculate_
; Line 2033
	lea	rax, QWORD PTR [r9+r8]
; Line 2035
	cmp	rax, rdx
	cmovb	rax, rdx
$LN1@Calculate_:
; Line 2040
	ret	0
?_Calculate_growth@?$vector@HV?$allocator@H@std@@@std@@AEBA_K_K@Z ENDP ; std::vector<int,std::allocator<int> >::_Calculate_growth
_TEXT	ENDS
; Function compile flags: /Ogtpy
;	COMDAT ?max_size@?$vector@HV?$allocator@H@std@@@std@@QEBA_KXZ
_TEXT	SEGMENT
this$dead$ = 8
?max_size@?$vector@HV?$allocator@H@std@@@std@@QEBA_KXZ PROC ; std::vector<int,std::allocator<int> >::max_size, COMDAT
; File D:\software\Visual Studio 2022\VC\Tools\MSVC\14.35.32215\include\vector
; Line 1936
	mov	rax, 4611686018427387903		; 3fffffffffffffffH
; Line 1938
	ret	0
?max_size@?$vector@HV?$allocator@H@std@@@std@@QEBA_KXZ ENDP ; std::vector<int,std::allocator<int> >::max_size
_TEXT	ENDS
; Function compile flags: /Ogtpy
;	COMDAT ?allocate@?$allocator@H@std@@QEAAPEAH_K@Z
_TEXT	SEGMENT
this$dead$ = 48
_Count$ = 56
?allocate@?$allocator@H@std@@QEAAPEAH_K@Z PROC		; std::allocator<int>::allocate, COMDAT
; File D:\software\Visual Studio 2022\VC\Tools\MSVC\14.35.32215\include\xmemory
; Line 832
$LN31:
	sub	rsp, 40					; 00000028H
; Line 60
	mov	rax, 4611686018427387903		; 3fffffffffffffffH
	cmp	rdx, rax
	ja	SHORT $LN27@allocate
; Line 65
	lea	rcx, QWORD PTR [rdx*4]
; Line 228
	cmp	rcx, 4096				; 00001000H
	jb	SHORT $LN8@allocate
; Line 129
	lea	rax, QWORD PTR [rcx+39]
; Line 130
	cmp	rax, rcx
	jbe	SHORT $LN27@allocate
; Line 77
	mov	rcx, rax
	call	??2@YAPEAX_K@Z				; operator new
	mov	rcx, rax
; Line 135
	test	rax, rax
	je	SHORT $LN17@allocate
; Line 136
	add	rax, 39					; 00000027H
	and	rax, -32				; ffffffffffffffe0H
; Line 137
	mov	QWORD PTR [rax-8], rcx
; Line 835
	add	rsp, 40					; 00000028H
	ret	0
$LN8@allocate:
; Line 234
	test	rcx, rcx
	je	SHORT $LN9@allocate
; Line 835
	add	rsp, 40					; 00000028H
; Line 77
	jmp	??2@YAPEAX_K@Z				; operator new
$LN9@allocate:
; Line 238
	xor	eax, eax
; Line 835
	add	rsp, 40					; 00000028H
	ret	0
$LN27@allocate:
; Line 131
	call	?_Throw_bad_array_new_length@std@@YAXXZ	; std::_Throw_bad_array_new_length
	int	3
$LN17@allocate:
; Line 135
	call	_invalid_parameter_noinfo_noreturn
	int	3
$LN29@allocate:
?allocate@?$allocator@H@std@@QEAAPEAH_K@Z ENDP		; std::allocator<int>::allocate
_TEXT	ENDS
; Function compile flags: /Ogtpy
;	COMDAT ?_Getal@?$vector@HV?$allocator@H@std@@@std@@AEBAAEBV?$allocator@H@2@XZ
_TEXT	SEGMENT
this$ = 8
?_Getal@?$vector@HV?$allocator@H@std@@@std@@AEBAAEBV?$allocator@H@2@XZ PROC ; std::vector<int,std::allocator<int> >::_Getal, COMDAT
; File D:\software\Visual Studio 2022\VC\Tools\MSVC\14.35.32215\include\vector
; Line 2248
	mov	rax, rcx
; Line 2249
	ret	0
?_Getal@?$vector@HV?$allocator@H@std@@@std@@AEBAAEBV?$allocator@H@2@XZ ENDP ; std::vector<int,std::allocator<int> >::_Getal
_TEXT	ENDS
; Function compile flags: /Ogtpy
;	COMDAT ?capacity@?$vector@HV?$allocator@H@std@@@std@@QEBA_KXZ
_TEXT	SEGMENT
this$ = 8
?capacity@?$vector@HV?$allocator@H@std@@@std@@QEBA_KXZ PROC ; std::vector<int,std::allocator<int> >::capacity, COMDAT
; File D:\software\Visual Studio 2022\VC\Tools\MSVC\14.35.32215\include\vector
; Line 1942
	mov	rax, QWORD PTR [rcx+16]
	sub	rax, QWORD PTR [rcx]
	sar	rax, 2
; Line 1943
	ret	0
?capacity@?$vector@HV?$allocator@H@std@@@std@@QEBA_KXZ ENDP ; std::vector<int,std::allocator<int> >::capacity
_TEXT	ENDS
; Function compile flags: /Ogtpy
;	COMDAT ?max_size@?$_Default_allocator_traits@V?$allocator@H@std@@@std@@SA_KAEBV?$allocator@H@2@@Z
_TEXT	SEGMENT
__formal$dead$ = 8
?max_size@?$_Default_allocator_traits@V?$allocator@H@std@@@std@@SA_KAEBV?$allocator@H@2@@Z PROC ; std::_Default_allocator_traits<std::allocator<int> >::max_size, COMDAT
; File D:\software\Visual Studio 2022\VC\Tools\MSVC\14.35.32215\include\xmemory
; Line 694
	mov	rax, 4611686018427387903		; 3fffffffffffffffH
; Line 695
	ret	0
?max_size@?$_Default_allocator_traits@V?$allocator@H@std@@@std@@SA_KAEBV?$allocator@H@2@@Z ENDP ; std::_Default_allocator_traits<std::allocator<int> >::max_size
_TEXT	ENDS
; Function compile flags: /Ogtpy
;	COMDAT ?_Get_first@?$_Compressed_pair@V?$allocator@H@std@@V?$_Vector_val@U?$_Simple_types@H@std@@@2@$00@std@@QEBAAEBV?$allocator@H@2@XZ
_TEXT	SEGMENT
this$ = 8
?_Get_first@?$_Compressed_pair@V?$allocator@H@std@@V?$_Vector_val@U?$_Simple_types@H@std@@@2@$00@std@@QEBAAEBV?$allocator@H@2@XZ PROC ; std::_Compressed_pair<std::allocator<int>,std::_Vector_val<std::_Simple_types<int> >,1>::_Get_first, COMDAT
; File D:\software\Visual Studio 2022\VC\Tools\MSVC\14.35.32215\include\xmemory
; Line 1387
	mov	rax, rcx
; Line 1388
	ret	0
?_Get_first@?$_Compressed_pair@V?$allocator@H@std@@V?$_Vector_val@U?$_Simple_types@H@std@@@2@$00@std@@QEBAAEBV?$allocator@H@2@XZ ENDP ; std::_Compressed_pair<std::allocator<int>,std::_Vector_val<std::_Simple_types<int> >,1>::_Get_first
_TEXT	ENDS
; Function compile flags: /Ogtpy
;	COMDAT ??$_Construct_in_place@HAEBH@std@@YAXAEAHAEBH@Z
_TEXT	SEGMENT
_Obj$ = 8
<_Args_0>$ = 16
??$_Construct_in_place@HAEBH@std@@YAXAEAHAEBH@Z PROC	; std::_Construct_in_place<int,int const &>, COMDAT
; File D:\software\Visual Studio 2022\VC\Tools\MSVC\14.35.32215\include\xutility
; Line 275
	mov	eax, DWORD PTR [rdx]
	mov	DWORD PTR [rcx], eax
; Line 277
	ret	0
??$_Construct_in_place@HAEBH@std@@YAXAEAHAEBH@Z ENDP	; std::_Construct_in_place<int,int const &>
_TEXT	ENDS
; Function compile flags: /Ogtpy
;	COMDAT ??$_Unfancy@H@std@@YAPEAHPEAH@Z
_TEXT	SEGMENT
_Ptr$ = 8
??$_Unfancy@H@std@@YAPEAHPEAH@Z PROC			; std::_Unfancy<int>, COMDAT
; File D:\software\Visual Studio 2022\VC\Tools\MSVC\14.35.32215\include\xstddef
; Line 294
	mov	rax, rcx
; Line 295
	ret	0
??$_Unfancy@H@std@@YAPEAHPEAH@Z ENDP			; std::_Unfancy<int>
_TEXT	ENDS
; Function compile flags: /Ogtpy
;	COMDAT ??$construct@HAEBH@?$_Default_allocator_traits@V?$allocator@H@std@@@std@@SAXAEAV?$allocator@H@1@QEAHAEBH@Z
_TEXT	SEGMENT
__formal$dead$ = 8
_Ptr$ = 16
<_Args_0>$ = 24
??$construct@HAEBH@?$_Default_allocator_traits@V?$allocator@H@std@@@std@@SAXAEAV?$allocator@H@1@QEAHAEBH@Z PROC ; std::_Default_allocator_traits<std::allocator<int> >::construct<int,int const &>, COMDAT
; File D:\software\Visual Studio 2022\VC\Tools\MSVC\14.35.32215\include\xmemory
; Line 680
	mov	eax, DWORD PTR [r8]
	mov	DWORD PTR [rdx], eax
; Line 682
	ret	0
??$construct@HAEBH@?$_Default_allocator_traits@V?$allocator@H@std@@@std@@SAXAEAV?$allocator@H@1@QEAHAEBH@Z ENDP ; std::_Default_allocator_traits<std::allocator<int> >::construct<int,int const &>
_TEXT	ENDS
; Function compile flags: /Ogtpy
;	COMDAT ??$_Get_unwrapped@AEBQEAH@std@@YA?A_TAEBQEAH@Z
_TEXT	SEGMENT
_It$ = 8
??$_Get_unwrapped@AEBQEAH@std@@YA?A_TAEBQEAH@Z PROC	; std::_Get_unwrapped<int * const &>, COMDAT
; File D:\software\Visual Studio 2022\VC\Tools\MSVC\14.35.32215\include\xutility
; Line 959
	mov	rax, QWORD PTR [rcx]
; Line 965
	ret	0
??$_Get_unwrapped@AEBQEAH@std@@YA?A_TAEBQEAH@Z ENDP	; std::_Get_unwrapped<int * const &>
_TEXT	ENDS
; Function compile flags: /Ogtpy
;	COMDAT ??$_Uninitialized_move@PEAHV?$allocator@H@std@@@std@@YAPEAHQEAH0PEAHAEAV?$allocator@H@0@@Z
_TEXT	SEGMENT
_First$ = 48
_Last$ = 56
_Dest$ = 64
_Al$dead$ = 72
??$_Uninitialized_move@PEAHV?$allocator@H@std@@@std@@YAPEAHQEAH0PEAHAEAV?$allocator@H@0@@Z PROC ; std::_Uninitialized_move<int *,std::allocator<int> >, COMDAT
; File D:\software\Visual Studio 2022\VC\Tools\MSVC\14.35.32215\include\xmemory
; Line 1785
$LN16:
	mov	QWORD PTR [rsp+8], rbx
	push	rdi
	sub	rsp, 32					; 00000020H
	mov	rbx, rdx
	mov	rdi, r8
; File D:\software\Visual Studio 2022\VC\Tools\MSVC\14.35.32215\include\xutility
; Line 4238
	sub	rbx, rcx
; Line 4239
	mov	rdx, rcx
	mov	r8, rbx
	mov	rcx, rdi
	call	memmove
; File D:\software\Visual Studio 2022\VC\Tools\MSVC\14.35.32215\include\xmemory
; Line 1798
	sar	rbx, 2
	lea	rax, QWORD PTR [rdi+rbx*4]
; Line 1808
	mov	rbx, QWORD PTR [rsp+48]
	add	rsp, 32					; 00000020H
	pop	rdi
	ret	0
??$_Uninitialized_move@PEAHV?$allocator@H@std@@@std@@YAPEAHQEAH0PEAHAEAV?$allocator@H@0@@Z ENDP ; std::_Uninitialized_move<int *,std::allocator<int> >
_TEXT	ENDS
; Function compile flags: /Ogtpy
;	COMDAT ?_Release@?$_Uninitialized_backout_al@V?$allocator@H@std@@@std@@QEAAPEAHXZ
_TEXT	SEGMENT
this$ = 8
