; Listing generated by Microsoft (R) Optimizing Compiler Version 19.35.32216.1 

include listing.inc

INCLUDELIB OLDNAMES

PUBLIC	??_C@_0P@GHFPNOJB@bad?5allocation@		; `string'
PUBLIC	??_R4randomx_vm@@6B@				; randomx_vm::`RTTI Complete Object Locator'
PUBLIC	_Fenv1
PUBLIC	??_R4?$InterpretedVm@ULargePageAllocator@randomx@@$00@randomx@@6B@ ; randomx::InterpretedVm<randomx::LargePageAllocator,1>::`RTTI Complete Object Locator'
PUBLIC	??_7?$CompiledLightVm@U?$AlignedAllocator@$0EA@@randomx@@$00$00@randomx@@6B@ ; randomx::CompiledLightVm<randomx::AlignedAllocator<64>,1,1>::`vftable'
PUBLIC	??_R2?$CompiledVm@U?$AlignedAllocator@$0EA@@randomx@@$00$00@randomx@@8 ; randomx::CompiledVm<randomx::AlignedAllocator<64>,1,1>::`RTTI Base Class Array'
PUBLIC	??_R0?AV?$CompiledLightVm@U?$AlignedAllocator@$0EA@@randomx@@$00$00@randomx@@@8 ; randomx::CompiledLightVm<randomx::AlignedAllocator<64>,1,1> `RTTI Type Descriptor'
PUBLIC	??_R3?$CompiledLightVm@ULargePageAllocator@randomx@@$0A@$0A@@randomx@@8 ; randomx::CompiledLightVm<randomx::LargePageAllocator,0,0>::`RTTI Class Hierarchy Descriptor'
PUBLIC	??_R4?$VmBase@U?$AlignedAllocator@$0EA@@randomx@@$0A@@randomx@@6B@ ; randomx::VmBase<randomx::AlignedAllocator<64>,0>::`RTTI Complete Object Locator'
PUBLIC	??_R3?$CompiledVm@U?$AlignedAllocator@$0EA@@randomx@@$0A@$00@randomx@@8 ; randomx::CompiledVm<randomx::AlignedAllocator<64>,0,1>::`RTTI Class Hierarchy Descriptor'
PUBLIC	??_R4?$VmBase@ULargePageAllocator@randomx@@$0A@@randomx@@6B@ ; randomx::VmBase<randomx::LargePageAllocator,0>::`RTTI Complete Object Locator'
PUBLIC	??_R1A@?0A@EA@?$CompiledVm@ULargePageAllocator@randomx@@$0A@$00@randomx@@8 ; randomx::CompiledVm<randomx::LargePageAllocator,0,1>::`RTTI Base Class Descriptor at (0,-1,0,64)'
PUBLIC	??_R1A@?0A@EA@?$CompiledVm@ULargePageAllocator@randomx@@$00$0A@@randomx@@8 ; randomx::CompiledVm<randomx::LargePageAllocator,1,0>::`RTTI Base Class Descriptor at (0,-1,0,64)'
PUBLIC	??_R4?$InterpretedVm@ULargePageAllocator@randomx@@$0A@@randomx@@6B@ ; randomx::InterpretedVm<randomx::LargePageAllocator,0>::`RTTI Complete Object Locator'
PUBLIC	??_R4?$InterpretedVm@U?$AlignedAllocator@$0EA@@randomx@@$00@randomx@@6B@ ; randomx::InterpretedVm<randomx::AlignedAllocator<64>,1>::`RTTI Complete Object Locator'
PUBLIC	??_R2?$CompiledVm@ULargePageAllocator@randomx@@$0A@$00@randomx@@8 ; randomx::CompiledVm<randomx::LargePageAllocator,0,1>::`RTTI Base Class Array'
PUBLIC	??_R4?$CompiledLightVm@ULargePageAllocator@randomx@@$00$00@randomx@@6B@ ; randomx::CompiledLightVm<randomx::LargePageAllocator,1,1>::`RTTI Complete Object Locator'
PUBLIC	??_R3?$CompiledVm@ULargePageAllocator@randomx@@$0A@$00@randomx@@8 ; randomx::CompiledVm<randomx::LargePageAllocator,0,1>::`RTTI Class Hierarchy Descriptor'
PUBLIC	??_R0?AV?$CompiledLightVm@U?$AlignedAllocator@$0EA@@randomx@@$0A@$00@randomx@@@8 ; randomx::CompiledLightVm<randomx::AlignedAllocator<64>,0,1> `RTTI Type Descriptor'
PUBLIC	??_7?$InterpretedLightVm@U?$AlignedAllocator@$0EA@@randomx@@$0A@@randomx@@6B@ ; randomx::InterpretedLightVm<randomx::AlignedAllocator<64>,0>::`vftable'
PUBLIC	??_R1A@?0A@EA@?$InterpretedVm@U?$AlignedAllocator@$0EA@@randomx@@$00@randomx@@8 ; randomx::InterpretedVm<randomx::AlignedAllocator<64>,1>::`RTTI Base Class Descriptor at (0,-1,0,64)'
PUBLIC	??_R2?$InterpretedVm@ULargePageAllocator@randomx@@$0A@@randomx@@8 ; randomx::InterpretedVm<randomx::LargePageAllocator,0>::`RTTI Base Class Array'
PUBLIC	??_7?$InterpretedLightVm@U?$AlignedAllocator@$0EA@@randomx@@$00@randomx@@6B@ ; randomx::InterpretedLightVm<randomx::AlignedAllocator<64>,1>::`vftable'
PUBLIC	??_R1A@?0A@EA@?$CompiledLightVm@ULargePageAllocator@randomx@@$0A@$00@randomx@@8 ; randomx::CompiledLightVm<randomx::LargePageAllocator,0,1>::`RTTI Base Class Descriptor at (0,-1,0,64)'
PUBLIC	??_R2?$InterpretedVm@U?$AlignedAllocator@$0EA@@randomx@@$00@randomx@@8 ; randomx::InterpretedVm<randomx::AlignedAllocator<64>,1>::`RTTI Base Class Array'
PUBLIC	??_R3?$CompiledLightVm@U?$AlignedAllocator@$0EA@@randomx@@$0A@$00@randomx@@8 ; randomx::CompiledLightVm<randomx::AlignedAllocator<64>,0,1>::`RTTI Class Hierarchy Descriptor'
PUBLIC	??_R4?$InterpretedLightVm@ULargePageAllocator@randomx@@$00@randomx@@6B@ ; randomx::InterpretedLightVm<randomx::LargePageAllocator,1>::`RTTI Complete Object Locator'
PUBLIC	??_R3?$CompiledLightVm@U?$AlignedAllocator@$0EA@@randomx@@$00$0A@@randomx@@8 ; randomx::CompiledLightVm<randomx::AlignedAllocator<64>,1,0>::`RTTI Class Hierarchy Descriptor'
PUBLIC	??_R0?AVBytecodeMachine@randomx@@@8		; randomx::BytecodeMachine `RTTI Type Descriptor'
PUBLIC	??_R0?AV?$VmBase@U?$AlignedAllocator@$0EA@@randomx@@$00@randomx@@@8 ; randomx::VmBase<randomx::AlignedAllocator<64>,1> `RTTI Type Descriptor'
PUBLIC	??_R0?AV?$InterpretedLightVm@ULargePageAllocator@randomx@@$0A@@randomx@@@8 ; randomx::InterpretedLightVm<randomx::LargePageAllocator,0> `RTTI Type Descriptor'
PUBLIC	??_R0?AV?$VmBase@ULargePageAllocator@randomx@@$0A@@randomx@@@8 ; randomx::VmBase<randomx::LargePageAllocator,0> `RTTI Type Descriptor'
PUBLIC	??_R0?AV?$CompiledVm@ULargePageAllocator@randomx@@$00$00@randomx@@@8 ; randomx::CompiledVm<randomx::LargePageAllocator,1,1> `RTTI Type Descriptor'
PUBLIC	??_R1A@?0A@EA@?$InterpretedLightVm@ULargePageAllocator@randomx@@$0A@@randomx@@8 ; randomx::InterpretedLightVm<randomx::LargePageAllocator,0>::`RTTI Base Class Descriptor at (0,-1,0,64)'
PUBLIC	??_R4?$InterpretedLightVm@U?$AlignedAllocator@$0EA@@randomx@@$00@randomx@@6B@ ; randomx::InterpretedLightVm<randomx::AlignedAllocator<64>,1>::`RTTI Complete Object Locator'
PUBLIC	??_R2?$VmBase@ULargePageAllocator@randomx@@$0A@@randomx@@8 ; randomx::VmBase<randomx::LargePageAllocator,0>::`RTTI Base Class Array'
PUBLIC	??_R4?$InterpretedVm@U?$AlignedAllocator@$0EA@@randomx@@$0A@@randomx@@6B@ ; randomx::InterpretedVm<randomx::AlignedAllocator<64>,0>::`RTTI Complete Object Locator'
PUBLIC	??_R3?$CompiledVm@U?$AlignedAllocator@$0EA@@randomx@@$00$0A@@randomx@@8 ; randomx::CompiledVm<randomx::AlignedAllocator<64>,1,0>::`RTTI Class Hierarchy Descriptor'
PUBLIC	??_R0?AV?$CompiledVm@ULargePageAllocator@randomx@@$0A@$0A@@randomx@@@8 ; randomx::CompiledVm<randomx::LargePageAllocator,0,0> `RTTI Type Descriptor'
PUBLIC	??_R4?$InterpretedLightVm@ULargePageAllocator@randomx@@$0A@@randomx@@6B@ ; randomx::InterpretedLightVm<randomx::LargePageAllocator,0>::`RTTI Complete Object Locator'
PUBLIC	??_R4?$CompiledLightVm@ULargePageAllocator@randomx@@$00$0A@@randomx@@6B@ ; randomx::CompiledLightVm<randomx::LargePageAllocator,1,0>::`RTTI Complete Object Locator'
PUBLIC	??_R0?AV?$VmBase@U?$AlignedAllocator@$0EA@@randomx@@$0A@@randomx@@@8 ; randomx::VmBase<randomx::AlignedAllocator<64>,0> `RTTI Type Descriptor'
PUBLIC	??_7?$InterpretedLightVm@ULargePageAllocator@randomx@@$00@randomx@@6B@ ; randomx::InterpretedLightVm<randomx::LargePageAllocator,1>::`vftable'
PUBLIC	??_R0?AV?$InterpretedLightVm@ULargePageAllocator@randomx@@$00@randomx@@@8 ; randomx::InterpretedLightVm<randomx::LargePageAllocator,1> `RTTI Type Descriptor'
PUBLIC	??_R4?$CompiledLightVm@ULargePageAllocator@randomx@@$0A@$0A@@randomx@@6B@ ; randomx::CompiledLightVm<randomx::LargePageAllocator,0,0>::`RTTI Complete Object Locator'
PUBLIC	??_R0?AV?$InterpretedVm@ULargePageAllocator@randomx@@$00@randomx@@@8 ; randomx::InterpretedVm<randomx::LargePageAllocator,1> `RTTI Type Descriptor'
PUBLIC	??_R3?$CompiledVm@ULargePageAllocator@randomx@@$00$00@randomx@@8 ; randomx::CompiledVm<randomx::LargePageAllocator,1,1>::`RTTI Class Hierarchy Descriptor'
PUBLIC	??_R1A@?0A@EA@?$CompiledVm@U?$AlignedAllocator@$0EA@@randomx@@$00$00@randomx@@8 ; randomx::CompiledVm<randomx::AlignedAllocator<64>,1,1>::`RTTI Base Class Descriptor at (0,-1,0,64)'
PUBLIC	??_R3?$CompiledVm@ULargePageAllocator@randomx@@$00$0A@@randomx@@8 ; randomx::CompiledVm<randomx::LargePageAllocator,1,0>::`RTTI Class Hierarchy Descriptor'
PUBLIC	??_R0?AV?$InterpretedVm@ULargePageAllocator@randomx@@$0A@@randomx@@@8 ; randomx::InterpretedVm<randomx::LargePageAllocator,0> `RTTI Type Descriptor'
PUBLIC	??_R0?AV?$CompiledVm@ULargePageAllocator@randomx@@$0A@$00@randomx@@@8 ; randomx::CompiledVm<randomx::LargePageAllocator,0,1> `RTTI Type Descriptor'
PUBLIC	??_R0?AV?$CompiledLightVm@U?$AlignedAllocator@$0EA@@randomx@@$00$0A@@randomx@@@8 ; randomx::CompiledLightVm<randomx::AlignedAllocator<64>,1,0> `RTTI Type Descriptor'
PUBLIC	??_R3?$VmBase@ULargePageAllocator@randomx@@$00@randomx@@8 ; randomx::VmBase<randomx::LargePageAllocator,1>::`RTTI Class Hierarchy Descriptor'
PUBLIC	??_R2?$CompiledLightVm@ULargePageAllocator@randomx@@$00$0A@@randomx@@8 ; randomx::CompiledLightVm<randomx::LargePageAllocator,1,0>::`RTTI Base Class Array'
PUBLIC	??_R1A@?0A@EA@?$InterpretedVm@U?$AlignedAllocator@$0EA@@randomx@@$0A@@randomx@@8 ; randomx::InterpretedVm<randomx::AlignedAllocator<64>,0>::`RTTI Base Class Descriptor at (0,-1,0,64)'
PUBLIC	??_R1A@?0A@EA@?$CompiledVm@ULargePageAllocator@randomx@@$00$00@randomx@@8 ; randomx::CompiledVm<randomx::LargePageAllocator,1,1>::`RTTI Base Class Descriptor at (0,-1,0,64)'
PUBLIC	??_R0?AV?$CompiledLightVm@ULargePageAllocator@randomx@@$00$00@randomx@@@8 ; randomx::CompiledLightVm<randomx::LargePageAllocator,1,1> `RTTI Type Descriptor'
PUBLIC	??_R1A@?0A@EA@?$VmBase@U?$AlignedAllocator@$0EA@@randomx@@$00@randomx@@8 ; randomx::VmBase<randomx::AlignedAllocator<64>,1>::`RTTI Base Class Descriptor at (0,-1,0,64)'
PUBLIC	??_R2?$VmBase@ULargePageAllocator@randomx@@$00@randomx@@8 ; randomx::VmBase<randomx::LargePageAllocator,1>::`RTTI Base Class Array'
PUBLIC	??_R3randomx_vm@@8				; randomx_vm::`RTTI Class Hierarchy Descriptor'
PUBLIC	??_R1A@?0A@EA@?$CompiledVm@U?$AlignedAllocator@$0EA@@randomx@@$0A@$00@randomx@@8 ; randomx::CompiledVm<randomx::AlignedAllocator<64>,0,1>::`RTTI Base Class Descriptor at (0,-1,0,64)'
PUBLIC	??_R2?$CompiledLightVm@U?$AlignedAllocator@$0EA@@randomx@@$0A@$0A@@randomx@@8 ; randomx::CompiledLightVm<randomx::AlignedAllocator<64>,0,0>::`RTTI Base Class Array'
PUBLIC	??_R1A@?0A@EA@?$CompiledLightVm@U?$AlignedAllocator@$0EA@@randomx@@$00$0A@@randomx@@8 ; randomx::CompiledLightVm<randomx::AlignedAllocator<64>,1,0>::`RTTI Base Class Descriptor at (0,-1,0,64)'
PUBLIC	??_R1A@?0A@EA@?$CompiledLightVm@U?$AlignedAllocator@$0EA@@randomx@@$00$00@randomx@@8 ; randomx::CompiledLightVm<randomx::AlignedAllocator<64>,1,1>::`RTTI Base Class Descriptor at (0,-1,0,64)'
PUBLIC	??_7?$CompiledLightVm@ULargePageAllocator@randomx@@$00$0A@@randomx@@6B@ ; randomx::CompiledLightVm<randomx::LargePageAllocator,1,0>::`vftable'
PUBLIC	??_R2?$InterpretedLightVm@ULargePageAllocator@randomx@@$00@randomx@@8 ; randomx::InterpretedLightVm<randomx::LargePageAllocator,1>::`RTTI Base Class Array'
PUBLIC	??_R0?AV?$InterpretedLightVm@U?$AlignedAllocator@$0EA@@randomx@@$00@randomx@@@8 ; randomx::InterpretedLightVm<randomx::AlignedAllocator<64>,1> `RTTI Type Descriptor'
PUBLIC	??_7?$InterpretedVm@U?$AlignedAllocator@$0EA@@randomx@@$00@randomx@@6B@ ; randomx::InterpretedVm<randomx::AlignedAllocator<64>,1>::`vftable'
PUBLIC	??_R2?$CompiledLightVm@U?$AlignedAllocator@$0EA@@randomx@@$00$00@randomx@@8 ; randomx::CompiledLightVm<randomx::AlignedAllocator<64>,1,1>::`RTTI Base Class Array'
PUBLIC	??_R2?$CompiledVm@ULargePageAllocator@randomx@@$00$0A@@randomx@@8 ; randomx::CompiledVm<randomx::LargePageAllocator,1,0>::`RTTI Base Class Array'
PUBLIC	??_R1A@?0A@EA@?$InterpretedVm@ULargePageAllocator@randomx@@$0A@@randomx@@8 ; randomx::InterpretedVm<randomx::LargePageAllocator,0>::`RTTI Base Class Descriptor at (0,-1,0,64)'
PUBLIC	??_R4?$CompiledLightVm@ULargePageAllocator@randomx@@$0A@$00@randomx@@6B@ ; randomx::CompiledLightVm<randomx::LargePageAllocator,0,1>::`RTTI Complete Object Locator'
PUBLIC	??_R0?AV?$CompiledVm@U?$AlignedAllocator@$0EA@@randomx@@$00$0A@@randomx@@@8 ; randomx::CompiledVm<randomx::AlignedAllocator<64>,1,0> `RTTI Type Descriptor'
PUBLIC	??_R2?$CompiledVm@ULargePageAllocator@randomx@@$00$00@randomx@@8 ; randomx::CompiledVm<randomx::LargePageAllocator,1,1>::`RTTI Base Class Array'
PUBLIC	??_R0?AV?$CompiledLightVm@ULargePageAllocator@randomx@@$0A@$0A@@randomx@@@8 ; randomx::CompiledLightVm<randomx::LargePageAllocator,0,0> `RTTI Type Descriptor'
PUBLIC	??_R0?AV?$CompiledLightVm@U?$AlignedAllocator@$0EA@@randomx@@$0A@$0A@@randomx@@@8 ; randomx::CompiledLightVm<randomx::AlignedAllocator<64>,0,0> `RTTI Type Descriptor'
PUBLIC	??_R1A@?0A@EA@BytecodeMachine@randomx@@8	; randomx::BytecodeMachine::`RTTI Base Class Descriptor at (0,-1,0,64)'
PUBLIC	??_R2?$CompiledLightVm@ULargePageAllocator@randomx@@$0A@$00@randomx@@8 ; randomx::CompiledLightVm<randomx::LargePageAllocator,0,1>::`RTTI Base Class Array'
PUBLIC	??_R4?$CompiledLightVm@U?$AlignedAllocator@$0EA@@randomx@@$00$00@randomx@@6B@ ; randomx::CompiledLightVm<randomx::AlignedAllocator<64>,1,1>::`RTTI Complete Object Locator'
PUBLIC	??_R3?$InterpretedLightVm@ULargePageAllocator@randomx@@$00@randomx@@8 ; randomx::InterpretedLightVm<randomx::LargePageAllocator,1>::`RTTI Class Hierarchy Descriptor'
PUBLIC	??_R2?$CompiledLightVm@ULargePageAllocator@randomx@@$00$00@randomx@@8 ; randomx::CompiledLightVm<randomx::LargePageAllocator,1,1>::`RTTI Base Class Array'
PUBLIC	??_R2?$CompiledVm@U?$AlignedAllocator@$0EA@@randomx@@$0A@$0A@@randomx@@8 ; randomx::CompiledVm<randomx::AlignedAllocator<64>,0,0>::`RTTI Base Class Array'
PUBLIC	??_R2BytecodeMachine@randomx@@8			; randomx::BytecodeMachine::`RTTI Base Class Array'
PUBLIC	??_R3?$CompiledVm@U?$AlignedAllocator@$0EA@@randomx@@$0A@$0A@@randomx@@8 ; randomx::CompiledVm<randomx::AlignedAllocator<64>,0,0>::`RTTI Class Hierarchy Descriptor'
PUBLIC	??_R2?$CompiledVm@ULargePageAllocator@randomx@@$0A@$0A@@randomx@@8 ; randomx::CompiledVm<randomx::LargePageAllocator,0,0>::`RTTI Base Class Array'
PUBLIC	??_R2?$CompiledLightVm@ULargePageAllocator@randomx@@$0A@$0A@@randomx@@8 ; randomx::CompiledLightVm<randomx::LargePageAllocator,0,0>::`RTTI Base Class Array'
PUBLIC	??_R3?$InterpretedVm@U?$AlignedAllocator@$0EA@@randomx@@$0A@@randomx@@8 ; randomx::InterpretedVm<randomx::AlignedAllocator<64>,0>::`RTTI Class Hierarchy Descriptor'
PUBLIC	??_R0?AV?$CompiledVm@ULargePageAllocator@randomx@@$00$0A@@randomx@@@8 ; randomx::CompiledVm<randomx::LargePageAllocator,1,0> `RTTI Type Descriptor'
PUBLIC	??_7?$InterpretedLightVm@ULargePageAllocator@randomx@@$0A@@randomx@@6B@ ; randomx::InterpretedLightVm<randomx::LargePageAllocator,0>::`vftable'
PUBLIC	??_R0?AV?$InterpretedLightVm@U?$AlignedAllocator@$0EA@@randomx@@$0A@@randomx@@@8 ; randomx::InterpretedLightVm<randomx::AlignedAllocator<64>,0> `RTTI Type Descriptor'
PUBLIC	??_R1A@?0A@EA@?$VmBase@ULargePageAllocator@randomx@@$00@randomx@@8 ; randomx::VmBase<randomx::LargePageAllocator,1>::`RTTI Base Class Descriptor at (0,-1,0,64)'
PUBLIC	??_7?$VmBase@U?$AlignedAllocator@$0EA@@randomx@@$0A@@randomx@@6B@ ; randomx::VmBase<randomx::AlignedAllocator<64>,0>::`vftable'
PUBLIC	??_R3?$CompiledLightVm@U?$AlignedAllocator@$0EA@@randomx@@$0A@$0A@@randomx@@8 ; randomx::CompiledLightVm<randomx::AlignedAllocator<64>,0,0>::`RTTI Class Hierarchy Descriptor'
PUBLIC	??_7?$CompiledLightVm@ULargePageAllocator@randomx@@$0A@$0A@@randomx@@6B@ ; randomx::CompiledLightVm<randomx::LargePageAllocator,0,0>::`vftable'
PUBLIC	??_7?$VmBase@U?$AlignedAllocator@$0EA@@randomx@@$00@randomx@@6B@ ; randomx::VmBase<randomx::AlignedAllocator<64>,1>::`vftable'
PUBLIC	??_R3?$CompiledVm@ULargePageAllocator@randomx@@$0A@$0A@@randomx@@8 ; randomx::CompiledVm<randomx::LargePageAllocator,0,0>::`RTTI Class Hierarchy Descriptor'
PUBLIC	??_R3?$InterpretedVm@ULargePageAllocator@randomx@@$00@randomx@@8 ; randomx::InterpretedVm<randomx::LargePageAllocator,1>::`RTTI Class Hierarchy Descriptor'
PUBLIC	??_R2randomx_vm@@8				; randomx_vm::`RTTI Base Class Array'
PUBLIC	??_R3?$InterpretedVm@ULargePageAllocator@randomx@@$0A@@randomx@@8 ; randomx::InterpretedVm<randomx::LargePageAllocator,0>::`RTTI Class Hierarchy Descriptor'
PUBLIC	_CTA2?AVbad_alloc@std@@
PUBLIC	??_R3?$CompiledLightVm@ULargePageAllocator@randomx@@$0A@$00@randomx@@8 ; randomx::CompiledLightVm<randomx::LargePageAllocator,0,1>::`RTTI Class Hierarchy Descriptor'
PUBLIC	??_7?$CompiledLightVm@ULargePageAllocator@randomx@@$0A@$00@randomx@@6B@ ; randomx::CompiledLightVm<randomx::LargePageAllocator,0,1>::`vftable'
PUBLIC	??_R0?AV?$CompiledLightVm@ULargePageAllocator@randomx@@$0A@$00@randomx@@@8 ; randomx::CompiledLightVm<randomx::LargePageAllocator,0,1> `RTTI Type Descriptor'
PUBLIC	??_R1A@?0A@EA@?$CompiledLightVm@ULargePageAllocator@randomx@@$0A@$0A@@randomx@@8 ; randomx::CompiledLightVm<randomx::LargePageAllocator,0,0>::`RTTI Base Class Descriptor at (0,-1,0,64)'
PUBLIC	??_R0?AV?$VmBase@ULargePageAllocator@randomx@@$00@randomx@@@8 ; randomx::VmBase<randomx::LargePageAllocator,1> `RTTI Type Descriptor'
PUBLIC	??_R3?$VmBase@U?$AlignedAllocator@$0EA@@randomx@@$0A@@randomx@@8 ; randomx::VmBase<randomx::AlignedAllocator<64>,0>::`RTTI Class Hierarchy Descriptor'
PUBLIC	??_R1A@?0A@EA@?$InterpretedVm@ULargePageAllocator@randomx@@$00@randomx@@8 ; randomx::InterpretedVm<randomx::LargePageAllocator,1>::`RTTI Base Class Descriptor at (0,-1,0,64)'
PUBLIC	??_R3?$CompiledLightVm@ULargePageAllocator@randomx@@$00$00@randomx@@8 ; randomx::CompiledLightVm<randomx::LargePageAllocator,1,1>::`RTTI Class Hierarchy Descriptor'
PUBLIC	??_R2?$VmBase@U?$AlignedAllocator@$0EA@@randomx@@$00@randomx@@8 ; randomx::VmBase<randomx::AlignedAllocator<64>,1>::`RTTI Base Class Array'
PUBLIC	??_R4?$CompiledLightVm@U?$AlignedAllocator@$0EA@@randomx@@$00$0A@@randomx@@6B@ ; randomx::CompiledLightVm<randomx::AlignedAllocator<64>,1,0>::`RTTI Complete Object Locator'
PUBLIC	??_R1A@?0A@EA@randomx_vm@@8			; randomx_vm::`RTTI Base Class Descriptor at (0,-1,0,64)'
PUBLIC	??_R1KIA@?0A@EA@BytecodeMachine@randomx@@8	; randomx::BytecodeMachine::`RTTI Base Class Descriptor at (2688,-1,0,64)'
PUBLIC	??_7?$CompiledLightVm@U?$AlignedAllocator@$0EA@@randomx@@$0A@$0A@@randomx@@6B@ ; randomx::CompiledLightVm<randomx::AlignedAllocator<64>,0,0>::`vftable'
PUBLIC	??_R1A@?0A@EA@?$CompiledVm@U?$AlignedAllocator@$0EA@@randomx@@$00$0A@@randomx@@8 ; randomx::CompiledVm<randomx::AlignedAllocator<64>,1,0>::`RTTI Base Class Descriptor at (0,-1,0,64)'
PUBLIC	??_R3?$VmBase@U?$AlignedAllocator@$0EA@@randomx@@$00@randomx@@8 ; randomx::VmBase<randomx::AlignedAllocator<64>,1>::`RTTI Class Hierarchy Descriptor'
PUBLIC	??_R1A@?0A@EA@?$CompiledVm@U?$AlignedAllocator@$0EA@@randomx@@$0A@$0A@@randomx@@8 ; randomx::CompiledVm<randomx::AlignedAllocator<64>,0,0>::`RTTI Base Class Descriptor at (0,-1,0,64)'
PUBLIC	??_R1A@?0A@EA@?$CompiledLightVm@ULargePageAllocator@randomx@@$00$00@randomx@@8 ; randomx::CompiledLightVm<randomx::LargePageAllocator,1,1>::`RTTI Base Class Descriptor at (0,-1,0,64)'
PUBLIC	??_R0?AV?$CompiledVm@U?$AlignedAllocator@$0EA@@randomx@@$0A@$0A@@randomx@@@8 ; randomx::CompiledVm<randomx::AlignedAllocator<64>,0,0> `RTTI Type Descriptor'
PUBLIC	??_R3?$VmBase@ULargePageAllocator@randomx@@$0A@@randomx@@8 ; randomx::VmBase<randomx::LargePageAllocator,0>::`RTTI Class Hierarchy Descriptor'
PUBLIC	??_7?$VmBase@ULargePageAllocator@randomx@@$0A@@randomx@@6B@ ; randomx::VmBase<randomx::LargePageAllocator,0>::`vftable'
PUBLIC	??_R2?$InterpretedLightVm@U?$AlignedAllocator@$0EA@@randomx@@$0A@@randomx@@8 ; randomx::InterpretedLightVm<randomx::AlignedAllocator<64>,0>::`RTTI Base Class Array'
PUBLIC	??_R2?$InterpretedLightVm@ULargePageAllocator@randomx@@$0A@@randomx@@8 ; randomx::InterpretedLightVm<randomx::LargePageAllocator,0>::`RTTI Base Class Array'
PUBLIC	??_R3?$InterpretedVm@U?$AlignedAllocator@$0EA@@randomx@@$00@randomx@@8 ; randomx::InterpretedVm<randomx::AlignedAllocator<64>,1>::`RTTI Class Hierarchy Descriptor'
PUBLIC	??_7?$CompiledLightVm@ULargePageAllocator@randomx@@$00$00@randomx@@6B@ ; randomx::CompiledLightVm<randomx::LargePageAllocator,1,1>::`vftable'
PUBLIC	??_R1A@?0A@EA@?$VmBase@U?$AlignedAllocator@$0EA@@randomx@@$0A@@randomx@@8 ; randomx::VmBase<randomx::AlignedAllocator<64>,0>::`RTTI Base Class Descriptor at (0,-1,0,64)'
PUBLIC	??_7?$VmBase@ULargePageAllocator@randomx@@$00@randomx@@6B@ ; randomx::VmBase<randomx::LargePageAllocator,1>::`vftable'
PUBLIC	??_R0?AV?$InterpretedVm@U?$AlignedAllocator@$0EA@@randomx@@$0A@@randomx@@@8 ; randomx::InterpretedVm<randomx::AlignedAllocator<64>,0> `RTTI Type Descriptor'
PUBLIC	??_R0?AV?$CompiledVm@U?$AlignedAllocator@$0EA@@randomx@@$0A@$00@randomx@@@8 ; randomx::CompiledVm<randomx::AlignedAllocator<64>,0,1> `RTTI Type Descriptor'
PUBLIC	??_R0?AVrandomx_vm@@@8				; randomx_vm `RTTI Type Descriptor'
PUBLIC	??_R4?$CompiledLightVm@U?$AlignedAllocator@$0EA@@randomx@@$0A@$00@randomx@@6B@ ; randomx::CompiledLightVm<randomx::AlignedAllocator<64>,0,1>::`RTTI Complete Object Locator'
PUBLIC	??_R4?$InterpretedLightVm@U?$AlignedAllocator@$0EA@@randomx@@$0A@@randomx@@6B@ ; randomx::InterpretedLightVm<randomx::AlignedAllocator<64>,0>::`RTTI Complete Object Locator'
PUBLIC	??_R3?$CompiledLightVm@U?$AlignedAllocator@$0EA@@randomx@@$00$00@randomx@@8 ; randomx::CompiledLightVm<randomx::AlignedAllocator<64>,1,1>::`RTTI Class Hierarchy Descriptor'
PUBLIC	??_R1A@?0A@EA@?$CompiledLightVm@U?$AlignedAllocator@$0EA@@randomx@@$0A@$0A@@randomx@@8 ; randomx::CompiledLightVm<randomx::AlignedAllocator<64>,0,0>::`RTTI Base Class Descriptor at (0,-1,0,64)'
PUBLIC	??_R2?$CompiledLightVm@U?$AlignedAllocator@$0EA@@randomx@@$0A@$00@randomx@@8 ; randomx::CompiledLightVm<randomx::AlignedAllocator<64>,0,1>::`RTTI Base Class Array'
PUBLIC	??_R3?$CompiledVm@U?$AlignedAllocator@$0EA@@randomx@@$00$00@randomx@@8 ; randomx::CompiledVm<randomx::AlignedAllocator<64>,1,1>::`RTTI Class Hierarchy Descriptor'
PUBLIC	??_R3BytecodeMachine@randomx@@8			; randomx::BytecodeMachine::`RTTI Class Hierarchy Descriptor'
PUBLIC	??_R3?$InterpretedLightVm@U?$AlignedAllocator@$0EA@@randomx@@$00@randomx@@8 ; randomx::InterpretedLightVm<randomx::AlignedAllocator<64>,1>::`RTTI Class Hierarchy Descriptor'
PUBLIC	??_R1A@?0A@EA@?$InterpretedLightVm@U?$AlignedAllocator@$0EA@@randomx@@$00@randomx@@8 ; randomx::InterpretedLightVm<randomx::AlignedAllocator<64>,1>::`RTTI Base Class Descriptor at (0,-1,0,64)'
PUBLIC	??_R1A@?0A@EA@?$CompiledVm@ULargePageAllocator@randomx@@$0A@$0A@@randomx@@8 ; randomx::CompiledVm<randomx::LargePageAllocator,0,0>::`RTTI Base Class Descriptor at (0,-1,0,64)'
PUBLIC	??_7?$CompiledLightVm@U?$AlignedAllocator@$0EA@@randomx@@$0A@$00@randomx@@6B@ ; randomx::CompiledLightVm<randomx::AlignedAllocator<64>,0,1>::`vftable'
PUBLIC	??_R0?AV?$InterpretedVm@U?$AlignedAllocator@$0EA@@randomx@@$00@randomx@@@8 ; randomx::InterpretedVm<randomx::AlignedAllocator<64>,1> `RTTI Type Descriptor'
PUBLIC	??_R3?$InterpretedLightVm@U?$AlignedAllocator@$0EA@@randomx@@$0A@@randomx@@8 ; randomx::InterpretedLightVm<randomx::AlignedAllocator<64>,0>::`RTTI Class Hierarchy Descriptor'
PUBLIC	??_7?$InterpretedVm@U?$AlignedAllocator@$0EA@@randomx@@$0A@@randomx@@6B@ ; randomx::InterpretedVm<randomx::AlignedAllocator<64>,0>::`vftable'
PUBLIC	??_7?$InterpretedVm@ULargePageAllocator@randomx@@$00@randomx@@6B@ ; randomx::InterpretedVm<randomx::LargePageAllocator,1>::`vftable'
PUBLIC	??_7?$InterpretedVm@ULargePageAllocator@randomx@@$0A@@randomx@@6B@ ; randomx::InterpretedVm<randomx::LargePageAllocator,0>::`vftable'
PUBLIC	??_R1A@?0A@EA@?$VmBase@ULargePageAllocator@randomx@@$0A@@randomx@@8 ; randomx::VmBase<randomx::LargePageAllocator,0>::`RTTI Base Class Descriptor at (0,-1,0,64)'
PUBLIC	??_R3?$CompiledLightVm@ULargePageAllocator@randomx@@$00$0A@@randomx@@8 ; randomx::CompiledLightVm<randomx::LargePageAllocator,1,0>::`RTTI Class Hierarchy Descriptor'
PUBLIC	??_R4?$VmBase@ULargePageAllocator@randomx@@$00@randomx@@6B@ ; randomx::VmBase<randomx::LargePageAllocator,1>::`RTTI Complete Object Locator'
PUBLIC	??_R4?$VmBase@U?$AlignedAllocator@$0EA@@randomx@@$00@randomx@@6B@ ; randomx::VmBase<randomx::AlignedAllocator<64>,1>::`RTTI Complete Object Locator'
PUBLIC	??_R1A@?0A@EA@?$CompiledLightVm@ULargePageAllocator@randomx@@$00$0A@@randomx@@8 ; randomx::CompiledLightVm<randomx::LargePageAllocator,1,0>::`RTTI Base Class Descriptor at (0,-1,0,64)'
PUBLIC	??_R1A@?0A@EA@?$InterpretedLightVm@ULargePageAllocator@randomx@@$00@randomx@@8 ; randomx::InterpretedLightVm<randomx::LargePageAllocator,1>::`RTTI Base Class Descriptor at (0,-1,0,64)'
PUBLIC	??_R0?AV?$CompiledVm@U?$AlignedAllocator@$0EA@@randomx@@$00$00@randomx@@@8 ; randomx::CompiledVm<randomx::AlignedAllocator<64>,1,1> `RTTI Type Descriptor'
PUBLIC	??_R2?$CompiledLightVm@U?$AlignedAllocator@$0EA@@randomx@@$00$0A@@randomx@@8 ; randomx::CompiledLightVm<randomx::AlignedAllocator<64>,1,0>::`RTTI Base Class Array'
PUBLIC	??_R4?$CompiledLightVm@U?$AlignedAllocator@$0EA@@randomx@@$0A@$0A@@randomx@@6B@ ; randomx::CompiledLightVm<randomx::AlignedAllocator<64>,0,0>::`RTTI Complete Object Locator'
PUBLIC	??_R2?$InterpretedVm@ULargePageAllocator@randomx@@$00@randomx@@8 ; randomx::InterpretedVm<randomx::LargePageAllocator,1>::`RTTI Base Class Array'
PUBLIC	??_7?$CompiledLightVm@U?$AlignedAllocator@$0EA@@randomx@@$00$0A@@randomx@@6B@ ; randomx::CompiledLightVm<randomx::AlignedAllocator<64>,1,0>::`vftable'
PUBLIC	??_R3?$InterpretedLightVm@ULargePageAllocator@randomx@@$0A@@randomx@@8 ; randomx::InterpretedLightVm<randomx::LargePageAllocator,0>::`RTTI Class Hierarchy Descriptor'
PUBLIC	??_R2?$CompiledVm@U?$AlignedAllocator@$0EA@@randomx@@$00$0A@@randomx@@8 ; randomx::CompiledVm<randomx::AlignedAllocator<64>,1,0>::`RTTI Base Class Array'
PUBLIC	??_R2?$InterpretedLightVm@U?$AlignedAllocator@$0EA@@randomx@@$00@randomx@@8 ; randomx::InterpretedLightVm<randomx::AlignedAllocator<64>,1>::`RTTI Base Class Array'
PUBLIC	_TI2?AVbad_alloc@std@@
PUBLIC	??_R1A@?0A@EA@?$CompiledLightVm@U?$AlignedAllocator@$0EA@@randomx@@$0A@$00@randomx@@8 ; randomx::CompiledLightVm<randomx::AlignedAllocator<64>,0,1>::`RTTI Base Class Descriptor at (0,-1,0,64)'
PUBLIC	??_R2?$VmBase@U?$AlignedAllocator@$0EA@@randomx@@$0A@@randomx@@8 ; randomx::VmBase<randomx::AlignedAllocator<64>,0>::`RTTI Base Class Array'
PUBLIC	??_7randomx_vm@@6B@				; randomx_vm::`vftable'
PUBLIC	??_R2?$InterpretedVm@U?$AlignedAllocator@$0EA@@randomx@@$0A@@randomx@@8 ; randomx::InterpretedVm<randomx::AlignedAllocator<64>,0>::`RTTI Base Class Array'
PUBLIC	??_R1A@?0A@EA@?$InterpretedLightVm@U?$AlignedAllocator@$0EA@@randomx@@$0A@@randomx@@8 ; randomx::InterpretedLightVm<randomx::AlignedAllocator<64>,0>::`RTTI Base Class Descriptor at (0,-1,0,64)'
PUBLIC	??_R0?AV?$CompiledLightVm@ULargePageAllocator@randomx@@$00$0A@@randomx@@@8 ; randomx::CompiledLightVm<randomx::LargePageAllocator,1,0> `RTTI Type Descriptor'
PUBLIC	??_R2?$CompiledVm@U?$AlignedAllocator@$0EA@@randomx@@$0A@$00@randomx@@8 ; randomx::CompiledVm<randomx::AlignedAllocator<64>,0,1>::`RTTI Base Class Array'
EXTRN	fesetenv:PROC
EXTRN	fegetenv:PROC
;	COMDAT ??_R2?$CompiledVm@U?$AlignedAllocator@$0EA@@randomx@@$0A@$00@randomx@@8
rdata$r	SEGMENT
??_R2?$CompiledVm@U?$AlignedAllocator@$0EA@@randomx@@$0A@$00@randomx@@8 DD imagerel ??_R1A@?0A@EA@?$CompiledVm@U?$AlignedAllocator@$0EA@@randomx@@$0A@$00@randomx@@8 ; randomx::CompiledVm<randomx::AlignedAllocator<64>,0,1>::`RTTI Base Class Array'
	DD	imagerel ??_R1A@?0A@EA@?$VmBase@U?$AlignedAllocator@$0EA@@randomx@@$0A@@randomx@@8
	DD	imagerel ??_R1A@?0A@EA@randomx_vm@@8
	ORG $+3
rdata$r	ENDS
;	COMDAT ??_R0?AV?$CompiledLightVm@ULargePageAllocator@randomx@@$00$0A@@randomx@@@8
data$rs	SEGMENT
??_R0?AV?$CompiledLightVm@ULargePageAllocator@randomx@@$00$0A@@randomx@@@8 DQ FLAT:??_7type_info@@6B@ ; randomx::CompiledLightVm<randomx::LargePageAllocator,1,0> `RTTI Type Descriptor'
	DQ	0000000000000000H
	DB	'.?AV?$CompiledLightVm@ULargePageAllocator@randomx@@$00$0'
	DB	'A@@randomx@@', 00H
data$rs	ENDS
;	COMDAT ??_R1A@?0A@EA@?$InterpretedLightVm@U?$AlignedAllocator@$0EA@@randomx@@$0A@@randomx@@8
rdata$r	SEGMENT
??_R1A@?0A@EA@?$InterpretedLightVm@U?$AlignedAllocator@$0EA@@randomx@@$0A@@randomx@@8 DD imagerel ??_R0?AV?$InterpretedLightVm@U?$AlignedAllocator@$0EA@@randomx@@$0A@@randomx@@@8 ; randomx::InterpretedLightVm<randomx::AlignedAllocator<64>,0>::`RTTI Base Class Descriptor at (0,-1,0,64)'
	DD	04H
	DD	00H
	DD	0ffffffffH
	DD	00H
	DD	040H
	DD	imagerel ??_R3?$InterpretedLightVm@U?$AlignedAllocator@$0EA@@randomx@@$0A@@randomx@@8
rdata$r	ENDS
;	COMDAT ??_R2?$InterpretedVm@U?$AlignedAllocator@$0EA@@randomx@@$0A@@randomx@@8
rdata$r	SEGMENT
??_R2?$InterpretedVm@U?$AlignedAllocator@$0EA@@randomx@@$0A@@randomx@@8 DD imagerel ??_R1A@?0A@EA@?$InterpretedVm@U?$AlignedAllocator@$0EA@@randomx@@$0A@@randomx@@8 ; randomx::InterpretedVm<randomx::AlignedAllocator<64>,0>::`RTTI Base Class Array'
	DD	imagerel ??_R1A@?0A@EA@?$VmBase@U?$AlignedAllocator@$0EA@@randomx@@$0A@@randomx@@8
	DD	imagerel ??_R1A@?0A@EA@randomx_vm@@8
	DD	imagerel ??_R1KIA@?0A@EA@BytecodeMachine@randomx@@8
	ORG $+3
rdata$r	ENDS
;	COMDAT ??_7randomx_vm@@6B@
CONST	SEGMENT
??_7randomx_vm@@6B@ DQ FLAT:??_R4randomx_vm@@6B@	; randomx_vm::`vftable'
	DQ	FLAT:_purecall
	DQ	FLAT:_purecall
	DQ	FLAT:_purecall
	DQ	FLAT:_purecall
	DQ	FLAT:?setDataset@randomx_vm@@UEAAXPEAUrandomx_dataset@@@Z
	DQ	FLAT:?setCache@randomx_vm@@UEAAXPEAUrandomx_cache@@@Z
	DQ	FLAT:_purecall
	DQ	FLAT:_purecall
CONST	ENDS
;	COMDAT ??_R2?$VmBase@U?$AlignedAllocator@$0EA@@randomx@@$0A@@randomx@@8
rdata$r	SEGMENT
??_R2?$VmBase@U?$AlignedAllocator@$0EA@@randomx@@$0A@@randomx@@8 DD imagerel ??_R1A@?0A@EA@?$VmBase@U?$AlignedAllocator@$0EA@@randomx@@$0A@@randomx@@8 ; randomx::VmBase<randomx::AlignedAllocator<64>,0>::`RTTI Base Class Array'
	DD	imagerel ??_R1A@?0A@EA@randomx_vm@@8
	ORG $+3
rdata$r	ENDS
;	COMDAT ??_R1A@?0A@EA@?$CompiledLightVm@U?$AlignedAllocator@$0EA@@randomx@@$0A@$00@randomx@@8
rdata$r	SEGMENT
??_R1A@?0A@EA@?$CompiledLightVm@U?$AlignedAllocator@$0EA@@randomx@@$0A@$00@randomx@@8 DD imagerel ??_R0?AV?$CompiledLightVm@U?$AlignedAllocator@$0EA@@randomx@@$0A@$00@randomx@@@8 ; randomx::CompiledLightVm<randomx::AlignedAllocator<64>,0,1>::`RTTI Base Class Descriptor at (0,-1,0,64)'
	DD	03H
	DD	00H
	DD	0ffffffffH
	DD	00H
	DD	040H
	DD	imagerel ??_R3?$CompiledLightVm@U?$AlignedAllocator@$0EA@@randomx@@$0A@$00@randomx@@8
rdata$r	ENDS
;	COMDAT _TI2?AVbad_alloc@std@@
xdata$x	SEGMENT
_TI2?AVbad_alloc@std@@ DD 00H
	DD	imagerel ??1bad_alloc@std@@UEAA@XZ
	DD	00H
	DD	imagerel _CTA2?AVbad_alloc@std@@
xdata$x	ENDS
;	COMDAT ??_R2?$InterpretedLightVm@U?$AlignedAllocator@$0EA@@randomx@@$00@randomx@@8
rdata$r	SEGMENT
??_R2?$InterpretedLightVm@U?$AlignedAllocator@$0EA@@randomx@@$00@randomx@@8 DD imagerel ??_R1A@?0A@EA@?$InterpretedLightVm@U?$AlignedAllocator@$0EA@@randomx@@$00@randomx@@8 ; randomx::InterpretedLightVm<randomx::AlignedAllocator<64>,1>::`RTTI Base Class Array'
	DD	imagerel ??_R1A@?0A@EA@?$InterpretedVm@U?$AlignedAllocator@$0EA@@randomx@@$00@randomx@@8
	DD	imagerel ??_R1A@?0A@EA@?$VmBase@U?$AlignedAllocator@$0EA@@randomx@@$00@randomx@@8
	DD	imagerel ??_R1A@?0A@EA@randomx_vm@@8
	DD	imagerel ??_R1KIA@?0A@EA@BytecodeMachine@randomx@@8
	ORG $+3
rdata$r	ENDS
;	COMDAT ??_R2?$CompiledVm@U?$AlignedAllocator@$0EA@@randomx@@$00$0A@@randomx@@8
rdata$r	SEGMENT
??_R2?$CompiledVm@U?$AlignedAllocator@$0EA@@randomx@@$00$0A@@randomx@@8 DD imagerel ??_R1A@?0A@EA@?$CompiledVm@U?$AlignedAllocator@$0EA@@randomx@@$00$0A@@randomx@@8 ; randomx::CompiledVm<randomx::AlignedAllocator<64>,1,0>::`RTTI Base Class Array'
	DD	imagerel ??_R1A@?0A@EA@?$VmBase@U?$AlignedAllocator@$0EA@@randomx@@$00@randomx@@8
	DD	imagerel ??_R1A@?0A@EA@randomx_vm@@8
	ORG $+3
rdata$r	ENDS
;	COMDAT ??_R3?$InterpretedLightVm@ULargePageAllocator@randomx@@$0A@@randomx@@8
rdata$r	SEGMENT
??_R3?$InterpretedLightVm@ULargePageAllocator@randomx@@$0A@@randomx@@8 DD 00H ; randomx::InterpretedLightVm<randomx::LargePageAllocator,0>::`RTTI Class Hierarchy Descriptor'
	DD	01H
	DD	05H
	DD	imagerel ??_R2?$InterpretedLightVm@ULargePageAllocator@randomx@@$0A@@randomx@@8
rdata$r	ENDS
;	COMDAT ??_7?$CompiledLightVm@U?$AlignedAllocator@$0EA@@randomx@@$00$0A@@randomx@@6B@
CONST	SEGMENT
??_7?$CompiledLightVm@U?$AlignedAllocator@$0EA@@randomx@@$00$0A@@randomx@@6B@ DQ FLAT:??_R4?$CompiledLightVm@U?$AlignedAllocator@$0EA@@randomx@@$00$0A@@randomx@@6B@ ; randomx::CompiledLightVm<randomx::AlignedAllocator<64>,1,0>::`vftable'
	DQ	FLAT:??_E?$CompiledLightVm@U?$AlignedAllocator@$0EA@@randomx@@$00$0A@@randomx@@UEAAPEAXI@Z
	DQ	FLAT:?allocate@?$VmBase@U?$AlignedAllocator@$0EA@@randomx@@$00@randomx@@UEAAXXZ
	DQ	FLAT:?getFinalResult@?$VmBase@U?$AlignedAllocator@$0EA@@randomx@@$00@randomx@@UEAAXPEAX_K@Z
	DQ	FLAT:?hashAndFill@?$VmBase@U?$AlignedAllocator@$0EA@@randomx@@$00@randomx@@UEAAXPEAX_KPEA_K@Z
	DQ	FLAT:?setDataset@?$CompiledLightVm@U?$AlignedAllocator@$0EA@@randomx@@$00$0A@@randomx@@UEAAXPEAUrandomx_dataset@@@Z
	DQ	FLAT:?setCache@?$CompiledLightVm@U?$AlignedAllocator@$0EA@@randomx@@$00$0A@@randomx@@UEAAXPEAUrandomx_cache@@@Z
	DQ	FLAT:?initScratchpad@?$VmBase@U?$AlignedAllocator@$0EA@@randomx@@$00@randomx@@UEAAXPEAX@Z
	DQ	FLAT:?run@?$CompiledLightVm@U?$AlignedAllocator@$0EA@@randomx@@$00$0A@@randomx@@UEAAXPEAX@Z
CONST	ENDS
;	COMDAT ??_R2?$InterpretedVm@ULargePageAllocator@randomx@@$00@randomx@@8
rdata$r	SEGMENT
??_R2?$InterpretedVm@ULargePageAllocator@randomx@@$00@randomx@@8 DD imagerel ??_R1A@?0A@EA@?$InterpretedVm@ULargePageAllocator@randomx@@$00@randomx@@8 ; randomx::InterpretedVm<randomx::LargePageAllocator,1>::`RTTI Base Class Array'
	DD	imagerel ??_R1A@?0A@EA@?$VmBase@ULargePageAllocator@randomx@@$00@randomx@@8
	DD	imagerel ??_R1A@?0A@EA@randomx_vm@@8
	DD	imagerel ??_R1KIA@?0A@EA@BytecodeMachine@randomx@@8
	ORG $+3
rdata$r	ENDS
;	COMDAT ??_R4?$CompiledLightVm@U?$AlignedAllocator@$0EA@@randomx@@$0A@$0A@@randomx@@6B@
rdata$r	SEGMENT
??_R4?$CompiledLightVm@U?$AlignedAllocator@$0EA@@randomx@@$0A@$0A@@randomx@@6B@ DD 01H ; randomx::CompiledLightVm<randomx::AlignedAllocator<64>,0,0>::`RTTI Complete Object Locator'
	DD	00H
	DD	00H
	DD	imagerel ??_R0?AV?$CompiledLightVm@U?$AlignedAllocator@$0EA@@randomx@@$0A@$0A@@randomx@@@8
	DD	imagerel ??_R3?$CompiledLightVm@U?$AlignedAllocator@$0EA@@randomx@@$0A@$0A@@randomx@@8
	DD	imagerel ??_R4?$CompiledLightVm@U?$AlignedAllocator@$0EA@@randomx@@$0A@$0A@@randomx@@6B@
rdata$r	ENDS
;	COMDAT ??_R2?$CompiledLightVm@U?$AlignedAllocator@$0EA@@randomx@@$00$0A@@randomx@@8
rdata$r	SEGMENT
??_R2?$CompiledLightVm@U?$AlignedAllocator@$0EA@@randomx@@$00$0A@@randomx@@8 DD imagerel ??_R1A@?0A@EA@?$CompiledLightVm@U?$AlignedAllocator@$0EA@@randomx@@$00$0A@@randomx@@8 ; randomx::CompiledLightVm<randomx::AlignedAllocator<64>,1,0>::`RTTI Base Class Array'
	DD	imagerel ??_R1A@?0A@EA@?$CompiledVm@U?$AlignedAllocator@$0EA@@randomx@@$00$0A@@randomx@@8
	DD	imagerel ??_R1A@?0A@EA@?$VmBase@U?$AlignedAllocator@$0EA@@randomx@@$00@randomx@@8
	DD	imagerel ??_R1A@?0A@EA@randomx_vm@@8
	ORG $+3
rdata$r	ENDS
;	COMDAT ??_R0?AV?$CompiledVm@U?$AlignedAllocator@$0EA@@randomx@@$00$00@randomx@@@8
data$rs	SEGMENT
??_R0?AV?$CompiledVm@U?$AlignedAllocator@$0EA@@randomx@@$00$00@randomx@@@8 DQ FLAT:??_7type_info@@6B@ ; randomx::CompiledVm<randomx::AlignedAllocator<64>,1,1> `RTTI Type Descriptor'
	DQ	0000000000000000H
	DB	'.?AV?$CompiledVm@U?$AlignedAllocator@$0EA@@randomx@@$00$'
	DB	'00@randomx@@', 00H
data$rs	ENDS
;	COMDAT ??_R1A@?0A@EA@?$InterpretedLightVm@ULargePageAllocator@randomx@@$00@randomx@@8
rdata$r	SEGMENT
??_R1A@?0A@EA@?$InterpretedLightVm@ULargePageAllocator@randomx@@$00@randomx@@8 DD imagerel ??_R0?AV?$InterpretedLightVm@ULargePageAllocator@randomx@@$00@randomx@@@8 ; randomx::InterpretedLightVm<randomx::LargePageAllocator,1>::`RTTI Base Class Descriptor at (0,-1,0,64)'
	DD	04H
	DD	00H
	DD	0ffffffffH
	DD	00H
	DD	040H
	DD	imagerel ??_R3?$InterpretedLightVm@ULargePageAllocator@randomx@@$00@randomx@@8
rdata$r	ENDS
;	COMDAT ??_R1A@?0A@EA@?$CompiledLightVm@ULargePageAllocator@randomx@@$00$0A@@randomx@@8
rdata$r	SEGMENT
??_R1A@?0A@EA@?$CompiledLightVm@ULargePageAllocator@randomx@@$00$0A@@randomx@@8 DD imagerel ??_R0?AV?$CompiledLightVm@ULargePageAllocator@randomx@@$00$0A@@randomx@@@8 ; randomx::CompiledLightVm<randomx::LargePageAllocator,1,0>::`RTTI Base Class Descriptor at (0,-1,0,64)'
	DD	03H
	DD	00H
	DD	0ffffffffH
	DD	00H
	DD	040H
	DD	imagerel ??_R3?$CompiledLightVm@ULargePageAllocator@randomx@@$00$0A@@randomx@@8
rdata$r	ENDS
;	COMDAT ??_R4?$VmBase@U?$AlignedAllocator@$0EA@@randomx@@$00@randomx@@6B@
rdata$r	SEGMENT
??_R4?$VmBase@U?$AlignedAllocator@$0EA@@randomx@@$00@randomx@@6B@ DD 01H ; randomx::VmBase<randomx::AlignedAllocator<64>,1>::`RTTI Complete Object Locator'
	DD	00H
	DD	00H
	DD	imagerel ??_R0?AV?$VmBase@U?$AlignedAllocator@$0EA@@randomx@@$00@randomx@@@8
	DD	imagerel ??_R3?$VmBase@U?$AlignedAllocator@$0EA@@randomx@@$00@randomx@@8
	DD	imagerel ??_R4?$VmBase@U?$AlignedAllocator@$0EA@@randomx@@$00@randomx@@6B@
rdata$r	ENDS
;	COMDAT ??_R4?$VmBase@ULargePageAllocator@randomx@@$00@randomx@@6B@
rdata$r	SEGMENT
??_R4?$VmBase@ULargePageAllocator@randomx@@$00@randomx@@6B@ DD 01H ; randomx::VmBase<randomx::LargePageAllocator,1>::`RTTI Complete Object Locator'
	DD	00H
	DD	00H
	DD	imagerel ??_R0?AV?$VmBase@ULargePageAllocator@randomx@@$00@randomx@@@8
	DD	imagerel ??_R3?$VmBase@ULargePageAllocator@randomx@@$00@randomx@@8
	DD	imagerel ??_R4?$VmBase@ULargePageAllocator@randomx@@$00@randomx@@6B@
rdata$r	ENDS
;	COMDAT ??_R3?$CompiledLightVm@ULargePageAllocator@randomx@@$00$0A@@randomx@@8
rdata$r	SEGMENT
??_R3?$CompiledLightVm@ULargePageAllocator@randomx@@$00$0A@@randomx@@8 DD 00H ; randomx::CompiledLightVm<randomx::LargePageAllocator,1,0>::`RTTI Class Hierarchy Descriptor'
	DD	00H
	DD	04H
	DD	imagerel ??_R2?$CompiledLightVm@ULargePageAllocator@randomx@@$00$0A@@randomx@@8
rdata$r	ENDS
;	COMDAT ??_R1A@?0A@EA@?$VmBase@ULargePageAllocator@randomx@@$0A@@randomx@@8
rdata$r	SEGMENT
??_R1A@?0A@EA@?$VmBase@ULargePageAllocator@randomx@@$0A@@randomx@@8 DD imagerel ??_R0?AV?$VmBase@ULargePageAllocator@randomx@@$0A@@randomx@@@8 ; randomx::VmBase<randomx::LargePageAllocator,0>::`RTTI Base Class Descriptor at (0,-1,0,64)'
	DD	01H
	DD	00H
	DD	0ffffffffH
	DD	00H
	DD	040H
	DD	imagerel ??_R3?$VmBase@ULargePageAllocator@randomx@@$0A@@randomx@@8
rdata$r	ENDS
;	COMDAT ??_7?$InterpretedVm@ULargePageAllocator@randomx@@$0A@@randomx@@6B@
CONST	SEGMENT
??_7?$InterpretedVm@ULargePageAllocator@randomx@@$0A@@randomx@@6B@ DQ FLAT:??_R4?$InterpretedVm@ULargePageAllocator@randomx@@$0A@@randomx@@6B@ ; randomx::InterpretedVm<randomx::LargePageAllocator,0>::`vftable'
	DQ	FLAT:??_E?$InterpretedVm@ULargePageAllocator@randomx@@$0A@@randomx@@UEAAPEAXI@Z
	DQ	FLAT:?allocate@?$VmBase@ULargePageAllocator@randomx@@$0A@@randomx@@UEAAXXZ
	DQ	FLAT:?getFinalResult@?$VmBase@ULargePageAllocator@randomx@@$0A@@randomx@@UEAAXPEAX_K@Z
	DQ	FLAT:?hashAndFill@?$VmBase@ULargePageAllocator@randomx@@$0A@@randomx@@UEAAXPEAX_KPEA_K@Z
	DQ	FLAT:?setDataset@?$InterpretedVm@ULargePageAllocator@randomx@@$0A@@randomx@@UEAAXPEAUrandomx_dataset@@@Z
	DQ	FLAT:?setCache@randomx_vm@@UEAAXPEAUrandomx_cache@@@Z
	DQ	FLAT:?initScratchpad@?$VmBase@ULargePageAllocator@randomx@@$0A@@randomx@@UEAAXPEAX@Z
	DQ	FLAT:?run@?$InterpretedVm@ULargePageAllocator@randomx@@$0A@@randomx@@UEAAXPEAX@Z
	DQ	FLAT:?datasetRead@?$InterpretedVm@ULargePageAllocator@randomx@@$0A@@randomx@@MEAAX_KAEAY07_K@Z
	DQ	FLAT:?datasetPrefetch@?$InterpretedVm@ULargePageAllocator@randomx@@$0A@@randomx@@MEAAX_K@Z
CONST	ENDS
;	COMDAT ??_7?$InterpretedVm@ULargePageAllocator@randomx@@$00@randomx@@6B@
CONST	SEGMENT
??_7?$InterpretedVm@ULargePageAllocator@randomx@@$00@randomx@@6B@ DQ FLAT:??_R4?$InterpretedVm@ULargePageAllocator@randomx@@$00@randomx@@6B@ ; randomx::InterpretedVm<randomx::LargePageAllocator,1>::`vftable'
	DQ	FLAT:??_E?$InterpretedVm@ULargePageAllocator@randomx@@$00@randomx@@UEAAPEAXI@Z
	DQ	FLAT:?allocate@?$VmBase@ULargePageAllocator@randomx@@$00@randomx@@UEAAXXZ
	DQ	FLAT:?getFinalResult@?$VmBase@ULargePageAllocator@randomx@@$00@randomx@@UEAAXPEAX_K@Z
	DQ	FLAT:?hashAndFill@?$VmBase@ULargePageAllocator@randomx@@$00@randomx@@UEAAXPEAX_KPEA_K@Z
	DQ	FLAT:?setDataset@?$InterpretedVm@ULargePageAllocator@randomx@@$00@randomx@@UEAAXPEAUrandomx_dataset@@@Z
	DQ	FLAT:?setCache@randomx_vm@@UEAAXPEAUrandomx_cache@@@Z
	DQ	FLAT:?initScratchpad@?$VmBase@ULargePageAllocator@randomx@@$00@randomx@@UEAAXPEAX@Z
	DQ	FLAT:?run@?$InterpretedVm@ULargePageAllocator@randomx@@$00@randomx@@UEAAXPEAX@Z
	DQ	FLAT:?datasetRead@?$InterpretedVm@ULargePageAllocator@randomx@@$00@randomx@@MEAAX_KAEAY07_K@Z
	DQ	FLAT:?datasetPrefetch@?$InterpretedVm@ULargePageAllocator@randomx@@$00@randomx@@MEAAX_K@Z
CONST	ENDS
;	COMDAT ??_7?$InterpretedVm@U?$AlignedAllocator@$0EA@@randomx@@$0A@@randomx@@6B@
CONST	SEGMENT
??_7?$InterpretedVm@U?$AlignedAllocator@$0EA@@randomx@@$0A@@randomx@@6B@ DQ FLAT:??_R4?$InterpretedVm@U?$AlignedAllocator@$0EA@@randomx@@$0A@@randomx@@6B@ ; randomx::InterpretedVm<randomx::AlignedAllocator<64>,0>::`vftable'
	DQ	FLAT:??_E?$InterpretedVm@U?$AlignedAllocator@$0EA@@randomx@@$0A@@randomx@@UEAAPEAXI@Z
	DQ	FLAT:?allocate@?$VmBase@U?$AlignedAllocator@$0EA@@randomx@@$0A@@randomx@@UEAAXXZ
	DQ	FLAT:?getFinalResult@?$VmBase@U?$AlignedAllocator@$0EA@@randomx@@$0A@@randomx@@UEAAXPEAX_K@Z
	DQ	FLAT:?hashAndFill@?$VmBase@U?$AlignedAllocator@$0EA@@randomx@@$0A@@randomx@@UEAAXPEAX_KPEA_K@Z
	DQ	FLAT:?setDataset@?$InterpretedVm@U?$AlignedAllocator@$0EA@@randomx@@$0A@@randomx@@UEAAXPEAUrandomx_dataset@@@Z
	DQ	FLAT:?setCache@randomx_vm@@UEAAXPEAUrandomx_cache@@@Z
	DQ	FLAT:?initScratchpad@?$VmBase@U?$AlignedAllocator@$0EA@@randomx@@$0A@@randomx@@UEAAXPEAX@Z
	DQ	FLAT:?run@?$InterpretedVm@U?$AlignedAllocator@$0EA@@randomx@@$0A@@randomx@@UEAAXPEAX@Z
	DQ	FLAT:?datasetRead@?$InterpretedVm@U?$AlignedAllocator@$0EA@@randomx@@$0A@@randomx@@MEAAX_KAEAY07_K@Z
	DQ	FLAT:?datasetPrefetch@?$InterpretedVm@U?$AlignedAllocator@$0EA@@randomx@@$0A@@randomx@@MEAAX_K@Z
CONST	ENDS
;	COMDAT ??_R3?$InterpretedLightVm@U?$AlignedAllocator@$0EA@@randomx@@$0A@@randomx@@8
rdata$r	SEGMENT
??_R3?$InterpretedLightVm@U?$AlignedAllocator@$0EA@@randomx@@$0A@@randomx@@8 DD 00H ; randomx::InterpretedLightVm<randomx::AlignedAllocator<64>,0>::`RTTI Class Hierarchy Descriptor'
	DD	01H
	DD	05H
	DD	imagerel ??_R2?$InterpretedLightVm@U?$AlignedAllocator@$0EA@@randomx@@$0A@@randomx@@8
rdata$r	ENDS
;	COMDAT ??_R0?AV?$InterpretedVm@U?$AlignedAllocator@$0EA@@randomx@@$00@randomx@@@8
data$rs	SEGMENT
??_R0?AV?$InterpretedVm@U?$AlignedAllocator@$0EA@@randomx@@$00@randomx@@@8 DQ FLAT:??_7type_info@@6B@ ; randomx::InterpretedVm<randomx::AlignedAllocator<64>,1> `RTTI Type Descriptor'
	DQ	0000000000000000H
	DB	'.?AV?$InterpretedVm@U?$AlignedAllocator@$0EA@@randomx@@$'
	DB	'00@randomx@@', 00H
data$rs	ENDS
;	COMDAT ??_7?$CompiledLightVm@U?$AlignedAllocator@$0EA@@randomx@@$0A@$00@randomx@@6B@
CONST	SEGMENT
??_7?$CompiledLightVm@U?$AlignedAllocator@$0EA@@randomx@@$0A@$00@randomx@@6B@ DQ FLAT:??_R4?$CompiledLightVm@U?$AlignedAllocator@$0EA@@randomx@@$0A@$00@randomx@@6B@ ; randomx::CompiledLightVm<randomx::AlignedAllocator<64>,0,1>::`vftable'
	DQ	FLAT:??_E?$CompiledLightVm@U?$AlignedAllocator@$0EA@@randomx@@$0A@$00@randomx@@UEAAPEAXI@Z
	DQ	FLAT:?allocate@?$VmBase@U?$AlignedAllocator@$0EA@@randomx@@$0A@@randomx@@UEAAXXZ
	DQ	FLAT:?getFinalResult@?$VmBase@U?$AlignedAllocator@$0EA@@randomx@@$0A@@randomx@@UEAAXPEAX_K@Z
	DQ	FLAT:?hashAndFill@?$VmBase@U?$AlignedAllocator@$0EA@@randomx@@$0A@@randomx@@UEAAXPEAX_KPEA_K@Z
	DQ	FLAT:?setDataset@?$CompiledLightVm@U?$AlignedAllocator@$0EA@@randomx@@$0A@$00@randomx@@UEAAXPEAUrandomx_dataset@@@Z
	DQ	FLAT:?setCache@?$CompiledLightVm@U?$AlignedAllocator@$0EA@@randomx@@$0A@$00@randomx@@UEAAXPEAUrandomx_cache@@@Z
	DQ	FLAT:?initScratchpad@?$VmBase@U?$AlignedAllocator@$0EA@@randomx@@$0A@@randomx@@UEAAXPEAX@Z
	DQ	FLAT:?run@?$CompiledLightVm@U?$AlignedAllocator@$0EA@@randomx@@$0A@$00@randomx@@UEAAXPEAX@Z
CONST	ENDS
;	COMDAT ??_R1A@?0A@EA@?$CompiledVm@ULargePageAllocator@randomx@@$0A@$0A@@randomx@@8
rdata$r	SEGMENT
??_R1A@?0A@EA@?$CompiledVm@ULargePageAllocator@randomx@@$0A@$0A@@randomx@@8 DD imagerel ??_R0?AV?$CompiledVm@ULargePageAllocator@randomx@@$0A@$0A@@randomx@@@8 ; randomx::CompiledVm<randomx::LargePageAllocator,0,0>::`RTTI Base Class Descriptor at (0,-1,0,64)'
	DD	02H
	DD	00H
	DD	0ffffffffH
	DD	00H
	DD	040H
	DD	imagerel ??_R3?$CompiledVm@ULargePageAllocator@randomx@@$0A@$0A@@randomx@@8
rdata$r	ENDS
;	COMDAT ??_R1A@?0A@EA@?$InterpretedLightVm@U?$AlignedAllocator@$0EA@@randomx@@$00@randomx@@8
rdata$r	SEGMENT
??_R1A@?0A@EA@?$InterpretedLightVm@U?$AlignedAllocator@$0EA@@randomx@@$00@randomx@@8 DD imagerel ??_R0?AV?$InterpretedLightVm@U?$AlignedAllocator@$0EA@@randomx@@$00@randomx@@@8 ; randomx::InterpretedLightVm<randomx::AlignedAllocator<64>,1>::`RTTI Base Class Descriptor at (0,-1,0,64)'
	DD	04H
	DD	00H
	DD	0ffffffffH
	DD	00H
	DD	040H
	DD	imagerel ??_R3?$InterpretedLightVm@U?$AlignedAllocator@$0EA@@randomx@@$00@randomx@@8
rdata$r	ENDS
;	COMDAT ??_R3?$InterpretedLightVm@U?$AlignedAllocator@$0EA@@randomx@@$00@randomx@@8
rdata$r	SEGMENT
??_R3?$InterpretedLightVm@U?$AlignedAllocator@$0EA@@randomx@@$00@randomx@@8 DD 00H ; randomx::InterpretedLightVm<randomx::AlignedAllocator<64>,1>::`RTTI Class Hierarchy Descriptor'
	DD	01H
	DD	05H
	DD	imagerel ??_R2?$InterpretedLightVm@U?$AlignedAllocator@$0EA@@randomx@@$00@randomx@@8
rdata$r	ENDS
;	COMDAT ??_R3BytecodeMachine@randomx@@8
rdata$r	SEGMENT
??_R3BytecodeMachine@randomx@@8 DD 00H			; randomx::BytecodeMachine::`RTTI Class Hierarchy Descriptor'
	DD	00H
	DD	01H
	DD	imagerel ??_R2BytecodeMachine@randomx@@8
rdata$r	ENDS
;	COMDAT ??_R3?$CompiledVm@U?$AlignedAllocator@$0EA@@randomx@@$00$00@randomx@@8
rdata$r	SEGMENT
??_R3?$CompiledVm@U?$AlignedAllocator@$0EA@@randomx@@$00$00@randomx@@8 DD 00H ; randomx::CompiledVm<randomx::AlignedAllocator<64>,1,1>::`RTTI Class Hierarchy Descriptor'
	DD	00H
	DD	03H
	DD	imagerel ??_R2?$CompiledVm@U?$AlignedAllocator@$0EA@@randomx@@$00$00@randomx@@8
rdata$r	ENDS
;	COMDAT ??_R2?$CompiledLightVm@U?$AlignedAllocator@$0EA@@randomx@@$0A@$00@randomx@@8
rdata$r	SEGMENT
??_R2?$CompiledLightVm@U?$AlignedAllocator@$0EA@@randomx@@$0A@$00@randomx@@8 DD imagerel ??_R1A@?0A@EA@?$CompiledLightVm@U?$AlignedAllocator@$0EA@@randomx@@$0A@$00@randomx@@8 ; randomx::CompiledLightVm<randomx::AlignedAllocator<64>,0,1>::`RTTI Base Class Array'
	DD	imagerel ??_R1A@?0A@EA@?$CompiledVm@U?$AlignedAllocator@$0EA@@randomx@@$0A@$00@randomx@@8
	DD	imagerel ??_R1A@?0A@EA@?$VmBase@U?$AlignedAllocator@$0EA@@randomx@@$0A@@randomx@@8
	DD	imagerel ??_R1A@?0A@EA@randomx_vm@@8
	ORG $+3
rdata$r	ENDS
;	COMDAT ??_R1A@?0A@EA@?$CompiledLightVm@U?$AlignedAllocator@$0EA@@randomx@@$0A@$0A@@randomx@@8
rdata$r	SEGMENT
??_R1A@?0A@EA@?$CompiledLightVm@U?$AlignedAllocator@$0EA@@randomx@@$0A@$0A@@randomx@@8 DD imagerel ??_R0?AV?$CompiledLightVm@U?$AlignedAllocator@$0EA@@randomx@@$0A@$0A@@randomx@@@8 ; randomx::CompiledLightVm<randomx::AlignedAllocator<64>,0,0>::`RTTI Base Class Descriptor at (0,-1,0,64)'
	DD	03H
	DD	00H
	DD	0ffffffffH
	DD	00H
	DD	040H
	DD	imagerel ??_R3?$CompiledLightVm@U?$AlignedAllocator@$0EA@@randomx@@$0A@$0A@@randomx@@8
rdata$r	ENDS
;	COMDAT ??_R3?$CompiledLightVm@U?$AlignedAllocator@$0EA@@randomx@@$00$00@randomx@@8
rdata$r	SEGMENT
??_R3?$CompiledLightVm@U?$AlignedAllocator@$0EA@@randomx@@$00$00@randomx@@8 DD 00H ; randomx::CompiledLightVm<randomx::AlignedAllocator<64>,1,1>::`RTTI Class Hierarchy Descriptor'
	DD	00H
	DD	04H
	DD	imagerel ??_R2?$CompiledLightVm@U?$AlignedAllocator@$0EA@@randomx@@$00$00@randomx@@8
rdata$r	ENDS
;	COMDAT ??_R4?$InterpretedLightVm@U?$AlignedAllocator@$0EA@@randomx@@$0A@@randomx@@6B@
rdata$r	SEGMENT
??_R4?$InterpretedLightVm@U?$AlignedAllocator@$0EA@@randomx@@$0A@@randomx@@6B@ DD 01H ; randomx::InterpretedLightVm<randomx::AlignedAllocator<64>,0>::`RTTI Complete Object Locator'
	DD	00H
	DD	00H
	DD	imagerel ??_R0?AV?$InterpretedLightVm@U?$AlignedAllocator@$0EA@@randomx@@$0A@@randomx@@@8
	DD	imagerel ??_R3?$InterpretedLightVm@U?$AlignedAllocator@$0EA@@randomx@@$0A@@randomx@@8
	DD	imagerel ??_R4?$InterpretedLightVm@U?$AlignedAllocator@$0EA@@randomx@@$0A@@randomx@@6B@
rdata$r	ENDS
;	COMDAT ??_R4?$CompiledLightVm@U?$AlignedAllocator@$0EA@@randomx@@$0A@$00@randomx@@6B@
rdata$r	SEGMENT
??_R4?$CompiledLightVm@U?$AlignedAllocator@$0EA@@randomx@@$0A@$00@randomx@@6B@ DD 01H ; randomx::CompiledLightVm<randomx::AlignedAllocator<64>,0,1>::`RTTI Complete Object Locator'
	DD	00H
	DD	00H
	DD	imagerel ??_R0?AV?$CompiledLightVm@U?$AlignedAllocator@$0EA@@randomx@@$0A@$00@randomx@@@8
	DD	imagerel ??_R3?$CompiledLightVm@U?$AlignedAllocator@$0EA@@randomx@@$0A@$00@randomx@@8
	DD	imagerel ??_R4?$CompiledLightVm@U?$AlignedAllocator@$0EA@@randomx@@$0A@$00@randomx@@6B@
rdata$r	ENDS
;	COMDAT ??_R0?AVrandomx_vm@@@8
data$rs	SEGMENT
??_R0?AVrandomx_vm@@@8 DQ FLAT:??_7type_info@@6B@	; randomx_vm `RTTI Type Descriptor'
	DQ	0000000000000000H
	DB	'.?AVrandomx_vm@@', 00H
data$rs	ENDS
;	COMDAT ??_R0?AV?$CompiledVm@U?$AlignedAllocator@$0EA@@randomx@@$0A@$00@randomx@@@8
data$rs	SEGMENT
??_R0?AV?$CompiledVm@U?$AlignedAllocator@$0EA@@randomx@@$0A@$00@randomx@@@8 DQ FLAT:??_7type_info@@6B@ ; randomx::CompiledVm<randomx::AlignedAllocator<64>,0,1> `RTTI Type Descriptor'
	DQ	0000000000000000H
	DB	'.?AV?$CompiledVm@U?$AlignedAllocator@$0EA@@randomx@@$0A@'
	DB	'$00@randomx@@', 00H
data$rs	ENDS
;	COMDAT ??_R0?AV?$InterpretedVm@U?$AlignedAllocator@$0EA@@randomx@@$0A@@randomx@@@8
data$rs	SEGMENT
??_R0?AV?$InterpretedVm@U?$AlignedAllocator@$0EA@@randomx@@$0A@@randomx@@@8 DQ FLAT:??_7type_info@@6B@ ; randomx::InterpretedVm<randomx::AlignedAllocator<64>,0> `RTTI Type Descriptor'
	DQ	0000000000000000H
	DB	'.?AV?$InterpretedVm@U?$AlignedAllocator@$0EA@@randomx@@$'
	DB	'0A@@randomx@@', 00H
data$rs	ENDS
;	COMDAT ??_7?$VmBase@ULargePageAllocator@randomx@@$00@randomx@@6B@
CONST	SEGMENT
??_7?$VmBase@ULargePageAllocator@randomx@@$00@randomx@@6B@ DQ FLAT:??_R4?$VmBase@ULargePageAllocator@randomx@@$00@randomx@@6B@ ; randomx::VmBase<randomx::LargePageAllocator,1>::`vftable'
	DQ	FLAT:??_E?$VmBase@ULargePageAllocator@randomx@@$00@randomx@@UEAAPEAXI@Z
	DQ	FLAT:?allocate@?$VmBase@ULargePageAllocator@randomx@@$00@randomx@@UEAAXXZ
	DQ	FLAT:?getFinalResult@?$VmBase@ULargePageAllocator@randomx@@$00@randomx@@UEAAXPEAX_K@Z
	DQ	FLAT:?hashAndFill@?$VmBase@ULargePageAllocator@randomx@@$00@randomx@@UEAAXPEAX_KPEA_K@Z
	DQ	FLAT:?setDataset@randomx_vm@@UEAAXPEAUrandomx_dataset@@@Z
	DQ	FLAT:?setCache@randomx_vm@@UEAAXPEAUrandomx_cache@@@Z
	DQ	FLAT:?initScratchpad@?$VmBase@ULargePageAllocator@randomx@@$00@randomx@@UEAAXPEAX@Z
	DQ	FLAT:_purecall
CONST	ENDS
;	COMDAT ??_R1A@?0A@EA@?$VmBase@U?$AlignedAllocator@$0EA@@randomx@@$0A@@randomx@@8
rdata$r	SEGMENT
??_R1A@?0A@EA@?$VmBase@U?$AlignedAllocator@$0EA@@randomx@@$0A@@randomx@@8 DD imagerel ??_R0?AV?$VmBase@U?$AlignedAllocator@$0EA@@randomx@@$0A@@randomx@@@8 ; randomx::VmBase<randomx::AlignedAllocator<64>,0>::`RTTI Base Class Descriptor at (0,-1,0,64)'
	DD	01H
	DD	00H
	DD	0ffffffffH
	DD	00H
	DD	040H
	DD	imagerel ??_R3?$VmBase@U?$AlignedAllocator@$0EA@@randomx@@$0A@@randomx@@8
rdata$r	ENDS
;	COMDAT ??_7?$CompiledLightVm@ULargePageAllocator@randomx@@$00$00@randomx@@6B@
CONST	SEGMENT
??_7?$CompiledLightVm@ULargePageAllocator@randomx@@$00$00@randomx@@6B@ DQ FLAT:??_R4?$CompiledLightVm@ULargePageAllocator@randomx@@$00$00@randomx@@6B@ ; randomx::CompiledLightVm<randomx::LargePageAllocator,1,1>::`vftable'
	DQ	FLAT:??_E?$CompiledLightVm@ULargePageAllocator@randomx@@$00$00@randomx@@UEAAPEAXI@Z
	DQ	FLAT:?allocate@?$VmBase@ULargePageAllocator@randomx@@$00@randomx@@UEAAXXZ
	DQ	FLAT:?getFinalResult@?$VmBase@ULargePageAllocator@randomx@@$00@randomx@@UEAAXPEAX_K@Z
	DQ	FLAT:?hashAndFill@?$VmBase@ULargePageAllocator@randomx@@$00@randomx@@UEAAXPEAX_KPEA_K@Z
	DQ	FLAT:?setDataset@?$CompiledLightVm@ULargePageAllocator@randomx@@$00$00@randomx@@UEAAXPEAUrandomx_dataset@@@Z
	DQ	FLAT:?setCache@?$CompiledLightVm@ULargePageAllocator@randomx@@$00$00@randomx@@UEAAXPEAUrandomx_cache@@@Z
	DQ	FLAT:?initScratchpad@?$VmBase@ULargePageAllocator@randomx@@$00@randomx@@UEAAXPEAX@Z
	DQ	FLAT:?run@?$CompiledLightVm@ULargePageAllocator@randomx@@$00$00@randomx@@UEAAXPEAX@Z
CONST	ENDS
;	COMDAT ??_R3?$InterpretedVm@U?$AlignedAllocator@$0EA@@randomx@@$00@randomx@@8
rdata$r	SEGMENT
??_R3?$InterpretedVm@U?$AlignedAllocator@$0EA@@randomx@@$00@randomx@@8 DD 00H ; randomx::InterpretedVm<randomx::AlignedAllocator<64>,1>::`RTTI Class Hierarchy Descriptor'
	DD	01H
	DD	04H
	DD	imagerel ??_R2?$InterpretedVm@U?$AlignedAllocator@$0EA@@randomx@@$00@randomx@@8
rdata$r	ENDS
;	COMDAT ??_R2?$InterpretedLightVm@ULargePageAllocator@randomx@@$0A@@randomx@@8
rdata$r	SEGMENT
??_R2?$InterpretedLightVm@ULargePageAllocator@randomx@@$0A@@randomx@@8 DD imagerel ??_R1A@?0A@EA@?$InterpretedLightVm@ULargePageAllocator@randomx@@$0A@@randomx@@8 ; randomx::InterpretedLightVm<randomx::LargePageAllocator,0>::`RTTI Base Class Array'
	DD	imagerel ??_R1A@?0A@EA@?$InterpretedVm@ULargePageAllocator@randomx@@$0A@@randomx@@8
	DD	imagerel ??_R1A@?0A@EA@?$VmBase@ULargePageAllocator@randomx@@$0A@@randomx@@8
	DD	imagerel ??_R1A@?0A@EA@randomx_vm@@8
	DD	imagerel ??_R1KIA@?0A@EA@BytecodeMachine@randomx@@8
	ORG $+3
rdata$r	ENDS
;	COMDAT ??_R2?$InterpretedLightVm@U?$AlignedAllocator@$0EA@@randomx@@$0A@@randomx@@8
rdata$r	SEGMENT
??_R2?$InterpretedLightVm@U?$AlignedAllocator@$0EA@@randomx@@$0A@@randomx@@8 DD imagerel ??_R1A@?0A@EA@?$InterpretedLightVm@U?$AlignedAllocator@$0EA@@randomx@@$0A@@randomx@@8 ; randomx::InterpretedLightVm<randomx::AlignedAllocator<64>,0>::`RTTI Base Class Array'
	DD	imagerel ??_R1A@?0A@EA@?$InterpretedVm@U?$AlignedAllocator@$0EA@@randomx@@$0A@@randomx@@8
	DD	imagerel ??_R1A@?0A@EA@?$VmBase@U?$AlignedAllocator@$0EA@@randomx@@$0A@@randomx@@8
	DD	imagerel ??_R1A@?0A@EA@randomx_vm@@8
	DD	imagerel ??_R1KIA@?0A@EA@BytecodeMachine@randomx@@8
	ORG $+3
rdata$r	ENDS
;	COMDAT ??_7?$VmBase@ULargePageAllocator@randomx@@$0A@@randomx@@6B@
CONST	SEGMENT
??_7?$VmBase@ULargePageAllocator@randomx@@$0A@@randomx@@6B@ DQ FLAT:??_R4?$VmBase@ULargePageAllocator@randomx@@$0A@@randomx@@6B@ ; randomx::VmBase<randomx::LargePageAllocator,0>::`vftable'
	DQ	FLAT:??_E?$VmBase@ULargePageAllocator@randomx@@$0A@@randomx@@UEAAPEAXI@Z
	DQ	FLAT:?allocate@?$VmBase@ULargePageAllocator@randomx@@$0A@@randomx@@UEAAXXZ
	DQ	FLAT:?getFinalResult@?$VmBase@ULargePageAllocator@randomx@@$0A@@randomx@@UEAAXPEAX_K@Z
	DQ	FLAT:?hashAndFill@?$VmBase@ULargePageAllocator@randomx@@$0A@@randomx@@UEAAXPEAX_KPEA_K@Z
	DQ	FLAT:?setDataset@randomx_vm@@UEAAXPEAUrandomx_dataset@@@Z
	DQ	FLAT:?setCache@randomx_vm@@UEAAXPEAUrandomx_cache@@@Z
	DQ	FLAT:?initScratchpad@?$VmBase@ULargePageAllocator@randomx@@$0A@@randomx@@UEAAXPEAX@Z
	DQ	FLAT:_purecall
CONST	ENDS
;	COMDAT ??_R3?$VmBase@ULargePageAllocator@randomx@@$0A@@randomx@@8
rdata$r	SEGMENT
??_R3?$VmBase@ULargePageAllocator@randomx@@$0A@@randomx@@8 DD 00H ; randomx::VmBase<randomx::LargePageAllocator,0>::`RTTI Class Hierarchy Descriptor'
	DD	00H
	DD	02H
	DD	imagerel ??_R2?$VmBase@ULargePageAllocator@randomx@@$0A@@randomx@@8
rdata$r	ENDS
;	COMDAT ??_R0?AV?$CompiledVm@U?$AlignedAllocator@$0EA@@randomx@@$0A@$0A@@randomx@@@8
data$rs	SEGMENT
??_R0?AV?$CompiledVm@U?$AlignedAllocator@$0EA@@randomx@@$0A@$0A@@randomx@@@8 DQ FLAT:??_7type_info@@6B@ ; randomx::CompiledVm<randomx::AlignedAllocator<64>,0,0> `RTTI Type Descriptor'
	DQ	0000000000000000H
	DB	'.?AV?$CompiledVm@U?$AlignedAllocator@$0EA@@randomx@@$0A@'
	DB	'$0A@@randomx@@', 00H
data$rs	ENDS
;	COMDAT ??_R1A@?0A@EA@?$CompiledLightVm@ULargePageAllocator@randomx@@$00$00@randomx@@8
rdata$r	SEGMENT
??_R1A@?0A@EA@?$CompiledLightVm@ULargePageAllocator@randomx@@$00$00@randomx@@8 DD imagerel ??_R0?AV?$CompiledLightVm@ULargePageAllocator@randomx@@$00$00@randomx@@@8 ; randomx::CompiledLightVm<randomx::LargePageAllocator,1,1>::`RTTI Base Class Descriptor at (0,-1,0,64)'
	DD	03H
	DD	00H
	DD	0ffffffffH
	DD	00H
	DD	040H
	DD	imagerel ??_R3?$CompiledLightVm@ULargePageAllocator@randomx@@$00$00@randomx@@8
rdata$r	ENDS
;	COMDAT ??_R1A@?0A@EA@?$CompiledVm@U?$AlignedAllocator@$0EA@@randomx@@$0A@$0A@@randomx@@8
rdata$r	SEGMENT
??_R1A@?0A@EA@?$CompiledVm@U?$AlignedAllocator@$0EA@@randomx@@$0A@$0A@@randomx@@8 DD imagerel ??_R0?AV?$CompiledVm@U?$AlignedAllocator@$0EA@@randomx@@$0A@$0A@@randomx@@@8 ; randomx::CompiledVm<randomx::AlignedAllocator<64>,0,0>::`RTTI Base Class Descriptor at (0,-1,0,64)'
	DD	02H
	DD	00H
	DD	0ffffffffH
	DD	00H
	DD	040H
	DD	imagerel ??_R3?$CompiledVm@U?$AlignedAllocator@$0EA@@randomx@@$0A@$0A@@randomx@@8
rdata$r	ENDS
;	COMDAT ??_R3?$VmBase@U?$AlignedAllocator@$0EA@@randomx@@$00@randomx@@8
rdata$r	SEGMENT
??_R3?$VmBase@U?$AlignedAllocator@$0EA@@randomx@@$00@randomx@@8 DD 00H ; randomx::VmBase<randomx::AlignedAllocator<64>,1>::`RTTI Class Hierarchy Descriptor'
	DD	00H
	DD	02H
	DD	imagerel ??_R2?$VmBase@U?$AlignedAllocator@$0EA@@randomx@@$00@randomx@@8
rdata$r	ENDS
;	COMDAT ??_R1A@?0A@EA@?$CompiledVm@U?$AlignedAllocator@$0EA@@randomx@@$00$0A@@randomx@@8
rdata$r	SEGMENT
??_R1A@?0A@EA@?$CompiledVm@U?$AlignedAllocator@$0EA@@randomx@@$00$0A@@randomx@@8 DD imagerel ??_R0?AV?$CompiledVm@U?$AlignedAllocator@$0EA@@randomx@@$00$0A@@randomx@@@8 ; randomx::CompiledVm<randomx::AlignedAllocator<64>,1,0>::`RTTI Base Class Descriptor at (0,-1,0,64)'
	DD	02H
	DD	00H
	DD	0ffffffffH
	DD	00H
	DD	040H
	DD	imagerel ??_R3?$CompiledVm@U?$AlignedAllocator@$0EA@@randomx@@$00$0A@@randomx@@8
rdata$r	ENDS
;	COMDAT ??_7?$CompiledLightVm@U?$AlignedAllocator@$0EA@@randomx@@$0A@$0A@@randomx@@6B@
CONST	SEGMENT
??_7?$CompiledLightVm@U?$AlignedAllocator@$0EA@@randomx@@$0A@$0A@@randomx@@6B@ DQ FLAT:??_R4?$CompiledLightVm@U?$AlignedAllocator@$0EA@@randomx@@$0A@$0A@@randomx@@6B@ ; randomx::CompiledLightVm<randomx::AlignedAllocator<64>,0,0>::`vftable'
	DQ	FLAT:??_E?$CompiledLightVm@U?$AlignedAllocator@$0EA@@randomx@@$0A@$0A@@randomx@@UEAAPEAXI@Z
	DQ	FLAT:?allocate@?$VmBase@U?$AlignedAllocator@$0EA@@randomx@@$0A@@randomx@@UEAAXXZ
	DQ	FLAT:?getFinalResult@?$VmBase@U?$AlignedAllocator@$0EA@@randomx@@$0A@@randomx@@UEAAXPEAX_K@Z
	DQ	FLAT:?hashAndFill@?$VmBase@U?$AlignedAllocator@$0EA@@randomx@@$0A@@randomx@@UEAAXPEAX_KPEA_K@Z
	DQ	FLAT:?setDataset@?$CompiledLightVm@U?$AlignedAllocator@$0EA@@randomx@@$0A@$0A@@randomx@@UEAAXPEAUrandomx_dataset@@@Z
	DQ	FLAT:?setCache@?$CompiledLightVm@U?$AlignedAllocator@$0EA@@randomx@@$0A@$0A@@randomx@@UEAAXPEAUrandomx_cache@@@Z
	DQ	FLAT:?initScratchpad@?$VmBase@U?$AlignedAllocator@$0EA@@randomx@@$0A@@randomx@@UEAAXPEAX@Z
	DQ	FLAT:?run@?$CompiledLightVm@U?$AlignedAllocator@$0EA@@randomx@@$0A@$0A@@randomx@@UEAAXPEAX@Z
CONST	ENDS
;	COMDAT ??_R1KIA@?0A@EA@BytecodeMachine@randomx@@8
rdata$r	SEGMENT
??_R1KIA@?0A@EA@BytecodeMachine@randomx@@8 DD imagerel ??_R0?AVBytecodeMachine@randomx@@@8 ; randomx::BytecodeMachine::`RTTI Base Class Descriptor at (2688,-1,0,64)'
	DD	00H
	DD	0a80H
	DD	0ffffffffH
	DD	00H
	DD	040H
	DD	imagerel ??_R3BytecodeMachine@randomx@@8
rdata$r	ENDS
;	COMDAT ??_R1A@?0A@EA@randomx_vm@@8
rdata$r	SEGMENT
??_R1A@?0A@EA@randomx_vm@@8 DD imagerel ??_R0?AVrandomx_vm@@@8 ; randomx_vm::`RTTI Base Class Descriptor at (0,-1,0,64)'
	DD	00H
	DD	00H
	DD	0ffffffffH
	DD	00H
	DD	040H
	DD	imagerel ??_R3randomx_vm@@8
rdata$r	ENDS
;	COMDAT ??_R4?$CompiledLightVm@U?$AlignedAllocator@$0EA@@randomx@@$00$0A@@randomx@@6B@
rdata$r	SEGMENT
??_R4?$CompiledLightVm@U?$AlignedAllocator@$0EA@@randomx@@$00$0A@@randomx@@6B@ DD 01H ; randomx::CompiledLightVm<randomx::AlignedAllocator<64>,1,0>::`RTTI Complete Object Locator'
	DD	00H
	DD	00H
	DD	imagerel ??_R0?AV?$CompiledLightVm@U?$AlignedAllocator@$0EA@@randomx@@$00$0A@@randomx@@@8
	DD	imagerel ??_R3?$CompiledLightVm@U?$AlignedAllocator@$0EA@@randomx@@$00$0A@@randomx@@8
	DD	imagerel ??_R4?$CompiledLightVm@U?$AlignedAllocator@$0EA@@randomx@@$00$0A@@randomx@@6B@
rdata$r	ENDS
;	COMDAT ??_R2?$VmBase@U?$AlignedAllocator@$0EA@@randomx@@$00@randomx@@8
rdata$r	SEGMENT
??_R2?$VmBase@U?$AlignedAllocator@$0EA@@randomx@@$00@randomx@@8 DD imagerel ??_R1A@?0A@EA@?$VmBase@U?$AlignedAllocator@$0EA@@randomx@@$00@randomx@@8 ; randomx::VmBase<randomx::AlignedAllocator<64>,1>::`RTTI Base Class Array'
	DD	imagerel ??_R1A@?0A@EA@randomx_vm@@8
	ORG $+3
rdata$r	ENDS
;	COMDAT ??_R3?$CompiledLightVm@ULargePageAllocator@randomx@@$00$00@randomx@@8
rdata$r	SEGMENT
??_R3?$CompiledLightVm@ULargePageAllocator@randomx@@$00$00@randomx@@8 DD 00H ; randomx::CompiledLightVm<randomx::LargePageAllocator,1,1>::`RTTI Class Hierarchy Descriptor'
	DD	00H
	DD	04H
	DD	imagerel ??_R2?$CompiledLightVm@ULargePageAllocator@randomx@@$00$00@randomx@@8
rdata$r	ENDS
;	COMDAT ??_R1A@?0A@EA@?$InterpretedVm@ULargePageAllocator@randomx@@$00@randomx@@8
rdata$r	SEGMENT
??_R1A@?0A@EA@?$InterpretedVm@ULargePageAllocator@randomx@@$00@randomx@@8 DD imagerel ??_R0?AV?$InterpretedVm@ULargePageAllocator@randomx@@$00@randomx@@@8 ; randomx::InterpretedVm<randomx::LargePageAllocator,1>::`RTTI Base Class Descriptor at (0,-1,0,64)'
	DD	03H
	DD	00H
	DD	0ffffffffH
	DD	00H
	DD	040H
	DD	imagerel ??_R3?$InterpretedVm@ULargePageAllocator@randomx@@$00@randomx@@8
rdata$r	ENDS
;	COMDAT ??_R3?$VmBase@U?$AlignedAllocator@$0EA@@randomx@@$0A@@randomx@@8
rdata$r	SEGMENT
??_R3?$VmBase@U?$AlignedAllocator@$0EA@@randomx@@$0A@@randomx@@8 DD 00H ; randomx::VmBase<randomx::AlignedAllocator<64>,0>::`RTTI Class Hierarchy Descriptor'
	DD	00H
	DD	02H
	DD	imagerel ??_R2?$VmBase@U?$AlignedAllocator@$0EA@@randomx@@$0A@@randomx@@8
rdata$r	ENDS
;	COMDAT ??_R0?AV?$VmBase@ULargePageAllocator@randomx@@$00@randomx@@@8
data$rs	SEGMENT
??_R0?AV?$VmBase@ULargePageAllocator@randomx@@$00@randomx@@@8 DQ FLAT:??_7type_info@@6B@ ; randomx::VmBase<randomx::LargePageAllocator,1> `RTTI Type Descriptor'
	DQ	0000000000000000H
	DB	'.?AV?$VmBase@ULargePageAllocator@randomx@@$00@randomx@@', 00H
data$rs	ENDS
;	COMDAT ??_R1A@?0A@EA@?$CompiledLightVm@ULargePageAllocator@randomx@@$0A@$0A@@randomx@@8
rdata$r	SEGMENT
??_R1A@?0A@EA@?$CompiledLightVm@ULargePageAllocator@randomx@@$0A@$0A@@randomx@@8 DD imagerel ??_R0?AV?$CompiledLightVm@ULargePageAllocator@randomx@@$0A@$0A@@randomx@@@8 ; randomx::CompiledLightVm<randomx::LargePageAllocator,0,0>::`RTTI Base Class Descriptor at (0,-1,0,64)'
	DD	03H
	DD	00H
	DD	0ffffffffH
	DD	00H
	DD	040H
	DD	imagerel ??_R3?$CompiledLightVm@ULargePageAllocator@randomx@@$0A@$0A@@randomx@@8
rdata$r	ENDS
;	COMDAT ??_R0?AV?$CompiledLightVm@ULargePageAllocator@randomx@@$0A@$00@randomx@@@8
data$rs	SEGMENT
??_R0?AV?$CompiledLightVm@ULargePageAllocator@randomx@@$0A@$00@randomx@@@8 DQ FLAT:??_7type_info@@6B@ ; randomx::CompiledLightVm<randomx::LargePageAllocator,0,1> `RTTI Type Descriptor'
	DQ	0000000000000000H
	DB	'.?AV?$CompiledLightVm@ULargePageAllocator@randomx@@$0A@$'
	DB	'00@randomx@@', 00H
data$rs	ENDS
;	COMDAT ??_7?$CompiledLightVm@ULargePageAllocator@randomx@@$0A@$00@randomx@@6B@
CONST	SEGMENT
??_7?$CompiledLightVm@ULargePageAllocator@randomx@@$0A@$00@randomx@@6B@ DQ FLAT:??_R4?$CompiledLightVm@ULargePageAllocator@randomx@@$0A@$00@randomx@@6B@ ; randomx::CompiledLightVm<randomx::LargePageAllocator,0,1>::`vftable'
	DQ	FLAT:??_E?$CompiledLightVm@ULargePageAllocator@randomx@@$0A@$00@randomx@@UEAAPEAXI@Z
	DQ	FLAT:?allocate@?$VmBase@ULargePageAllocator@randomx@@$0A@@randomx@@UEAAXXZ
	DQ	FLAT:?getFinalResult@?$VmBase@ULargePageAllocator@randomx@@$0A@@randomx@@UEAAXPEAX_K@Z
	DQ	FLAT:?hashAndFill@?$VmBase@ULargePageAllocator@randomx@@$0A@@randomx@@UEAAXPEAX_KPEA_K@Z
	DQ	FLAT:?setDataset@?$CompiledLightVm@ULargePageAllocator@randomx@@$0A@$00@randomx@@UEAAXPEAUrandomx_dataset@@@Z
	DQ	FLAT:?setCache@?$CompiledLightVm@ULargePageAllocator@randomx@@$0A@$00@randomx@@UEAAXPEAUrandomx_cache@@@Z
	DQ	FLAT:?initScratchpad@?$VmBase@ULargePageAllocator@randomx@@$0A@@randomx@@UEAAXPEAX@Z
	DQ	FLAT:?run@?$CompiledLightVm@ULargePageAllocator@randomx@@$0A@$00@randomx@@UEAAXPEAX@Z
CONST	ENDS
;	COMDAT ??_R3?$CompiledLightVm@ULargePageAllocator@randomx@@$0A@$00@randomx@@8
rdata$r	SEGMENT
??_R3?$CompiledLightVm@ULargePageAllocator@randomx@@$0A@$00@randomx@@8 DD 00H ; randomx::CompiledLightVm<randomx::LargePageAllocator,0,1>::`RTTI Class Hierarchy Descriptor'
	DD	00H
	DD	04H
	DD	imagerel ??_R2?$CompiledLightVm@ULargePageAllocator@randomx@@$0A@$00@randomx@@8
rdata$r	ENDS
;	COMDAT _CTA2?AVbad_alloc@std@@
xdata$x	SEGMENT
_CTA2?AVbad_alloc@std@@ DD 02H
	DD	imagerel _CT??_R0?AVbad_alloc@std@@@8??0bad_alloc@std@@QEAA@AEBV01@@Z24
	DD	imagerel _CT??_R0?AVexception@std@@@8??0exception@std@@QEAA@AEBV01@@Z24
xdata$x	ENDS
;	COMDAT ??_R3?$InterpretedVm@ULargePageAllocator@randomx@@$0A@@randomx@@8
rdata$r	SEGMENT
??_R3?$InterpretedVm@ULargePageAllocator@randomx@@$0A@@randomx@@8 DD 00H ; randomx::InterpretedVm<randomx::LargePageAllocator,0>::`RTTI Class Hierarchy Descriptor'
	DD	01H
	DD	04H
	DD	imagerel ??_R2?$InterpretedVm@ULargePageAllocator@randomx@@$0A@@randomx@@8
rdata$r	ENDS
;	COMDAT ??_R2randomx_vm@@8
rdata$r	SEGMENT
??_R2randomx_vm@@8 DD imagerel ??_R1A@?0A@EA@randomx_vm@@8 ; randomx_vm::`RTTI Base Class Array'
	ORG $+3
rdata$r	ENDS
;	COMDAT ??_R3?$InterpretedVm@ULargePageAllocator@randomx@@$00@randomx@@8
rdata$r	SEGMENT
??_R3?$InterpretedVm@ULargePageAllocator@randomx@@$00@randomx@@8 DD 00H ; randomx::InterpretedVm<randomx::LargePageAllocator,1>::`RTTI Class Hierarchy Descriptor'
	DD	01H
	DD	04H
	DD	imagerel ??_R2?$InterpretedVm@ULargePageAllocator@randomx@@$00@randomx@@8
rdata$r	ENDS
;	COMDAT ??_R3?$CompiledVm@ULargePageAllocator@randomx@@$0A@$0A@@randomx@@8
rdata$r	SEGMENT
??_R3?$CompiledVm@ULargePageAllocator@randomx@@$0A@$0A@@randomx@@8 DD 00H ; randomx::CompiledVm<randomx::LargePageAllocator,0,0>::`RTTI Class Hierarchy Descriptor'
	DD	00H
	DD	03H
	DD	imagerel ??_R2?$CompiledVm@ULargePageAllocator@randomx@@$0A@$0A@@randomx@@8
rdata$r	ENDS
;	COMDAT ??_7?$VmBase@U?$AlignedAllocator@$0EA@@randomx@@$00@randomx@@6B@
CONST	SEGMENT
??_7?$VmBase@U?$AlignedAllocator@$0EA@@randomx@@$00@randomx@@6B@ DQ FLAT:??_R4?$VmBase@U?$AlignedAllocator@$0EA@@randomx@@$00@randomx@@6B@ ; randomx::VmBase<randomx::AlignedAllocator<64>,1>::`vftable'
	DQ	FLAT:??_E?$VmBase@U?$AlignedAllocator@$0EA@@randomx@@$00@randomx@@UEAAPEAXI@Z
	DQ	FLAT:?allocate@?$VmBase@U?$AlignedAllocator@$0EA@@randomx@@$00@randomx@@UEAAXXZ
	DQ	FLAT:?getFinalResult@?$VmBase@U?$AlignedAllocator@$0EA@@randomx@@$00@randomx@@UEAAXPEAX_K@Z
	DQ	FLAT:?hashAndFill@?$VmBase@U?$AlignedAllocator@$0EA@@randomx@@$00@randomx@@UEAAXPEAX_KPEA_K@Z
	DQ	FLAT:?setDataset@randomx_vm@@UEAAXPEAUrandomx_dataset@@@Z
	DQ	FLAT:?setCache@randomx_vm@@UEAAXPEAUrandomx_cache@@@Z
	DQ	FLAT:?initScratchpad@?$VmBase@U?$AlignedAllocator@$0EA@@randomx@@$00@randomx@@UEAAXPEAX@Z
	DQ	FLAT:_purecall
CONST	ENDS
;	COMDAT ??_7?$CompiledLightVm@ULargePageAllocator@randomx@@$0A@$0A@@randomx@@6B@
CONST	SEGMENT
??_7?$CompiledLightVm@ULargePageAllocator@randomx@@$0A@$0A@@randomx@@6B@ DQ FLAT:??_R4?$CompiledLightVm@ULargePageAllocator@randomx@@$0A@$0A@@randomx@@6B@ ; randomx::CompiledLightVm<randomx::LargePageAllocator,0,0>::`vftable'
	DQ	FLAT:??_E?$CompiledLightVm@ULargePageAllocator@randomx@@$0A@$0A@@randomx@@UEAAPEAXI@Z
	DQ	FLAT:?allocate@?$VmBase@ULargePageAllocator@randomx@@$0A@@randomx@@UEAAXXZ
	DQ	FLAT:?getFinalResult@?$VmBase@ULargePageAllocator@randomx@@$0A@@randomx@@UEAAXPEAX_K@Z
	DQ	FLAT:?hashAndFill@?$VmBase@ULargePageAllocator@randomx@@$0A@@randomx@@UEAAXPEAX_KPEA_K@Z
	DQ	FLAT:?setDataset@?$CompiledLightVm@ULargePageAllocator@randomx@@$0A@$0A@@randomx@@UEAAXPEAUrandomx_dataset@@@Z
	DQ	FLAT:?setCache@?$CompiledLightVm@ULargePageAllocator@randomx@@$0A@$0A@@randomx@@UEAAXPEAUrandomx_cache@@@Z
	DQ	FLAT:?initScratchpad@?$VmBase@ULargePageAllocator@randomx@@$0A@@randomx@@UEAAXPEAX@Z
	DQ	FLAT:?run@?$CompiledLightVm@ULargePageAllocator@randomx@@$0A@$0A@@randomx@@UEAAXPEAX@Z
CONST	ENDS
;	COMDAT ??_R3?$CompiledLightVm@U?$AlignedAllocator@$0EA@@randomx@@$0A@$0A@@randomx@@8
rdata$r	SEGMENT
??_R3?$CompiledLightVm@U?$AlignedAllocator@$0EA@@randomx@@$0A@$0A@@randomx@@8 DD 00H ; randomx::CompiledLightVm<randomx::AlignedAllocator<64>,0,0>::`RTTI Class Hierarchy Descriptor'
	DD	00H
	DD	04H
	DD	imagerel ??_R2?$CompiledLightVm@U?$AlignedAllocator@$0EA@@randomx@@$0A@$0A@@randomx@@8
rdata$r	ENDS
;	COMDAT ??_7?$VmBase@U?$AlignedAllocator@$0EA@@randomx@@$0A@@randomx@@6B@
CONST	SEGMENT
??_7?$VmBase@U?$AlignedAllocator@$0EA@@randomx@@$0A@@randomx@@6B@ DQ FLAT:??_R4?$VmBase@U?$AlignedAllocator@$0EA@@randomx@@$0A@@randomx@@6B@ ; randomx::VmBase<randomx::AlignedAllocator<64>,0>::`vftable'
	DQ	FLAT:??_E?$VmBase@U?$AlignedAllocator@$0EA@@randomx@@$0A@@randomx@@UEAAPEAXI@Z
	DQ	FLAT:?allocate@?$VmBase@U?$AlignedAllocator@$0EA@@randomx@@$0A@@randomx@@UEAAXXZ
	DQ	FLAT:?getFinalResult@?$VmBase@U?$AlignedAllocator@$0EA@@randomx@@$0A@@randomx@@UEAAXPEAX_K@Z
	DQ	FLAT:?hashAndFill@?$VmBase@U?$AlignedAllocator@$0EA@@randomx@@$0A@@randomx@@UEAAXPEAX_KPEA_K@Z
	DQ	FLAT:?setDataset@randomx_vm@@UEAAXPEAUrandomx_dataset@@@Z
	DQ	FLAT:?setCache@randomx_vm@@UEAAXPEAUrandomx_cache@@@Z
	DQ	FLAT:?initScratchpad@?$VmBase@U?$AlignedAllocator@$0EA@@randomx@@$0A@@randomx@@UEAAXPEAX@Z
	DQ	FLAT:_purecall
CONST	ENDS
;	COMDAT ??_R1A@?0A@EA@?$VmBase@ULargePageAllocator@randomx@@$00@randomx@@8
rdata$r	SEGMENT
??_R1A@?0A@EA@?$VmBase@ULargePageAllocator@randomx@@$00@randomx@@8 DD imagerel ??_R0?AV?$VmBase@ULargePageAllocator@randomx@@$00@randomx@@@8 ; randomx::VmBase<randomx::LargePageAllocator,1>::`RTTI Base Class Descriptor at (0,-1,0,64)'
	DD	01H
	DD	00H
	DD	0ffffffffH
	DD	00H
	DD	040H
	DD	imagerel ??_R3?$VmBase@ULargePageAllocator@randomx@@$00@randomx@@8
rdata$r	ENDS
;	COMDAT ??_R0?AV?$InterpretedLightVm@U?$AlignedAllocator@$0EA@@randomx@@$0A@@randomx@@@8
data$rs	SEGMENT
??_R0?AV?$InterpretedLightVm@U?$AlignedAllocator@$0EA@@randomx@@$0A@@randomx@@@8 DQ FLAT:??_7type_info@@6B@ ; randomx::InterpretedLightVm<randomx::AlignedAllocator<64>,0> `RTTI Type Descriptor'
	DQ	0000000000000000H
	DB	'.?AV?$InterpretedLightVm@U?$AlignedAllocator@$0EA@@rando'
	DB	'mx@@$0A@@randomx@@', 00H
data$rs	ENDS
;	COMDAT ??_7?$InterpretedLightVm@ULargePageAllocator@randomx@@$0A@@randomx@@6B@
CONST	SEGMENT
??_7?$InterpretedLightVm@ULargePageAllocator@randomx@@$0A@@randomx@@6B@ DQ FLAT:??_R4?$InterpretedLightVm@ULargePageAllocator@randomx@@$0A@@randomx@@6B@ ; randomx::InterpretedLightVm<randomx::LargePageAllocator,0>::`vftable'
	DQ	FLAT:??_E?$InterpretedLightVm@ULargePageAllocator@randomx@@$0A@@randomx@@UEAAPEAXI@Z
	DQ	FLAT:?allocate@?$VmBase@ULargePageAllocator@randomx@@$0A@@randomx@@UEAAXXZ
	DQ	FLAT:?getFinalResult@?$VmBase@ULargePageAllocator@randomx@@$0A@@randomx@@UEAAXPEAX_K@Z
	DQ	FLAT:?hashAndFill@?$VmBase@ULargePageAllocator@randomx@@$0A@@randomx@@UEAAXPEAX_KPEA_K@Z
	DQ	FLAT:?setDataset@?$InterpretedLightVm@ULargePageAllocator@randomx@@$0A@@randomx@@UEAAXPEAUrandomx_dataset@@@Z
	DQ	FLAT:?setCache@?$InterpretedLightVm@ULargePageAllocator@randomx@@$0A@@randomx@@UEAAXPEAUrandomx_cache@@@Z
	DQ	FLAT:?initScratchpad@?$VmBase@ULargePageAllocator@randomx@@$0A@@randomx@@UEAAXPEAX@Z
	DQ	FLAT:?run@?$InterpretedVm@ULargePageAllocator@randomx@@$0A@@randomx@@UEAAXPEAX@Z
	DQ	FLAT:?datasetRead@?$InterpretedLightVm@ULargePageAllocator@randomx@@$0A@@randomx@@MEAAX_KAEAY07_K@Z
	DQ	FLAT:?datasetPrefetch@?$InterpretedLightVm@ULargePageAllocator@randomx@@$0A@@randomx@@MEAAX_K@Z
CONST	ENDS
;	COMDAT ??_R0?AV?$CompiledVm@ULargePageAllocator@randomx@@$00$0A@@randomx@@@8
data$rs	SEGMENT
??_R0?AV?$CompiledVm@ULargePageAllocator@randomx@@$00$0A@@randomx@@@8 DQ FLAT:??_7type_info@@6B@ ; randomx::CompiledVm<randomx::LargePageAllocator,1,0> `RTTI Type Descriptor'
	DQ	0000000000000000H
	DB	'.?AV?$CompiledVm@ULargePageAllocator@randomx@@$00$0A@@ra'
	DB	'ndomx@@', 00H
data$rs	ENDS
;	COMDAT ??_R3?$InterpretedVm@U?$AlignedAllocator@$0EA@@randomx@@$0A@@randomx@@8
rdata$r	SEGMENT
??_R3?$InterpretedVm@U?$AlignedAllocator@$0EA@@randomx@@$0A@@randomx@@8 DD 00H ; randomx::InterpretedVm<randomx::AlignedAllocator<64>,0>::`RTTI Class Hierarchy Descriptor'
	DD	01H
	DD	04H
	DD	imagerel ??_R2?$InterpretedVm@U?$AlignedAllocator@$0EA@@randomx@@$0A@@randomx@@8
rdata$r	ENDS
;	COMDAT ??_R2?$CompiledLightVm@ULargePageAllocator@randomx@@$0A@$0A@@randomx@@8
rdata$r	SEGMENT
??_R2?$CompiledLightVm@ULargePageAllocator@randomx@@$0A@$0A@@randomx@@8 DD imagerel ??_R1A@?0A@EA@?$CompiledLightVm@ULargePageAllocator@randomx@@$0A@$0A@@randomx@@8 ; randomx::CompiledLightVm<randomx::LargePageAllocator,0,0>::`RTTI Base Class Array'
	DD	imagerel ??_R1A@?0A@EA@?$CompiledVm@ULargePageAllocator@randomx@@$0A@$0A@@randomx@@8
	DD	imagerel ??_R1A@?0A@EA@?$VmBase@ULargePageAllocator@randomx@@$0A@@randomx@@8
	DD	imagerel ??_R1A@?0A@EA@randomx_vm@@8
	ORG $+3
rdata$r	ENDS
;	COMDAT ??_R2?$CompiledVm@ULargePageAllocator@randomx@@$0A@$0A@@randomx@@8
rdata$r	SEGMENT
??_R2?$CompiledVm@ULargePageAllocator@randomx@@$0A@$0A@@randomx@@8 DD imagerel ??_R1A@?0A@EA@?$CompiledVm@ULargePageAllocator@randomx@@$0A@$0A@@randomx@@8 ; randomx::CompiledVm<randomx::LargePageAllocator,0,0>::`RTTI Base Class Array'
	DD	imagerel ??_R1A@?0A@EA@?$VmBase@ULargePageAllocator@randomx@@$0A@@randomx@@8
	DD	imagerel ??_R1A@?0A@EA@randomx_vm@@8
	ORG $+3
rdata$r	ENDS
;	COMDAT ??_R3?$CompiledVm@U?$AlignedAllocator@$0EA@@randomx@@$0A@$0A@@randomx@@8
rdata$r	SEGMENT
??_R3?$CompiledVm@U?$AlignedAllocator@$0EA@@randomx@@$0A@$0A@@randomx@@8 DD 00H ; randomx::CompiledVm<randomx::AlignedAllocator<64>,0,0>::`RTTI Class Hierarchy Descriptor'
	DD	00H
	DD	03H
	DD	imagerel ??_R2?$CompiledVm@U?$AlignedAllocator@$0EA@@randomx@@$0A@$0A@@randomx@@8
rdata$r	ENDS
;	COMDAT ??_R2BytecodeMachine@randomx@@8
rdata$r	SEGMENT
??_R2BytecodeMachine@randomx@@8 DD imagerel ??_R1A@?0A@EA@BytecodeMachine@randomx@@8 ; randomx::BytecodeMachine::`RTTI Base Class Array'
	ORG $+3
rdata$r	ENDS
;	COMDAT ??_R2?$CompiledVm@U?$AlignedAllocator@$0EA@@randomx@@$0A@$0A@@randomx@@8
rdata$r	SEGMENT
??_R2?$CompiledVm@U?$AlignedAllocator@$0EA@@randomx@@$0A@$0A@@randomx@@8 DD imagerel ??_R1A@?0A@EA@?$CompiledVm@U?$AlignedAllocator@$0EA@@randomx@@$0A@$0A@@randomx@@8 ; randomx::CompiledVm<randomx::AlignedAllocator<64>,0,0>::`RTTI Base Class Array'
	DD	imagerel ??_R1A@?0A@EA@?$VmBase@U?$AlignedAllocator@$0EA@@randomx@@$0A@@randomx@@8
	DD	imagerel ??_R1A@?0A@EA@randomx_vm@@8
	ORG $+3
rdata$r	ENDS
;	COMDAT ??_R2?$CompiledLightVm@ULargePageAllocator@randomx@@$00$00@randomx@@8
rdata$r	SEGMENT
??_R2?$CompiledLightVm@ULargePageAllocator@randomx@@$00$00@randomx@@8 DD imagerel ??_R1A@?0A@EA@?$CompiledLightVm@ULargePageAllocator@randomx@@$00$00@randomx@@8 ; randomx::CompiledLightVm<randomx::LargePageAllocator,1,1>::`RTTI Base Class Array'
	DD	imagerel ??_R1A@?0A@EA@?$CompiledVm@ULargePageAllocator@randomx@@$00$00@randomx@@8
	DD	imagerel ??_R1A@?0A@EA@?$VmBase@ULargePageAllocator@randomx@@$00@randomx@@8
	DD	imagerel ??_R1A@?0A@EA@randomx_vm@@8
	ORG $+3
rdata$r	ENDS
;	COMDAT ??_R3?$InterpretedLightVm@ULargePageAllocator@randomx@@$00@randomx@@8
rdata$r	SEGMENT
??_R3?$InterpretedLightVm@ULargePageAllocator@randomx@@$00@randomx@@8 DD 00H ; randomx::InterpretedLightVm<randomx::LargePageAllocator,1>::`RTTI Class Hierarchy Descriptor'
	DD	01H
	DD	05H
	DD	imagerel ??_R2?$InterpretedLightVm@ULargePageAllocator@randomx@@$00@randomx@@8
rdata$r	ENDS
;	COMDAT ??_R4?$CompiledLightVm@U?$AlignedAllocator@$0EA@@randomx@@$00$00@randomx@@6B@
rdata$r	SEGMENT
??_R4?$CompiledLightVm@U?$AlignedAllocator@$0EA@@randomx@@$00$00@randomx@@6B@ DD 01H ; randomx::CompiledLightVm<randomx::AlignedAllocator<64>,1,1>::`RTTI Complete Object Locator'
	DD	00H
	DD	00H
	DD	imagerel ??_R0?AV?$CompiledLightVm@U?$AlignedAllocator@$0EA@@randomx@@$00$00@randomx@@@8
	DD	imagerel ??_R3?$CompiledLightVm@U?$AlignedAllocator@$0EA@@randomx@@$00$00@randomx@@8
	DD	imagerel ??_R4?$CompiledLightVm@U?$AlignedAllocator@$0EA@@randomx@@$00$00@randomx@@6B@
rdata$r	ENDS
;	COMDAT ??_R2?$CompiledLightVm@ULargePageAllocator@randomx@@$0A@$00@randomx@@8
rdata$r	SEGMENT
??_R2?$CompiledLightVm@ULargePageAllocator@randomx@@$0A@$00@randomx@@8 DD imagerel ??_R1A@?0A@EA@?$CompiledLightVm@ULargePageAllocator@randomx@@$0A@$00@randomx@@8 ; randomx::CompiledLightVm<randomx::LargePageAllocator,0,1>::`RTTI Base Class Array'
	DD	imagerel ??_R1A@?0A@EA@?$CompiledVm@ULargePageAllocator@randomx@@$0A@$00@randomx@@8
	DD	imagerel ??_R1A@?0A@EA@?$VmBase@ULargePageAllocator@randomx@@$0A@@randomx@@8
	DD	imagerel ??_R1A@?0A@EA@randomx_vm@@8
	ORG $+3
rdata$r	ENDS
;	COMDAT ??_R1A@?0A@EA@BytecodeMachine@randomx@@8
rdata$r	SEGMENT
??_R1A@?0A@EA@BytecodeMachine@randomx@@8 DD imagerel ??_R0?AVBytecodeMachine@randomx@@@8 ; randomx::BytecodeMachine::`RTTI Base Class Descriptor at (0,-1,0,64)'
	DD	00H
	DD	00H
	DD	0ffffffffH
	DD	00H
	DD	040H
	DD	imagerel ??_R3BytecodeMachine@randomx@@8
rdata$r	ENDS
;	COMDAT ??_R0?AV?$CompiledLightVm@U?$AlignedAllocator@$0EA@@randomx@@$0A@$0A@@randomx@@@8
data$rs	SEGMENT
??_R0?AV?$CompiledLightVm@U?$AlignedAllocator@$0EA@@randomx@@$0A@$0A@@randomx@@@8 DQ FLAT:??_7type_info@@6B@ ; randomx::CompiledLightVm<randomx::AlignedAllocator<64>,0,0> `RTTI Type Descriptor'
	DQ	0000000000000000H
	DB	'.?AV?$CompiledLightVm@U?$AlignedAllocator@$0EA@@randomx@'
	DB	'@$0A@$0A@@randomx@@', 00H
data$rs	ENDS
;	COMDAT ??_R0?AV?$CompiledLightVm@ULargePageAllocator@randomx@@$0A@$0A@@randomx@@@8
data$rs	SEGMENT
??_R0?AV?$CompiledLightVm@ULargePageAllocator@randomx@@$0A@$0A@@randomx@@@8 DQ FLAT:??_7type_info@@6B@ ; randomx::CompiledLightVm<randomx::LargePageAllocator,0,0> `RTTI Type Descriptor'
	DQ	0000000000000000H
	DB	'.?AV?$CompiledLightVm@ULargePageAllocator@randomx@@$0A@$'
	DB	'0A@@randomx@@', 00H
data$rs	ENDS
;	COMDAT ??_R2?$CompiledVm@ULargePageAllocator@randomx@@$00$00@randomx@@8
rdata$r	SEGMENT
??_R2?$CompiledVm@ULargePageAllocator@randomx@@$00$00@randomx@@8 DD imagerel ??_R1A@?0A@EA@?$CompiledVm@ULargePageAllocator@randomx@@$00$00@randomx@@8 ; randomx::CompiledVm<randomx::LargePageAllocator,1,1>::`RTTI Base Class Array'
	DD	imagerel ??_R1A@?0A@EA@?$VmBase@ULargePageAllocator@randomx@@$00@randomx@@8
	DD	imagerel ??_R1A@?0A@EA@randomx_vm@@8
	ORG $+3
rdata$r	ENDS
;	COMDAT ??_R0?AV?$CompiledVm@U?$AlignedAllocator@$0EA@@randomx@@$00$0A@@randomx@@@8
data$rs	SEGMENT
??_R0?AV?$CompiledVm@U?$AlignedAllocator@$0EA@@randomx@@$00$0A@@randomx@@@8 DQ FLAT:??_7type_info@@6B@ ; randomx::CompiledVm<randomx::AlignedAllocator<64>,1,0> `RTTI Type Descriptor'
	DQ	0000000000000000H
	DB	'.?AV?$CompiledVm@U?$AlignedAllocator@$0EA@@randomx@@$00$'
	DB	'0A@@randomx@@', 00H
data$rs	ENDS
;	COMDAT ??_R4?$CompiledLightVm@ULargePageAllocator@randomx@@$0A@$00@randomx@@6B@
rdata$r	SEGMENT
??_R4?$CompiledLightVm@ULargePageAllocator@randomx@@$0A@$00@randomx@@6B@ DD 01H ; randomx::CompiledLightVm<randomx::LargePageAllocator,0,1>::`RTTI Complete Object Locator'
	DD	00H
	DD	00H
	DD	imagerel ??_R0?AV?$CompiledLightVm@ULargePageAllocator@randomx@@$0A@$00@randomx@@@8
	DD	imagerel ??_R3?$CompiledLightVm@ULargePageAllocator@randomx@@$0A@$00@randomx@@8
	DD	imagerel ??_R4?$CompiledLightVm@ULargePageAllocator@randomx@@$0A@$00@randomx@@6B@
rdata$r	ENDS
;	COMDAT ??_R1A@?0A@EA@?$InterpretedVm@ULargePageAllocator@randomx@@$0A@@randomx@@8
rdata$r	SEGMENT
??_R1A@?0A@EA@?$InterpretedVm@ULargePageAllocator@randomx@@$0A@@randomx@@8 DD imagerel ??_R0?AV?$InterpretedVm@ULargePageAllocator@randomx@@$0A@@randomx@@@8 ; randomx::InterpretedVm<randomx::LargePageAllocator,0>::`RTTI Base Class Descriptor at (0,-1,0,64)'
	DD	03H
	DD	00H
	DD	0ffffffffH
	DD	00H
	DD	040H
	DD	imagerel ??_R3?$InterpretedVm@ULargePageAllocator@randomx@@$0A@@randomx@@8
rdata$r	ENDS
;	COMDAT ??_R2?$CompiledVm@ULargePageAllocator@randomx@@$00$0A@@randomx@@8
rdata$r	SEGMENT
??_R2?$CompiledVm@ULargePageAllocator@randomx@@$00$0A@@randomx@@8 DD imagerel ??_R1A@?0A@EA@?$CompiledVm@ULargePageAllocator@randomx@@$00$0A@@randomx@@8 ; randomx::CompiledVm<randomx::LargePageAllocator,1,0>::`RTTI Base Class Array'
	DD	imagerel ??_R1A@?0A@EA@?$VmBase@ULargePageAllocator@randomx@@$00@randomx@@8
	DD	imagerel ??_R1A@?0A@EA@randomx_vm@@8
	ORG $+3
rdata$r	ENDS
;	COMDAT ??_R2?$CompiledLightVm@U?$AlignedAllocator@$0EA@@randomx@@$00$00@randomx@@8
rdata$r	SEGMENT
??_R2?$CompiledLightVm@U?$AlignedAllocator@$0EA@@randomx@@$00$00@randomx@@8 DD imagerel ??_R1A@?0A@EA@?$CompiledLightVm@U?$AlignedAllocator@$0EA@@randomx@@$00$00@randomx@@8 ; randomx::CompiledLightVm<randomx::AlignedAllocator<64>,1,1>::`RTTI Base Class Array'
	DD	imagerel ??_R1A@?0A@EA@?$CompiledVm@U?$AlignedAllocator@$0EA@@randomx@@$00$00@randomx@@8
	DD	imagerel ??_R1A@?0A@EA@?$VmBase@U?$AlignedAllocator@$0EA@@randomx@@$00@randomx@@8
	DD	imagerel ??_R1A@?0A@EA@randomx_vm@@8
	ORG $+3
rdata$r	ENDS
;	COMDAT ??_7?$InterpretedVm@U?$AlignedAllocator@$0EA@@randomx@@$00@randomx@@6B@
CONST	SEGMENT
??_7?$InterpretedVm@U?$AlignedAllocator@$0EA@@randomx@@$00@randomx@@6B@ DQ FLAT:??_R4?$InterpretedVm@U?$AlignedAllocator@$0EA@@randomx@@$00@randomx@@6B@ ; randomx::InterpretedVm<randomx::AlignedAllocator<64>,1>::`vftable'
	DQ	FLAT:??_E?$InterpretedVm@U?$AlignedAllocator@$0EA@@randomx@@$00@randomx@@UEAAPEAXI@Z
	DQ	FLAT:?allocate@?$VmBase@U?$AlignedAllocator@$0EA@@randomx@@$00@randomx@@UEAAXXZ
	DQ	FLAT:?getFinalResult@?$VmBase@U?$AlignedAllocator@$0EA@@randomx@@$00@randomx@@UEAAXPEAX_K@Z
	DQ	FLAT:?hashAndFill@?$VmBase@U?$AlignedAllocator@$0EA@@randomx@@$00@randomx@@UEAAXPEAX_KPEA_K@Z
	DQ	FLAT:?setDataset@?$InterpretedVm@U?$AlignedAllocator@$0EA@@randomx@@$00@randomx@@UEAAXPEAUrandomx_dataset@@@Z
	DQ	FLAT:?setCache@randomx_vm@@UEAAXPEAUrandomx_cache@@@Z
	DQ	FLAT:?initScratchpad@?$VmBase@U?$AlignedAllocator@$0EA@@randomx@@$00@randomx@@UEAAXPEAX@Z
	DQ	FLAT:?run@?$InterpretedVm@U?$AlignedAllocator@$0EA@@randomx@@$00@randomx@@UEAAXPEAX@Z
	DQ	FLAT:?datasetRead@?$InterpretedVm@U?$AlignedAllocator@$0EA@@randomx@@$00@randomx@@MEAAX_KAEAY07_K@Z
	DQ	FLAT:?datasetPrefetch@?$InterpretedVm@U?$AlignedAllocator@$0EA@@randomx@@$00@randomx@@MEAAX_K@Z
CONST	ENDS
;	COMDAT ??_R0?AV?$InterpretedLightVm@U?$AlignedAllocator@$0EA@@randomx@@$00@randomx@@@8
data$rs	SEGMENT
??_R0?AV?$InterpretedLightVm@U?$AlignedAllocator@$0EA@@randomx@@$00@randomx@@@8 DQ FLAT:??_7type_info@@6B@ ; randomx::InterpretedLightVm<randomx::AlignedAllocator<64>,1> `RTTI Type Descriptor'
	DQ	0000000000000000H
	DB	'.?AV?$InterpretedLightVm@U?$AlignedAllocator@$0EA@@rando'
	DB	'mx@@$00@randomx@@', 00H
data$rs	ENDS
;	COMDAT ??_R2?$InterpretedLightVm@ULargePageAllocator@randomx@@$00@randomx@@8
rdata$r	SEGMENT
??_R2?$InterpretedLightVm@ULargePageAllocator@randomx@@$00@randomx@@8 DD imagerel ??_R1A@?0A@EA@?$InterpretedLightVm@ULargePageAllocator@randomx@@$00@randomx@@8 ; randomx::InterpretedLightVm<randomx::LargePageAllocator,1>::`RTTI Base Class Array'
	DD	imagerel ??_R1A@?0A@EA@?$InterpretedVm@ULargePageAllocator@randomx@@$00@randomx@@8
	DD	imagerel ??_R1A@?0A@EA@?$VmBase@ULargePageAllocator@randomx@@$00@randomx@@8
	DD	imagerel ??_R1A@?0A@EA@randomx_vm@@8
	DD	imagerel ??_R1KIA@?0A@EA@BytecodeMachine@randomx@@8
	ORG $+3
rdata$r	ENDS
;	COMDAT ??_7?$CompiledLightVm@ULargePageAllocator@randomx@@$00$0A@@randomx@@6B@
CONST	SEGMENT
??_7?$CompiledLightVm@ULargePageAllocator@randomx@@$00$0A@@randomx@@6B@ DQ FLAT:??_R4?$CompiledLightVm@ULargePageAllocator@randomx@@$00$0A@@randomx@@6B@ ; randomx::CompiledLightVm<randomx::LargePageAllocator,1,0>::`vftable'
	DQ	FLAT:??_E?$CompiledLightVm@ULargePageAllocator@randomx@@$00$0A@@randomx@@UEAAPEAXI@Z
	DQ	FLAT:?allocate@?$VmBase@ULargePageAllocator@randomx@@$00@randomx@@UEAAXXZ
	DQ	FLAT:?getFinalResult@?$VmBase@ULargePageAllocator@randomx@@$00@randomx@@UEAAXPEAX_K@Z
	DQ	FLAT:?hashAndFill@?$VmBase@ULargePageAllocator@randomx@@$00@randomx@@UEAAXPEAX_KPEA_K@Z
	DQ	FLAT:?setDataset@?$CompiledLightVm@ULargePageAllocator@randomx@@$00$0A@@randomx@@UEAAXPEAUrandomx_dataset@@@Z
	DQ	FLAT:?setCache@?$CompiledLightVm@ULargePageAllocator@randomx@@$00$0A@@randomx@@UEAAXPEAUrandomx_cache@@@Z
	DQ	FLAT:?initScratchpad@?$VmBase@ULargePageAllocator@randomx@@$00@randomx@@UEAAXPEAX@Z
	DQ	FLAT:?run@?$CompiledLightVm@ULargePageAllocator@randomx@@$00$0A@@randomx@@UEAAXPEAX@Z
CONST	ENDS
;	COMDAT ??_R1A@?0A@EA@?$CompiledLightVm@U?$AlignedAllocator@$0EA@@randomx@@$00$00@randomx@@8
rdata$r	SEGMENT
??_R1A@?0A@EA@?$CompiledLightVm@U?$AlignedAllocator@$0EA@@randomx@@$00$00@randomx@@8 DD imagerel ??_R0?AV?$CompiledLightVm@U?$AlignedAllocator@$0EA@@randomx@@$00$00@randomx@@@8 ; randomx::CompiledLightVm<randomx::AlignedAllocator<64>,1,1>::`RTTI Base Class Descriptor at (0,-1,0,64)'
	DD	03H
	DD	00H
	DD	0ffffffffH
	DD	00H
	DD	040H
	DD	imagerel ??_R3?$CompiledLightVm@U?$AlignedAllocator@$0EA@@randomx@@$00$00@randomx@@8
rdata$r	ENDS
;	COMDAT ??_R1A@?0A@EA@?$CompiledLightVm@U?$AlignedAllocator@$0EA@@randomx@@$00$0A@@randomx@@8
rdata$r	SEGMENT
??_R1A@?0A@EA@?$CompiledLightVm@U?$AlignedAllocator@$0EA@@randomx@@$00$0A@@randomx@@8 DD imagerel ??_R0?AV?$CompiledLightVm@U?$AlignedAllocator@$0EA@@randomx@@$00$0A@@randomx@@@8 ; randomx::CompiledLightVm<randomx::AlignedAllocator<64>,1,0>::`RTTI Base Class Descriptor at (0,-1,0,64)'
	DD	03H
	DD	00H
	DD	0ffffffffH
	DD	00H
	DD	040H
	DD	imagerel ??_R3?$CompiledLightVm@U?$AlignedAllocator@$0EA@@randomx@@$00$0A@@randomx@@8
rdata$r	ENDS
;	COMDAT ??_R2?$CompiledLightVm@U?$AlignedAllocator@$0EA@@randomx@@$0A@$0A@@randomx@@8
rdata$r	SEGMENT
??_R2?$CompiledLightVm@U?$AlignedAllocator@$0EA@@randomx@@$0A@$0A@@randomx@@8 DD imagerel ??_R1A@?0A@EA@?$CompiledLightVm@U?$AlignedAllocator@$0EA@@randomx@@$0A@$0A@@randomx@@8 ; randomx::CompiledLightVm<randomx::AlignedAllocator<64>,0,0>::`RTTI Base Class Array'
	DD	imagerel ??_R1A@?0A@EA@?$CompiledVm@U?$AlignedAllocator@$0EA@@randomx@@$0A@$0A@@randomx@@8
	DD	imagerel ??_R1A@?0A@EA@?$VmBase@U?$AlignedAllocator@$0EA@@randomx@@$0A@@randomx@@8
	DD	imagerel ??_R1A@?0A@EA@randomx_vm@@8
	ORG $+3
rdata$r	ENDS
;	COMDAT ??_R1A@?0A@EA@?$CompiledVm@U?$AlignedAllocator@$0EA@@randomx@@$0A@$00@randomx@@8
rdata$r	SEGMENT
??_R1A@?0A@EA@?$CompiledVm@U?$AlignedAllocator@$0EA@@randomx@@$0A@$00@randomx@@8 DD imagerel ??_R0?AV?$CompiledVm@U?$AlignedAllocator@$0EA@@randomx@@$0A@$00@randomx@@@8 ; randomx::CompiledVm<randomx::AlignedAllocator<64>,0,1>::`RTTI Base Class Descriptor at (0,-1,0,64)'
	DD	02H
	DD	00H
	DD	0ffffffffH
	DD	00H
	DD	040H
	DD	imagerel ??_R3?$CompiledVm@U?$AlignedAllocator@$0EA@@randomx@@$0A@$00@randomx@@8
rdata$r	ENDS
;	COMDAT ??_R3randomx_vm@@8
rdata$r	SEGMENT
??_R3randomx_vm@@8 DD 00H				; randomx_vm::`RTTI Class Hierarchy Descriptor'
	DD	00H
	DD	01H
	DD	imagerel ??_R2randomx_vm@@8
rdata$r	ENDS
;	COMDAT ??_R2?$VmBase@ULargePageAllocator@randomx@@$00@randomx@@8
rdata$r	SEGMENT
??_R2?$VmBase@ULargePageAllocator@randomx@@$00@randomx@@8 DD imagerel ??_R1A@?0A@EA@?$VmBase@ULargePageAllocator@randomx@@$00@randomx@@8 ; randomx::VmBase<randomx::LargePageAllocator,1>::`RTTI Base Class Array'
	DD	imagerel ??_R1A@?0A@EA@randomx_vm@@8
	ORG $+3
rdata$r	ENDS
;	COMDAT ??_R1A@?0A@EA@?$VmBase@U?$AlignedAllocator@$0EA@@randomx@@$00@randomx@@8
rdata$r	SEGMENT
??_R1A@?0A@EA@?$VmBase@U?$AlignedAllocator@$0EA@@randomx@@$00@randomx@@8 DD imagerel ??_R0?AV?$VmBase@U?$AlignedAllocator@$0EA@@randomx@@$00@randomx@@@8 ; randomx::VmBase<randomx::AlignedAllocator<64>,1>::`RTTI Base Class Descriptor at (0,-1,0,64)'
	DD	01H
	DD	00H
	DD	0ffffffffH
	DD	00H
	DD	040H
	DD	imagerel ??_R3?$VmBase@U?$AlignedAllocator@$0EA@@randomx@@$00@randomx@@8
rdata$r	ENDS
;	COMDAT ??_R0?AV?$CompiledLightVm@ULargePageAllocator@randomx@@$00$00@randomx@@@8
data$rs	SEGMENT
??_R0?AV?$CompiledLightVm@ULargePageAllocator@randomx@@$00$00@randomx@@@8 DQ FLAT:??_7type_info@@6B@ ; randomx::CompiledLightVm<randomx::LargePageAllocator,1,1> `RTTI Type Descriptor'
	DQ	0000000000000000H
	DB	'.?AV?$CompiledLightVm@ULargePageAllocator@randomx@@$00$0'
	DB	'0@randomx@@', 00H
data$rs	ENDS
;	COMDAT ??_R1A@?0A@EA@?$CompiledVm@ULargePageAllocator@randomx@@$00$00@randomx@@8
rdata$r	SEGMENT
??_R1A@?0A@EA@?$CompiledVm@ULargePageAllocator@randomx@@$00$00@randomx@@8 DD imagerel ??_R0?AV?$CompiledVm@ULargePageAllocator@randomx@@$00$00@randomx@@@8 ; randomx::CompiledVm<randomx::LargePageAllocator,1,1>::`RTTI Base Class Descriptor at (0,-1,0,64)'
	DD	02H
	DD	00H
	DD	0ffffffffH
	DD	00H
	DD	040H
	DD	imagerel ??_R3?$CompiledVm@ULargePageAllocator@randomx@@$00$00@randomx@@8
rdata$r	ENDS
;	COMDAT ??_R1A@?0A@EA@?$InterpretedVm@U?$AlignedAllocator@$0EA@@randomx@@$0A@@randomx@@8
rdata$r	SEGMENT
??_R1A@?0A@EA@?$InterpretedVm@U?$AlignedAllocator@$0EA@@randomx@@$0A@@randomx@@8 DD imagerel ??_R0?AV?$InterpretedVm@U?$AlignedAllocator@$0EA@@randomx@@$0A@@randomx@@@8 ; randomx::InterpretedVm<randomx::AlignedAllocator<64>,0>::`RTTI Base Class Descriptor at (0,-1,0,64)'
	DD	03H
	DD	00H
	DD	0ffffffffH
	DD	00H
	DD	040H
	DD	imagerel ??_R3?$InterpretedVm@U?$AlignedAllocator@$0EA@@randomx@@$0A@@randomx@@8
rdata$r	ENDS
;	COMDAT ??_R2?$CompiledLightVm@ULargePageAllocator@randomx@@$00$0A@@randomx@@8
rdata$r	SEGMENT
??_R2?$CompiledLightVm@ULargePageAllocator@randomx@@$00$0A@@randomx@@8 DD imagerel ??_R1A@?0A@EA@?$CompiledLightVm@ULargePageAllocator@randomx@@$00$0A@@randomx@@8 ; randomx::CompiledLightVm<randomx::LargePageAllocator,1,0>::`RTTI Base Class Array'
	DD	imagerel ??_R1A@?0A@EA@?$CompiledVm@ULargePageAllocator@randomx@@$00$0A@@randomx@@8
	DD	imagerel ??_R1A@?0A@EA@?$VmBase@ULargePageAllocator@randomx@@$00@randomx@@8
	DD	imagerel ??_R1A@?0A@EA@randomx_vm@@8
	ORG $+3
rdata$r	ENDS
;	COMDAT ??_R3?$VmBase@ULargePageAllocator@randomx@@$00@randomx@@8
rdata$r	SEGMENT
??_R3?$VmBase@ULargePageAllocator@randomx@@$00@randomx@@8 DD 00H ; randomx::VmBase<randomx::LargePageAllocator,1>::`RTTI Class Hierarchy Descriptor'
	DD	00H
	DD	02H
	DD	imagerel ??_R2?$VmBase@ULargePageAllocator@randomx@@$00@randomx@@8
rdata$r	ENDS
;	COMDAT ??_R0?AV?$CompiledLightVm@U?$AlignedAllocator@$0EA@@randomx@@$00$0A@@randomx@@@8
data$rs	SEGMENT
??_R0?AV?$CompiledLightVm@U?$AlignedAllocator@$0EA@@randomx@@$00$0A@@randomx@@@8 DQ FLAT:??_7type_info@@6B@ ; randomx::CompiledLightVm<randomx::AlignedAllocator<64>,1,0> `RTTI Type Descriptor'
	DQ	0000000000000000H
	DB	'.?AV?$CompiledLightVm@U?$AlignedAllocator@$0EA@@randomx@'
	DB	'@$00$0A@@randomx@@', 00H
data$rs	ENDS
;	COMDAT ??_R0?AV?$CompiledVm@ULargePageAllocator@randomx@@$0A@$00@randomx@@@8
data$rs	SEGMENT
??_R0?AV?$CompiledVm@ULargePageAllocator@randomx@@$0A@$00@randomx@@@8 DQ FLAT:??_7type_info@@6B@ ; randomx::CompiledVm<randomx::LargePageAllocator,0,1> `RTTI Type Descriptor'
	DQ	0000000000000000H
	DB	'.?AV?$CompiledVm@ULargePageAllocator@randomx@@$0A@$00@ra'
	DB	'ndomx@@', 00H
data$rs	ENDS
;	COMDAT ??_R0?AV?$InterpretedVm@ULargePageAllocator@randomx@@$0A@@randomx@@@8
data$rs	SEGMENT
??_R0?AV?$InterpretedVm@ULargePageAllocator@randomx@@$0A@@randomx@@@8 DQ FLAT:??_7type_info@@6B@ ; randomx::InterpretedVm<randomx::LargePageAllocator,0> `RTTI Type Descriptor'
	DQ	0000000000000000H
	DB	'.?AV?$InterpretedVm@ULargePageAllocator@randomx@@$0A@@ra'
	DB	'ndomx@@', 00H
data$rs	ENDS
;	COMDAT ??_R3?$CompiledVm@ULargePageAllocator@randomx@@$00$0A@@randomx@@8
rdata$r	SEGMENT
??_R3?$CompiledVm@ULargePageAllocator@randomx@@$00$0A@@randomx@@8 DD 00H ; randomx::CompiledVm<randomx::LargePageAllocator,1,0>::`RTTI Class Hierarchy Descriptor'
	DD	00H
	DD	03H
	DD	imagerel ??_R2?$CompiledVm@ULargePageAllocator@randomx@@$00$0A@@randomx@@8
rdata$r	ENDS
;	COMDAT ??_R1A@?0A@EA@?$CompiledVm@U?$AlignedAllocator@$0EA@@randomx@@$00$00@randomx@@8
rdata$r	SEGMENT
??_R1A@?0A@EA@?$CompiledVm@U?$AlignedAllocator@$0EA@@randomx@@$00$00@randomx@@8 DD imagerel ??_R0?AV?$CompiledVm@U?$AlignedAllocator@$0EA@@randomx@@$00$00@randomx@@@8 ; randomx::CompiledVm<randomx::AlignedAllocator<64>,1,1>::`RTTI Base Class Descriptor at (0,-1,0,64)'
	DD	02H
	DD	00H
	DD	0ffffffffH
	DD	00H
	DD	040H
	DD	imagerel ??_R3?$CompiledVm@U?$AlignedAllocator@$0EA@@randomx@@$00$00@randomx@@8
rdata$r	ENDS
;	COMDAT ??_R3?$CompiledVm@ULargePageAllocator@randomx@@$00$00@randomx@@8
rdata$r	SEGMENT
??_R3?$CompiledVm@ULargePageAllocator@randomx@@$00$00@randomx@@8 DD 00H ; randomx::CompiledVm<randomx::LargePageAllocator,1,1>::`RTTI Class Hierarchy Descriptor'
	DD	00H
	DD	03H
	DD	imagerel ??_R2?$CompiledVm@ULargePageAllocator@randomx@@$00$00@randomx@@8
rdata$r	ENDS
;	COMDAT ??_R0?AV?$InterpretedVm@ULargePageAllocator@randomx@@$00@randomx@@@8
data$rs	SEGMENT
??_R0?AV?$InterpretedVm@ULargePageAllocator@randomx@@$00@randomx@@@8 DQ FLAT:??_7type_info@@6B@ ; randomx::InterpretedVm<randomx::LargePageAllocator,1> `RTTI Type Descriptor'
	DQ	0000000000000000H
	DB	'.?AV?$InterpretedVm@ULargePageAllocator@randomx@@$00@ran'
	DB	'domx@@', 00H
data$rs	ENDS
;	COMDAT ??_R4?$CompiledLightVm@ULargePageAllocator@randomx@@$0A@$0A@@randomx@@6B@
rdata$r	SEGMENT
??_R4?$CompiledLightVm@ULargePageAllocator@randomx@@$0A@$0A@@randomx@@6B@ DD 01H ; randomx::CompiledLightVm<randomx::LargePageAllocator,0,0>::`RTTI Complete Object Locator'
	DD	00H
	DD	00H
	DD	imagerel ??_R0?AV?$CompiledLightVm@ULargePageAllocator@randomx@@$0A@$0A@@randomx@@@8
	DD	imagerel ??_R3?$CompiledLightVm@ULargePageAllocator@randomx@@$0A@$0A@@randomx@@8
	DD	imagerel ??_R4?$CompiledLightVm@ULargePageAllocator@randomx@@$0A@$0A@@randomx@@6B@
rdata$r	ENDS
;	COMDAT ??_R0?AV?$InterpretedLightVm@ULargePageAllocator@randomx@@$00@randomx@@@8
data$rs	SEGMENT
??_R0?AV?$InterpretedLightVm@ULargePageAllocator@randomx@@$00@randomx@@@8 DQ FLAT:??_7type_info@@6B@ ; randomx::InterpretedLightVm<randomx::LargePageAllocator,1> `RTTI Type Descriptor'
	DQ	0000000000000000H
	DB	'.?AV?$InterpretedLightVm@ULargePageAllocator@randomx@@$0'
	DB	'0@randomx@@', 00H
data$rs	ENDS
;	COMDAT ??_7?$InterpretedLightVm@ULargePageAllocator@randomx@@$00@randomx@@6B@
CONST	SEGMENT
??_7?$InterpretedLightVm@ULargePageAllocator@randomx@@$00@randomx@@6B@ DQ FLAT:??_R4?$InterpretedLightVm@ULargePageAllocator@randomx@@$00@randomx@@6B@ ; randomx::InterpretedLightVm<randomx::LargePageAllocator,1>::`vftable'
	DQ	FLAT:??_E?$InterpretedLightVm@ULargePageAllocator@randomx@@$00@randomx@@UEAAPEAXI@Z
	DQ	FLAT:?allocate@?$VmBase@ULargePageAllocator@randomx@@$00@randomx@@UEAAXXZ
	DQ	FLAT:?getFinalResult@?$VmBase@ULargePageAllocator@randomx@@$00@randomx@@UEAAXPEAX_K@Z
	DQ	FLAT:?hashAndFill@?$VmBase@ULargePageAllocator@randomx@@$00@randomx@@UEAAXPEAX_KPEA_K@Z
	DQ	FLAT:?setDataset@?$InterpretedLightVm@ULargePageAllocator@randomx@@$00@randomx@@UEAAXPEAUrandomx_dataset@@@Z
	DQ	FLAT:?setCache@?$InterpretedLightVm@ULargePageAllocator@randomx@@$00@randomx@@UEAAXPEAUrandomx_cache@@@Z
	DQ	FLAT:?initScratchpad@?$VmBase@ULargePageAllocator@randomx@@$00@randomx@@UEAAXPEAX@Z
	DQ	FLAT:?run@?$InterpretedVm@ULargePageAllocator@randomx@@$00@randomx@@UEAAXPEAX@Z
	DQ	FLAT:?datasetRead@?$InterpretedLightVm@ULargePageAllocator@randomx@@$00@randomx@@MEAAX_KAEAY07_K@Z
	DQ	FLAT:?datasetPrefetch@?$InterpretedLightVm@ULargePageAllocator@randomx@@$00@randomx@@MEAAX_K@Z
CONST	ENDS
;	COMDAT ??_R0?AV?$VmBase@U?$AlignedAllocator@$0EA@@randomx@@$0A@@randomx@@@8
data$rs	SEGMENT
??_R0?AV?$VmBase@U?$AlignedAllocator@$0EA@@randomx@@$0A@@randomx@@@8 DQ FLAT:??_7type_info@@6B@ ; randomx::VmBase<randomx::AlignedAllocator<64>,0> `RTTI Type Descriptor'
	DQ	0000000000000000H
	DB	'.?AV?$VmBase@U?$AlignedAllocator@$0EA@@randomx@@$0A@@ran'
	DB	'domx@@', 00H
data$rs	ENDS
;	COMDAT ??_R4?$CompiledLightVm@ULargePageAllocator@randomx@@$00$0A@@randomx@@6B@
rdata$r	SEGMENT
??_R4?$CompiledLightVm@ULargePageAllocator@randomx@@$00$0A@@randomx@@6B@ DD 01H ; randomx::CompiledLightVm<randomx::LargePageAllocator,1,0>::`RTTI Complete Object Locator'
	DD	00H
	DD	00H
	DD	imagerel ??_R0?AV?$CompiledLightVm@ULargePageAllocator@randomx@@$00$0A@@randomx@@@8
	DD	imagerel ??_R3?$CompiledLightVm@ULargePageAllocator@randomx@@$00$0A@@randomx@@8
	DD	imagerel ??_R4?$CompiledLightVm@ULargePageAllocator@randomx@@$00$0A@@randomx@@6B@
rdata$r	ENDS
;	COMDAT ??_R4?$InterpretedLightVm@ULargePageAllocator@randomx@@$0A@@randomx@@6B@
rdata$r	SEGMENT
??_R4?$InterpretedLightVm@ULargePageAllocator@randomx@@$0A@@randomx@@6B@ DD 01H ; randomx::InterpretedLightVm<randomx::LargePageAllocator,0>::`RTTI Complete Object Locator'
	DD	00H
	DD	00H
	DD	imagerel ??_R0?AV?$InterpretedLightVm@ULargePageAllocator@randomx@@$0A@@randomx@@@8
	DD	imagerel ??_R3?$InterpretedLightVm@ULargePageAllocator@randomx@@$0A@@randomx@@8
	DD	imagerel ??_R4?$InterpretedLightVm@ULargePageAllocator@randomx@@$0A@@randomx@@6B@
rdata$r	ENDS
;	COMDAT ??_R0?AV?$CompiledVm@ULargePageAllocator@randomx@@$0A@$0A@@randomx@@@8
data$rs	SEGMENT
??_R0?AV?$CompiledVm@ULargePageAllocator@randomx@@$0A@$0A@@randomx@@@8 DQ FLAT:??_7type_info@@6B@ ; randomx::CompiledVm<randomx::LargePageAllocator,0,0> `RTTI Type Descriptor'
	DQ	0000000000000000H
	DB	'.?AV?$CompiledVm@ULargePageAllocator@randomx@@$0A@$0A@@r'
	DB	'andomx@@', 00H
data$rs	ENDS
;	COMDAT ??_R3?$CompiledVm@U?$AlignedAllocator@$0EA@@randomx@@$00$0A@@randomx@@8
rdata$r	SEGMENT
??_R3?$CompiledVm@U?$AlignedAllocator@$0EA@@randomx@@$00$0A@@randomx@@8 DD 00H ; randomx::CompiledVm<randomx::AlignedAllocator<64>,1,0>::`RTTI Class Hierarchy Descriptor'
	DD	00H
	DD	03H
	DD	imagerel ??_R2?$CompiledVm@U?$AlignedAllocator@$0EA@@randomx@@$00$0A@@randomx@@8
rdata$r	ENDS
;	COMDAT ??_R4?$InterpretedVm@U?$AlignedAllocator@$0EA@@randomx@@$0A@@randomx@@6B@
rdata$r	SEGMENT
??_R4?$InterpretedVm@U?$AlignedAllocator@$0EA@@randomx@@$0A@@randomx@@6B@ DD 01H ; randomx::InterpretedVm<randomx::AlignedAllocator<64>,0>::`RTTI Complete Object Locator'
	DD	00H
	DD	00H
	DD	imagerel ??_R0?AV?$InterpretedVm@U?$AlignedAllocator@$0EA@@randomx@@$0A@@randomx@@@8
	DD	imagerel ??_R3?$InterpretedVm@U?$AlignedAllocator@$0EA@@randomx@@$0A@@randomx@@8
	DD	imagerel ??_R4?$InterpretedVm@U?$AlignedAllocator@$0EA@@randomx@@$0A@@randomx@@6B@
rdata$r	ENDS
;	COMDAT ??_R2?$VmBase@ULargePageAllocator@randomx@@$0A@@randomx@@8
rdata$r	SEGMENT
??_R2?$VmBase@ULargePageAllocator@randomx@@$0A@@randomx@@8 DD imagerel ??_R1A@?0A@EA@?$VmBase@ULargePageAllocator@randomx@@$0A@@randomx@@8 ; randomx::VmBase<randomx::LargePageAllocator,0>::`RTTI Base Class Array'
	DD	imagerel ??_R1A@?0A@EA@randomx_vm@@8
	ORG $+3
rdata$r	ENDS
;	COMDAT ??_R4?$InterpretedLightVm@U?$AlignedAllocator@$0EA@@randomx@@$00@randomx@@6B@
rdata$r	SEGMENT
??_R4?$InterpretedLightVm@U?$AlignedAllocator@$0EA@@randomx@@$00@randomx@@6B@ DD 01H ; randomx::InterpretedLightVm<randomx::AlignedAllocator<64>,1>::`RTTI Complete Object Locator'
	DD	00H
	DD	00H
	DD	imagerel ??_R0?AV?$InterpretedLightVm@U?$AlignedAllocator@$0EA@@randomx@@$00@randomx@@@8
	DD	imagerel ??_R3?$InterpretedLightVm@U?$AlignedAllocator@$0EA@@randomx@@$00@randomx@@8
	DD	imagerel ??_R4?$InterpretedLightVm@U?$AlignedAllocator@$0EA@@randomx@@$00@randomx@@6B@
rdata$r	ENDS
;	COMDAT ??_R1A@?0A@EA@?$InterpretedLightVm@ULargePageAllocator@randomx@@$0A@@randomx@@8
rdata$r	SEGMENT
??_R1A@?0A@EA@?$InterpretedLightVm@ULargePageAllocator@randomx@@$0A@@randomx@@8 DD imagerel ??_R0?AV?$InterpretedLightVm@ULargePageAllocator@randomx@@$0A@@randomx@@@8 ; randomx::InterpretedLightVm<randomx::LargePageAllocator,0>::`RTTI Base Class Descriptor at (0,-1,0,64)'
	DD	04H
	DD	00H
	DD	0ffffffffH
	DD	00H
	DD	040H
	DD	imagerel ??_R3?$InterpretedLightVm@ULargePageAllocator@randomx@@$0A@@randomx@@8
rdata$r	ENDS
;	COMDAT ??_R0?AV?$CompiledVm@ULargePageAllocator@randomx@@$00$00@randomx@@@8
data$rs	SEGMENT
??_R0?AV?$CompiledVm@ULargePageAllocator@randomx@@$00$00@randomx@@@8 DQ FLAT:??_7type_info@@6B@ ; randomx::CompiledVm<randomx::LargePageAllocator,1,1> `RTTI Type Descriptor'
	DQ	0000000000000000H
	DB	'.?AV?$CompiledVm@ULargePageAllocator@randomx@@$00$00@ran'
	DB	'domx@@', 00H
data$rs	ENDS
;	COMDAT ??_R0?AV?$VmBase@ULargePageAllocator@randomx@@$0A@@randomx@@@8
data$rs	SEGMENT
??_R0?AV?$VmBase@ULargePageAllocator@randomx@@$0A@@randomx@@@8 DQ FLAT:??_7type_info@@6B@ ; randomx::VmBase<randomx::LargePageAllocator,0> `RTTI Type Descriptor'
	DQ	0000000000000000H
	DB	'.?AV?$VmBase@ULargePageAllocator@randomx@@$0A@@randomx@@'
	DB	00H
data$rs	ENDS
;	COMDAT ??_R0?AV?$InterpretedLightVm@ULargePageAllocator@randomx@@$0A@@randomx@@@8
data$rs	SEGMENT
??_R0?AV?$InterpretedLightVm@ULargePageAllocator@randomx@@$0A@@randomx@@@8 DQ FLAT:??_7type_info@@6B@ ; randomx::InterpretedLightVm<randomx::LargePageAllocator,0> `RTTI Type Descriptor'
	DQ	0000000000000000H
	DB	'.?AV?$InterpretedLightVm@ULargePageAllocator@randomx@@$0'
	DB	'A@@randomx@@', 00H
data$rs	ENDS
;	COMDAT ??_R0?AV?$VmBase@U?$AlignedAllocator@$0EA@@randomx@@$00@randomx@@@8
data$rs	SEGMENT
??_R0?AV?$VmBase@U?$AlignedAllocator@$0EA@@randomx@@$00@randomx@@@8 DQ FLAT:??_7type_info@@6B@ ; randomx::VmBase<randomx::AlignedAllocator<64>,1> `RTTI Type Descriptor'
	DQ	0000000000000000H
	DB	'.?AV?$VmBase@U?$AlignedAllocator@$0EA@@randomx@@$00@rand'
	DB	'omx@@', 00H
data$rs	ENDS
;	COMDAT ??_R0?AVBytecodeMachine@randomx@@@8
data$rs	SEGMENT
??_R0?AVBytecodeMachine@randomx@@@8 DQ FLAT:??_7type_info@@6B@ ; randomx::BytecodeMachine `RTTI Type Descriptor'
	DQ	0000000000000000H
	DB	'.?AVBytecodeMachine@randomx@@', 00H
data$rs	ENDS
;	COMDAT ??_R3?$CompiledLightVm@U?$AlignedAllocator@$0EA@@randomx@@$00$0A@@randomx@@8
rdata$r	SEGMENT
??_R3?$CompiledLightVm@U?$AlignedAllocator@$0EA@@randomx@@$00$0A@@randomx@@8 DD 00H ; randomx::CompiledLightVm<randomx::AlignedAllocator<64>,1,0>::`RTTI Class Hierarchy Descriptor'
	DD	00H
	DD	04H
	DD	imagerel ??_R2?$CompiledLightVm@U?$AlignedAllocator@$0EA@@randomx@@$00$0A@@randomx@@8
rdata$r	ENDS
;	COMDAT ??_R4?$InterpretedLightVm@ULargePageAllocator@randomx@@$00@randomx@@6B@
rdata$r	SEGMENT
??_R4?$InterpretedLightVm@ULargePageAllocator@randomx@@$00@randomx@@6B@ DD 01H ; randomx::InterpretedLightVm<randomx::LargePageAllocator,1>::`RTTI Complete Object Locator'
	DD	00H
	DD	00H
	DD	imagerel ??_R0?AV?$InterpretedLightVm@ULargePageAllocator@randomx@@$00@randomx@@@8
	DD	imagerel ??_R3?$InterpretedLightVm@ULargePageAllocator@randomx@@$00@randomx@@8
	DD	imagerel ??_R4?$InterpretedLightVm@ULargePageAllocator@randomx@@$00@randomx@@6B@
rdata$r	ENDS
;	COMDAT ??_R3?$CompiledLightVm@U?$AlignedAllocator@$0EA@@randomx@@$0A@$00@randomx@@8
rdata$r	SEGMENT
??_R3?$CompiledLightVm@U?$AlignedAllocator@$0EA@@randomx@@$0A@$00@randomx@@8 DD 00H ; randomx::CompiledLightVm<randomx::AlignedAllocator<64>,0,1>::`RTTI Class Hierarchy Descriptor'
	DD	00H
	DD	04H
	DD	imagerel ??_R2?$CompiledLightVm@U?$AlignedAllocator@$0EA@@randomx@@$0A@$00@randomx@@8
rdata$r	ENDS
;	COMDAT ??_R2?$InterpretedVm@U?$AlignedAllocator@$0EA@@randomx@@$00@randomx@@8
rdata$r	SEGMENT
??_R2?$InterpretedVm@U?$AlignedAllocator@$0EA@@randomx@@$00@randomx@@8 DD imagerel ??_R1A@?0A@EA@?$InterpretedVm@U?$AlignedAllocator@$0EA@@randomx@@$00@randomx@@8 ; randomx::InterpretedVm<randomx::AlignedAllocator<64>,1>::`RTTI Base Class Array'
	DD	imagerel ??_R1A@?0A@EA@?$VmBase@U?$AlignedAllocator@$0EA@@randomx@@$00@randomx@@8
	DD	imagerel ??_R1A@?0A@EA@randomx_vm@@8
	DD	imagerel ??_R1KIA@?0A@EA@BytecodeMachine@randomx@@8
	ORG $+3
rdata$r	ENDS
;	COMDAT ??_R1A@?0A@EA@?$CompiledLightVm@ULargePageAllocator@randomx@@$0A@$00@randomx@@8
rdata$r	SEGMENT
??_R1A@?0A@EA@?$CompiledLightVm@ULargePageAllocator@randomx@@$0A@$00@randomx@@8 DD imagerel ??_R0?AV?$CompiledLightVm@ULargePageAllocator@randomx@@$0A@$00@randomx@@@8 ; randomx::CompiledLightVm<randomx::LargePageAllocator,0,1>::`RTTI Base Class Descriptor at (0,-1,0,64)'
	DD	03H
	DD	00H
	DD	0ffffffffH
	DD	00H
	DD	040H
	DD	imagerel ??_R3?$CompiledLightVm@ULargePageAllocator@randomx@@$0A@$00@randomx@@8
rdata$r	ENDS
;	COMDAT ??_7?$InterpretedLightVm@U?$AlignedAllocator@$0EA@@randomx@@$00@randomx@@6B@
CONST	SEGMENT
??_7?$InterpretedLightVm@U?$AlignedAllocator@$0EA@@randomx@@$00@randomx@@6B@ DQ FLAT:??_R4?$InterpretedLightVm@U?$AlignedAllocator@$0EA@@randomx@@$00@randomx@@6B@ ; randomx::InterpretedLightVm<randomx::AlignedAllocator<64>,1>::`vftable'
	DQ	FLAT:??_E?$InterpretedLightVm@U?$AlignedAllocator@$0EA@@randomx@@$00@randomx@@UEAAPEAXI@Z
	DQ	FLAT:?allocate@?$VmBase@U?$AlignedAllocator@$0EA@@randomx@@$00@randomx@@UEAAXXZ
	DQ	FLAT:?getFinalResult@?$VmBase@U?$AlignedAllocator@$0EA@@randomx@@$00@randomx@@UEAAXPEAX_K@Z
	DQ	FLAT:?hashAndFill@?$VmBase@U?$AlignedAllocator@$0EA@@randomx@@$00@randomx@@UEAAXPEAX_KPEA_K@Z
	DQ	FLAT:?setDataset@?$InterpretedLightVm@U?$AlignedAllocator@$0EA@@randomx@@$00@randomx@@UEAAXPEAUrandomx_dataset@@@Z
	DQ	FLAT:?setCache@?$InterpretedLightVm@U?$AlignedAllocator@$0EA@@randomx@@$00@randomx@@UEAAXPEAUrandomx_cache@@@Z
	DQ	FLAT:?initScratchpad@?$VmBase@U?$AlignedAllocator@$0EA@@randomx@@$00@randomx@@UEAAXPEAX@Z
	DQ	FLAT:?run@?$InterpretedVm@U?$AlignedAllocator@$0EA@@randomx@@$00@randomx@@UEAAXPEAX@Z
	DQ	FLAT:?datasetRead@?$InterpretedLightVm@U?$AlignedAllocator@$0EA@@randomx@@$00@randomx@@MEAAX_KAEAY07_K@Z
	DQ	FLAT:?datasetPrefetch@?$InterpretedLightVm@U?$AlignedAllocator@$0EA@@randomx@@$00@randomx@@MEAAX_K@Z
CONST	ENDS
;	COMDAT ??_R2?$InterpretedVm@ULargePageAllocator@randomx@@$0A@@randomx@@8
rdata$r	SEGMENT
??_R2?$InterpretedVm@ULargePageAllocator@randomx@@$0A@@randomx@@8 DD imagerel ??_R1A@?0A@EA@?$InterpretedVm@ULargePageAllocator@randomx@@$0A@@randomx@@8 ; randomx::InterpretedVm<randomx::LargePageAllocator,0>::`RTTI Base Class Array'
	DD	imagerel ??_R1A@?0A@EA@?$VmBase@ULargePageAllocator@randomx@@$0A@@randomx@@8
	DD	imagerel ??_R1A@?0A@EA@randomx_vm@@8
	DD	imagerel ??_R1KIA@?0A@EA@BytecodeMachine@randomx@@8
	ORG $+3
rdata$r	ENDS
;	COMDAT ??_R1A@?0A@EA@?$InterpretedVm@U?$AlignedAllocator@$0EA@@randomx@@$00@randomx@@8
rdata$r	SEGMENT
??_R1A@?0A@EA@?$InterpretedVm@U?$AlignedAllocator@$0EA@@randomx@@$00@randomx@@8 DD imagerel ??_R0?AV?$InterpretedVm@U?$AlignedAllocator@$0EA@@randomx@@$00@randomx@@@8 ; randomx::InterpretedVm<randomx::AlignedAllocator<64>,1>::`RTTI Base Class Descriptor at (0,-1,0,64)'
	DD	03H
	DD	00H
	DD	0ffffffffH
	DD	00H
	DD	040H
	DD	imagerel ??_R3?$InterpretedVm@U?$AlignedAllocator@$0EA@@randomx@@$00@randomx@@8
rdata$r	ENDS
;	COMDAT ??_7?$InterpretedLightVm@U?$AlignedAllocator@$0EA@@randomx@@$0A@@randomx@@6B@
CONST	SEGMENT
??_7?$InterpretedLightVm@U?$AlignedAllocator@$0EA@@randomx@@$0A@@randomx@@6B@ DQ FLAT:??_R4?$InterpretedLightVm@U?$AlignedAllocator@$0EA@@randomx@@$0A@@randomx@@6B@ ; randomx::InterpretedLightVm<randomx::AlignedAllocator<64>,0>::`vftable'
	DQ	FLAT:??_E?$InterpretedLightVm@U?$AlignedAllocator@$0EA@@randomx@@$0A@@randomx@@UEAAPEAXI@Z
	DQ	FLAT:?allocate@?$VmBase@U?$AlignedAllocator@$0EA@@randomx@@$0A@@randomx@@UEAAXXZ
	DQ	FLAT:?getFinalResult@?$VmBase@U?$AlignedAllocator@$0EA@@randomx@@$0A@@randomx@@UEAAXPEAX_K@Z
	DQ	FLAT:?hashAndFill@?$VmBase@U?$AlignedAllocator@$0EA@@randomx@@$0A@@randomx@@UEAAXPEAX_KPEA_K@Z
	DQ	FLAT:?setDataset@?$InterpretedLightVm@U?$AlignedAllocator@$0EA@@randomx@@$0A@@randomx@@UEAAXPEAUrandomx_dataset@@@Z
	DQ	FLAT:?setCache@?$InterpretedLightVm@U?$AlignedAllocator@$0EA@@randomx@@$0A@@randomx@@UEAAXPEAUrandomx_cache@@@Z
	DQ	FLAT:?initScratchpad@?$VmBase@U?$AlignedAllocator@$0EA@@randomx@@$0A@@randomx@@UEAAXPEAX@Z
	DQ	FLAT:?run@?$InterpretedVm@U?$AlignedAllocator@$0EA@@randomx@@$0A@@randomx@@UEAAXPEAX@Z
	DQ	FLAT:?datasetRead@?$InterpretedLightVm@U?$AlignedAllocator@$0EA@@randomx@@$0A@@randomx@@MEAAX_KAEAY07_K@Z
	DQ	FLAT:?datasetPrefetch@?$InterpretedLightVm@U?$AlignedAllocator@$0EA@@randomx@@$0A@@randomx@@MEAAX_K@Z
CONST	ENDS
;	COMDAT ??_R0?AV?$CompiledLightVm@U?$AlignedAllocator@$0EA@@randomx@@$0A@$00@randomx@@@8
data$rs	SEGMENT
??_R0?AV?$CompiledLightVm@U?$AlignedAllocator@$0EA@@randomx@@$0A@$00@randomx@@@8 DQ FLAT:??_7type_info@@6B@ ; randomx::CompiledLightVm<randomx::AlignedAllocator<64>,0,1> `RTTI Type Descriptor'
	DQ	0000000000000000H
	DB	'.?AV?$CompiledLightVm@U?$AlignedAllocator@$0EA@@randomx@'
	DB	'@$0A@$00@randomx@@', 00H
data$rs	ENDS
;	COMDAT ??_R3?$CompiledVm@ULargePageAllocator@randomx@@$0A@$00@randomx@@8
rdata$r	SEGMENT
??_R3?$CompiledVm@ULargePageAllocator@randomx@@$0A@$00@randomx@@8 DD 00H ; randomx::CompiledVm<randomx::LargePageAllocator,0,1>::`RTTI Class Hierarchy Descriptor'
	DD	00H
	DD	03H
	DD	imagerel ??_R2?$CompiledVm@ULargePageAllocator@randomx@@$0A@$00@randomx@@8
rdata$r	ENDS
;	COMDAT ??_R4?$CompiledLightVm@ULargePageAllocator@randomx@@$00$00@randomx@@6B@
rdata$r	SEGMENT
??_R4?$CompiledLightVm@ULargePageAllocator@randomx@@$00$00@randomx@@6B@ DD 01H ; randomx::CompiledLightVm<randomx::LargePageAllocator,1,1>::`RTTI Complete Object Locator'
	DD	00H
	DD	00H
	DD	imagerel ??_R0?AV?$CompiledLightVm@ULargePageAllocator@randomx@@$00$00@randomx@@@8
	DD	imagerel ??_R3?$CompiledLightVm@ULargePageAllocator@randomx@@$00$00@randomx@@8
	DD	imagerel ??_R4?$CompiledLightVm@ULargePageAllocator@randomx@@$00$00@randomx@@6B@
rdata$r	ENDS
;	COMDAT ??_R2?$CompiledVm@ULargePageAllocator@randomx@@$0A@$00@randomx@@8
rdata$r	SEGMENT
??_R2?$CompiledVm@ULargePageAllocator@randomx@@$0A@$00@randomx@@8 DD imagerel ??_R1A@?0A@EA@?$CompiledVm@ULargePageAllocator@randomx@@$0A@$00@randomx@@8 ; randomx::CompiledVm<randomx::LargePageAllocator,0,1>::`RTTI Base Class Array'
	DD	imagerel ??_R1A@?0A@EA@?$VmBase@ULargePageAllocator@randomx@@$0A@@randomx@@8
	DD	imagerel ??_R1A@?0A@EA@randomx_vm@@8
	ORG $+3
rdata$r	ENDS
;	COMDAT ??_R4?$InterpretedVm@U?$AlignedAllocator@$0EA@@randomx@@$00@randomx@@6B@
rdata$r	SEGMENT
??_R4?$InterpretedVm@U?$AlignedAllocator@$0EA@@randomx@@$00@randomx@@6B@ DD 01H ; randomx::InterpretedVm<randomx::AlignedAllocator<64>,1>::`RTTI Complete Object Locator'
	DD	00H
	DD	00H
	DD	imagerel ??_R0?AV?$InterpretedVm@U?$AlignedAllocator@$0EA@@randomx@@$00@randomx@@@8
	DD	imagerel ??_R3?$InterpretedVm@U?$AlignedAllocator@$0EA@@randomx@@$00@randomx@@8
	DD	imagerel ??_R4?$InterpretedVm@U?$AlignedAllocator@$0EA@@randomx@@$00@randomx@@6B@
rdata$r	ENDS
;	COMDAT ??_R4?$InterpretedVm@ULargePageAllocator@randomx@@$0A@@randomx@@6B@
rdata$r	SEGMENT
??_R4?$InterpretedVm@ULargePageAllocator@randomx@@$0A@@randomx@@6B@ DD 01H ; randomx::InterpretedVm<randomx::LargePageAllocator,0>::`RTTI Complete Object Locator'
	DD	00H
	DD	00H
	DD	imagerel ??_R0?AV?$InterpretedVm@ULargePageAllocator@randomx@@$0A@@randomx@@@8
	DD	imagerel ??_R3?$InterpretedVm@ULargePageAllocator@randomx@@$0A@@randomx@@8
	DD	imagerel ??_R4?$InterpretedVm@ULargePageAllocator@randomx@@$0A@@randomx@@6B@
rdata$r	ENDS
;	COMDAT ??_R1A@?0A@EA@?$CompiledVm@ULargePageAllocator@randomx@@$00$0A@@randomx@@8
rdata$r	SEGMENT
??_R1A@?0A@EA@?$CompiledVm@ULargePageAllocator@randomx@@$00$0A@@randomx@@8 DD imagerel ??_R0?AV?$CompiledVm@ULargePageAllocator@randomx@@$00$0A@@randomx@@@8 ; randomx::CompiledVm<randomx::LargePageAllocator,1,0>::`RTTI Base Class Descriptor at (0,-1,0,64)'
	DD	02H
	DD	00H
	DD	0ffffffffH
	DD	00H
	DD	040H
	DD	imagerel ??_R3?$CompiledVm@ULargePageAllocator@randomx@@$00$0A@@randomx@@8
rdata$r	ENDS
;	COMDAT ??_R1A@?0A@EA@?$CompiledVm@ULargePageAllocator@randomx@@$0A@$00@randomx@@8
rdata$r	SEGMENT
??_R1A@?0A@EA@?$CompiledVm@ULargePageAllocator@randomx@@$0A@$00@randomx@@8 DD imagerel ??_R0?AV?$CompiledVm@ULargePageAllocator@randomx@@$0A@$00@randomx@@@8 ; randomx::CompiledVm<randomx::LargePageAllocator,0,1>::`RTTI Base Class Descriptor at (0,-1,0,64)'
	DD	02H
	DD	00H
	DD	0ffffffffH
	DD	00H
	DD	040H
	DD	imagerel ??_R3?$CompiledVm@ULargePageAllocator@randomx@@$0A@$00@randomx@@8
rdata$r	ENDS
;	COMDAT ??_R4?$VmBase@ULargePageAllocator@randomx@@$0A@@randomx@@6B@
rdata$r	SEGMENT
??_R4?$VmBase@ULargePageAllocator@randomx@@$0A@@randomx@@6B@ DD 01H ; randomx::VmBase<randomx::LargePageAllocator,0>::`RTTI Complete Object Locator'
	DD	00H
	DD	00H
	DD	imagerel ??_R0?AV?$VmBase@ULargePageAllocator@randomx@@$0A@@randomx@@@8
	DD	imagerel ??_R3?$VmBase@ULargePageAllocator@randomx@@$0A@@randomx@@8
	DD	imagerel ??_R4?$VmBase@ULargePageAllocator@randomx@@$0A@@randomx@@6B@
rdata$r	ENDS
;	COMDAT ??_R3?$CompiledVm@U?$AlignedAllocator@$0EA@@randomx@@$0A@$00@randomx@@8
rdata$r	SEGMENT
??_R3?$CompiledVm@U?$AlignedAllocator@$0EA@@randomx@@$0A@$00@randomx@@8 DD 00H ; randomx::CompiledVm<randomx::AlignedAllocator<64>,0,1>::`RTTI Class Hierarchy Descriptor'
	DD	00H
	DD	03H
	DD	imagerel ??_R2?$CompiledVm@U?$AlignedAllocator@$0EA@@randomx@@$0A@$00@randomx@@8
rdata$r	ENDS
;	COMDAT ??_R4?$VmBase@U?$AlignedAllocator@$0EA@@randomx@@$0A@@randomx@@6B@
rdata$r	SEGMENT
??_R4?$VmBase@U?$AlignedAllocator@$0EA@@randomx@@$0A@@randomx@@6B@ DD 01H ; randomx::VmBase<randomx::AlignedAllocator<64>,0>::`RTTI Complete Object Locator'
	DD	00H
	DD	00H
	DD	imagerel ??_R0?AV?$VmBase@U?$AlignedAllocator@$0EA@@randomx@@$0A@@randomx@@@8
	DD	imagerel ??_R3?$VmBase@U?$AlignedAllocator@$0EA@@randomx@@$0A@@randomx@@8
	DD	imagerel ??_R4?$VmBase@U?$AlignedAllocator@$0EA@@randomx@@$0A@@randomx@@6B@
rdata$r	ENDS
;	COMDAT ??_R3?$CompiledLightVm@ULargePageAllocator@randomx@@$0A@$0A@@randomx@@8
rdata$r	SEGMENT
??_R3?$CompiledLightVm@ULargePageAllocator@randomx@@$0A@$0A@@randomx@@8 DD 00H ; randomx::CompiledLightVm<randomx::LargePageAllocator,0,0>::`RTTI Class Hierarchy Descriptor'
	DD	00H
	DD	04H
	DD	imagerel ??_R2?$CompiledLightVm@ULargePageAllocator@randomx@@$0A@$0A@@randomx@@8
rdata$r	ENDS
;	COMDAT ??_R0?AV?$CompiledLightVm@U?$AlignedAllocator@$0EA@@randomx@@$00$00@randomx@@@8
data$rs	SEGMENT
??_R0?AV?$CompiledLightVm@U?$AlignedAllocator@$0EA@@randomx@@$00$00@randomx@@@8 DQ FLAT:??_7type_info@@6B@ ; randomx::CompiledLightVm<randomx::AlignedAllocator<64>,1,1> `RTTI Type Descriptor'
	DQ	0000000000000000H
	DB	'.?AV?$CompiledLightVm@U?$AlignedAllocator@$0EA@@randomx@'
	DB	'@$00$00@randomx@@', 00H
data$rs	ENDS
;	COMDAT ??_R2?$CompiledVm@U?$AlignedAllocator@$0EA@@randomx@@$00$00@randomx@@8
rdata$r	SEGMENT
??_R2?$CompiledVm@U?$AlignedAllocator@$0EA@@randomx@@$00$00@randomx@@8 DD imagerel ??_R1A@?0A@EA@?$CompiledVm@U?$AlignedAllocator@$0EA@@randomx@@$00$00@randomx@@8 ; randomx::CompiledVm<randomx::AlignedAllocator<64>,1,1>::`RTTI Base Class Array'
	DD	imagerel ??_R1A@?0A@EA@?$VmBase@U?$AlignedAllocator@$0EA@@randomx@@$00@randomx@@8
	DD	imagerel ??_R1A@?0A@EA@randomx_vm@@8
	ORG $+3
rdata$r	ENDS
;	COMDAT ??_7?$CompiledLightVm@U?$AlignedAllocator@$0EA@@randomx@@$00$00@randomx@@6B@
CONST	SEGMENT
??_7?$CompiledLightVm@U?$AlignedAllocator@$0EA@@randomx@@$00$00@randomx@@6B@ DQ FLAT:??_R4?$CompiledLightVm@U?$AlignedAllocator@$0EA@@randomx@@$00$00@randomx@@6B@ ; randomx::CompiledLightVm<randomx::AlignedAllocator<64>,1,1>::`vftable'
	DQ	FLAT:??_E?$CompiledLightVm@U?$AlignedAllocator@$0EA@@randomx@@$00$00@randomx@@UEAAPEAXI@Z
	DQ	FLAT:?allocate@?$VmBase@U?$AlignedAllocator@$0EA@@randomx@@$00@randomx@@UEAAXXZ
	DQ	FLAT:?getFinalResult@?$VmBase@U?$AlignedAllocator@$0EA@@randomx@@$00@randomx@@UEAAXPEAX_K@Z
	DQ	FLAT:?hashAndFill@?$VmBase@U?$AlignedAllocator@$0EA@@randomx@@$00@randomx@@UEAAXPEAX_KPEA_K@Z
	DQ	FLAT:?setDataset@?$CompiledLightVm@U?$AlignedAllocator@$0EA@@randomx@@$00$00@randomx@@UEAAXPEAUrandomx_dataset@@@Z
	DQ	FLAT:?setCache@?$CompiledLightVm@U?$AlignedAllocator@$0EA@@randomx@@$00$00@randomx@@UEAAXPEAUrandomx_cache@@@Z
	DQ	FLAT:?initScratchpad@?$VmBase@U?$AlignedAllocator@$0EA@@randomx@@$00@randomx@@UEAAXPEAX@Z
	DQ	FLAT:?run@?$CompiledLightVm@U?$AlignedAllocator@$0EA@@randomx@@$00$00@randomx@@UEAAXPEAX@Z
CONST	ENDS
;	COMDAT ??_R4?$InterpretedVm@ULargePageAllocator@randomx@@$00@randomx@@6B@
rdata$r	SEGMENT
??_R4?$InterpretedVm@ULargePageAllocator@randomx@@$00@randomx@@6B@ DD 01H ; randomx::InterpretedVm<randomx::LargePageAllocator,1>::`RTTI Complete Object Locator'
	DD	00H
	DD	00H
	DD	imagerel ??_R0?AV?$InterpretedVm@ULargePageAllocator@randomx@@$00@randomx@@@8
	DD	imagerel ??_R3?$InterpretedVm@ULargePageAllocator@randomx@@$00@randomx@@8
	DD	imagerel ??_R4?$InterpretedVm@ULargePageAllocator@randomx@@$00@randomx@@6B@
rdata$r	ENDS
;	COMDAT _Fenv1
CONST	SEGMENT
_Fenv1	DD	03f00003fH
	DD	00H
CONST	ENDS
;	COMDAT ??_R4randomx_vm@@6B@
rdata$r	SEGMENT
??_R4randomx_vm@@6B@ DD 01H				; randomx_vm::`RTTI Complete Object Locator'
	DD	00H
	DD	00H
	DD	imagerel ??_R0?AVrandomx_vm@@@8
	DD	imagerel ??_R3randomx_vm@@8
	DD	imagerel ??_R4randomx_vm@@6B@
rdata$r	ENDS
;	COMDAT ??_C@_0P@GHFPNOJB@bad?5allocation@
CONST	SEGMENT
??_C@_0P@GHFPNOJB@bad?5allocation@ DB 'bad allocation', 00H ; `string'
	ORG $+67
?_Fake_alloc@std@@3U_Fake_allocator@1@B	ORG $+1		; std::_Fake_alloc
PUBLIC	??$_Traits_equal@U?$char_traits@D@std@@@std@@YA_NQEBD_K01@Z ; std::_Traits_equal<std::char_traits<char> >
PUBLIC	?_Equal@?$basic_string@DU?$char_traits@D@std@@V?$allocator@D@2@@std@@QEBA_NAEBV12@@Z ; std::basic_string<char,std::char_traits<char>,std::allocator<char> >::_Equal
PUBLIC	??$?8DU?$char_traits@D@std@@V?$allocator@D@1@@std@@YA_NAEBV?$basic_string@DU?$char_traits@D@std@@V?$allocator@D@2@@0@0@Z ; std::operator==<char,std::char_traits<char>,std::allocator<char> >
PUBLIC	?compare@?$_Narrow_char_traits@DH@std@@SAHQEBD0_K@Z ; std::_Narrow_char_traits<char,int>::compare
PUBLIC	??$_Pocca@V?$allocator@D@std@@@std@@YAXAEAV?$allocator@D@0@AEBV10@@Z ; std::_Pocca<std::allocator<char> >
PUBLIC	??$addressof@$$CBV?$basic_string@DU?$char_traits@D@std@@V?$allocator@D@2@@std@@@std@@YAPEBV?$basic_string@DU?$char_traits@D@std@@V?$allocator@D@2@@0@AEBV10@@Z ; std::addressof<std::basic_string<char,std::char_traits<char>,std::allocator<char> > const >
PUBLIC	??$_Reallocate_for@V<lambda_1>@?1??assign@?$basic_string@DU?$char_traits@D@std@@V?$allocator@D@2@@std@@QEAAAEAV34@QEBD_K@Z@PEBD@?$basic_string@DU?$char_traits@D@std@@V?$allocator@D@2@@std@@AEAAAEAV01@_KV<lambda_1>@?1??assign@01@QEAAAEAV01@QEBD0@Z@PEBD@Z ; std::basic_string<char,std::char_traits<char>,std::allocator<char> >::_Reallocate_for<`std::basic_string<char,std::char_traits<char>,std::allocator<char> >::assign'::`2'::<lambda_1>,char const *>
PUBLIC	??$deallocDataset@U?$AlignedAllocator@$0EA@@randomx@@@randomx@@YAXPEAUrandomx_dataset@@@Z ; randomx::deallocDataset<randomx::AlignedAllocator<64> >
PUBLIC	??$deallocDataset@ULargePageAllocator@randomx@@@randomx@@YAXPEAUrandomx_dataset@@@Z ; randomx::deallocDataset<randomx::LargePageAllocator>
PUBLIC	??$?9DU?$char_traits@D@std@@V?$allocator@D@1@@std@@YA_NAEBV?$basic_string@DU?$char_traits@D@std@@V?$allocator@D@2@@0@0@Z ; std::operator!=<char,std::char_traits<char>,std::allocator<char> >
PUBLIC	??4?$basic_string@DU?$char_traits@D@std@@V?$allocator@D@2@@std@@QEAAAEAV01@AEBV01@@Z ; std::basic_string<char,std::char_traits<char>,std::allocator<char> >::operator=
PUBLIC	??R<lambda_1>@?1??assign@?$basic_string@DU?$char_traits@D@std@@V?$allocator@D@2@@std@@QEAAAEAV23@QEBD_K@Z@QEBA@QEAD10@Z ; `std::basic_string<char,std::char_traits<char>,std::allocator<char> >::assign'::`2'::<lambda_1>::operator()
PUBLIC	?assign@?$basic_string@DU?$char_traits@D@std@@V?$allocator@D@2@@std@@QEAAAEAV12@QEBD_K@Z ; std::basic_string<char,std::char_traits<char>,std::allocator<char> >::assign
PUBLIC	??2?$InterpretedVm@U?$AlignedAllocator@$0EA@@randomx@@$00@randomx@@SAPEAX_K@Z ; randomx::InterpretedVm<randomx::AlignedAllocator<64>,1>::operator new
PUBLIC	??3?$InterpretedVm@U?$AlignedAllocator@$0EA@@randomx@@$00@randomx@@SAXPEAX@Z ; randomx::InterpretedVm<randomx::AlignedAllocator<64>,1>::operator delete
PUBLIC	??2?$InterpretedLightVm@U?$AlignedAllocator@$0EA@@randomx@@$00@randomx@@SAPEAX_K@Z ; randomx::InterpretedLightVm<randomx::AlignedAllocator<64>,1>::operator new
PUBLIC	??3?$InterpretedLightVm@U?$AlignedAllocator@$0EA@@randomx@@$00@randomx@@SAXPEAX@Z ; randomx::InterpretedLightVm<randomx::AlignedAllocator<64>,1>::operator delete
PUBLIC	?setDataset@?$InterpretedLightVm@U?$AlignedAllocator@$0EA@@randomx@@$00@randomx@@UEAAXPEAUrandomx_dataset@@@Z ; randomx::InterpretedLightVm<randomx::AlignedAllocator<64>,1>::setDataset
PUBLIC	?datasetPrefetch@?$InterpretedLightVm@U?$AlignedAllocator@$0EA@@randomx@@$00@randomx@@MEAAX_K@Z ; randomx::InterpretedLightVm<randomx::AlignedAllocator<64>,1>::datasetPrefetch
PUBLIC	??2?$CompiledVm@U?$AlignedAllocator@$0EA@@randomx@@$00$00@randomx@@SAPEAX_K@Z ; randomx::CompiledVm<randomx::AlignedAllocator<64>,1,1>::operator new
PUBLIC	??3?$CompiledVm@U?$AlignedAllocator@$0EA@@randomx@@$00$00@randomx@@SAXPEAX@Z ; randomx::CompiledVm<randomx::AlignedAllocator<64>,1,1>::operator delete
PUBLIC	??2?$CompiledLightVm@U?$AlignedAllocator@$0EA@@randomx@@$00$00@randomx@@SAPEAX_K@Z ; randomx::CompiledLightVm<randomx::AlignedAllocator<64>,1,1>::operator new
PUBLIC	??3?$CompiledLightVm@U?$AlignedAllocator@$0EA@@randomx@@$00$00@randomx@@SAXPEAX@Z ; randomx::CompiledLightVm<randomx::AlignedAllocator<64>,1,1>::operator delete
PUBLIC	?setDataset@?$CompiledLightVm@U?$AlignedAllocator@$0EA@@randomx@@$00$00@randomx@@UEAAXPEAUrandomx_dataset@@@Z ; randomx::CompiledLightVm<randomx::AlignedAllocator<64>,1,1>::setDataset
PUBLIC	??2?$CompiledVm@U?$AlignedAllocator@$0EA@@randomx@@$00$0A@@randomx@@SAPEAX_K@Z ; randomx::CompiledVm<randomx::AlignedAllocator<64>,1,0>::operator new
PUBLIC	??3?$CompiledVm@U?$AlignedAllocator@$0EA@@randomx@@$00$0A@@randomx@@SAXPEAX@Z ; randomx::CompiledVm<randomx::AlignedAllocator<64>,1,0>::operator delete
PUBLIC	??2?$CompiledLightVm@U?$AlignedAllocator@$0EA@@randomx@@$00$0A@@randomx@@SAPEAX_K@Z ; randomx::CompiledLightVm<randomx::AlignedAllocator<64>,1,0>::operator new
PUBLIC	??3?$CompiledLightVm@U?$AlignedAllocator@$0EA@@randomx@@$00$0A@@randomx@@SAXPEAX@Z ; randomx::CompiledLightVm<randomx::AlignedAllocator<64>,1,0>::operator delete
PUBLIC	?setDataset@?$CompiledLightVm@U?$AlignedAllocator@$0EA@@randomx@@$00$0A@@randomx@@UEAAXPEAUrandomx_dataset@@@Z ; randomx::CompiledLightVm<randomx::AlignedAllocator<64>,1,0>::setDataset
PUBLIC	??2?$InterpretedVm@U?$AlignedAllocator@$0EA@@randomx@@$0A@@randomx@@SAPEAX_K@Z ; randomx::InterpretedVm<randomx::AlignedAllocator<64>,0>::operator new
PUBLIC	??3?$InterpretedVm@U?$AlignedAllocator@$0EA@@randomx@@$0A@@randomx@@SAXPEAX@Z ; randomx::InterpretedVm<randomx::AlignedAllocator<64>,0>::operator delete
PUBLIC	??2?$InterpretedLightVm@U?$AlignedAllocator@$0EA@@randomx@@$0A@@randomx@@SAPEAX_K@Z ; randomx::InterpretedLightVm<randomx::AlignedAllocator<64>,0>::operator new
PUBLIC	??3?$InterpretedLightVm@U?$AlignedAllocator@$0EA@@randomx@@$0A@@randomx@@SAXPEAX@Z ; randomx::InterpretedLightVm<randomx::AlignedAllocator<64>,0>::operator delete
PUBLIC	?setDataset@?$InterpretedLightVm@U?$AlignedAllocator@$0EA@@randomx@@$0A@@randomx@@UEAAXPEAUrandomx_dataset@@@Z ; randomx::InterpretedLightVm<randomx::AlignedAllocator<64>,0>::setDataset
PUBLIC	?datasetPrefetch@?$InterpretedLightVm@U?$AlignedAllocator@$0EA@@randomx@@$0A@@randomx@@MEAAX_K@Z ; randomx::InterpretedLightVm<randomx::AlignedAllocator<64>,0>::datasetPrefetch
PUBLIC	??2?$CompiledVm@U?$AlignedAllocator@$0EA@@randomx@@$0A@$00@randomx@@SAPEAX_K@Z ; randomx::CompiledVm<randomx::AlignedAllocator<64>,0,1>::operator new
PUBLIC	??3?$CompiledVm@U?$AlignedAllocator@$0EA@@randomx@@$0A@$00@randomx@@SAXPEAX@Z ; randomx::CompiledVm<randomx::AlignedAllocator<64>,0,1>::operator delete
PUBLIC	??2?$CompiledLightVm@U?$AlignedAllocator@$0EA@@randomx@@$0A@$00@randomx@@SAPEAX_K@Z ; randomx::CompiledLightVm<randomx::AlignedAllocator<64>,0,1>::operator new
PUBLIC	??3?$CompiledLightVm@U?$AlignedAllocator@$0EA@@randomx@@$0A@$00@randomx@@SAXPEAX@Z ; randomx::CompiledLightVm<randomx::AlignedAllocator<64>,0,1>::operator delete
PUBLIC	?setDataset@?$CompiledLightVm@U?$AlignedAllocator@$0EA@@randomx@@$0A@$00@randomx@@UEAAXPEAUrandomx_dataset@@@Z ; randomx::CompiledLightVm<randomx::AlignedAllocator<64>,0,1>::setDataset
PUBLIC	??2?$CompiledVm@U?$AlignedAllocator@$0EA@@randomx@@$0A@$0A@@randomx@@SAPEAX_K@Z ; randomx::CompiledVm<randomx::AlignedAllocator<64>,0,0>::operator new
PUBLIC	??3?$CompiledVm@U?$AlignedAllocator@$0EA@@randomx@@$0A@$0A@@randomx@@SAXPEAX@Z ; randomx::CompiledVm<randomx::AlignedAllocator<64>,0,0>::operator delete
PUBLIC	??2?$CompiledLightVm@U?$AlignedAllocator@$0EA@@randomx@@$0A@$0A@@randomx@@SAPEAX_K@Z ; randomx::CompiledLightVm<randomx::AlignedAllocator<64>,0,0>::operator new
PUBLIC	??3?$CompiledLightVm@U?$AlignedAllocator@$0EA@@randomx@@$0A@$0A@@randomx@@SAXPEAX@Z ; randomx::CompiledLightVm<randomx::AlignedAllocator<64>,0,0>::operator delete
PUBLIC	?setDataset@?$CompiledLightVm@U?$AlignedAllocator@$0EA@@randomx@@$0A@$0A@@randomx@@UEAAXPEAUrandomx_dataset@@@Z ; randomx::CompiledLightVm<randomx::AlignedAllocator<64>,0,0>::setDataset
PUBLIC	??2?$InterpretedVm@ULargePageAllocator@randomx@@$00@randomx@@SAPEAX_K@Z ; randomx::InterpretedVm<randomx::LargePageAllocator,1>::operator new
PUBLIC	??3?$InterpretedVm@ULargePageAllocator@randomx@@$00@randomx@@SAXPEAX@Z ; randomx::InterpretedVm<randomx::LargePageAllocator,1>::operator delete
PUBLIC	??2?$InterpretedLightVm@ULargePageAllocator@randomx@@$00@randomx@@SAPEAX_K@Z ; randomx::InterpretedLightVm<randomx::LargePageAllocator,1>::operator new
PUBLIC	??3?$InterpretedLightVm@ULargePageAllocator@randomx@@$00@randomx@@SAXPEAX@Z ; randomx::InterpretedLightVm<randomx::LargePageAllocator,1>::operator delete
PUBLIC	?setDataset@?$InterpretedLightVm@ULargePageAllocator@randomx@@$00@randomx@@UEAAXPEAUrandomx_dataset@@@Z ; randomx::InterpretedLightVm<randomx::LargePageAllocator,1>::setDataset
PUBLIC	?datasetPrefetch@?$InterpretedLightVm@ULargePageAllocator@randomx@@$00@randomx@@MEAAX_K@Z ; randomx::InterpretedLightVm<randomx::LargePageAllocator,1>::datasetPrefetch
PUBLIC	??2?$CompiledVm@ULargePageAllocator@randomx@@$00$00@randomx@@SAPEAX_K@Z ; randomx::CompiledVm<randomx::LargePageAllocator,1,1>::operator new
PUBLIC	??3?$CompiledVm@ULargePageAllocator@randomx@@$00$00@randomx@@SAXPEAX@Z ; randomx::CompiledVm<randomx::LargePageAllocator,1,1>::operator delete
PUBLIC	??2?$CompiledLightVm@ULargePageAllocator@randomx@@$00$00@randomx@@SAPEAX_K@Z ; randomx::CompiledLightVm<randomx::LargePageAllocator,1,1>::operator new
PUBLIC	??3?$CompiledLightVm@ULargePageAllocator@randomx@@$00$00@randomx@@SAXPEAX@Z ; randomx::CompiledLightVm<randomx::LargePageAllocator,1,1>::operator delete
PUBLIC	?setDataset@?$CompiledLightVm@ULargePageAllocator@randomx@@$00$00@randomx@@UEAAXPEAUrandomx_dataset@@@Z ; randomx::CompiledLightVm<randomx::LargePageAllocator,1,1>::setDataset
PUBLIC	??2?$CompiledVm@ULargePageAllocator@randomx@@$00$0A@@randomx@@SAPEAX_K@Z ; randomx::CompiledVm<randomx::LargePageAllocator,1,0>::operator new
PUBLIC	??3?$CompiledVm@ULargePageAllocator@randomx@@$00$0A@@randomx@@SAXPEAX@Z ; randomx::CompiledVm<randomx::LargePageAllocator,1,0>::operator delete
PUBLIC	??2?$CompiledLightVm@ULargePageAllocator@randomx@@$00$0A@@randomx@@SAPEAX_K@Z ; randomx::CompiledLightVm<randomx::LargePageAllocator,1,0>::operator new
PUBLIC	??3?$CompiledLightVm@ULargePageAllocator@randomx@@$00$0A@@randomx@@SAXPEAX@Z ; randomx::CompiledLightVm<randomx::LargePageAllocator,1,0>::operator delete
PUBLIC	?setDataset@?$CompiledLightVm@ULargePageAllocator@randomx@@$00$0A@@randomx@@UEAAXPEAUrandomx_dataset@@@Z ; randomx::CompiledLightVm<randomx::LargePageAllocator,1,0>::setDataset
PUBLIC	??2?$InterpretedVm@ULargePageAllocator@randomx@@$0A@@randomx@@SAPEAX_K@Z ; randomx::InterpretedVm<randomx::LargePageAllocator,0>::operator new
PUBLIC	??3?$InterpretedVm@ULargePageAllocator@randomx@@$0A@@randomx@@SAXPEAX@Z ; randomx::InterpretedVm<randomx::LargePageAllocator,0>::operator delete
PUBLIC	??2?$InterpretedLightVm@ULargePageAllocator@randomx@@$0A@@randomx@@SAPEAX_K@Z ; randomx::InterpretedLightVm<randomx::LargePageAllocator,0>::operator new
PUBLIC	??3?$InterpretedLightVm@ULargePageAllocator@randomx@@$0A@@randomx@@SAXPEAX@Z ; randomx::InterpretedLightVm<randomx::LargePageAllocator,0>::operator delete
PUBLIC	?setDataset@?$InterpretedLightVm@ULargePageAllocator@randomx@@$0A@@randomx@@UEAAXPEAUrandomx_dataset@@@Z ; randomx::InterpretedLightVm<randomx::LargePageAllocator,0>::setDataset
PUBLIC	?datasetPrefetch@?$InterpretedLightVm@ULargePageAllocator@randomx@@$0A@@randomx@@MEAAX_K@Z ; randomx::InterpretedLightVm<randomx::LargePageAllocator,0>::datasetPrefetch
PUBLIC	??2?$CompiledVm@ULargePageAllocator@randomx@@$0A@$00@randomx@@SAPEAX_K@Z ; randomx::CompiledVm<randomx::LargePageAllocator,0,1>::operator new
PUBLIC	??3?$CompiledVm@ULargePageAllocator@randomx@@$0A@$00@randomx@@SAXPEAX@Z ; randomx::CompiledVm<randomx::LargePageAllocator,0,1>::operator delete
PUBLIC	??2?$CompiledLightVm@ULargePageAllocator@randomx@@$0A@$00@randomx@@SAPEAX_K@Z ; randomx::CompiledLightVm<randomx::LargePageAllocator,0,1>::operator new
PUBLIC	??3?$CompiledLightVm@ULargePageAllocator@randomx@@$0A@$00@randomx@@SAXPEAX@Z ; randomx::CompiledLightVm<randomx::LargePageAllocator,0,1>::operator delete
PUBLIC	?setDataset@?$CompiledLightVm@ULargePageAllocator@randomx@@$0A@$00@randomx@@UEAAXPEAUrandomx_dataset@@@Z ; randomx::CompiledLightVm<randomx::LargePageAllocator,0,1>::setDataset
PUBLIC	??2?$CompiledVm@ULargePageAllocator@randomx@@$0A@$0A@@randomx@@SAPEAX_K@Z ; randomx::CompiledVm<randomx::LargePageAllocator,0,0>::operator new
PUBLIC	??3?$CompiledVm@ULargePageAllocator@randomx@@$0A@$0A@@randomx@@SAXPEAX@Z ; randomx::CompiledVm<randomx::LargePageAllocator,0,0>::operator delete
PUBLIC	??2?$CompiledLightVm@ULargePageAllocator@randomx@@$0A@$0A@@randomx@@SAPEAX_K@Z ; randomx::CompiledLightVm<randomx::LargePageAllocator,0,0>::operator new
PUBLIC	??3?$CompiledLightVm@ULargePageAllocator@randomx@@$0A@$0A@@randomx@@SAXPEAX@Z ; randomx::CompiledLightVm<randomx::LargePageAllocator,0,0>::operator delete
PUBLIC	?setDataset@?$CompiledLightVm@ULargePageAllocator@randomx@@$0A@$0A@@randomx@@UEAAXPEAUrandomx_dataset@@@Z ; randomx::CompiledLightVm<randomx::LargePageAllocator,0,0>::setDataset
PUBLIC	?__empty_global_delete@@YAXPEAX_K@Z		; __empty_global_delete
PUBLIC	??1?$CompiledVm@ULargePageAllocator@randomx@@$0A@$0A@@randomx@@UEAA@XZ ; randomx::CompiledVm<randomx::LargePageAllocator,0,0>::~CompiledVm<randomx::LargePageAllocator,0,0>
PUBLIC	??1?$CompiledLightVm@ULargePageAllocator@randomx@@$0A@$0A@@randomx@@UEAA@XZ ; randomx::CompiledLightVm<randomx::LargePageAllocator,0,0>::~CompiledLightVm<randomx::LargePageAllocator,0,0>
PUBLIC	??_G?$CompiledLightVm@ULargePageAllocator@randomx@@$0A@$0A@@randomx@@UEAAPEAXI@Z ; randomx::CompiledLightVm<randomx::LargePageAllocator,0,0>::`scalar deleting destructor'
PUBLIC	??1?$CompiledVm@ULargePageAllocator@randomx@@$0A@$00@randomx@@UEAA@XZ ; randomx::CompiledVm<randomx::LargePageAllocator,0,1>::~CompiledVm<randomx::LargePageAllocator,0,1>
PUBLIC	??1?$CompiledLightVm@ULargePageAllocator@randomx@@$0A@$00@randomx@@UEAA@XZ ; randomx::CompiledLightVm<randomx::LargePageAllocator,0,1>::~CompiledLightVm<randomx::LargePageAllocator,0,1>
PUBLIC	??_G?$CompiledLightVm@ULargePageAllocator@randomx@@$0A@$00@randomx@@UEAAPEAXI@Z ; randomx::CompiledLightVm<randomx::LargePageAllocator,0,1>::`scalar deleting destructor'
PUBLIC	??_G?$VmBase@ULargePageAllocator@randomx@@$0A@@randomx@@UEAAPEAXI@Z ; randomx::VmBase<randomx::LargePageAllocator,0>::`scalar deleting destructor'
PUBLIC	??_G?$InterpretedVm@ULargePageAllocator@randomx@@$0A@@randomx@@UEAAPEAXI@Z ; randomx::InterpretedVm<randomx::LargePageAllocator,0>::`scalar deleting destructor'
PUBLIC	??1?$InterpretedVm@ULargePageAllocator@randomx@@$0A@@randomx@@UEAA@XZ ; randomx::InterpretedVm<randomx::LargePageAllocator,0>::~InterpretedVm<randomx::LargePageAllocator,0>
PUBLIC	??1?$InterpretedLightVm@ULargePageAllocator@randomx@@$0A@@randomx@@UEAA@XZ ; randomx::InterpretedLightVm<randomx::LargePageAllocator,0>::~InterpretedLightVm<randomx::LargePageAllocator,0>
PUBLIC	??_G?$InterpretedLightVm@ULargePageAllocator@randomx@@$0A@@randomx@@UEAAPEAXI@Z ; randomx::InterpretedLightVm<randomx::LargePageAllocator,0>::`scalar deleting destructor'
PUBLIC	??1?$CompiledVm@ULargePageAllocator@randomx@@$00$0A@@randomx@@UEAA@XZ ; randomx::CompiledVm<randomx::LargePageAllocator,1,0>::~CompiledVm<randomx::LargePageAllocator,1,0>
PUBLIC	??1?$CompiledLightVm@ULargePageAllocator@randomx@@$00$0A@@randomx@@UEAA@XZ ; randomx::CompiledLightVm<randomx::LargePageAllocator,1,0>::~CompiledLightVm<randomx::LargePageAllocator,1,0>
PUBLIC	??_G?$CompiledLightVm@ULargePageAllocator@randomx@@$00$0A@@randomx@@UEAAPEAXI@Z ; randomx::CompiledLightVm<randomx::LargePageAllocator,1,0>::`scalar deleting destructor'
PUBLIC	??1?$CompiledVm@ULargePageAllocator@randomx@@$00$00@randomx@@UEAA@XZ ; randomx::CompiledVm<randomx::LargePageAllocator,1,1>::~CompiledVm<randomx::LargePageAllocator,1,1>
PUBLIC	??1?$CompiledLightVm@ULargePageAllocator@randomx@@$00$00@randomx@@UEAA@XZ ; randomx::CompiledLightVm<randomx::LargePageAllocator,1,1>::~CompiledLightVm<randomx::LargePageAllocator,1,1>
PUBLIC	??_G?$CompiledLightVm@ULargePageAllocator@randomx@@$00$00@randomx@@UEAAPEAXI@Z ; randomx::CompiledLightVm<randomx::LargePageAllocator,1,1>::`scalar deleting destructor'
PUBLIC	??_G?$VmBase@ULargePageAllocator@randomx@@$00@randomx@@UEAAPEAXI@Z ; randomx::VmBase<randomx::LargePageAllocator,1>::`scalar deleting destructor'
PUBLIC	??_G?$InterpretedVm@ULargePageAllocator@randomx@@$00@randomx@@UEAAPEAXI@Z ; randomx::InterpretedVm<randomx::LargePageAllocator,1>::`scalar deleting destructor'
PUBLIC	??1?$InterpretedVm@ULargePageAllocator@randomx@@$00@randomx@@UEAA@XZ ; randomx::InterpretedVm<randomx::LargePageAllocator,1>::~InterpretedVm<randomx::LargePageAllocator,1>
PUBLIC	??1?$InterpretedLightVm@ULargePageAllocator@randomx@@$00@randomx@@UEAA@XZ ; randomx::InterpretedLightVm<randomx::LargePageAllocator,1>::~InterpretedLightVm<randomx::LargePageAllocator,1>
PUBLIC	??_G?$InterpretedLightVm@ULargePageAllocator@randomx@@$00@randomx@@UEAAPEAXI@Z ; randomx::InterpretedLightVm<randomx::LargePageAllocator,1>::`scalar deleting destructor'
PUBLIC	??1?$CompiledVm@U?$AlignedAllocator@$0EA@@randomx@@$0A@$0A@@randomx@@UEAA@XZ ; randomx::CompiledVm<randomx::AlignedAllocator<64>,0,0>::~CompiledVm<randomx::AlignedAllocator<64>,0,0>
PUBLIC	??1?$CompiledLightVm@U?$AlignedAllocator@$0EA@@randomx@@$0A@$0A@@randomx@@UEAA@XZ ; randomx::CompiledLightVm<randomx::AlignedAllocator<64>,0,0>::~CompiledLightVm<randomx::AlignedAllocator<64>,0,0>
PUBLIC	??_G?$CompiledLightVm@U?$AlignedAllocator@$0EA@@randomx@@$0A@$0A@@randomx@@UEAAPEAXI@Z ; randomx::CompiledLightVm<randomx::AlignedAllocator<64>,0,0>::`scalar deleting destructor'
PUBLIC	??1?$CompiledVm@U?$AlignedAllocator@$0EA@@randomx@@$0A@$00@randomx@@UEAA@XZ ; randomx::CompiledVm<randomx::AlignedAllocator<64>,0,1>::~CompiledVm<randomx::AlignedAllocator<64>,0,1>
PUBLIC	??1?$CompiledLightVm@U?$AlignedAllocator@$0EA@@randomx@@$0A@$00@randomx@@UEAA@XZ ; randomx::CompiledLightVm<randomx::AlignedAllocator<64>,0,1>::~CompiledLightVm<randomx::AlignedAllocator<64>,0,1>
PUBLIC	??_G?$CompiledLightVm@U?$AlignedAllocator@$0EA@@randomx@@$0A@$00@randomx@@UEAAPEAXI@Z ; randomx::CompiledLightVm<randomx::AlignedAllocator<64>,0,1>::`scalar deleting destructor'
PUBLIC	??_G?$VmBase@U?$AlignedAllocator@$0EA@@randomx@@$0A@@randomx@@UEAAPEAXI@Z ; randomx::VmBase<randomx::AlignedAllocator<64>,0>::`scalar deleting destructor'
PUBLIC	??_G?$InterpretedVm@U?$AlignedAllocator@$0EA@@randomx@@$0A@@randomx@@UEAAPEAXI@Z ; randomx::InterpretedVm<randomx::AlignedAllocator<64>,0>::`scalar deleting destructor'
PUBLIC	??1?$InterpretedVm@U?$AlignedAllocator@$0EA@@randomx@@$0A@@randomx@@UEAA@XZ ; randomx::InterpretedVm<randomx::AlignedAllocator<64>,0>::~InterpretedVm<randomx::AlignedAllocator<64>,0>
PUBLIC	??1?$InterpretedLightVm@U?$AlignedAllocator@$0EA@@randomx@@$0A@@randomx@@UEAA@XZ ; randomx::InterpretedLightVm<randomx::AlignedAllocator<64>,0>::~InterpretedLightVm<randomx::AlignedAllocator<64>,0>
PUBLIC	??_G?$InterpretedLightVm@U?$AlignedAllocator@$0EA@@randomx@@$0A@@randomx@@UEAAPEAXI@Z ; randomx::InterpretedLightVm<randomx::AlignedAllocator<64>,0>::`scalar deleting destructor'
PUBLIC	??1?$CompiledVm@U?$AlignedAllocator@$0EA@@randomx@@$00$0A@@randomx@@UEAA@XZ ; randomx::CompiledVm<randomx::AlignedAllocator<64>,1,0>::~CompiledVm<randomx::AlignedAllocator<64>,1,0>
PUBLIC	??1?$CompiledLightVm@U?$AlignedAllocator@$0EA@@randomx@@$00$0A@@randomx@@UEAA@XZ ; randomx::CompiledLightVm<randomx::AlignedAllocator<64>,1,0>::~CompiledLightVm<randomx::AlignedAllocator<64>,1,0>
PUBLIC	??_G?$CompiledLightVm@U?$AlignedAllocator@$0EA@@randomx@@$00$0A@@randomx@@UEAAPEAXI@Z ; randomx::CompiledLightVm<randomx::AlignedAllocator<64>,1,0>::`scalar deleting destructor'
PUBLIC	??1?$CompiledVm@U?$AlignedAllocator@$0EA@@randomx@@$00$00@randomx@@UEAA@XZ ; randomx::CompiledVm<randomx::AlignedAllocator<64>,1,1>::~CompiledVm<randomx::AlignedAllocator<64>,1,1>
PUBLIC	??1?$CompiledLightVm@U?$AlignedAllocator@$0EA@@randomx@@$00$00@randomx@@UEAA@XZ ; randomx::CompiledLightVm<randomx::AlignedAllocator<64>,1,1>::~CompiledLightVm<randomx::AlignedAllocator<64>,1,1>
PUBLIC	??_G?$CompiledLightVm@U?$AlignedAllocator@$0EA@@randomx@@$00$00@randomx@@UEAAPEAXI@Z ; randomx::CompiledLightVm<randomx::AlignedAllocator<64>,1,1>::`scalar deleting destructor'
PUBLIC	??0?$CompiledLightVm@ULargePageAllocator@randomx@@$0A@$0A@@randomx@@QEAA@XZ ; randomx::CompiledLightVm<randomx::LargePageAllocator,0,0>::CompiledLightVm<randomx::LargePageAllocator,0,0>
PUBLIC	??0?$CompiledLightVm@ULargePageAllocator@randomx@@$0A@$00@randomx@@QEAA@XZ ; randomx::CompiledLightVm<randomx::LargePageAllocator,0,1>::CompiledLightVm<randomx::LargePageAllocator,0,1>
PUBLIC	??0?$VmBase@ULargePageAllocator@randomx@@$0A@@randomx@@QEAA@XZ ; randomx::VmBase<randomx::LargePageAllocator,0>::VmBase<randomx::LargePageAllocator,0>
PUBLIC	??0?$InterpretedVm@ULargePageAllocator@randomx@@$0A@@randomx@@QEAA@XZ ; randomx::InterpretedVm<randomx::LargePageAllocator,0>::InterpretedVm<randomx::LargePageAllocator,0>
PUBLIC	??0?$InterpretedLightVm@ULargePageAllocator@randomx@@$0A@@randomx@@QEAA@XZ ; randomx::InterpretedLightVm<randomx::LargePageAllocator,0>::InterpretedLightVm<randomx::LargePageAllocator,0>
PUBLIC	??0?$CompiledLightVm@ULargePageAllocator@randomx@@$00$0A@@randomx@@QEAA@XZ ; randomx::CompiledLightVm<randomx::LargePageAllocator,1,0>::CompiledLightVm<randomx::LargePageAllocator,1,0>
PUBLIC	??0?$CompiledLightVm@ULargePageAllocator@randomx@@$00$00@randomx@@QEAA@XZ ; randomx::CompiledLightVm<randomx::LargePageAllocator,1,1>::CompiledLightVm<randomx::LargePageAllocator,1,1>
PUBLIC	??0?$VmBase@ULargePageAllocator@randomx@@$00@randomx@@QEAA@XZ ; randomx::VmBase<randomx::LargePageAllocator,1>::VmBase<randomx::LargePageAllocator,1>
PUBLIC	??0?$InterpretedVm@ULargePageAllocator@randomx@@$00@randomx@@QEAA@XZ ; randomx::InterpretedVm<randomx::LargePageAllocator,1>::InterpretedVm<randomx::LargePageAllocator,1>
PUBLIC	??0?$InterpretedLightVm@ULargePageAllocator@randomx@@$00@randomx@@QEAA@XZ ; randomx::InterpretedLightVm<randomx::LargePageAllocator,1>::InterpretedLightVm<randomx::LargePageAllocator,1>
PUBLIC	??0?$CompiledLightVm@U?$AlignedAllocator@$0EA@@randomx@@$0A@$0A@@randomx@@QEAA@XZ ; randomx::CompiledLightVm<randomx::AlignedAllocator<64>,0,0>::CompiledLightVm<randomx::AlignedAllocator<64>,0,0>
PUBLIC	??0?$CompiledLightVm@U?$AlignedAllocator@$0EA@@randomx@@$0A@$00@randomx@@QEAA@XZ ; randomx::CompiledLightVm<randomx::AlignedAllocator<64>,0,1>::CompiledLightVm<randomx::AlignedAllocator<64>,0,1>
PUBLIC	??0?$VmBase@U?$AlignedAllocator@$0EA@@randomx@@$0A@@randomx@@QEAA@XZ ; randomx::VmBase<randomx::AlignedAllocator<64>,0>::VmBase<randomx::AlignedAllocator<64>,0>
PUBLIC	??0?$InterpretedVm@U?$AlignedAllocator@$0EA@@randomx@@$0A@@randomx@@QEAA@XZ ; randomx::InterpretedVm<randomx::AlignedAllocator<64>,0>::InterpretedVm<randomx::AlignedAllocator<64>,0>
PUBLIC	??0?$InterpretedLightVm@U?$AlignedAllocator@$0EA@@randomx@@$0A@@randomx@@QEAA@XZ ; randomx::InterpretedLightVm<randomx::AlignedAllocator<64>,0>::InterpretedLightVm<randomx::AlignedAllocator<64>,0>
PUBLIC	??0?$CompiledLightVm@U?$AlignedAllocator@$0EA@@randomx@@$00$0A@@randomx@@QEAA@XZ ; randomx::CompiledLightVm<randomx::AlignedAllocator<64>,1,0>::CompiledLightVm<randomx::AlignedAllocator<64>,1,0>
PUBLIC	??0?$CompiledLightVm@U?$AlignedAllocator@$0EA@@randomx@@$00$00@randomx@@QEAA@XZ ; randomx::CompiledLightVm<randomx::AlignedAllocator<64>,1,1>::CompiledLightVm<randomx::AlignedAllocator<64>,1,1>
PUBLIC	??_G?$VmBase@U?$AlignedAllocator@$0EA@@randomx@@$00@randomx@@UEAAPEAXI@Z ; randomx::VmBase<randomx::AlignedAllocator<64>,1>::`scalar deleting destructor'
PUBLIC	??1?$InterpretedVm@U?$AlignedAllocator@$0EA@@randomx@@$00@randomx@@UEAA@XZ ; randomx::InterpretedVm<randomx::AlignedAllocator<64>,1>::~InterpretedVm<randomx::AlignedAllocator<64>,1>
PUBLIC	??_G?$InterpretedVm@U?$AlignedAllocator@$0EA@@randomx@@$00@randomx@@UEAAPEAXI@Z ; randomx::InterpretedVm<randomx::AlignedAllocator<64>,1>::`scalar deleting destructor'
PUBLIC	??1?$InterpretedLightVm@U?$AlignedAllocator@$0EA@@randomx@@$00@randomx@@UEAA@XZ ; randomx::InterpretedLightVm<randomx::AlignedAllocator<64>,1>::~InterpretedLightVm<randomx::AlignedAllocator<64>,1>
PUBLIC	??_G?$InterpretedLightVm@U?$AlignedAllocator@$0EA@@randomx@@$00@randomx@@UEAAPEAXI@Z ; randomx::InterpretedLightVm<randomx::AlignedAllocator<64>,1>::`scalar deleting destructor'
PUBLIC	??0MemoryRegisters@randomx@@QEAA@XZ		; randomx::MemoryRegisters::MemoryRegisters
PUBLIC	??0randomx_vm@@QEAA@XZ				; randomx_vm::randomx_vm
PUBLIC	??0?$VmBase@U?$AlignedAllocator@$0EA@@randomx@@$00@randomx@@QEAA@XZ ; randomx::VmBase<randomx::AlignedAllocator<64>,1>::VmBase<randomx::AlignedAllocator<64>,1>
PUBLIC	??0?$InterpretedVm@U?$AlignedAllocator@$0EA@@randomx@@$00@randomx@@QEAA@XZ ; randomx::InterpretedVm<randomx::AlignedAllocator<64>,1>::InterpretedVm<randomx::AlignedAllocator<64>,1>
PUBLIC	??0?$InterpretedLightVm@U?$AlignedAllocator@$0EA@@randomx@@$00@randomx@@QEAA@XZ ; randomx::InterpretedLightVm<randomx::AlignedAllocator<64>,1>::InterpretedLightVm<randomx::AlignedAllocator<64>,1>
PUBLIC	??0randomx_dataset@@QEAA@XZ			; randomx_dataset::randomx_dataset
PUBLIC	??1randomx_cache@@QEAA@XZ			; randomx_cache::~randomx_cache
PUBLIC	??_Grandomx_cache@@QEAAPEAXI@Z			; randomx_cache::`scalar deleting destructor'
PUBLIC	??0randomx_cache@@QEAA@XZ			; randomx_cache::randomx_cache
PUBLIC	?getDatasetInitFunc@JitCompilerX86@randomx@@QEAAP6AXPEAUrandomx_cache@@PEAEII@ZXZ ; randomx::JitCompilerX86::getDatasetInitFunc
PUBLIC	?getMemory@randomx_vm@@QEBAPEBEXZ		; randomx_vm::getMemory
PUBLIC	?getRegisterFile@randomx_vm@@QEAAPEAURegisterFile@randomx@@XZ ; randomx_vm::getRegisterFile
PUBLIC	?setCache@randomx_vm@@UEAAXPEAUrandomx_cache@@@Z ; randomx_vm::setCache
PUBLIC	?setDataset@randomx_vm@@UEAAXPEAUrandomx_dataset@@@Z ; randomx_vm::setDataset
PUBLIC	?selectArgonImpl@randomx@@YAP6AXPEBUArgon2_instance_t@@UArgon2_position_t@@@ZW4randomx_flags@@@Z ; randomx::selectArgonImpl
PUBLIC	?isInitialized@randomx_cache@@QEAA_NXZ		; randomx_cache::isInitialized
PUBLIC	?getSize@SuperscalarProgram@randomx@@QEAAIXZ	; randomx::SuperscalarProgram::getSize
PUBLIC	??0bad_alloc@std@@QEAA@XZ			; std::bad_alloc::bad_alloc
PUBLIC	?max@?$numeric_limits@_K@std@@SA_KXZ		; std::numeric_limits<unsigned __int64>::max
PUBLIC	??I@YA?AW4randomx_flags@@W40@0@Z		; operator&
PUBLIC	randomx_alloc_cache
PUBLIC	randomx_calculate_hash_next
PUBLIC	randomx_init_dataset
PUBLIC	randomx_dataset_item_count
PUBLIC	randomx_create_vm
PUBLIC	randomx_destroy_vm
PUBLIC	randomx_alloc_dataset
PUBLIC	randomx_release_cache
PUBLIC	randomx_calculate_hash_first
PUBLIC	randomx_vm_set_dataset
PUBLIC	randomx_init_cache
PUBLIC	randomx_vm_set_cache
PUBLIC	randomx_release_dataset
EXTRN	??_E?$InterpretedVm@U?$AlignedAllocator@$0EA@@randomx@@$00@randomx@@UEAAPEAXI@Z:PROC ; randomx::InterpretedVm<randomx::AlignedAllocator<64>,1>::`vector deleting destructor'
EXTRN	??_E?$CompiledLightVm@ULargePageAllocator@randomx@@$0A@$00@randomx@@UEAAPEAXI@Z:PROC ; randomx::CompiledLightVm<randomx::LargePageAllocator,0,1>::`vector deleting destructor'
EXTRN	??_E?$CompiledLightVm@ULargePageAllocator@randomx@@$00$0A@@randomx@@UEAAPEAXI@Z:PROC ; randomx::CompiledLightVm<randomx::LargePageAllocator,1,0>::`vector deleting destructor'
EXTRN	??_E?$VmBase@ULargePageAllocator@randomx@@$0A@@randomx@@UEAAPEAXI@Z:PROC ; randomx::VmBase<randomx::LargePageAllocator,0>::`vector deleting destructor'
EXTRN	??_E?$CompiledLightVm@U?$AlignedAllocator@$0EA@@randomx@@$0A@$00@randomx@@UEAAPEAXI@Z:PROC ; randomx::CompiledLightVm<randomx::AlignedAllocator<64>,0,1>::`vector deleting destructor'
EXTRN	??_E?$VmBase@U?$AlignedAllocator@$0EA@@randomx@@$0A@@randomx@@UEAAPEAXI@Z:PROC ; randomx::VmBase<randomx::AlignedAllocator<64>,0>::`vector deleting destructor'
EXTRN	??_E?$CompiledLightVm@ULargePageAllocator@randomx@@$00$00@randomx@@UEAAPEAXI@Z:PROC ; randomx::CompiledLightVm<randomx::LargePageAllocator,1,1>::`vector deleting destructor'
EXTRN	??_E?$InterpretedLightVm@U?$AlignedAllocator@$0EA@@randomx@@$0A@@randomx@@UEAAPEAXI@Z:PROC ; randomx::InterpretedLightVm<randomx::AlignedAllocator<64>,0>::`vector deleting destructor'
EXTRN	??_E?$CompiledLightVm@U?$AlignedAllocator@$0EA@@randomx@@$00$00@randomx@@UEAAPEAXI@Z:PROC ; randomx::CompiledLightVm<randomx::AlignedAllocator<64>,1,1>::`vector deleting destructor'
EXTRN	??_E?$VmBase@U?$AlignedAllocator@$0EA@@randomx@@$00@randomx@@UEAAPEAXI@Z:PROC ; randomx::VmBase<randomx::AlignedAllocator<64>,1>::`vector deleting destructor'
EXTRN	??_E?$InterpretedVm@U?$AlignedAllocator@$0EA@@randomx@@$0A@@randomx@@UEAAPEAXI@Z:PROC ; randomx::InterpretedVm<randomx::AlignedAllocator<64>,0>::`vector deleting destructor'
EXTRN	??_E?$InterpretedLightVm@ULargePageAllocator@randomx@@$0A@@randomx@@UEAAPEAXI@Z:PROC ; randomx::InterpretedLightVm<randomx::LargePageAllocator,0>::`vector deleting destructor'
EXTRN	??_E?$CompiledLightVm@U?$AlignedAllocator@$0EA@@randomx@@$00$0A@@randomx@@UEAAPEAXI@Z:PROC ; randomx::CompiledLightVm<randomx::AlignedAllocator<64>,1,0>::`vector deleting destructor'
EXTRN	??_E?$CompiledLightVm@ULargePageAllocator@randomx@@$0A@$0A@@randomx@@UEAAPEAXI@Z:PROC ; randomx::CompiledLightVm<randomx::LargePageAllocator,0,0>::`vector deleting destructor'
EXTRN	??_E?$VmBase@ULargePageAllocator@randomx@@$00@randomx@@UEAAPEAXI@Z:PROC ; randomx::VmBase<randomx::LargePageAllocator,1>::`vector deleting destructor'
EXTRN	??_E?$CompiledLightVm@U?$AlignedAllocator@$0EA@@randomx@@$0A@$0A@@randomx@@UEAAPEAXI@Z:PROC ; randomx::CompiledLightVm<randomx::AlignedAllocator<64>,0,0>::`vector deleting destructor'
EXTRN	??_E?$InterpretedLightVm@U?$AlignedAllocator@$0EA@@randomx@@$00@randomx@@UEAAPEAXI@Z:PROC ; randomx::InterpretedLightVm<randomx::AlignedAllocator<64>,1>::`vector deleting destructor'
EXTRN	??_E?$InterpretedLightVm@ULargePageAllocator@randomx@@$00@randomx@@UEAAPEAXI@Z:PROC ; randomx::InterpretedLightVm<randomx::LargePageAllocator,1>::`vector deleting destructor'
EXTRN	??_E?$InterpretedVm@ULargePageAllocator@randomx@@$0A@@randomx@@UEAAPEAXI@Z:PROC ; randomx::InterpretedVm<randomx::LargePageAllocator,0>::`vector deleting destructor'
EXTRN	??_E?$InterpretedVm@ULargePageAllocator@randomx@@$00@randomx@@UEAAPEAXI@Z:PROC ; randomx::InterpretedVm<randomx::LargePageAllocator,1>::`vector deleting destructor'
EXTRN	?__global_delete@@YAXPEAX_K@Z:PROC		; __global_delete
;	COMDAT pdata
pdata	SEGMENT
$pdata$??$_Traits_equal@U?$char_traits@D@std@@@std@@YA_NQEBD_K01@Z DD imagerel $LN9
	DD	imagerel $LN9+41
	DD	imagerel $unwind$??$_Traits_equal@U?$char_traits@D@std@@@std@@YA_NQEBD_K01@Z
pdata	ENDS
;	COMDAT pdata
pdata	SEGMENT
$pdata$?_Equal@?$basic_string@DU?$char_traits@D@std@@V?$allocator@D@2@@std@@QEBA_NAEBV12@@Z DD imagerel $LN21
	DD	imagerel $LN21+69
	DD	imagerel $unwind$?_Equal@?$basic_string@DU?$char_traits@D@std@@V?$allocator@D@2@@std@@QEBA_NAEBV12@@Z
pdata	ENDS
;	COMDAT pdata
pdata	SEGMENT
$pdata$??$?8DU?$char_traits@D@std@@V?$allocator@D@1@@std@@YA_NAEBV?$basic_string@DU?$char_traits@D@std@@V?$allocator@D@2@@0@0@Z DD imagerel $LN23
	DD	imagerel $LN23+69
	DD	imagerel $unwind$??$?8DU?$char_traits@D@std@@V?$allocator@D@1@@std@@YA_NAEBV?$basic_string@DU?$char_traits@D@std@@V?$allocator@D@2@@0@0@Z
pdata	ENDS
;	COMDAT pdata
pdata	SEGMENT
$pdata$??$_Reallocate_for@V<lambda_1>@?1??assign@?$basic_string@DU?$char_traits@D@std@@V?$allocator@D@2@@std@@QEAAAEAV34@QEBD_K@Z@PEBD@?$basic_string@DU?$char_traits@D@std@@V?$allocator@D@2@@std@@AEAAAEAV01@_KV<lambda_1>@?1??assign@01@QEAAAEAV01@QEBD0@Z@PEBD@Z DD imagerel $LN68
	DD	imagerel $LN68+39
	DD	imagerel $unwind$??$_Reallocate_for@V<lambda_1>@?1??assign@?$basic_string@DU?$char_traits@D@std@@V?$allocator@D@2@@std@@QEAAAEAV34@QEBD_K@Z@PEBD@?$basic_string@DU?$char_traits@D@std@@V?$allocator@D@2@@std@@AEAAAEAV01@_KV<lambda_1>@?1??assign@01@QEAAAEAV01@QEBD0@Z@PEBD@Z
pdata	ENDS
;	COMDAT pdata
pdata	SEGMENT
$pdata$1$??$_Reallocate_for@V<lambda_1>@?1??assign@?$basic_string@DU?$char_traits@D@std@@V?$allocator@D@2@@std@@QEAAAEAV34@QEBD_K@Z@PEBD@?$basic_string@DU?$char_traits@D@std@@V?$allocator@D@2@@std@@AEAAAEAV01@_KV<lambda_1>@?1??assign@01@QEAAAEAV01@QEBD0@Z@PEBD@Z DD imagerel $LN68+39
	DD	imagerel $LN68+287
	DD	imagerel $chain$1$??$_Reallocate_for@V<lambda_1>@?1??assign@?$basic_string@DU?$char_traits@D@std@@V?$allocator@D@2@@std@@QEAAAEAV34@QEBD_K@Z@PEBD@?$basic_string@DU?$char_traits@D@std@@V?$allocator@D@2@@std@@AEAAAEAV01@_KV<lambda_1>@?1??assign@01@QEAAAEAV01@QEBD0@Z@PEBD@Z
pdata	ENDS
;	COMDAT pdata
pdata	SEGMENT
$pdata$2$??$_Reallocate_for@V<lambda_1>@?1??assign@?$basic_string@DU?$char_traits@D@std@@V?$allocator@D@2@@std@@QEAAAEAV34@QEBD_K@Z@PEBD@?$basic_string@DU?$char_traits@D@std@@V?$allocator@D@2@@std@@AEAAAEAV01@_KV<lambda_1>@?1??assign@01@QEAAAEAV01@QEBD0@Z@PEBD@Z DD imagerel $LN68+287
	DD	imagerel $LN68+293
	DD	imagerel $chain$2$??$_Reallocate_for@V<lambda_1>@?1??assign@?$basic_string@DU?$char_traits@D@std@@V?$allocator@D@2@@std@@QEAAAEAV34@QEBD_K@Z@PEBD@?$basic_string@DU?$char_traits@D@std@@V?$allocator@D@2@@std@@AEAAAEAV01@_KV<lambda_1>@?1??assign@01@QEAAAEAV01@QEBD0@Z@PEBD@Z
pdata	ENDS
;	COMDAT pdata
pdata	SEGMENT
$pdata$3$??$_Reallocate_for@V<lambda_1>@?1??assign@?$basic_string@DU?$char_traits@D@std@@V?$allocator@D@2@@std@@QEAAAEAV34@QEBD_K@Z@PEBD@?$basic_string@DU?$char_traits@D@std@@V?$allocator@D@2@@std@@AEAAAEAV01@_KV<lambda_1>@?1??assign@01@QEAAAEAV01@QEBD0@Z@PEBD@Z DD imagerel $LN68+293
	DD	imagerel $LN68+305
	DD	imagerel $chain$3$??$_Reallocate_for@V<lambda_1>@?1??assign@?$basic_string@DU?$char_traits@D@std@@V?$allocator@D@2@@std@@QEAAAEAV34@QEBD_K@Z@PEBD@?$basic_string@DU?$char_traits@D@std@@V?$allocator@D@2@@std@@AEAAAEAV01@_KV<lambda_1>@?1??assign@01@QEAAAEAV01@QEBD0@Z@PEBD@Z
pdata	ENDS
;	COMDAT pdata
pdata	SEGMENT
$pdata$??$?9DU?$char_traits@D@std@@V?$allocator@D@1@@std@@YA_NAEBV?$basic_string@DU?$char_traits@D@std@@V?$allocator@D@2@@0@0@Z DD imagerel $LN25
	DD	imagerel $LN25+67
	DD	imagerel $unwind$??$?9DU?$char_traits@D@std@@V?$allocator@D@1@@std@@YA_NAEBV?$basic_string@DU?$char_traits@D@std@@V?$allocator@D@2@@0@0@Z
pdata	ENDS
;	COMDAT pdata
pdata	SEGMENT
$pdata$??4?$basic_string@DU?$char_traits@D@std@@V?$allocator@D@2@@std@@QEAAAEAV01@AEBV01@@Z DD imagerel $LN24
	DD	imagerel $LN24+22
	DD	imagerel $unwind$??4?$basic_string@DU?$char_traits@D@std@@V?$allocator@D@2@@std@@QEAAAEAV01@AEBV01@@Z
pdata	ENDS
;	COMDAT pdata
pdata	SEGMENT
$pdata$1$??4?$basic_string@DU?$char_traits@D@std@@V?$allocator@D@2@@std@@QEAAAEAV01@AEBV01@@Z DD imagerel $LN24+22
	DD	imagerel $LN24+103
	DD	imagerel $chain$1$??4?$basic_string@DU?$char_traits@D@std@@V?$allocator@D@2@@std@@QEAAAEAV01@AEBV01@@Z
pdata	ENDS
;	COMDAT pdata
pdata	SEGMENT
$pdata$3$??4?$basic_string@DU?$char_traits@D@std@@V?$allocator@D@2@@std@@QEAAAEAV01@AEBV01@@Z DD imagerel $LN24+103
	DD	imagerel $LN24+125
	DD	imagerel $chain$3$??4?$basic_string@DU?$char_traits@D@std@@V?$allocator@D@2@@std@@QEAAAEAV01@AEBV01@@Z
pdata	ENDS
;	COMDAT pdata
pdata	SEGMENT
$pdata$4$??4?$basic_string@DU?$char_traits@D@std@@V?$allocator@D@2@@std@@QEAAAEAV01@AEBV01@@Z DD imagerel $LN24+125
	DD	imagerel $LN24+134
	DD	imagerel $chain$4$??4?$basic_string@DU?$char_traits@D@std@@V?$allocator@D@2@@std@@QEAAAEAV01@AEBV01@@Z
pdata	ENDS
;	COMDAT pdata
pdata	SEGMENT
$pdata$??R<lambda_1>@?1??assign@?$basic_string@DU?$char_traits@D@std@@V?$allocator@D@2@@std@@QEAAAEAV23@QEBD_K@Z@QEBA@QEAD10@Z DD imagerel $LN7
	DD	imagerel $LN7+42
	DD	imagerel $unwind$??R<lambda_1>@?1??assign@?$basic_string@DU?$char_traits@D@std@@V?$allocator@D@2@@std@@QEAAAEAV23@QEBD_K@Z@QEBA@QEAD10@Z
pdata	ENDS
;	COMDAT pdata
pdata	SEGMENT
$pdata$?assign@?$basic_string@DU?$char_traits@D@std@@V?$allocator@D@2@@std@@QEAAAEAV12@QEBD_K@Z DD imagerel $LN13
	DD	imagerel $LN13+25
	DD	imagerel $unwind$?assign@?$basic_string@DU?$char_traits@D@std@@V?$allocator@D@2@@std@@QEAAAEAV12@QEBD_K@Z
pdata	ENDS
;	COMDAT pdata
pdata	SEGMENT
$pdata$0$?assign@?$basic_string@DU?$char_traits@D@std@@V?$allocator@D@2@@std@@QEAAAEAV12@QEBD_K@Z DD imagerel $LN13+25
	DD	imagerel $LN13+77
	DD	imagerel $chain$0$?assign@?$basic_string@DU?$char_traits@D@std@@V?$allocator@D@2@@std@@QEAAAEAV12@QEBD_K@Z
pdata	ENDS
;	COMDAT pdata
pdata	SEGMENT
$pdata$1$?assign@?$basic_string@DU?$char_traits@D@std@@V?$allocator@D@2@@std@@QEAAAEAV12@QEBD_K@Z DD imagerel $LN13+77
	DD	imagerel $LN13+98
	DD	imagerel $chain$1$?assign@?$basic_string@DU?$char_traits@D@std@@V?$allocator@D@2@@std@@QEAAAEAV12@QEBD_K@Z
pdata	ENDS
;	COMDAT pdata
pdata	SEGMENT
$pdata$??2?$InterpretedVm@U?$AlignedAllocator@$0EA@@randomx@@$00@randomx@@SAPEAX_K@Z DD imagerel $LN11
	DD	imagerel $LN11+57
	DD	imagerel $unwind$??2?$InterpretedVm@U?$AlignedAllocator@$0EA@@randomx@@$00@randomx@@SAPEAX_K@Z
pdata	ENDS
;	COMDAT pdata
pdata	SEGMENT
$pdata$??2?$InterpretedLightVm@U?$AlignedAllocator@$0EA@@randomx@@$00@randomx@@SAPEAX_K@Z DD imagerel $LN11
	DD	imagerel $LN11+57
	DD	imagerel $unwind$??2?$InterpretedLightVm@U?$AlignedAllocator@$0EA@@randomx@@$00@randomx@@SAPEAX_K@Z
pdata	ENDS
;	COMDAT pdata
pdata	SEGMENT
$pdata$??2?$CompiledVm@U?$AlignedAllocator@$0EA@@randomx@@$00$00@randomx@@SAPEAX_K@Z DD imagerel $LN11
	DD	imagerel $LN11+57
	DD	imagerel $unwind$??2?$CompiledVm@U?$AlignedAllocator@$0EA@@randomx@@$00$00@randomx@@SAPEAX_K@Z
pdata	ENDS
;	COMDAT pdata
pdata	SEGMENT
$pdata$??2?$CompiledLightVm@U?$AlignedAllocator@$0EA@@randomx@@$00$00@randomx@@SAPEAX_K@Z DD imagerel $LN11
	DD	imagerel $LN11+57
	DD	imagerel $unwind$??2?$CompiledLightVm@U?$AlignedAllocator@$0EA@@randomx@@$00$00@randomx@@SAPEAX_K@Z
pdata	ENDS
;	COMDAT pdata
pdata	SEGMENT
$pdata$??2?$CompiledVm@U?$AlignedAllocator@$0EA@@randomx@@$00$0A@@randomx@@SAPEAX_K@Z DD imagerel $LN11
	DD	imagerel $LN11+57
	DD	imagerel $unwind$??2?$CompiledVm@U?$AlignedAllocator@$0EA@@randomx@@$00$0A@@randomx@@SAPEAX_K@Z
pdata	ENDS
;	COMDAT pdata
pdata	SEGMENT
$pdata$??2?$CompiledLightVm@U?$AlignedAllocator@$0EA@@randomx@@$00$0A@@randomx@@SAPEAX_K@Z DD imagerel $LN11
	DD	imagerel $LN11+57
	DD	imagerel $unwind$??2?$CompiledLightVm@U?$AlignedAllocator@$0EA@@randomx@@$00$0A@@randomx@@SAPEAX_K@Z
pdata	ENDS
;	COMDAT pdata
pdata	SEGMENT
$pdata$??2?$InterpretedVm@U?$AlignedAllocator@$0EA@@randomx@@$0A@@randomx@@SAPEAX_K@Z DD imagerel $LN11
	DD	imagerel $LN11+57
	DD	imagerel $unwind$??2?$InterpretedVm@U?$AlignedAllocator@$0EA@@randomx@@$0A@@randomx@@SAPEAX_K@Z
pdata	ENDS
;	COMDAT pdata
pdata	SEGMENT
$pdata$??2?$InterpretedLightVm@U?$AlignedAllocator@$0EA@@randomx@@$0A@@randomx@@SAPEAX_K@Z DD imagerel $LN11
	DD	imagerel $LN11+57
	DD	imagerel $unwind$??2?$InterpretedLightVm@U?$AlignedAllocator@$0EA@@randomx@@$0A@@randomx@@SAPEAX_K@Z
pdata	ENDS
;	COMDAT pdata
pdata	SEGMENT
$pdata$??2?$CompiledVm@U?$AlignedAllocator@$0EA@@randomx@@$0A@$00@randomx@@SAPEAX_K@Z DD imagerel $LN11
	DD	imagerel $LN11+57
	DD	imagerel $unwind$??2?$CompiledVm@U?$AlignedAllocator@$0EA@@randomx@@$0A@$00@randomx@@SAPEAX_K@Z
pdata	ENDS
;	COMDAT pdata
pdata	SEGMENT
$pdata$??2?$CompiledLightVm@U?$AlignedAllocator@$0EA@@randomx@@$0A@$00@randomx@@SAPEAX_K@Z DD imagerel $LN11
	DD	imagerel $LN11+57
	DD	imagerel $unwind$??2?$CompiledLightVm@U?$AlignedAllocator@$0EA@@randomx@@$0A@$00@randomx@@SAPEAX_K@Z
pdata	ENDS
;	COMDAT pdata
pdata	SEGMENT
$pdata$??2?$CompiledVm@U?$AlignedAllocator@$0EA@@randomx@@$0A@$0A@@randomx@@SAPEAX_K@Z DD imagerel $LN11
	DD	imagerel $LN11+57
	DD	imagerel $unwind$??2?$CompiledVm@U?$AlignedAllocator@$0EA@@randomx@@$0A@$0A@@randomx@@SAPEAX_K@Z
pdata	ENDS
;	COMDAT pdata
pdata	SEGMENT
$pdata$??2?$CompiledLightVm@U?$AlignedAllocator@$0EA@@randomx@@$0A@$0A@@randomx@@SAPEAX_K@Z DD imagerel $LN11
	DD	imagerel $LN11+57
	DD	imagerel $unwind$??2?$CompiledLightVm@U?$AlignedAllocator@$0EA@@randomx@@$0A@$0A@@randomx@@SAPEAX_K@Z
pdata	ENDS
;	COMDAT pdata
pdata	SEGMENT
$pdata$??2?$InterpretedVm@ULargePageAllocator@randomx@@$00@randomx@@SAPEAX_K@Z DD imagerel $LN11
	DD	imagerel $LN11+57
	DD	imagerel $unwind$??2?$InterpretedVm@ULargePageAllocator@randomx@@$00@randomx@@SAPEAX_K@Z
pdata	ENDS
;	COMDAT pdata
pdata	SEGMENT
$pdata$??2?$InterpretedLightVm@ULargePageAllocator@randomx@@$00@randomx@@SAPEAX_K@Z DD imagerel $LN11
	DD	imagerel $LN11+57
	DD	imagerel $unwind$??2?$InterpretedLightVm@ULargePageAllocator@randomx@@$00@randomx@@SAPEAX_K@Z
pdata	ENDS
;	COMDAT pdata
pdata	SEGMENT
$pdata$??2?$CompiledVm@ULargePageAllocator@randomx@@$00$00@randomx@@SAPEAX_K@Z DD imagerel $LN11
	DD	imagerel $LN11+57
	DD	imagerel $unwind$??2?$CompiledVm@ULargePageAllocator@randomx@@$00$00@randomx@@SAPEAX_K@Z
pdata	ENDS
;	COMDAT pdata
pdata	SEGMENT
$pdata$??2?$CompiledLightVm@ULargePageAllocator@randomx@@$00$00@randomx@@SAPEAX_K@Z DD imagerel $LN11
	DD	imagerel $LN11+57
	DD	imagerel $unwind$??2?$CompiledLightVm@ULargePageAllocator@randomx@@$00$00@randomx@@SAPEAX_K@Z
pdata	ENDS
;	COMDAT pdata
pdata	SEGMENT
$pdata$??2?$CompiledVm@ULargePageAllocator@randomx@@$00$0A@@randomx@@SAPEAX_K@Z DD imagerel $LN11
	DD	imagerel $LN11+57
	DD	imagerel $unwind$??2?$CompiledVm@ULargePageAllocator@randomx@@$00$0A@@randomx@@SAPEAX_K@Z
pdata	ENDS
;	COMDAT pdata
pdata	SEGMENT
$pdata$??2?$CompiledLightVm@ULargePageAllocator@randomx@@$00$0A@@randomx@@SAPEAX_K@Z DD imagerel $LN11
	DD	imagerel $LN11+57
	DD	imagerel $unwind$??2?$CompiledLightVm@ULargePageAllocator@randomx@@$00$0A@@randomx@@SAPEAX_K@Z
pdata	ENDS
;	COMDAT pdata
pdata	SEGMENT
$pdata$??2?$InterpretedVm@ULargePageAllocator@randomx@@$0A@@randomx@@SAPEAX_K@Z DD imagerel $LN11
	DD	imagerel $LN11+57
	DD	imagerel $unwind$??2?$InterpretedVm@ULargePageAllocator@randomx@@$0A@@randomx@@SAPEAX_K@Z
pdata	ENDS
;	COMDAT pdata
pdata	SEGMENT
$pdata$??2?$InterpretedLightVm@ULargePageAllocator@randomx@@$0A@@randomx@@SAPEAX_K@Z DD imagerel $LN11
	DD	imagerel $LN11+57
	DD	imagerel $unwind$??2?$InterpretedLightVm@ULargePageAllocator@randomx@@$0A@@randomx@@SAPEAX_K@Z
pdata	ENDS
;	COMDAT pdata
pdata	SEGMENT
$pdata$??2?$CompiledVm@ULargePageAllocator@randomx@@$0A@$00@randomx@@SAPEAX_K@Z DD imagerel $LN11
	DD	imagerel $LN11+57
	DD	imagerel $unwind$??2?$CompiledVm@ULargePageAllocator@randomx@@$0A@$00@randomx@@SAPEAX_K@Z
pdata	ENDS
;	COMDAT pdata
pdata	SEGMENT
$pdata$??2?$CompiledLightVm@ULargePageAllocator@randomx@@$0A@$00@randomx@@SAPEAX_K@Z DD imagerel $LN11
	DD	imagerel $LN11+57
	DD	imagerel $unwind$??2?$CompiledLightVm@ULargePageAllocator@randomx@@$0A@$00@randomx@@SAPEAX_K@Z
pdata	ENDS
;	COMDAT pdata
pdata	SEGMENT
$pdata$??2?$CompiledVm@ULargePageAllocator@randomx@@$0A@$0A@@randomx@@SAPEAX_K@Z DD imagerel $LN11
	DD	imagerel $LN11+57
	DD	imagerel $unwind$??2?$CompiledVm@ULargePageAllocator@randomx@@$0A@$0A@@randomx@@SAPEAX_K@Z
pdata	ENDS
;	COMDAT pdata
pdata	SEGMENT
$pdata$??2?$CompiledLightVm@ULargePageAllocator@randomx@@$0A@$0A@@randomx@@SAPEAX_K@Z DD imagerel $LN11
	DD	imagerel $LN11+57
	DD	imagerel $unwind$??2?$CompiledLightVm@ULargePageAllocator@randomx@@$0A@$0A@@randomx@@SAPEAX_K@Z
pdata	ENDS
;	COMDAT pdata
pdata	SEGMENT
$pdata$??1?$CompiledVm@ULargePageAllocator@randomx@@$0A@$0A@@randomx@@UEAA@XZ DD imagerel $LN12
	DD	imagerel $LN12+65
	DD	imagerel $unwind$??1?$CompiledVm@ULargePageAllocator@randomx@@$0A@$0A@@randomx@@UEAA@XZ
pdata	ENDS
;	COMDAT pdata
pdata	SEGMENT
$pdata$??1?$CompiledLightVm@ULargePageAllocator@randomx@@$0A@$0A@@randomx@@UEAA@XZ DD imagerel $LN15
	DD	imagerel $LN15+65
	DD	imagerel $unwind$??1?$CompiledLightVm@ULargePageAllocator@randomx@@$0A@$0A@@randomx@@UEAA@XZ
pdata	ENDS
;	COMDAT pdata
pdata	SEGMENT
$pdata$??_G?$CompiledLightVm@ULargePageAllocator@randomx@@$0A@$0A@@randomx@@UEAAPEAXI@Z DD imagerel $LN27
	DD	imagerel $LN27+124
	DD	imagerel $unwind$??_G?$CompiledLightVm@ULargePageAllocator@randomx@@$0A@$0A@@randomx@@UEAAPEAXI@Z
pdata	ENDS
;	COMDAT pdata
pdata	SEGMENT
$pdata$??1?$CompiledVm@ULargePageAllocator@randomx@@$0A@$00@randomx@@UEAA@XZ DD imagerel $LN12
	DD	imagerel $LN12+65
	DD	imagerel $unwind$??1?$CompiledVm@ULargePageAllocator@randomx@@$0A@$00@randomx@@UEAA@XZ
pdata	ENDS
;	COMDAT pdata
pdata	SEGMENT
$pdata$??1?$CompiledLightVm@ULargePageAllocator@randomx@@$0A@$00@randomx@@UEAA@XZ DD imagerel $LN15
	DD	imagerel $LN15+65
	DD	imagerel $unwind$??1?$CompiledLightVm@ULargePageAllocator@randomx@@$0A@$00@randomx@@UEAA@XZ
pdata	ENDS
;	COMDAT pdata
pdata	SEGMENT
$pdata$??_G?$CompiledLightVm@ULargePageAllocator@randomx@@$0A@$00@randomx@@UEAAPEAXI@Z DD imagerel $LN27
	DD	imagerel $LN27+124
	DD	imagerel $unwind$??_G?$CompiledLightVm@ULargePageAllocator@randomx@@$0A@$00@randomx@@UEAAPEAXI@Z
pdata	ENDS
;	COMDAT pdata
pdata	SEGMENT
$pdata$??_G?$VmBase@ULargePageAllocator@randomx@@$0A@@randomx@@UEAAPEAXI@Z DD imagerel $LN14
	DD	imagerel $LN14+86
	DD	imagerel $unwind$??_G?$VmBase@ULargePageAllocator@randomx@@$0A@@randomx@@UEAAPEAXI@Z
pdata	ENDS
;	COMDAT pdata
pdata	SEGMENT
$pdata$??_G?$InterpretedVm@ULargePageAllocator@randomx@@$0A@@randomx@@UEAAPEAXI@Z DD imagerel $LN24
	DD	imagerel $LN24+112
	DD	imagerel $unwind$??_G?$InterpretedVm@ULargePageAllocator@randomx@@$0A@@randomx@@UEAAPEAXI@Z
pdata	ENDS
;	COMDAT pdata
pdata	SEGMENT
$pdata$??1?$InterpretedVm@ULargePageAllocator@randomx@@$0A@@randomx@@UEAA@XZ DD imagerel $LN12
	DD	imagerel $LN12+53
	DD	imagerel $unwind$??1?$InterpretedVm@ULargePageAllocator@randomx@@$0A@@randomx@@UEAA@XZ
pdata	ENDS
;	COMDAT pdata
pdata	SEGMENT
$pdata$??1?$InterpretedLightVm@ULargePageAllocator@randomx@@$0A@@randomx@@UEAA@XZ DD imagerel $LN15
	DD	imagerel $LN15+53
	DD	imagerel $unwind$??1?$InterpretedLightVm@ULargePageAllocator@randomx@@$0A@@randomx@@UEAA@XZ
pdata	ENDS
;	COMDAT pdata
pdata	SEGMENT
$pdata$??_G?$InterpretedLightVm@ULargePageAllocator@randomx@@$0A@@randomx@@UEAAPEAXI@Z DD imagerel $LN27
	DD	imagerel $LN27+112
	DD	imagerel $unwind$??_G?$InterpretedLightVm@ULargePageAllocator@randomx@@$0A@@randomx@@UEAAPEAXI@Z
pdata	ENDS
;	COMDAT pdata
pdata	SEGMENT
$pdata$??1?$CompiledVm@ULargePageAllocator@randomx@@$00$0A@@randomx@@UEAA@XZ DD imagerel $LN12
	DD	imagerel $LN12+65
	DD	imagerel $unwind$??1?$CompiledVm@ULargePageAllocator@randomx@@$00$0A@@randomx@@UEAA@XZ
pdata	ENDS
;	COMDAT pdata
pdata	SEGMENT
$pdata$??1?$CompiledLightVm@ULargePageAllocator@randomx@@$00$0A@@randomx@@UEAA@XZ DD imagerel $LN15
	DD	imagerel $LN15+65
	DD	imagerel $unwind$??1?$CompiledLightVm@ULargePageAllocator@randomx@@$00$0A@@randomx@@UEAA@XZ
pdata	ENDS
;	COMDAT pdata
pdata	SEGMENT
$pdata$??_G?$CompiledLightVm@ULargePageAllocator@randomx@@$00$0A@@randomx@@UEAAPEAXI@Z DD imagerel $LN27
	DD	imagerel $LN27+124
	DD	imagerel $unwind$??_G?$CompiledLightVm@ULargePageAllocator@randomx@@$00$0A@@randomx@@UEAAPEAXI@Z
pdata	ENDS
;	COMDAT pdata
pdata	SEGMENT
$pdata$??1?$CompiledVm@ULargePageAllocator@randomx@@$00$00@randomx@@UEAA@XZ DD imagerel $LN12
	DD	imagerel $LN12+65
	DD	imagerel $unwind$??1?$CompiledVm@ULargePageAllocator@randomx@@$00$00@randomx@@UEAA@XZ
pdata	ENDS
;	COMDAT pdata
pdata	SEGMENT
$pdata$??1?$CompiledLightVm@ULargePageAllocator@randomx@@$00$00@randomx@@UEAA@XZ DD imagerel $LN15
	DD	imagerel $LN15+65
	DD	imagerel $unwind$??1?$CompiledLightVm@ULargePageAllocator@randomx@@$00$00@randomx@@UEAA@XZ
pdata	ENDS
;	COMDAT pdata
pdata	SEGMENT
$pdata$??_G?$CompiledLightVm@ULargePageAllocator@randomx@@$00$00@randomx@@UEAAPEAXI@Z DD imagerel $LN27
	DD	imagerel $LN27+124
	DD	imagerel $unwind$??_G?$CompiledLightVm@ULargePageAllocator@randomx@@$00$00@randomx@@UEAAPEAXI@Z
pdata	ENDS
;	COMDAT pdata
pdata	SEGMENT
$pdata$??_G?$VmBase@ULargePageAllocator@randomx@@$00@randomx@@UEAAPEAXI@Z DD imagerel $LN14
	DD	imagerel $LN14+86
	DD	imagerel $unwind$??_G?$VmBase@ULargePageAllocator@randomx@@$00@randomx@@UEAAPEAXI@Z
pdata	ENDS
;	COMDAT pdata
pdata	SEGMENT
$pdata$??_G?$InterpretedVm@ULargePageAllocator@randomx@@$00@randomx@@UEAAPEAXI@Z DD imagerel $LN24
	DD	imagerel $LN24+112
	DD	imagerel $unwind$??_G?$InterpretedVm@ULargePageAllocator@randomx@@$00@randomx@@UEAAPEAXI@Z
pdata	ENDS
;	COMDAT pdata
pdata	SEGMENT
$pdata$??1?$InterpretedVm@ULargePageAllocator@randomx@@$00@randomx@@UEAA@XZ DD imagerel $LN12
	DD	imagerel $LN12+53
	DD	imagerel $unwind$??1?$InterpretedVm@ULargePageAllocator@randomx@@$00@randomx@@UEAA@XZ
pdata	ENDS
;	COMDAT pdata
pdata	SEGMENT
$pdata$??1?$InterpretedLightVm@ULargePageAllocator@randomx@@$00@randomx@@UEAA@XZ DD imagerel $LN15
	DD	imagerel $LN15+53
	DD	imagerel $unwind$??1?$InterpretedLightVm@ULargePageAllocator@randomx@@$00@randomx@@UEAA@XZ
pdata	ENDS
;	COMDAT pdata
pdata	SEGMENT
$pdata$??_G?$InterpretedLightVm@ULargePageAllocator@randomx@@$00@randomx@@UEAAPEAXI@Z DD imagerel $LN27
	DD	imagerel $LN27+112
	DD	imagerel $unwind$??_G?$InterpretedLightVm@ULargePageAllocator@randomx@@$00@randomx@@UEAAPEAXI@Z
pdata	ENDS
;	COMDAT pdata
pdata	SEGMENT
$pdata$??1?$CompiledVm@U?$AlignedAllocator@$0EA@@randomx@@$0A@$0A@@randomx@@UEAA@XZ DD imagerel $LN10
	DD	imagerel $LN10+56
	DD	imagerel $unwind$??1?$CompiledVm@U?$AlignedAllocator@$0EA@@randomx@@$0A@$0A@@randomx@@UEAA@XZ
pdata	ENDS
;	COMDAT pdata
pdata	SEGMENT
$pdata$??1?$CompiledLightVm@U?$AlignedAllocator@$0EA@@randomx@@$0A@$0A@@randomx@@UEAA@XZ DD imagerel $LN13
	DD	imagerel $LN13+56
	DD	imagerel $unwind$??1?$CompiledLightVm@U?$AlignedAllocator@$0EA@@randomx@@$0A@$0A@@randomx@@UEAA@XZ
pdata	ENDS
;	COMDAT pdata
pdata	SEGMENT
$pdata$??_G?$CompiledLightVm@U?$AlignedAllocator@$0EA@@randomx@@$0A@$0A@@randomx@@UEAAPEAXI@Z DD imagerel $LN25
	DD	imagerel $LN25+115
	DD	imagerel $unwind$??_G?$CompiledLightVm@U?$AlignedAllocator@$0EA@@randomx@@$0A@$0A@@randomx@@UEAAPEAXI@Z
pdata	ENDS
;	COMDAT pdata
pdata	SEGMENT
$pdata$??1?$CompiledVm@U?$AlignedAllocator@$0EA@@randomx@@$0A@$00@randomx@@UEAA@XZ DD imagerel $LN10
	DD	imagerel $LN10+56
	DD	imagerel $unwind$??1?$CompiledVm@U?$AlignedAllocator@$0EA@@randomx@@$0A@$00@randomx@@UEAA@XZ
pdata	ENDS
;	COMDAT pdata
pdata	SEGMENT
$pdata$??1?$CompiledLightVm@U?$AlignedAllocator@$0EA@@randomx@@$0A@$00@randomx@@UEAA@XZ DD imagerel $LN13
	DD	imagerel $LN13+56
	DD	imagerel $unwind$??1?$CompiledLightVm@U?$AlignedAllocator@$0EA@@randomx@@$0A@$00@randomx@@UEAA@XZ
pdata	ENDS
;	COMDAT pdata
pdata	SEGMENT
$pdata$??_G?$CompiledLightVm@U?$AlignedAllocator@$0EA@@randomx@@$0A@$00@randomx@@UEAAPEAXI@Z DD imagerel $LN25
	DD	imagerel $LN25+115
	DD	imagerel $unwind$??_G?$CompiledLightVm@U?$AlignedAllocator@$0EA@@randomx@@$0A@$00@randomx@@UEAAPEAXI@Z
pdata	ENDS
;	COMDAT pdata
pdata	SEGMENT
$pdata$??_G?$VmBase@U?$AlignedAllocator@$0EA@@randomx@@$0A@@randomx@@UEAAPEAXI@Z DD imagerel $LN12
	DD	imagerel $LN12+77
	DD	imagerel $unwind$??_G?$VmBase@U?$AlignedAllocator@$0EA@@randomx@@$0A@@randomx@@UEAAPEAXI@Z
pdata	ENDS
;	COMDAT pdata
pdata	SEGMENT
$pdata$??_G?$InterpretedVm@U?$AlignedAllocator@$0EA@@randomx@@$0A@@randomx@@UEAAPEAXI@Z DD imagerel $LN22
	DD	imagerel $LN22+103
	DD	imagerel $unwind$??_G?$InterpretedVm@U?$AlignedAllocator@$0EA@@randomx@@$0A@@randomx@@UEAAPEAXI@Z
pdata	ENDS
;	COMDAT pdata
pdata	SEGMENT
$pdata$??1?$InterpretedVm@U?$AlignedAllocator@$0EA@@randomx@@$0A@@randomx@@UEAA@XZ DD imagerel $LN10
	DD	imagerel $LN10+44
	DD	imagerel $unwind$??1?$InterpretedVm@U?$AlignedAllocator@$0EA@@randomx@@$0A@@randomx@@UEAA@XZ
pdata	ENDS
;	COMDAT pdata
pdata	SEGMENT
$pdata$??1?$InterpretedLightVm@U?$AlignedAllocator@$0EA@@randomx@@$0A@@randomx@@UEAA@XZ DD imagerel $LN13
	DD	imagerel $LN13+44
	DD	imagerel $unwind$??1?$InterpretedLightVm@U?$AlignedAllocator@$0EA@@randomx@@$0A@@randomx@@UEAA@XZ
pdata	ENDS
;	COMDAT pdata
pdata	SEGMENT
$pdata$??_G?$InterpretedLightVm@U?$AlignedAllocator@$0EA@@randomx@@$0A@@randomx@@UEAAPEAXI@Z DD imagerel $LN25
	DD	imagerel $LN25+103
	DD	imagerel $unwind$??_G?$InterpretedLightVm@U?$AlignedAllocator@$0EA@@randomx@@$0A@@randomx@@UEAAPEAXI@Z
pdata	ENDS
;	COMDAT pdata
pdata	SEGMENT
$pdata$??1?$CompiledVm@U?$AlignedAllocator@$0EA@@randomx@@$00$0A@@randomx@@UEAA@XZ DD imagerel $LN10
	DD	imagerel $LN10+56
	DD	imagerel $unwind$??1?$CompiledVm@U?$AlignedAllocator@$0EA@@randomx@@$00$0A@@randomx@@UEAA@XZ
pdata	ENDS
;	COMDAT pdata
pdata	SEGMENT
$pdata$??1?$CompiledLightVm@U?$AlignedAllocator@$0EA@@randomx@@$00$0A@@randomx@@UEAA@XZ DD imagerel $LN13
	DD	imagerel $LN13+56
	DD	imagerel $unwind$??1?$CompiledLightVm@U?$AlignedAllocator@$0EA@@randomx@@$00$0A@@randomx@@UEAA@XZ
pdata	ENDS
;	COMDAT pdata
pdata	SEGMENT
$pdata$??_G?$CompiledLightVm@U?$AlignedAllocator@$0EA@@randomx@@$00$0A@@randomx@@UEAAPEAXI@Z DD imagerel $LN25
	DD	imagerel $LN25+115
	DD	imagerel $unwind$??_G?$CompiledLightVm@U?$AlignedAllocator@$0EA@@randomx@@$00$0A@@randomx@@UEAAPEAXI@Z
pdata	ENDS
;	COMDAT pdata
pdata	SEGMENT
$pdata$??1?$CompiledVm@U?$AlignedAllocator@$0EA@@randomx@@$00$00@randomx@@UEAA@XZ DD imagerel $LN10
	DD	imagerel $LN10+56
	DD	imagerel $unwind$??1?$CompiledVm@U?$AlignedAllocator@$0EA@@randomx@@$00$00@randomx@@UEAA@XZ
pdata	ENDS
;	COMDAT pdata
pdata	SEGMENT
$pdata$??1?$CompiledLightVm@U?$AlignedAllocator@$0EA@@randomx@@$00$00@randomx@@UEAA@XZ DD imagerel $LN13
	DD	imagerel $LN13+56
	DD	imagerel $unwind$??1?$CompiledLightVm@U?$AlignedAllocator@$0EA@@randomx@@$00$00@randomx@@UEAA@XZ
pdata	ENDS
;	COMDAT pdata
pdata	SEGMENT
$pdata$??_G?$CompiledLightVm@U?$AlignedAllocator@$0EA@@randomx@@$00$00@randomx@@UEAAPEAXI@Z DD imagerel $LN25
	DD	imagerel $LN25+115
	DD	imagerel $unwind$??_G?$CompiledLightVm@U?$AlignedAllocator@$0EA@@randomx@@$00$00@randomx@@UEAAPEAXI@Z
pdata	ENDS
;	COMDAT pdata
pdata	SEGMENT
$pdata$??0?$CompiledLightVm@ULargePageAllocator@randomx@@$0A@$0A@@randomx@@QEAA@XZ DD imagerel $LN6
	DD	imagerel $LN6+33
	DD	imagerel $unwind$??0?$CompiledLightVm@ULargePageAllocator@randomx@@$0A@$0A@@randomx@@QEAA@XZ
pdata	ENDS
;	COMDAT pdata
pdata	SEGMENT
$pdata$??0?$CompiledLightVm@ULargePageAllocator@randomx@@$0A@$00@randomx@@QEAA@XZ DD imagerel $LN32
	DD	imagerel $LN32+112
	DD	imagerel $unwind$??0?$CompiledLightVm@ULargePageAllocator@randomx@@$0A@$00@randomx@@QEAA@XZ
pdata	ENDS
;	COMDAT pdata
pdata	SEGMENT
$pdata$??0?$CompiledLightVm@ULargePageAllocator@randomx@@$00$0A@@randomx@@QEAA@XZ DD imagerel $LN6
	DD	imagerel $LN6+33
	DD	imagerel $unwind$??0?$CompiledLightVm@ULargePageAllocator@randomx@@$00$0A@@randomx@@QEAA@XZ
pdata	ENDS
;	COMDAT pdata
pdata	SEGMENT
$pdata$??0?$CompiledLightVm@ULargePageAllocator@randomx@@$00$00@randomx@@QEAA@XZ DD imagerel $LN32
	DD	imagerel $LN32+112
	DD	imagerel $unwind$??0?$CompiledLightVm@ULargePageAllocator@randomx@@$00$00@randomx@@QEAA@XZ
pdata	ENDS
;	COMDAT pdata
pdata	SEGMENT
$pdata$??0?$CompiledLightVm@U?$AlignedAllocator@$0EA@@randomx@@$0A@$0A@@randomx@@QEAA@XZ DD imagerel $LN6
	DD	imagerel $LN6+33
	DD	imagerel $unwind$??0?$CompiledLightVm@U?$AlignedAllocator@$0EA@@randomx@@$0A@$0A@@randomx@@QEAA@XZ
pdata	ENDS
;	COMDAT pdata
pdata	SEGMENT
$pdata$??0?$CompiledLightVm@U?$AlignedAllocator@$0EA@@randomx@@$0A@$00@randomx@@QEAA@XZ DD imagerel $LN32
	DD	imagerel $LN32+112
	DD	imagerel $unwind$??0?$CompiledLightVm@U?$AlignedAllocator@$0EA@@randomx@@$0A@$00@randomx@@QEAA@XZ
pdata	ENDS
;	COMDAT pdata
pdata	SEGMENT
$pdata$??0?$CompiledLightVm@U?$AlignedAllocator@$0EA@@randomx@@$00$0A@@randomx@@QEAA@XZ DD imagerel $LN6
	DD	imagerel $LN6+33
	DD	imagerel $unwind$??0?$CompiledLightVm@U?$AlignedAllocator@$0EA@@randomx@@$00$0A@@randomx@@QEAA@XZ
pdata	ENDS
;	COMDAT pdata
pdata	SEGMENT
$pdata$??0?$CompiledLightVm@U?$AlignedAllocator@$0EA@@randomx@@$00$00@randomx@@QEAA@XZ DD imagerel $LN32
	DD	imagerel $LN32+112
	DD	imagerel $unwind$??0?$CompiledLightVm@U?$AlignedAllocator@$0EA@@randomx@@$00$00@randomx@@QEAA@XZ
pdata	ENDS
;	COMDAT pdata
pdata	SEGMENT
$pdata$??_G?$VmBase@U?$AlignedAllocator@$0EA@@randomx@@$00@randomx@@UEAAPEAXI@Z DD imagerel $LN12
	DD	imagerel $LN12+77
	DD	imagerel $unwind$??_G?$VmBase@U?$AlignedAllocator@$0EA@@randomx@@$00@randomx@@UEAAPEAXI@Z
pdata	ENDS
;	COMDAT pdata
pdata	SEGMENT
$pdata$??1?$InterpretedVm@U?$AlignedAllocator@$0EA@@randomx@@$00@randomx@@UEAA@XZ DD imagerel $LN10
	DD	imagerel $LN10+44
	DD	imagerel $unwind$??1?$InterpretedVm@U?$AlignedAllocator@$0EA@@randomx@@$00@randomx@@UEAA@XZ
pdata	ENDS
;	COMDAT pdata
pdata	SEGMENT
$pdata$??_G?$InterpretedVm@U?$AlignedAllocator@$0EA@@randomx@@$00@randomx@@UEAAPEAXI@Z DD imagerel $LN22
	DD	imagerel $LN22+103
	DD	imagerel $unwind$??_G?$InterpretedVm@U?$AlignedAllocator@$0EA@@randomx@@$00@randomx@@UEAAPEAXI@Z
pdata	ENDS
;	COMDAT pdata
pdata	SEGMENT
$pdata$??1?$InterpretedLightVm@U?$AlignedAllocator@$0EA@@randomx@@$00@randomx@@UEAA@XZ DD imagerel $LN13
	DD	imagerel $LN13+44
	DD	imagerel $unwind$??1?$InterpretedLightVm@U?$AlignedAllocator@$0EA@@randomx@@$00@randomx@@UEAA@XZ
pdata	ENDS
;	COMDAT pdata
pdata	SEGMENT
$pdata$??_G?$InterpretedLightVm@U?$AlignedAllocator@$0EA@@randomx@@$00@randomx@@UEAAPEAXI@Z DD imagerel $LN25
	DD	imagerel $LN25+103
	DD	imagerel $unwind$??_G?$InterpretedLightVm@U?$AlignedAllocator@$0EA@@randomx@@$00@randomx@@UEAAPEAXI@Z
pdata	ENDS
;	COMDAT pdata
pdata	SEGMENT
$pdata$??1randomx_cache@@QEAA@XZ DD imagerel $LN58
	DD	imagerel $LN58+207
	DD	imagerel $unwind$??1randomx_cache@@QEAA@XZ
pdata	ENDS
;	COMDAT pdata
pdata	SEGMENT
$pdata$??_Grandomx_cache@@QEAAPEAXI@Z DD imagerel $LN63
	DD	imagerel $LN63+223
	DD	imagerel $unwind$??_Grandomx_cache@@QEAAPEAXI@Z
pdata	ENDS
;	COMDAT pdata
pdata	SEGMENT
$pdata$randomx_alloc_cache DD imagerel $LN80
	DD	imagerel $LN80+547
	DD	imagerel $unwind$randomx_alloc_cache
pdata	ENDS
;	COMDAT pdata
pdata	SEGMENT
$pdata$randomx_alloc_cache$dtor$0 DD imagerel randomx_alloc_cache$dtor$0
	DD	imagerel randomx_alloc_cache$dtor$0+32
	DD	imagerel $unwind$randomx_alloc_cache$dtor$0
pdata	ENDS
;	COMDAT pdata
pdata	SEGMENT
$pdata$randomx_alloc_cache$dtor$1 DD imagerel randomx_alloc_cache$dtor$1
	DD	imagerel randomx_alloc_cache$dtor$1+32
	DD	imagerel $unwind$randomx_alloc_cache$dtor$1
pdata	ENDS
;	COMDAT pdata
pdata	SEGMENT
$pdata$randomx_alloc_cache$catch$6 DD imagerel randomx_alloc_cache$catch$6
	DD	imagerel randomx_alloc_cache$catch$6+58
	DD	imagerel $unwind$randomx_alloc_cache$catch$6
pdata	ENDS
;	COMDAT pdata
pdata	SEGMENT
$pdata$randomx_calculate_hash_next DD imagerel $LN17
	DD	imagerel $LN17+199
	DD	imagerel $unwind$randomx_calculate_hash_next
pdata	ENDS
;	COMDAT pdata
pdata	SEGMENT
$pdata$randomx_create_vm DD imagerel $LN683
	DD	imagerel $LN683+3400
	DD	imagerel $unwind$randomx_create_vm
pdata	ENDS
;	COMDAT pdata
pdata	SEGMENT
$pdata$randomx_create_vm$catch$104 DD imagerel randomx_create_vm$catch$104
	DD	imagerel randomx_create_vm$catch$104+63
	DD	imagerel $unwind$randomx_create_vm$catch$104
pdata	ENDS
;	COMDAT pdata
pdata	SEGMENT
$pdata$randomx_alloc_dataset DD imagerel $LN30
	DD	imagerel $LN30+175
	DD	imagerel $unwind$randomx_alloc_dataset
pdata	ENDS
;	COMDAT pdata
pdata	SEGMENT
$pdata$randomx_alloc_dataset$catch$0 DD imagerel randomx_alloc_dataset$catch$0
	DD	imagerel randomx_alloc_dataset$catch$0+68
	DD	imagerel $unwind$randomx_alloc_dataset$catch$0
pdata	ENDS
;	COMDAT pdata
pdata	SEGMENT
$pdata$randomx_release_cache DD imagerel $LN69
	DD	imagerel $LN69+229
	DD	imagerel $unwind$randomx_release_cache
pdata	ENDS
;	COMDAT pdata
pdata	SEGMENT
$pdata$randomx_calculate_hash_first DD imagerel $LN4
	DD	imagerel $LN4+63
	DD	imagerel $unwind$randomx_calculate_hash_first
pdata	ENDS
;	COMDAT pdata
pdata	SEGMENT
$pdata$randomx_init_cache DD imagerel $LN105
	DD	imagerel $LN105+381
	DD	imagerel $unwind$randomx_init_cache
pdata	ENDS
;	COMDAT pdata
pdata	SEGMENT
$pdata$randomx_vm_set_cache DD imagerel $LN52
	DD	imagerel $LN52+224
	DD	imagerel $unwind$randomx_vm_set_cache
pdata	ENDS
;	COMDAT pdata
pdata	SEGMENT
$pdata$randomx_release_dataset DD imagerel $LN4
	DD	imagerel $LN4+30
	DD	imagerel $unwind$randomx_release_dataset
;	COMDAT xdata
xdata	SEGMENT
$unwind$randomx_release_dataset DD 020601H
	DD	030023206H
xdata	ENDS
;	COMDAT xdata
xdata	SEGMENT
$unwind$randomx_vm_set_cache DD 0a1801H
	DD	0a6418H
	DD	095418H
	DD	083418H
	DD	0f0143218H
	DD	07010e012H
xdata	ENDS
;	COMDAT xdata
xdata	SEGMENT
$unwind$randomx_init_cache DD 0a2719H
	DD	0106418H
	DD	0f5418H
	DD	0e3418H
	DD	0f0149218H
	DD	07010e012H
	DD	imagerel __GSHandlerCheck
	DD	040H
xdata	ENDS
;	COMDAT xdata
xdata	SEGMENT
$unwind$randomx_calculate_hash_first DD 040a01H
	DD	08340aH
	DD	07006520aH
xdata	ENDS
;	COMDAT xdata
xdata	SEGMENT
$unwind$randomx_release_cache DD 041e01H
	DD	07741eH
	DD	030023206H
xdata	ENDS
;	COMDAT xdata
xdata	SEGMENT
$unwind$randomx_alloc_dataset$catch$0 DD 030b01H
	DD	05007420bH
	DD	03006H
xdata	ENDS
;	COMDAT xdata
xdata	SEGMENT
$ip2state$randomx_alloc_dataset DB 06H
	DB	'4'
	DB	02H
	DB	'p'
	DB	00H
	DB	0acH
	DB	02H
xdata	ENDS
;	COMDAT xdata
xdata	SEGMENT
$handlerMap$randomx_alloc_dataset DB 02H
	DB	017H
	DB	010H
	DD	imagerel ??_R0?AVexception@std@@@8
	DB	'p'
	DD	imagerel randomx_alloc_dataset$catch$0
	DB	0feH
xdata	ENDS
;	COMDAT xdata
xdata	SEGMENT
$tryMap$randomx_alloc_dataset DB 02H
	DB	00H
	DB	00H
	DB	02H
	DD	imagerel $handlerMap$randomx_alloc_dataset
xdata	ENDS
;	COMDAT xdata
xdata	SEGMENT
$stateUnwindMap$randomx_alloc_dataset DB 04H
	DB	08H
	DB	010H
xdata	ENDS
;	COMDAT xdata
xdata	SEGMENT
$cppxdata$randomx_alloc_dataset DB 038H
	DD	imagerel $stateUnwindMap$randomx_alloc_dataset
	DD	imagerel $tryMap$randomx_alloc_dataset
	DD	imagerel $ip2state$randomx_alloc_dataset
xdata	ENDS
;	COMDAT xdata
xdata	SEGMENT
$unwind$randomx_alloc_dataset DD 040a19H
	DD	0a340aH
	DD	07006720aH
	DD	imagerel __CxxFrameHandler4
	DD	imagerel $cppxdata$randomx_alloc_dataset
xdata	ENDS
;	COMDAT xdata
xdata	SEGMENT
$unwind$randomx_create_vm$catch$104 DD 020a01H
	DD	05006320aH
xdata	ENDS
;	COMDAT xdata
xdata	SEGMENT
$ip2state$randomx_create_vm DB '&'
	DB	'q', 06H
	DB	04H
	DB	'z'
	DB	06H
	DB	09H, 02H
	DB	0aH
	DB	'B'
	DB	0eH
	DB	095H, 05H
	DB	010H
	DB	'z'
	DB	012H
	DB	09H, 02H
	DB	016H
	DB	'B'
	DB	01aH
	DB	095H, 05H
	DB	01cH
	DB	'z'
	DB	01eH
	DB	09H, 02H
	DB	'"'
	DB	'B'
	DB	'&'
	DB	095H, 05H
	DB	'('
	DB	'z'
	DB	'*'
	DB	09H, 02H
	DB	'.'
	DB	'<'
	DB	'2'
	DB	'<'
	DB	02H
	DB	0eeH
	DB	00H
	DB	'z'
	DB	02H
xdata	ENDS
;	COMDAT xdata
xdata	SEGMENT
$handlerMap$randomx_create_vm DB 02H
	DB	017H
	DB	010H
	DD	imagerel ??_R0?AVexception@std@@@8
	DB	0a1H, 09H
	DD	imagerel randomx_create_vm$catch$104
	DB	'}'''
xdata	ENDS
;	COMDAT xdata
xdata	SEGMENT
$tryMap$randomx_create_vm DB 02H
	DB	00H
	DB	'0'
	DB	'2'
	DD	imagerel $handlerMap$randomx_create_vm
xdata	ENDS
;	COMDAT xdata
xdata	SEGMENT
$stateUnwindMap$randomx_create_vm DB 034H
	DB	08H
	DB	0cH
	DD	imagerel ??3?$CompiledLightVm@U?$AlignedAllocator@$0EA@@randomx@@$00$00@randomx@@SAXPEAX@Z
	DB	040H
	DB	03cH
	DD	imagerel ??3?$CompiledLightVm@U?$AlignedAllocator@$0EA@@randomx@@$00$0A@@randomx@@SAXPEAX@Z
	DB	040H
	DB	06cH
	DD	imagerel ??3?$CompiledVm@U?$AlignedAllocator@$0EA@@randomx@@$00$00@randomx@@SAXPEAX@Z
	DB	040H
	DB	034H
	DD	imagerel ??1?$VmBase@U?$AlignedAllocator@$0EA@@randomx@@$00@randomx@@UEAA@XZ
	DB	040H
	DB	036H
	DD	imagerel randomx_create_vm$dtor$69
	DB	0f4H
	DD	imagerel ??3?$CompiledVm@U?$AlignedAllocator@$0EA@@randomx@@$00$0A@@randomx@@SAXPEAX@Z
	DB	040H
	DB	049H
	DB	02H
	DD	imagerel ??3?$CompiledLightVm@U?$AlignedAllocator@$0EA@@randomx@@$0A@$00@randomx@@SAXPEAX@Z
	DB	040H
	DB	0b9H
	DB	02H
	DD	imagerel ??3?$CompiledLightVm@U?$AlignedAllocator@$0EA@@randomx@@$0A@$0A@@randomx@@SAXPEAX@Z
	DB	040H
	DB	029H
	DB	03H
	DD	imagerel ??3?$CompiledVm@U?$AlignedAllocator@$0EA@@randomx@@$0A@$00@randomx@@SAXPEAX@Z
	DB	040H
	DB	03cH
	DD	imagerel ??1?$VmBase@U?$AlignedAllocator@$0EA@@randomx@@$0A@@randomx@@UEAA@XZ
	DB	040H
	DB	036H
	DD	imagerel randomx_create_vm$dtor$98
	DB	049H
	DB	04H
	DD	imagerel ??3?$CompiledVm@U?$AlignedAllocator@$0EA@@randomx@@$0A@$0A@@randomx@@SAXPEAX@Z
	DB	040H
	DB	0b9H
	DB	04H
	DD	imagerel ??3?$CompiledLightVm@ULargePageAllocator@randomx@@$00$00@randomx@@SAXPEAX@Z
	DB	040H
	DB	029H
	DB	05H
	DD	imagerel ??3?$CompiledLightVm@ULargePageAllocator@randomx@@$00$0A@@randomx@@SAXPEAX@Z
	DB	040H
	DB	099H
	DB	05H
	DD	imagerel ??3?$CompiledVm@ULargePageAllocator@randomx@@$00$00@randomx@@SAXPEAX@Z
	DB	040H
	DB	03cH
	DD	imagerel ??1?$VmBase@ULargePageAllocator@randomx@@$00@randomx@@UEAA@XZ
	DB	040H
	DB	036H
	DD	imagerel randomx_create_vm$dtor$90
	DB	0b9H
	DB	06H
	DD	imagerel ??3?$CompiledVm@ULargePageAllocator@randomx@@$00$0A@@randomx@@SAXPEAX@Z
	DB	040H
	DB	029H
	DB	07H
	DD	imagerel ??3?$CompiledLightVm@ULargePageAllocator@randomx@@$0A@$00@randomx@@SAXPEAX@Z
	DB	040H
	DB	099H
	DB	07H
	DD	imagerel ??3?$CompiledLightVm@ULargePageAllocator@randomx@@$0A@$0A@@randomx@@SAXPEAX@Z
	DB	040H
	DB	09H
	DB	08H
	DD	imagerel ??3?$CompiledVm@ULargePageAllocator@randomx@@$0A@$00@randomx@@SAXPEAX@Z
	DB	040H
	DB	03cH
	DD	imagerel ??1?$VmBase@ULargePageAllocator@randomx@@$0A@@randomx@@UEAA@XZ
	DB	040H
	DB	036H
	DD	imagerel randomx_create_vm$dtor$83
	DB	029H
	DB	09H
	DD	imagerel ??3?$CompiledVm@ULargePageAllocator@randomx@@$0A@$0A@@randomx@@SAXPEAX@Z
	DB	040H
	DB	0a1H
	DB	09H
xdata	ENDS
;	COMDAT xdata
xdata	SEGMENT
$cppxdata$randomx_create_vm DB 038H
	DD	imagerel $stateUnwindMap$randomx_create_vm
	DD	imagerel $tryMap$randomx_create_vm
	DD	imagerel $ip2state$randomx_create_vm
xdata	ENDS
;	COMDAT xdata
xdata	SEGMENT
$unwind$randomx_create_vm DD 091819H
	DD	0527418H
	DD	0516418H
	DD	0503418H
	DD	04e0118H
	DD	0e011H
	DD	imagerel __CxxFrameHandler4
	DD	imagerel $cppxdata$randomx_create_vm
xdata	ENDS
;	COMDAT xdata
xdata	SEGMENT
$unwind$randomx_calculate_hash_next DD 0a1601H
	DD	0e5416H
	DD	0d3416H
	DD	0f0125216H
	DD	0c00ee010H
	DD	0600b700cH
xdata	ENDS
;	COMDAT xdata
xdata	SEGMENT
$unwind$randomx_alloc_cache$catch$6 DD 020a01H
	DD	05006320aH
xdata	ENDS
;	COMDAT xdata
xdata	SEGMENT
$unwind$randomx_alloc_cache$dtor$1 DD 020601H
	DD	050023206H
xdata	ENDS
;	COMDAT xdata
xdata	SEGMENT
$unwind$randomx_alloc_cache$dtor$0 DD 020601H
	DD	050023206H
xdata	ENDS
;	COMDAT xdata
xdata	SEGMENT
$ip2state$randomx_alloc_cache DB 010H
	DB	0b0H
	DB	02H
	DB	'1', 02H
	DB	06H
	DB	012H
	DB	02H
	DB	'N'
	DB	00H
	DB	' '
	DB	02H
	DB	' '
	DB	04H
	DB	'5', 03H
	DB	02H
	DB	'B'
	DB	00H
xdata	ENDS
;	COMDAT xdata
xdata	SEGMENT
$handlerMap$randomx_alloc_cache DB 02H
	DB	017H
	DB	010H
	DD	imagerel ??_R0?AVexception@std@@@8
	DB	0a0H
	DD	imagerel randomx_alloc_cache$catch$6
	DB	'=', 07H
xdata	ENDS
;	COMDAT xdata
xdata	SEGMENT
$tryMap$randomx_alloc_cache DB 02H
	DB	00H
	DB	04H
	DB	06H
	DD	imagerel $handlerMap$randomx_alloc_cache
xdata	ENDS
;	COMDAT xdata
xdata	SEGMENT
$stateUnwindMap$randomx_alloc_cache DB 08H
	DB	08H
	DB	0eH
	DD	imagerel randomx_alloc_cache$dtor$0
	DB	036H
	DD	imagerel randomx_alloc_cache$dtor$1
	DB	060H
xdata	ENDS
;	COMDAT xdata
xdata	SEGMENT
$cppxdata$randomx_alloc_cache DB 038H
	DD	imagerel $stateUnwindMap$randomx_alloc_cache
	DD	imagerel $tryMap$randomx_alloc_cache
	DD	imagerel $ip2state$randomx_alloc_cache
xdata	ENDS
;	COMDAT xdata
xdata	SEGMENT
$unwind$randomx_alloc_cache DD 060d19H
	DD	010340dH
	DD	0e009b20dH
	DD	060067007H
	DD	imagerel __CxxFrameHandler4
	DD	imagerel $cppxdata$randomx_alloc_cache
xdata	ENDS
;	COMDAT xdata
xdata	SEGMENT
$unwind$??_Grandomx_cache@@QEAAPEAXI@Z DD 040a01H
	DD	07340aH
	DD	07006320aH
xdata	ENDS
;	COMDAT xdata
xdata	SEGMENT
$unwind$??1randomx_cache@@QEAA@XZ DD 040a01H
	DD	07340aH
	DD	07006320aH
xdata	ENDS
;	COMDAT xdata
xdata	SEGMENT
$unwind$??_G?$InterpretedLightVm@U?$AlignedAllocator@$0EA@@randomx@@$00@randomx@@UEAAPEAXI@Z DD 040a01H
	DD	06340aH
	DD	07006320aH
xdata	ENDS
;	COMDAT xdata
xdata	SEGMENT
$unwind$??1?$InterpretedLightVm@U?$AlignedAllocator@$0EA@@randomx@@$00@randomx@@UEAA@XZ DD 020601H
	DD	030023206H
xdata	ENDS
;	COMDAT xdata
xdata	SEGMENT
$unwind$??_G?$InterpretedVm@U?$AlignedAllocator@$0EA@@randomx@@$00@randomx@@UEAAPEAXI@Z DD 040a01H
	DD	06340aH
	DD	07006320aH
xdata	ENDS
;	COMDAT xdata
xdata	SEGMENT
$unwind$??1?$InterpretedVm@U?$AlignedAllocator@$0EA@@randomx@@$00@randomx@@UEAA@XZ DD 020601H
	DD	030023206H
xdata	ENDS
;	COMDAT xdata
xdata	SEGMENT
$unwind$??_G?$VmBase@U?$AlignedAllocator@$0EA@@randomx@@$00@randomx@@UEAAPEAXI@Z DD 040a01H
	DD	06340aH
	DD	07006320aH
xdata	ENDS
;	COMDAT xdata
xdata	SEGMENT
$ip2state$??0?$CompiledLightVm@U?$AlignedAllocator@$0EA@@randomx@@$00$00@randomx@@QEAA@XZ DB 02H
	DB	0aeH
	DB	02H
xdata	ENDS
;	COMDAT xdata
xdata	SEGMENT
$stateUnwindMap$??0?$CompiledLightVm@U?$AlignedAllocator@$0EA@@randomx@@$00$00@randomx@@QEAA@XZ DB 04H
	DB	0cH
	DD	imagerel ??1?$VmBase@U?$AlignedAllocator@$0EA@@randomx@@$00@randomx@@UEAA@XZ
	DB	060H
	DB	036H
	DD	imagerel ?dtor$2@?0???0?$CompiledLightVm@U?$AlignedAllocator@$0EA@@randomx@@$00$00@randomx@@QEAA@XZ@4HA
xdata	ENDS
;	COMDAT xdata
xdata	SEGMENT
$cppxdata$??0?$CompiledLightVm@U?$AlignedAllocator@$0EA@@randomx@@$00$00@randomx@@QEAA@XZ DB 028H
	DD	imagerel $stateUnwindMap$??0?$CompiledLightVm@U?$AlignedAllocator@$0EA@@randomx@@$00$00@randomx@@QEAA@XZ
	DD	imagerel $ip2state$??0?$CompiledLightVm@U?$AlignedAllocator@$0EA@@randomx@@$00$00@randomx@@QEAA@XZ
xdata	ENDS
;	COMDAT xdata
xdata	SEGMENT
$unwind$??0?$CompiledLightVm@U?$AlignedAllocator@$0EA@@randomx@@$00$00@randomx@@QEAA@XZ DD 020a11H
	DD	03006320aH
	DD	imagerel __CxxFrameHandler4
	DD	imagerel $cppxdata$??0?$CompiledLightVm@U?$AlignedAllocator@$0EA@@randomx@@$00$00@randomx@@QEAA@XZ
xdata	ENDS
;	COMDAT xdata
xdata	SEGMENT
$unwind$??0?$CompiledLightVm@U?$AlignedAllocator@$0EA@@randomx@@$00$0A@@randomx@@QEAA@XZ DD 020601H
	DD	030023206H
xdata	ENDS
;	COMDAT xdata
xdata	SEGMENT
$ip2state$??0?$CompiledLightVm@U?$AlignedAllocator@$0EA@@randomx@@$0A@$00@randomx@@QEAA@XZ DB 02H
	DB	0aeH
	DB	02H
xdata	ENDS
;	COMDAT xdata
xdata	SEGMENT
$stateUnwindMap$??0?$CompiledLightVm@U?$AlignedAllocator@$0EA@@randomx@@$0A@$00@randomx@@QEAA@XZ DB 04H
	DB	0cH
	DD	imagerel ??1?$VmBase@U?$AlignedAllocator@$0EA@@randomx@@$0A@@randomx@@UEAA@XZ
	DB	060H
	DB	036H
	DD	imagerel ?dtor$2@?0???0?$CompiledLightVm@U?$AlignedAllocator@$0EA@@randomx@@$0A@$00@randomx@@QEAA@XZ@4HA
xdata	ENDS
;	COMDAT xdata
xdata	SEGMENT
$cppxdata$??0?$CompiledLightVm@U?$AlignedAllocator@$0EA@@randomx@@$0A@$00@randomx@@QEAA@XZ DB 028H
	DD	imagerel $stateUnwindMap$??0?$CompiledLightVm@U?$AlignedAllocator@$0EA@@randomx@@$0A@$00@randomx@@QEAA@XZ
	DD	imagerel $ip2state$??0?$CompiledLightVm@U?$AlignedAllocator@$0EA@@randomx@@$0A@$00@randomx@@QEAA@XZ
xdata	ENDS
;	COMDAT xdata
xdata	SEGMENT
$unwind$??0?$CompiledLightVm@U?$AlignedAllocator@$0EA@@randomx@@$0A@$00@randomx@@QEAA@XZ DD 020a11H
	DD	03006320aH
	DD	imagerel __CxxFrameHandler4
	DD	imagerel $cppxdata$??0?$CompiledLightVm@U?$AlignedAllocator@$0EA@@randomx@@$0A@$00@randomx@@QEAA@XZ
xdata	ENDS
;	COMDAT xdata
xdata	SEGMENT
$unwind$??0?$CompiledLightVm@U?$AlignedAllocator@$0EA@@randomx@@$0A@$0A@@randomx@@QEAA@XZ DD 020601H
	DD	030023206H
xdata	ENDS
;	COMDAT xdata
xdata	SEGMENT
$ip2state$??0?$CompiledLightVm@ULargePageAllocator@randomx@@$00$00@randomx@@QEAA@XZ DB 02H
	DB	0aeH
	DB	02H
xdata	ENDS
;	COMDAT xdata
xdata	SEGMENT
$stateUnwindMap$??0?$CompiledLightVm@ULargePageAllocator@randomx@@$00$00@randomx@@QEAA@XZ DB 04H
	DB	0cH
	DD	imagerel ??1?$VmBase@ULargePageAllocator@randomx@@$00@randomx@@UEAA@XZ
	DB	060H
	DB	036H
	DD	imagerel ?dtor$2@?0???0?$CompiledLightVm@ULargePageAllocator@randomx@@$00$00@randomx@@QEAA@XZ@4HA
xdata	ENDS
;	COMDAT xdata
xdata	SEGMENT
$cppxdata$??0?$CompiledLightVm@ULargePageAllocator@randomx@@$00$00@randomx@@QEAA@XZ DB 028H
	DD	imagerel $stateUnwindMap$??0?$CompiledLightVm@ULargePageAllocator@randomx@@$00$00@randomx@@QEAA@XZ
	DD	imagerel $ip2state$??0?$CompiledLightVm@ULargePageAllocator@randomx@@$00$00@randomx@@QEAA@XZ
xdata	ENDS
;	COMDAT xdata
xdata	SEGMENT
$unwind$??0?$CompiledLightVm@ULargePageAllocator@randomx@@$00$00@randomx@@QEAA@XZ DD 020a11H
	DD	03006320aH
	DD	imagerel __CxxFrameHandler4
	DD	imagerel $cppxdata$??0?$CompiledLightVm@ULargePageAllocator@randomx@@$00$00@randomx@@QEAA@XZ
xdata	ENDS
;	COMDAT xdata
xdata	SEGMENT
$unwind$??0?$CompiledLightVm@ULargePageAllocator@randomx@@$00$0A@@randomx@@QEAA@XZ DD 020601H
	DD	030023206H
xdata	ENDS
;	COMDAT xdata
xdata	SEGMENT
$ip2state$??0?$CompiledLightVm@ULargePageAllocator@randomx@@$0A@$00@randomx@@QEAA@XZ DB 02H
	DB	0aeH
	DB	02H
xdata	ENDS
;	COMDAT xdata
xdata	SEGMENT
$stateUnwindMap$??0?$CompiledLightVm@ULargePageAllocator@randomx@@$0A@$00@randomx@@QEAA@XZ DB 04H
	DB	0cH
	DD	imagerel ??1?$VmBase@ULargePageAllocator@randomx@@$0A@@randomx@@UEAA@XZ
	DB	060H
	DB	036H
	DD	imagerel ?dtor$2@?0???0?$CompiledLightVm@ULargePageAllocator@randomx@@$0A@$00@randomx@@QEAA@XZ@4HA
xdata	ENDS
;	COMDAT xdata
xdata	SEGMENT
$cppxdata$??0?$CompiledLightVm@ULargePageAllocator@randomx@@$0A@$00@randomx@@QEAA@XZ DB 028H
	DD	imagerel $stateUnwindMap$??0?$CompiledLightVm@ULargePageAllocator@randomx@@$0A@$00@randomx@@QEAA@XZ
	DD	imagerel $ip2state$??0?$CompiledLightVm@ULargePageAllocator@randomx@@$0A@$00@randomx@@QEAA@XZ
xdata	ENDS
;	COMDAT xdata
xdata	SEGMENT
$unwind$??0?$CompiledLightVm@ULargePageAllocator@randomx@@$0A@$00@randomx@@QEAA@XZ DD 020a11H
	DD	03006320aH
	DD	imagerel __CxxFrameHandler4
	DD	imagerel $cppxdata$??0?$CompiledLightVm@ULargePageAllocator@randomx@@$0A@$00@randomx@@QEAA@XZ
xdata	ENDS
;	COMDAT xdata
xdata	SEGMENT
$unwind$??0?$CompiledLightVm@ULargePageAllocator@randomx@@$0A@$0A@@randomx@@QEAA@XZ DD 020601H
	DD	030023206H
xdata	ENDS
;	COMDAT xdata
xdata	SEGMENT
$unwind$??_G?$CompiledLightVm@U?$AlignedAllocator@$0EA@@randomx@@$00$00@randomx@@UEAAPEAXI@Z DD 040a01H
	DD	06340aH
	DD	07006320aH
xdata	ENDS
;	COMDAT xdata
xdata	SEGMENT
$unwind$??1?$CompiledLightVm@U?$AlignedAllocator@$0EA@@randomx@@$00$00@randomx@@UEAA@XZ DD 020601H
	DD	030023206H
xdata	ENDS
;	COMDAT xdata
xdata	SEGMENT
$unwind$??1?$CompiledVm@U?$AlignedAllocator@$0EA@@randomx@@$00$00@randomx@@UEAA@XZ DD 020601H
	DD	030023206H
xdata	ENDS
;	COMDAT xdata
xdata	SEGMENT
$unwind$??_G?$CompiledLightVm@U?$AlignedAllocator@$0EA@@randomx@@$00$0A@@randomx@@UEAAPEAXI@Z DD 040a01H
	DD	06340aH
	DD	07006320aH
xdata	ENDS
;	COMDAT xdata
xdata	SEGMENT
$unwind$??1?$CompiledLightVm@U?$AlignedAllocator@$0EA@@randomx@@$00$0A@@randomx@@UEAA@XZ DD 020601H
	DD	030023206H
xdata	ENDS
;	COMDAT xdata
xdata	SEGMENT
$unwind$??1?$CompiledVm@U?$AlignedAllocator@$0EA@@randomx@@$00$0A@@randomx@@UEAA@XZ DD 020601H
	DD	030023206H
xdata	ENDS
;	COMDAT xdata
xdata	SEGMENT
$unwind$??_G?$InterpretedLightVm@U?$AlignedAllocator@$0EA@@randomx@@$0A@@randomx@@UEAAPEAXI@Z DD 040a01H
	DD	06340aH
	DD	07006320aH
xdata	ENDS
;	COMDAT xdata
xdata	SEGMENT
$unwind$??1?$InterpretedLightVm@U?$AlignedAllocator@$0EA@@randomx@@$0A@@randomx@@UEAA@XZ DD 020601H
	DD	030023206H
xdata	ENDS
;	COMDAT xdata
xdata	SEGMENT
$unwind$??1?$InterpretedVm@U?$AlignedAllocator@$0EA@@randomx@@$0A@@randomx@@UEAA@XZ DD 020601H
	DD	030023206H
xdata	ENDS
;	COMDAT xdata
xdata	SEGMENT
$unwind$??_G?$InterpretedVm@U?$AlignedAllocator@$0EA@@randomx@@$0A@@randomx@@UEAAPEAXI@Z DD 040a01H
	DD	06340aH
	DD	07006320aH
xdata	ENDS
;	COMDAT xdata
xdata	SEGMENT
$unwind$??_G?$VmBase@U?$AlignedAllocator@$0EA@@randomx@@$0A@@randomx@@UEAAPEAXI@Z DD 040a01H
	DD	06340aH
	DD	07006320aH
xdata	ENDS
;	COMDAT xdata
xdata	SEGMENT
$unwind$??_G?$CompiledLightVm@U?$AlignedAllocator@$0EA@@randomx@@$0A@$00@randomx@@UEAAPEAXI@Z DD 040a01H
	DD	06340aH
	DD	07006320aH
xdata	ENDS
;	COMDAT xdata
xdata	SEGMENT
$unwind$??1?$CompiledLightVm@U?$AlignedAllocator@$0EA@@randomx@@$0A@$00@randomx@@UEAA@XZ DD 020601H
	DD	030023206H
xdata	ENDS
;	COMDAT xdata
xdata	SEGMENT
$unwind$??1?$CompiledVm@U?$AlignedAllocator@$0EA@@randomx@@$0A@$00@randomx@@UEAA@XZ DD 020601H
	DD	030023206H
xdata	ENDS
;	COMDAT xdata
xdata	SEGMENT
$unwind$??_G?$CompiledLightVm@U?$AlignedAllocator@$0EA@@randomx@@$0A@$0A@@randomx@@UEAAPEAXI@Z DD 040a01H
	DD	06340aH
	DD	07006320aH
xdata	ENDS
;	COMDAT xdata
xdata	SEGMENT
$unwind$??1?$CompiledLightVm@U?$AlignedAllocator@$0EA@@randomx@@$0A@$0A@@randomx@@UEAA@XZ DD 020601H
	DD	030023206H
xdata	ENDS
;	COMDAT xdata
xdata	SEGMENT
$unwind$??1?$CompiledVm@U?$AlignedAllocator@$0EA@@randomx@@$0A@$0A@@randomx@@UEAA@XZ DD 020601H
	DD	030023206H
xdata	ENDS
;	COMDAT xdata
xdata	SEGMENT
$unwind$??_G?$InterpretedLightVm@ULargePageAllocator@randomx@@$00@randomx@@UEAAPEAXI@Z DD 040a01H
	DD	06340aH
	DD	07006320aH
xdata	ENDS
;	COMDAT xdata
xdata	SEGMENT
$unwind$??1?$InterpretedLightVm@ULargePageAllocator@randomx@@$00@randomx@@UEAA@XZ DD 020601H
	DD	030023206H
xdata	ENDS
;	COMDAT xdata
xdata	SEGMENT
$unwind$??1?$InterpretedVm@ULargePageAllocator@randomx@@$00@randomx@@UEAA@XZ DD 020601H
	DD	030023206H
xdata	ENDS
;	COMDAT xdata
xdata	SEGMENT
$unwind$??_G?$InterpretedVm@ULargePageAllocator@randomx@@$00@randomx@@UEAAPEAXI@Z DD 040a01H
	DD	06340aH
	DD	07006320aH
xdata	ENDS
;	COMDAT xdata
xdata	SEGMENT
$unwind$??_G?$VmBase@ULargePageAllocator@randomx@@$00@randomx@@UEAAPEAXI@Z DD 040a01H
	DD	06340aH
	DD	07006320aH
xdata	ENDS
;	COMDAT xdata
xdata	SEGMENT
$unwind$??_G?$CompiledLightVm@ULargePageAllocator@randomx@@$00$00@randomx@@UEAAPEAXI@Z DD 040a01H
	DD	06340aH
	DD	07006320aH
xdata	ENDS
;	COMDAT xdata
xdata	SEGMENT
$unwind$??1?$CompiledLightVm@ULargePageAllocator@randomx@@$00$00@randomx@@UEAA@XZ DD 020601H
	DD	030023206H
xdata	ENDS
;	COMDAT xdata
xdata	SEGMENT
$unwind$??1?$CompiledVm@ULargePageAllocator@randomx@@$00$00@randomx@@UEAA@XZ DD 020601H
	DD	030023206H
xdata	ENDS
;	COMDAT xdata
xdata	SEGMENT
$unwind$??_G?$CompiledLightVm@ULargePageAllocator@randomx@@$00$0A@@randomx@@UEAAPEAXI@Z DD 040a01H
	DD	06340aH
	DD	07006320aH
xdata	ENDS
;	COMDAT xdata
xdata	SEGMENT
$unwind$??1?$CompiledLightVm@ULargePageAllocator@randomx@@$00$0A@@randomx@@UEAA@XZ DD 020601H
	DD	030023206H
xdata	ENDS
;	COMDAT xdata
xdata	SEGMENT
$unwind$??1?$CompiledVm@ULargePageAllocator@randomx@@$00$0A@@randomx@@UEAA@XZ DD 020601H
	DD	030023206H
xdata	ENDS
;	COMDAT xdata
xdata	SEGMENT
$unwind$??_G?$InterpretedLightVm@ULargePageAllocator@randomx@@$0A@@randomx@@UEAAPEAXI@Z DD 040a01H
	DD	06340aH
	DD	07006320aH
xdata	ENDS
;	COMDAT xdata
xdata	SEGMENT
$unwind$??1?$InterpretedLightVm@ULargePageAllocator@randomx@@$0A@@randomx@@UEAA@XZ DD 020601H
	DD	030023206H
xdata	ENDS
;	COMDAT xdata
xdata	SEGMENT
$unwind$??1?$InterpretedVm@ULargePageAllocator@randomx@@$0A@@randomx@@UEAA@XZ DD 020601H
	DD	030023206H
xdata	ENDS
;	COMDAT xdata
xdata	SEGMENT
$unwind$??_G?$InterpretedVm@ULargePageAllocator@randomx@@$0A@@randomx@@UEAAPEAXI@Z DD 040a01H
	DD	06340aH
	DD	07006320aH
xdata	ENDS
;	COMDAT xdata
xdata	SEGMENT
$unwind$??_G?$VmBase@ULargePageAllocator@randomx@@$0A@@randomx@@UEAAPEAXI@Z DD 040a01H
	DD	06340aH
	DD	07006320aH
xdata	ENDS
;	COMDAT xdata
xdata	SEGMENT
$unwind$??_G?$CompiledLightVm@ULargePageAllocator@randomx@@$0A@$00@randomx@@UEAAPEAXI@Z DD 040a01H
	DD	06340aH
	DD	07006320aH
xdata	ENDS
;	COMDAT xdata
xdata	SEGMENT
$unwind$??1?$CompiledLightVm@ULargePageAllocator@randomx@@$0A@$00@randomx@@UEAA@XZ DD 020601H
	DD	030023206H
xdata	ENDS
;	COMDAT xdata
xdata	SEGMENT
$unwind$??1?$CompiledVm@ULargePageAllocator@randomx@@$0A@$00@randomx@@UEAA@XZ DD 020601H
	DD	030023206H
xdata	ENDS
;	COMDAT xdata
xdata	SEGMENT
$unwind$??_G?$CompiledLightVm@ULargePageAllocator@randomx@@$0A@$0A@@randomx@@UEAAPEAXI@Z DD 040a01H
	DD	06340aH
	DD	07006320aH
xdata	ENDS
;	COMDAT xdata
xdata	SEGMENT
$unwind$??1?$CompiledLightVm@ULargePageAllocator@randomx@@$0A@$0A@@randomx@@UEAA@XZ DD 020601H
	DD	030023206H
xdata	ENDS
;	COMDAT xdata
xdata	SEGMENT
$unwind$??1?$CompiledVm@ULargePageAllocator@randomx@@$0A@$0A@@randomx@@UEAA@XZ DD 020601H
	DD	030023206H
xdata	ENDS
;	COMDAT xdata
xdata	SEGMENT
$unwind$??2?$CompiledLightVm@ULargePageAllocator@randomx@@$0A@$0A@@randomx@@SAPEAX_K@Z DD 010401H
	DD	08204H
xdata	ENDS
;	COMDAT xdata
xdata	SEGMENT
$unwind$??2?$CompiledVm@ULargePageAllocator@randomx@@$0A@$0A@@randomx@@SAPEAX_K@Z DD 010401H
	DD	08204H
xdata	ENDS
;	COMDAT xdata
xdata	SEGMENT
$unwind$??2?$CompiledLightVm@ULargePageAllocator@randomx@@$0A@$00@randomx@@SAPEAX_K@Z DD 010401H
	DD	08204H
xdata	ENDS
;	COMDAT xdata
xdata	SEGMENT
$unwind$??2?$CompiledVm@ULargePageAllocator@randomx@@$0A@$00@randomx@@SAPEAX_K@Z DD 010401H
	DD	08204H
xdata	ENDS
;	COMDAT xdata
xdata	SEGMENT
$unwind$??2?$InterpretedLightVm@ULargePageAllocator@randomx@@$0A@@randomx@@SAPEAX_K@Z DD 010401H
	DD	08204H
xdata	ENDS
;	COMDAT xdata
xdata	SEGMENT
$unwind$??2?$InterpretedVm@ULargePageAllocator@randomx@@$0A@@randomx@@SAPEAX_K@Z DD 010401H
	DD	08204H
xdata	ENDS
;	COMDAT xdata
xdata	SEGMENT
$unwind$??2?$CompiledLightVm@ULargePageAllocator@randomx@@$00$0A@@randomx@@SAPEAX_K@Z DD 010401H
	DD	08204H
xdata	ENDS
;	COMDAT xdata
xdata	SEGMENT
$unwind$??2?$CompiledVm@ULargePageAllocator@randomx@@$00$0A@@randomx@@SAPEAX_K@Z DD 010401H
	DD	08204H
xdata	ENDS
;	COMDAT xdata
xdata	SEGMENT
$unwind$??2?$CompiledLightVm@ULargePageAllocator@randomx@@$00$00@randomx@@SAPEAX_K@Z DD 010401H
	DD	08204H
xdata	ENDS
;	COMDAT xdata
xdata	SEGMENT
$unwind$??2?$CompiledVm@ULargePageAllocator@randomx@@$00$00@randomx@@SAPEAX_K@Z DD 010401H
	DD	08204H
xdata	ENDS
;	COMDAT xdata
xdata	SEGMENT
$unwind$??2?$InterpretedLightVm@ULargePageAllocator@randomx@@$00@randomx@@SAPEAX_K@Z DD 010401H
	DD	08204H
xdata	ENDS
;	COMDAT xdata
xdata	SEGMENT
$unwind$??2?$InterpretedVm@ULargePageAllocator@randomx@@$00@randomx@@SAPEAX_K@Z DD 010401H
	DD	08204H
xdata	ENDS
;	COMDAT xdata
xdata	SEGMENT
$unwind$??2?$CompiledLightVm@U?$AlignedAllocator@$0EA@@randomx@@$0A@$0A@@randomx@@SAPEAX_K@Z DD 010401H
	DD	08204H
xdata	ENDS
;	COMDAT xdata
xdata	SEGMENT
$unwind$??2?$CompiledVm@U?$AlignedAllocator@$0EA@@randomx@@$0A@$0A@@randomx@@SAPEAX_K@Z DD 010401H
	DD	08204H
xdata	ENDS
;	COMDAT xdata
xdata	SEGMENT
$unwind$??2?$CompiledLightVm@U?$AlignedAllocator@$0EA@@randomx@@$0A@$00@randomx@@SAPEAX_K@Z DD 010401H
	DD	08204H
xdata	ENDS
;	COMDAT xdata
xdata	SEGMENT
$unwind$??2?$CompiledVm@U?$AlignedAllocator@$0EA@@randomx@@$0A@$00@randomx@@SAPEAX_K@Z DD 010401H
	DD	08204H
xdata	ENDS
;	COMDAT xdata
xdata	SEGMENT
$unwind$??2?$InterpretedLightVm@U?$AlignedAllocator@$0EA@@randomx@@$0A@@randomx@@SAPEAX_K@Z DD 010401H
	DD	08204H
xdata	ENDS
;	COMDAT xdata
xdata	SEGMENT
$unwind$??2?$InterpretedVm@U?$AlignedAllocator@$0EA@@randomx@@$0A@@randomx@@SAPEAX_K@Z DD 010401H
	DD	08204H
xdata	ENDS
;	COMDAT xdata
xdata	SEGMENT
$unwind$??2?$CompiledLightVm@U?$AlignedAllocator@$0EA@@randomx@@$00$0A@@randomx@@SAPEAX_K@Z DD 010401H
	DD	08204H
xdata	ENDS
;	COMDAT xdata
xdata	SEGMENT
$unwind$??2?$CompiledVm@U?$AlignedAllocator@$0EA@@randomx@@$00$0A@@randomx@@SAPEAX_K@Z DD 010401H
	DD	08204H
xdata	ENDS
;	COMDAT xdata
xdata	SEGMENT
$unwind$??2?$CompiledLightVm@U?$AlignedAllocator@$0EA@@randomx@@$00$00@randomx@@SAPEAX_K@Z DD 010401H
	DD	08204H
xdata	ENDS
;	COMDAT xdata
xdata	SEGMENT
$unwind$??2?$CompiledVm@U?$AlignedAllocator@$0EA@@randomx@@$00$00@randomx@@SAPEAX_K@Z DD 010401H
	DD	08204H
xdata	ENDS
;	COMDAT xdata
xdata	SEGMENT
$unwind$??2?$InterpretedLightVm@U?$AlignedAllocator@$0EA@@randomx@@$00@randomx@@SAPEAX_K@Z DD 010401H
	DD	08204H
xdata	ENDS
;	COMDAT xdata
xdata	SEGMENT
$unwind$??2?$InterpretedVm@U?$AlignedAllocator@$0EA@@randomx@@$00@randomx@@SAPEAX_K@Z DD 010401H
	DD	08204H
xdata	ENDS
;	COMDAT xdata
xdata	SEGMENT
$chain$1$?assign@?$basic_string@DU?$char_traits@D@std@@V?$allocator@D@2@@std@@QEAAAEAV12@QEBD_K@Z DD 021H
	DD	imagerel $LN13
	DD	imagerel $LN13+25
	DD	imagerel $unwind$?assign@?$basic_string@DU?$char_traits@D@std@@V?$allocator@D@2@@std@@QEAAAEAV12@QEBD_K@Z
xdata	ENDS
;	COMDAT xdata
xdata	SEGMENT
$chain$0$?assign@?$basic_string@DU?$char_traits@D@std@@V?$allocator@D@2@@std@@QEAAAEAV12@QEBD_K@Z DD 020521H
	DD	066405H
	DD	imagerel $LN13
	DD	imagerel $LN13+25
	DD	imagerel $unwind$?assign@?$basic_string@DU?$char_traits@D@std@@V?$allocator@D@2@@std@@QEAAAEAV12@QEBD_K@Z
xdata	ENDS
;	COMDAT xdata
xdata	SEGMENT
$unwind$?assign@?$basic_string@DU?$char_traits@D@std@@V?$allocator@D@2@@std@@QEAAAEAV12@QEBD_K@Z DD 040a01H
	DD	07340aH
	DD	07006320aH
xdata	ENDS
;	COMDAT xdata
xdata	SEGMENT
$unwind$??R<lambda_1>@?1??assign@?$basic_string@DU?$char_traits@D@std@@V?$allocator@D@2@@std@@QEAAAEAV23@QEBD_K@Z@QEBA@QEAD10@Z DD 040a01H
	DD	06340aH
	DD	07006320aH
xdata	ENDS
;	COMDAT xdata
xdata	SEGMENT
$chain$4$??4?$basic_string@DU?$char_traits@D@std@@V?$allocator@D@2@@std@@QEAAAEAV01@AEBV01@@Z DD 021H
	DD	imagerel $LN24
	DD	imagerel $LN24+22
	DD	imagerel $unwind$??4?$basic_string@DU?$char_traits@D@std@@V?$allocator@D@2@@std@@QEAAAEAV01@AEBV01@@Z
xdata	ENDS
;	COMDAT xdata
xdata	SEGMENT
$chain$3$??4?$basic_string@DU?$char_traits@D@std@@V?$allocator@D@2@@std@@QEAAAEAV01@AEBV01@@Z DD 020021H
	DD	077400H
	DD	imagerel $LN24
	DD	imagerel $LN24+22
	DD	imagerel $unwind$??4?$basic_string@DU?$char_traits@D@std@@V?$allocator@D@2@@std@@QEAAAEAV01@AEBV01@@Z
xdata	ENDS
;	COMDAT xdata
xdata	SEGMENT
$chain$1$??4?$basic_string@DU?$char_traits@D@std@@V?$allocator@D@2@@std@@QEAAAEAV01@AEBV01@@Z DD 041c21H
	DD	06641cH
	DD	077405H
	DD	imagerel $LN24
	DD	imagerel $LN24+22
	DD	imagerel $unwind$??4?$basic_string@DU?$char_traits@D@std@@V?$allocator@D@2@@std@@QEAAAEAV01@AEBV01@@Z
xdata	ENDS
;	COMDAT xdata
xdata	SEGMENT
$unwind$??4?$basic_string@DU?$char_traits@D@std@@V?$allocator@D@2@@std@@QEAAAEAV01@AEBV01@@Z DD 020601H
	DD	030023206H
xdata	ENDS
;	COMDAT xdata
xdata	SEGMENT
$unwind$??$?9DU?$char_traits@D@std@@V?$allocator@D@1@@std@@YA_NAEBV?$basic_string@DU?$char_traits@D@std@@V?$allocator@D@2@@0@0@Z DD 010401H
	DD	04204H
xdata	ENDS
;	COMDAT xdata
xdata	SEGMENT
$chain$3$??$_Reallocate_for@V<lambda_1>@?1??assign@?$basic_string@DU?$char_traits@D@std@@V?$allocator@D@2@@std@@QEAAAEAV34@QEBD_K@Z@PEBD@?$basic_string@DU?$char_traits@D@std@@V?$allocator@D@2@@std@@AEAAAEAV01@_KV<lambda_1>@?1??assign@01@QEAAAEAV01@QEBD0@Z@PEBD@Z DD 040021H
	DD	047400H
	DD	0c5400H
	DD	imagerel $LN68
	DD	imagerel $LN68+39
	DD	imagerel $unwind$??$_Reallocate_for@V<lambda_1>@?1??assign@?$basic_string@DU?$char_traits@D@std@@V?$allocator@D@2@@std@@QEAAAEAV34@QEBD_K@Z@PEBD@?$basic_string@DU?$char_traits@D@std@@V?$allocator@D@2@@std@@AEAAAEAV01@_KV<lambda_1>@?1??assign@01@QEAAAEAV01@QEBD0@Z@PEBD@Z
xdata	ENDS
;	COMDAT xdata
xdata	SEGMENT
$chain$2$??$_Reallocate_for@V<lambda_1>@?1??assign@?$basic_string@DU?$char_traits@D@std@@V?$allocator@D@2@@std@@QEAAAEAV34@QEBD_K@Z@PEBD@?$basic_string@DU?$char_traits@D@std@@V?$allocator@D@2@@std@@AEAAAEAV01@_KV<lambda_1>@?1??assign@01@QEAAAEAV01@QEBD0@Z@PEBD@Z DD 021H
	DD	imagerel $LN68
	DD	imagerel $LN68+39
	DD	imagerel $unwind$??$_Reallocate_for@V<lambda_1>@?1??assign@?$basic_string@DU?$char_traits@D@std@@V?$allocator@D@2@@std@@QEAAAEAV34@QEBD_K@Z@PEBD@?$basic_string@DU?$char_traits@D@std@@V?$allocator@D@2@@std@@AEAAAEAV01@_KV<lambda_1>@?1??assign@01@QEAAAEAV01@QEBD0@Z@PEBD@Z
xdata	ENDS
;	COMDAT xdata
xdata	SEGMENT
$chain$1$??$_Reallocate_for@V<lambda_1>@?1??assign@?$basic_string@DU?$char_traits@D@std@@V?$allocator@D@2@@std@@QEAAAEAV34@QEBD_K@Z@PEBD@?$basic_string@DU?$char_traits@D@std@@V?$allocator@D@2@@std@@AEAAAEAV01@_KV<lambda_1>@?1??assign@01@QEAAAEAV01@QEBD0@Z@PEBD@Z DD 041221H
	DD	047412H
	DD	0c5405H
	DD	imagerel $LN68
	DD	imagerel $LN68+39
	DD	imagerel $unwind$??$_Reallocate_for@V<lambda_1>@?1??assign@?$basic_string@DU?$char_traits@D@std@@V?$allocator@D@2@@std@@QEAAAEAV34@QEBD_K@Z@PEBD@?$basic_string@DU?$char_traits@D@std@@V?$allocator@D@2@@std@@AEAAAEAV01@_KV<lambda_1>@?1??assign@01@QEAAAEAV01@QEBD0@Z@PEBD@Z
xdata	ENDS
;	COMDAT xdata
xdata	SEGMENT
$unwind$??$_Reallocate_for@V<lambda_1>@?1??assign@?$basic_string@DU?$char_traits@D@std@@V?$allocator@D@2@@std@@QEAAAEAV34@QEBD_K@Z@PEBD@?$basic_string@DU?$char_traits@D@std@@V?$allocator@D@2@@std@@AEAAAEAV01@_KV<lambda_1>@?1??assign@01@QEAAAEAV01@QEBD0@Z@PEBD@Z DD 050b01H
	DD	0f007420bH
	DD	06003e005H
	DD	03002H
xdata	ENDS
;	COMDAT xdata
xdata	SEGMENT
$unwind$??$?8DU?$char_traits@D@std@@V?$allocator@D@1@@std@@YA_NAEBV?$basic_string@DU?$char_traits@D@std@@V?$allocator@D@2@@0@0@Z DD 010401H
	DD	04204H
xdata	ENDS
;	COMDAT xdata
xdata	SEGMENT
$unwind$?_Equal@?$basic_string@DU?$char_traits@D@std@@V?$allocator@D@2@@std@@QEBA_NAEBV12@@Z DD 010401H
	DD	04204H
xdata	ENDS
;	COMDAT xdata
xdata	SEGMENT
$unwind$??$_Traits_equal@U?$char_traits@D@std@@@std@@YA_NQEBD_K01@Z DD 010401H
	DD	04204H
xdata	ENDS
; Function compile flags: /Ogtpy
;	COMDAT randomx_release_dataset
_TEXT	SEGMENT
dataset$ = 48
randomx_release_dataset PROC				; COMDAT
; File D:\dev\francium_network\francium_agent\src\ext\randomx\repo\src\randomx.cpp
; Line 188
$LN4:
	push	rbx
	sub	rsp, 32					; 00000020H
	mov	rbx, rcx
; Line 190
	call	QWORD PTR [rcx+8]
; Line 191
	mov	edx, 16
	mov	rcx, rbx
; Line 192
	add	rsp, 32					; 00000020H
	pop	rbx
; Line 191
	jmp	??3@YAXPEAX_K@Z				; operator delete
randomx_release_dataset ENDP
_TEXT	ENDS
; Function compile flags: /Ogtpy
;	COMDAT randomx_vm_set_cache
_TEXT	SEGMENT
machine$ = 64
cache$dead$ = 72
randomx_vm_set_cache PROC				; COMDAT
; File D:\dev\francium_network\francium_agent\src\ext\randomx\repo\src\randomx.cpp
; Line 329
$LN52:
	mov	QWORD PTR [rsp+8], rbx
	mov	QWORD PTR [rsp+16], rbp
	mov	QWORD PTR [rsp+24], rsi
	push	rdi
	push	r14
	push	r15
	sub	rsp, 32					; 00000020H
	mov	r14, QWORD PTR ?cache@job_exec@mnr@@0PEAUrandomx_cache@@EA ; mnr::job_exec::cache
; Line 332
	lea	rbx, QWORD PTR [rcx+2568]
	mov	rsi, rcx
	lea	rdi, QWORD PTR [r14+33664]
; File D:\software\Visual Studio 2022\VC\Tools\MSVC\14.35.32215\include\xstring
; Line 2300
	cmp	QWORD PTR [rdi+24], 16
; Line 2291
	mov	rdx, rdi
; Line 2292
	jb	SHORT $LN48@randomx_vm
; Line 2293
	mov	rdx, QWORD PTR [rdi]
$LN48@randomx_vm:
; Line 2300
	cmp	QWORD PTR [rbx+24], 16
; Line 2291
	mov	rcx, rbx
; Line 2292
	jb	SHORT $LN49@randomx_vm
; Line 2293
	mov	rcx, QWORD PTR [rbx]
$LN49@randomx_vm:
; Line 4756
	mov	r8, QWORD PTR [rbx+16]
	lea	rbp, QWORD PTR [rbx+16]
; Line 595
	cmp	r8, QWORD PTR [rdi+16]
; Line 4756
	lea	r15, QWORD PTR [rdi+16]
; Line 595
	jne	SHORT $LN3@randomx_vm
; Line 398
	call	memcmp
; Line 595
	test	eax, eax
	jne	SHORT $LN3@randomx_vm
; File D:\dev\francium_network\francium_agent\src\ext\randomx\repo\src\randomx.cpp
; Line 332
	mov	rax, QWORD PTR [r14]
	cmp	QWORD PTR [rsi+2536], rax
	je	SHORT $LN35@randomx_vm
$LN3@randomx_vm:
; Line 333
	mov	rax, QWORD PTR [rsi]
	mov	rdx, r14
	mov	rcx, rsi
	call	QWORD PTR [rax+40]
; File D:\software\Visual Studio 2022\VC\Tools\MSVC\14.35.32215\include\xstring
; Line 3305
	cmp	rbx, rdi
	je	SHORT $LN35@randomx_vm
; Line 2300
	cmp	QWORD PTR [rdi+24], 16
; Line 2292
	jb	SHORT $LN31@randomx_vm
; Line 2293
	mov	rdi, QWORD PTR [rdi]
$LN31@randomx_vm:
; Line 3345
	mov	rsi, QWORD PTR [r15]
; Line 3529
	mov	rax, QWORD PTR [rbx+24]
	cmp	rsi, rax
	ja	SHORT $LN36@randomx_vm
; Line 2300
	cmp	rax, 16
; Line 2283
	jb	SHORT $LN39@randomx_vm
; Line 2284
	mov	rbx, QWORD PTR [rbx]
$LN39@randomx_vm:
; Line 117
	mov	r8, rsi
; Line 3532
	mov	QWORD PTR [rbp], rsi
; Line 117
	mov	rdx, rdi
	mov	rcx, rbx
	call	memmove
; Line 3534
	mov	BYTE PTR [rbx+rsi], 0
; Line 3535
	jmp	SHORT $LN35@randomx_vm
$LN36@randomx_vm:
; Line 3538
	mov	r9, rdi
	mov	rdx, rsi
	mov	rcx, rbx
	call	??$_Reallocate_for@V<lambda_1>@?1??assign@?$basic_string@DU?$char_traits@D@std@@V?$allocator@D@2@@std@@QEAAAEAV34@QEBD_K@Z@PEBD@?$basic_string@DU?$char_traits@D@std@@V?$allocator@D@2@@std@@AEAAAEAV01@_KV<lambda_1>@?1??assign@01@QEAAAEAV01@QEBD0@Z@PEBD@Z ; std::basic_string<char,std::char_traits<char>,std::allocator<char> >::_Reallocate_for<`std::basic_string<char,std::char_traits<char>,std::allocator<char> >::assign'::`2'::<lambda_1>,char const *>
$LN35@randomx_vm:
; File D:\dev\francium_network\francium_agent\src\ext\randomx\repo\src\randomx.cpp
; Line 336
	mov	rbx, QWORD PTR [rsp+64]
	mov	rbp, QWORD PTR [rsp+72]
	mov	rsi, QWORD PTR [rsp+80]
	add	rsp, 32					; 00000020H
	pop	r15
	pop	r14
	pop	rdi
	ret	0
randomx_vm_set_cache ENDP
_TEXT	ENDS
; Function compile flags: /Ogtpy
;	COMDAT randomx_init_cache
_TEXT	SEGMENT
cacheKey$ = 32
__$ArrayPad$ = 64
cache$dead$ = 112
key$dead$ = 120
keySize$dead$ = 128
randomx_init_cache PROC					; COMDAT
; File D:\dev\francium_network\francium_agent\src\ext\randomx\repo\src\randomx.cpp
; Line 120
$LN105:
	mov	QWORD PTR [rsp+8], rbx
	mov	QWORD PTR [rsp+16], rbp
	mov	QWORD PTR [rsp+24], rsi
	push	rdi
	push	r14
	push	r15
	sub	rsp, 80					; 00000050H
	mov	rax, QWORD PTR __security_cookie
	xor	rax, rsp
	mov	QWORD PTR __$ArrayPad$[rsp], rax
	mov	r14, QWORD PTR ?cache@job_exec@mnr@@0PEAUrandomx_cache@@EA ; mnr::job_exec::cache
; File D:\software\Visual Studio 2022\VC\Tools\MSVC\14.35.32215\include\xstring
; Line 3538
	lea	r9, OFFSET FLAT:?cache_key@job_exec@mnr@@0PAEA ; mnr::job_exec::cache_key
	xorps	xmm0, xmm0
; Line 5001
	mov	QWORD PTR cacheKey$[rsp+16], 0
; Line 2340
	movups	XMMWORD PTR cacheKey$[rsp], xmm0
; Line 3538
	mov	edx, 32					; 00000020H
; Line 5006
	mov	BYTE PTR cacheKey$[rsp], 0
; Line 3538
	lea	rcx, QWORD PTR cacheKey$[rsp]
; Line 5002
	mov	QWORD PTR cacheKey$[rsp+24], 15
; Line 3538
	call	??$_Reallocate_for@V<lambda_1>@?1??assign@?$basic_string@DU?$char_traits@D@std@@V?$allocator@D@2@@std@@QEAAAEAV34@QEBD_K@Z@PEBD@?$basic_string@DU?$char_traits@D@std@@V?$allocator@D@2@@std@@AEAAAEAV01@_KV<lambda_1>@?1??assign@01@QEAAAEAV01@QEBD0@Z@PEBD@Z ; std::basic_string<char,std::char_traits<char>,std::allocator<char> >::_Reallocate_for<`std::basic_string<char,std::char_traits<char>,std::allocator<char> >::assign'::`2'::<lambda_1>,char const *>
; Line 2300
	mov	rbp, QWORD PTR cacheKey$[rsp+24]
; File D:\dev\francium_network\francium_agent\src\ext\randomx\repo\src\randomx.cpp
; Line 125
	lea	rbx, QWORD PTR [r14+33664]
; File D:\software\Visual Studio 2022\VC\Tools\MSVC\14.35.32215\include\xstring
; Line 2292
	mov	rdi, QWORD PTR cacheKey$[rsp]
	lea	rdx, QWORD PTR cacheKey$[rsp]
; Line 2300
	cmp	rbp, 16
; Line 2291
	mov	rcx, rbx
; Line 2292
	cmovae	rdx, rdi
; Line 2300
	cmp	QWORD PTR [rbx+24], 16
; Line 2292
	jb	SHORT $LN100@randomx_in
; Line 2293
	mov	rcx, QWORD PTR [rbx]
$LN100@randomx_in:
; Line 4756
	mov	r8, QWORD PTR [rbx+16]
	lea	r15, QWORD PTR [rbx+16]
; Line 595
	mov	rsi, QWORD PTR cacheKey$[rsp+16]
	cmp	r8, rsi
	jne	SHORT $LN3@randomx_in
; Line 398
	call	memcmp
; Line 595
	test	eax, eax
	jne	SHORT $LN3@randomx_in
; File D:\dev\francium_network\francium_agent\src\ext\randomx\repo\src\dataset.hpp
; Line 58
	cmp	DWORD PTR [r14+4136], eax
; File D:\dev\francium_network\francium_agent\src\ext\randomx\repo\src\randomx.cpp
; Line 125
	jne	SHORT $LN86@randomx_in
$LN3@randomx_in:
; Line 126
	mov	r8d, 32					; 00000020H
	lea	rdx, OFFSET FLAT:?cache_key@job_exec@mnr@@0PAEA ; mnr::job_exec::cache_key
	mov	rcx, r14
	call	QWORD PTR [r14+24]
; File D:\software\Visual Studio 2022\VC\Tools\MSVC\14.35.32215\include\xstring
; Line 3305
	lea	rax, QWORD PTR cacheKey$[rsp]
	cmp	rbx, rax
	je	SHORT $LN86@randomx_in
; Line 3529
	mov	rax, QWORD PTR [rbx+24]
; Line 2291
	lea	r9, QWORD PTR cacheKey$[rsp]
; Line 2300
	cmp	rbp, 16
; Line 2292
	cmovae	r9, rdi
; Line 3529
	cmp	rsi, rax
	ja	SHORT $LN87@randomx_in
; Line 2300
	cmp	rax, 16
; Line 2283
	jb	SHORT $LN90@randomx_in
; Line 2284
	mov	rbx, QWORD PTR [rbx]
$LN90@randomx_in:
; Line 117
	mov	r8, rsi
; Line 3532
	mov	QWORD PTR [r15], rsi
; Line 117
	mov	rdx, r9
	mov	rcx, rbx
	call	memmove
; Line 3534
	mov	BYTE PTR [rsi+rbx], 0
; Line 3535
	jmp	SHORT $LN86@randomx_in
$LN87@randomx_in:
; Line 3538
	mov	rdx, rsi
	mov	rcx, rbx
	call	??$_Reallocate_for@V<lambda_1>@?1??assign@?$basic_string@DU?$char_traits@D@std@@V?$allocator@D@2@@std@@QEAAAEAV34@QEBD_K@Z@PEBD@?$basic_string@DU?$char_traits@D@std@@V?$allocator@D@2@@std@@AEAAAEAV01@_KV<lambda_1>@?1??assign@01@QEAAAEAV01@QEBD0@Z@PEBD@Z ; std::basic_string<char,std::char_traits<char>,std::allocator<char> >::_Reallocate_for<`std::basic_string<char,std::char_traits<char>,std::allocator<char> >::assign'::`2'::<lambda_1>,char const *>
	mov	rbp, QWORD PTR cacheKey$[rsp+24]
	mov	rdi, QWORD PTR cacheKey$[rsp]
$LN86@randomx_in:
; Line 2300
	cmp	rbp, 16
; Line 5014
	jb	SHORT $LN62@randomx_in
; Line 5019
	lea	rdx, QWORD PTR [rbp+1]
; File D:\software\Visual Studio 2022\VC\Tools\MSVC\14.35.32215\include\xmemory
; Line 829
	mov	rax, rdi
; Line 251
	cmp	rdx, 4096				; 00001000H
	jb	SHORT $LN72@randomx_in
; Line 150
	mov	rdi, QWORD PTR [rdi-8]
	add	rdx, 39					; 00000027H
	sub	rax, rdi
; Line 164
	add	rax, -8
	cmp	rax, 31
	ja	SHORT $LN103@randomx_in
$LN72@randomx_in:
; Line 255
	mov	rcx, rdi
	call	??3@YAXPEAX_K@Z				; operator delete
$LN62@randomx_in:
; File D:\dev\francium_network\francium_agent\src\ext\randomx\repo\src\randomx.cpp
; Line 129
	mov	rcx, QWORD PTR __$ArrayPad$[rsp]
	xor	rcx, rsp
	call	__security_check_cookie
	mov	rbx, QWORD PTR [rsp+112]
	mov	rbp, QWORD PTR [rsp+120]
	mov	rsi, QWORD PTR [rsp+128]
	add	rsp, 80					; 00000050H
	pop	r15
	pop	r14
	pop	rdi
	ret	0
$LN103@randomx_in:
; File D:\software\Visual Studio 2022\VC\Tools\MSVC\14.35.32215\include\xmemory
; Line 164
	call	_invalid_parameter_noinfo_noreturn
	int	3
$LN101@randomx_in:
randomx_init_cache ENDP
_TEXT	ENDS
; Function compile flags: /Ogtpy
;	COMDAT randomx_vm_set_dataset
_TEXT	SEGMENT
machine$ = 8
dataset$dead$ = 16
randomx_vm_set_dataset PROC				; COMDAT
; File D:\dev\francium_network\francium_agent\src\ext\randomx\repo\src\randomx.cpp
; Line 341
	mov	rax, QWORD PTR [rcx]
	mov	rdx, QWORD PTR ?dataset@job_exec@mnr@@0PEAUrandomx_dataset@@EA ; mnr::job_exec::dataset
	rex_jmp	QWORD PTR [rax+32]
randomx_vm_set_dataset ENDP
_TEXT	ENDS
; Function compile flags: /Ogtpy
;	COMDAT randomx_calculate_hash_first
_TEXT	SEGMENT
machine$ = 64
input$ = 72
inputSize$ = 80
randomx_calculate_hash_first PROC			; COMDAT
; File D:\dev\francium_network\francium_agent\src\ext\randomx\repo\src\randomx.cpp
; Line 370
$LN4:
	mov	QWORD PTR [rsp+8], rbx
	push	rdi
	sub	rsp, 48					; 00000030H
; Line 371
	mov	r9, r8
	mov	rdi, rcx
	mov	r8, rdx
	add	rcx, 2608				; 00000a30H
	mov	edx, 64					; 00000040H
	call	randomx_blake2b
; Line 372
	mov	rax, QWORD PTR [rdi]
	lea	rdx, QWORD PTR [rdi+2608]
	mov	rcx, rdi
; Line 373
	mov	rbx, QWORD PTR [rsp+64]
	add	rsp, 48					; 00000030H
	pop	rdi
; Line 372
	rex_jmp	QWORD PTR [rax+48]
randomx_calculate_hash_first ENDP
_TEXT	ENDS
; Function compile flags: /Ogtpy
;	COMDAT randomx_release_cache
_TEXT	SEGMENT
cache$ = 48
randomx_release_cache PROC				; COMDAT
; File D:\dev\francium_network\francium_agent\src\ext\randomx\repo\src\randomx.cpp
; Line 131
$LN69:
	push	rbx
	sub	rsp, 32					; 00000020H
; Line 133
	cmp	QWORD PTR [rcx], 0
	mov	rbx, rcx
	je	SHORT $LN2@randomx_re
; Line 134
	call	QWORD PTR [rcx+8]
$LN2@randomx_re:
; File D:\software\Visual Studio 2022\VC\Tools\MSVC\14.35.32215\include\xstring
; Line 2300
	mov	rdx, QWORD PTR [rbx+33688]
	mov	QWORD PTR [rsp+56], rdi
	cmp	rdx, 16
; Line 5014
	jb	SHORT $LN24@randomx_re
; File D:\software\Visual Studio 2022\VC\Tools\MSVC\14.35.32215\include\xmemory
; Line 829
	mov	rcx, QWORD PTR [rbx+33664]
; File D:\software\Visual Studio 2022\VC\Tools\MSVC\14.35.32215\include\xstring
; Line 5019
	inc	rdx
; File D:\software\Visual Studio 2022\VC\Tools\MSVC\14.35.32215\include\xmemory
; Line 251
	cmp	rdx, 4096				; 00001000H
	jb	SHORT $LN34@randomx_re
; Line 150
	mov	r8, QWORD PTR [rcx-8]
	add	rdx, 39					; 00000027H
; Line 163
	sub	rcx, r8
; Line 164
	lea	rax, QWORD PTR [rcx-8]
	cmp	rax, 31
	ja	$LN56@randomx_re
; Line 165
	mov	rcx, r8
$LN34@randomx_re:
; Line 255
	call	??3@YAXPEAX_K@Z				; operator delete
$LN24@randomx_re:
; File D:\software\Visual Studio 2022\VC\Tools\MSVC\14.35.32215\include\xstring
; Line 5022
	xor	edi, edi
; Line 5023
	mov	QWORD PTR [rbx+33688], 15
	mov	QWORD PTR [rbx+33680], rdi
; Line 5025
	mov	BYTE PTR [rbx+33664], dil
; File D:\software\Visual Studio 2022\VC\Tools\MSVC\14.35.32215\include\vector
; Line 2107
	mov	rcx, QWORD PTR [rbx+33640]
	test	rcx, rcx
	je	SHORT $LN43@randomx_re
; Line 2110
	mov	rdx, QWORD PTR [rbx+33656]
	sub	rdx, rcx
; File D:\software\Visual Studio 2022\VC\Tools\MSVC\14.35.32215\include\xmemory
; Line 829
	and	rdx, -8
; Line 251
	cmp	rdx, 4096				; 00001000H
	jb	SHORT $LN59@randomx_re
; Line 150
	mov	r8, QWORD PTR [rcx-8]
	add	rdx, 39					; 00000027H
; Line 163
	sub	rcx, r8
; Line 164
	lea	rax, QWORD PTR [rcx-8]
	cmp	rax, 31
	ja	SHORT $LN56@randomx_re
; Line 165
	mov	rcx, r8
$LN59@randomx_re:
; Line 255
	call	??3@YAXPEAX_K@Z				; operator delete
; File D:\software\Visual Studio 2022\VC\Tools\MSVC\14.35.32215\include\vector
; Line 2112
	mov	QWORD PTR [rbx+33640], rdi
; Line 2113
	mov	QWORD PTR [rbx+33648], rdi
; Line 2114
	mov	QWORD PTR [rbx+33656], rdi
$LN43@randomx_re:
	mov	edx, 33704				; 000083a8H
	mov	rcx, rbx
	mov	rdi, QWORD PTR [rsp+56]
; File D:\dev\francium_network\francium_agent\src\ext\randomx\repo\src\randomx.cpp
; Line 137
	add	rsp, 32					; 00000020H
	pop	rbx
	jmp	??3@YAXPEAX_K@Z				; operator delete
$LN56@randomx_re:
; File D:\software\Visual Studio 2022\VC\Tools\MSVC\14.35.32215\include\xmemory
; Line 164
	call	_invalid_parameter_noinfo_noreturn
	int	3
$LN66@randomx_re:
randomx_release_cache ENDP
_TEXT	ENDS
; Function compile flags: /Ogtpy
;	COMDAT randomx_alloc_dataset
_TEXT	SEGMENT
$T2 = 32
flags$ = 80
dataset$ = 88
randomx_alloc_dataset PROC				; COMDAT
; File D:\dev\francium_network\francium_agent\src\ext\randomx\repo\src\randomx.cpp
; Line 139
$LN30:
	mov	QWORD PTR [rsp+8], rbx
	push	rdi
	sub	rsp, 64					; 00000040H
	mov	edi, ecx
; Line 146
	mov	QWORD PTR dataset$[rsp], 0
; Line 149
	mov	ecx, 16
	call	??2@YAPEAX_K@Z				; operator new
	mov	rbx, rax
	mov	QWORD PTR [rax], 0
	mov	QWORD PTR dataset$[rsp], rax
; Line 150
	mov	ecx, -2113929280			; 81ffffc0H
; File D:\dev\francium_network\francium_agent\src\ext\randomx\repo\src\randomx.h
; Line 71
	test	dil, 1
; File D:\dev\francium_network\francium_agent\src\ext\randomx\repo\src\randomx.cpp
; Line 150
	je	SHORT $LN4@randomx_al
; Line 151
	lea	rax, OFFSET FLAT:??$deallocDataset@ULargePageAllocator@randomx@@@randomx@@YAXPEAUrandomx_dataset@@@Z ; randomx::deallocDataset<randomx::LargePageAllocator>
	mov	QWORD PTR [rbx+8], rax
; File D:\dev\francium_network\francium_agent\src\ext\randomx\repo\src\allocator.cpp
; Line 53
	call	?allocLargePagesMemory@@YAPEAX_K@Z	; allocLargePagesMemory
	mov	rcx, rax
$LN21@randomx_al:
; File D:\dev\francium_network\francium_agent\src\ext\randomx\repo\src\randomx.cpp
; Line 158
	mov	rax, rbx
	mov	QWORD PTR [rbx], rcx
; Line 166
	mov	rax, rbx
; Line 167
	mov	rbx, QWORD PTR [rsp+80]
	add	rsp, 64					; 00000040H
	pop	rdi
	ret	0
$LN4@randomx_al:
; Line 155
	lea	rax, OFFSET FLAT:??$deallocDataset@U?$AlignedAllocator@$0EA@@randomx@@@randomx@@YAXPEAUrandomx_dataset@@@Z ; randomx::deallocDataset<randomx::AlignedAllocator<64> >
	mov	QWORD PTR [rbx+8], rax
; File D:\dev\francium_network\francium_agent\src\ext\randomx\repo\src\allocator.cpp
; Line 39
	mov	edx, 64					; 00000040H
	call	_aligned_malloc
	mov	rcx, rax
; Line 40
	test	rax, rax
	je	SHORT $LN29@randomx_al
	jmp	SHORT $LN21@randomx_al
$LN13@randomx_al:
; File D:\dev\francium_network\francium_agent\src\ext\randomx\repo\src\randomx.cpp
	mov	rbx, QWORD PTR dataset$[rsp]
; Line 166
	mov	rax, rbx
; Line 167
	mov	rbx, QWORD PTR [rsp+80]
	add	rsp, 64					; 00000040H
	pop	rdi
	ret	0
$LN29@randomx_al:
; File D:\dev\francium_network\francium_agent\src\ext\randomx\repo\src\allocator.cpp
; Line 41
	lea	rcx, QWORD PTR $T2[rsp]
	call	??0bad_alloc@std@@QEAA@XZ		; std::bad_alloc::bad_alloc
	lea	rdx, OFFSET FLAT:_TI2?AVbad_alloc@std@@
	lea	rcx, QWORD PTR $T2[rsp]
	call	_CxxThrowException
	int	3
$LN26@randomx_al:
	int	3
randomx_alloc_dataset ENDP
_TEXT	ENDS
; Function compile flags: /Ogtpy
;	COMDAT text$x
text$x	SEGMENT
$T2 = 32
flags$ = 80
dataset$ = 88
randomx_alloc_dataset$catch$0 PROC
; File D:\dev\francium_network\francium_agent\src\ext\randomx\repo\src\randomx.cpp
; Line 159
	mov	QWORD PTR [rsp+16], rdx
	push	rbx
	push	rbp
	sub	rsp, 40					; 00000028H
	mov	rbp, rdx
__catch$randomx_alloc_dataset$0:
; Line 160
	mov	rbx, QWORD PTR dataset$[rbp]
	test	rbx, rbx
	je	SHORT $LN6@randomx_al
; Line 190
	mov	rcx, rbx
	call	QWORD PTR [rbx+8]
; Line 191
	mov	edx, 16
	mov	rcx, rbx
	call	??3@YAXPEAX_K@Z				; operator delete
; Line 162
	mov	QWORD PTR dataset$[rbp], 0
$LN6@randomx_al:
; Line 164
	mov	rax, 0
	add	rsp, 40					; 00000028H
	pop	rbp
	pop	rbx
	ret	0
	int	3
randomx_alloc_dataset$catch$0 ENDP
text$x	ENDS
; Function compile flags: /Ogtpy
;	COMDAT randomx_destroy_vm
_TEXT	SEGMENT
machine$ = 8
randomx_destroy_vm PROC					; COMDAT
; File D:\dev\francium_network\francium_agent\src\ext\randomx\repo\src\randomx.cpp
; Line 346
	test	rcx, rcx
	je	SHORT $LN3@randomx_de
	mov	rax, QWORD PTR [rcx]
	mov	edx, 1
	rex_jmp	QWORD PTR [rax]
$LN3@randomx_de:
; Line 347
	ret	0
randomx_destroy_vm ENDP
_TEXT	ENDS
; Function compile flags: /Ogtpy
;	COMDAT randomx_create_vm
_TEXT	SEGMENT
$T99 = 32
$T94 = 32
$T90 = 32
$T86 = 32
$T74 = 32
$T69 = 32
$T65 = 32
$T61 = 32
$T49 = 32
$T44 = 32
$T40 = 32
$T36 = 32
$T24 = 32
$T19 = 32
$T15 = 32
$T11 = 32
$T1 = 40
$T5 = 64
$T9 = 88
$T13 = 112
$T17 = 136
$T22 = 160
$T26 = 184
$T30 = 208
$T34 = 232
$T38 = 256
$T42 = 280
$T47 = 304
$T51 = 328
$T55 = 352
$T59 = 376
$T63 = 400
$T67 = 424
$T72 = 448
$T76 = 472
$T80 = 496
$T84 = 520
$T88 = 544
$T92 = 568
$T97 = 592
flags$ = 640
cache$ = 648
dataset$ = 656
vm$ = 664
randomx_create_vm PROC					; COMDAT
; File D:\dev\francium_network\francium_agent\src\ext\randomx\repo\src\randomx.cpp
; Line 194
$LN683:
	mov	QWORD PTR [rsp+8], rbx
	mov	QWORD PTR [rsp+16], rsi
	mov	QWORD PTR [rsp+24], rdi
	push	r14
	sub	rsp, 624				; 00000270H
	mov	r14, r8
	mov	rdi, rdx
; Line 199
	xor	esi, esi
	mov	QWORD PTR vm$[rsp], rsi
; File D:\dev\francium_network\francium_agent\src\ext\randomx\repo\src\randomx.h
; Line 71
	mov	eax, ecx
	and	eax, 15
; File D:\dev\francium_network\francium_agent\src\ext\randomx\repo\src\randomx.cpp
; Line 202
	movsxd	r9, eax
	lea	rdx, OFFSET FLAT:__ImageBase
	mov	eax, DWORD PTR $LN654@randomx_cr[rdx+r9*4]
	add	rax, rdx
	jmp	rax
$LN5@randomx_cr:
; File D:\dev\francium_network\francium_agent\src\ext\randomx\repo\src\allocator.cpp
; Line 39
	mov	edx, 64					; 00000040H
	mov	ecx, 10944				; 00002ac0H
	call	_aligned_malloc
	mov	rbx, rax
; Line 40
	test	rax, rax
	je	$LN659@randomx_cr
; File D:\dev\francium_network\francium_agent\src\ext\randomx\repo\src\randomx.cpp
; Line 204
	lea	rcx, QWORD PTR [rax+8]
	xor	edx, edx
	mov	r8d, 2536				; 000009e8H
	call	memset
	xor	eax, eax
	mov	QWORD PTR [rbx+2560], rax
	lea	rcx, QWORD PTR [rbx+2584]
	xor	edx, edx
	mov	r8d, 8360				; 000020a8H
	call	memset
	mov	QWORD PTR [rbx+2536], rsi
	mov	QWORD PTR [rbx+2544], rsi
	mov	QWORD PTR [rbx+2552], rsi
	xorps	xmm0, xmm0
; File D:\software\Visual Studio 2022\VC\Tools\MSVC\14.35.32215\include\xstring
; Line 2340
	movups	XMMWORD PTR [rbx+2568], xmm0
; Line 5001
	mov	QWORD PTR [rbx+2584], rsi
; Line 5002
	mov	QWORD PTR [rbx+2592], 15
; Line 5006
	mov	BYTE PTR [rbx+2568], 0
	lea	rax, OFFSET FLAT:??_7?$InterpretedLightVm@U?$AlignedAllocator@$0EA@@randomx@@$00@randomx@@6B@
	mov	QWORD PTR [rbx], rax
; File D:\dev\francium_network\francium_agent\src\ext\randomx\repo\src\randomx.cpp
; Line 205
	jmp	$LN656@randomx_cr
$LN6@randomx_cr:
; File D:\dev\francium_network\francium_agent\src\ext\randomx\repo\src\allocator.cpp
; Line 39
	mov	edx, 64					; 00000040H
	mov	ecx, 10944				; 00002ac0H
	call	_aligned_malloc
	mov	rbx, rax
; Line 40
	test	rax, rax
	je	$LN660@randomx_cr
; File D:\dev\francium_network\francium_agent\src\ext\randomx\repo\src\randomx.cpp
; Line 208
	lea	rcx, QWORD PTR [rax+8]
	xor	edx, edx
	mov	r8d, 2536				; 000009e8H
	call	memset
	xor	eax, eax
	mov	QWORD PTR [rbx+2560], rax
	lea	rcx, QWORD PTR [rbx+2584]
	xor	edx, edx
	mov	r8d, 8360				; 000020a8H
	call	memset
	mov	QWORD PTR [rbx+2536], rsi
	mov	QWORD PTR [rbx+2544], rsi
	mov	QWORD PTR [rbx+2552], rsi
	xorps	xmm0, xmm0
; File D:\software\Visual Studio 2022\VC\Tools\MSVC\14.35.32215\include\xstring
; Line 2340
	movups	XMMWORD PTR [rbx+2568], xmm0
; Line 5001
	mov	QWORD PTR [rbx+2584], rsi
; Line 5002
	mov	QWORD PTR [rbx+2592], 15
; Line 5006
	mov	BYTE PTR [rbx+2568], 0
	lea	rax, OFFSET FLAT:??_7?$InterpretedVm@U?$AlignedAllocator@$0EA@@randomx@@$00@randomx@@6B@
	mov	QWORD PTR [rbx], rax
; File D:\dev\francium_network\francium_agent\src\ext\randomx\repo\src\randomx.cpp
; Line 209
	jmp	$LN656@randomx_cr
$LN7@randomx_cr:
; Line 212
	mov	edx, 64					; 00000040H
; File D:\dev\francium_network\francium_agent\src\ext\randomx\repo\src\randomx.h
; Line 71
	test	cl, 16
; File D:\dev\francium_network\francium_agent\src\ext\randomx\repo\src\randomx.cpp
; Line 212
	mov	ecx, 2816				; 00000b00H
	je	SHORT $LN8@randomx_cr
; File D:\dev\francium_network\francium_agent\src\ext\randomx\repo\src\allocator.cpp
; Line 39
	call	_aligned_malloc
	mov	rbx, rax
; Line 40
	test	rax, rax
	je	$LN661@randomx_cr
; File D:\dev\francium_network\francium_agent\src\ext\randomx\repo\src\vm_compiled_light.hpp
; Line 43
	mov	QWORD PTR $T11[rsp], rbx
; File D:\dev\francium_network\francium_agent\src\ext\randomx\repo\src\randomx.cpp
; Line 213
	xor	edx, edx
	mov	r8d, 2816				; 00000b00H
	mov	rcx, rbx
	call	memset
	mov	rcx, rbx
	call	??0?$CompiledVm@U?$AlignedAllocator@$0EA@@randomx@@$00$00@randomx@@QEAA@XZ ; randomx::CompiledVm<randomx::AlignedAllocator<64>,1,1>::CompiledVm<randomx::AlignedAllocator<64>,1,1>
	lea	rax, OFFSET FLAT:??_7?$CompiledLightVm@U?$AlignedAllocator@$0EA@@randomx@@$00$00@randomx@@6B@
	mov	QWORD PTR [rbx], rax
; Line 214
	jmp	$LN656@randomx_cr
$LN8@randomx_cr:
; File D:\dev\francium_network\francium_agent\src\ext\randomx\repo\src\allocator.cpp
; Line 39
	call	_aligned_malloc
	mov	rbx, rax
; Line 40
	test	rax, rax
	je	$LN662@randomx_cr
; File D:\dev\francium_network\francium_agent\src\ext\randomx\repo\src\vm_compiled_light.hpp
; Line 43
	mov	QWORD PTR $T15[rsp], rbx
; File D:\dev\francium_network\francium_agent\src\ext\randomx\repo\src\randomx.cpp
; Line 216
	xor	edx, edx
	mov	r8d, 2816				; 00000b00H
	mov	rcx, rbx
	call	memset
	mov	rcx, rbx
	call	??0?$CompiledVm@U?$AlignedAllocator@$0EA@@randomx@@$00$0A@@randomx@@QEAA@XZ ; randomx::CompiledVm<randomx::AlignedAllocator<64>,1,0>::CompiledVm<randomx::AlignedAllocator<64>,1,0>
	lea	rax, OFFSET FLAT:??_7?$CompiledLightVm@U?$AlignedAllocator@$0EA@@randomx@@$00$0A@@randomx@@6B@
	mov	QWORD PTR [rbx], rax
; Line 218
	jmp	$LN656@randomx_cr
$LN10@randomx_cr:
; Line 221
	mov	edx, 64					; 00000040H
; File D:\dev\francium_network\francium_agent\src\ext\randomx\repo\src\randomx.h
; Line 71
	test	cl, 16
; File D:\dev\francium_network\francium_agent\src\ext\randomx\repo\src\randomx.cpp
; Line 221
	mov	ecx, 2816				; 00000b00H
	je	SHORT $LN11@randomx_cr
; File D:\dev\francium_network\francium_agent\src\ext\randomx\repo\src\allocator.cpp
; Line 39
	call	_aligned_malloc
	mov	rbx, rax
; Line 40
	test	rax, rax
	je	$LN663@randomx_cr
; File D:\dev\francium_network\francium_agent\src\ext\randomx\repo\src\vm_compiled.hpp
; Line 47
	mov	QWORD PTR $T19[rsp], rbx
	mov	QWORD PTR [rax+2536], rsi
	mov	QWORD PTR [rax+2544], rsi
	mov	QWORD PTR [rax+2552], rsi
	xorps	xmm0, xmm0
; File D:\software\Visual Studio 2022\VC\Tools\MSVC\14.35.32215\include\xstring
; Line 2340
	movups	XMMWORD PTR [rax+2568], xmm0
; Line 5001
	mov	QWORD PTR [rax+2584], rsi
; Line 5002
	mov	QWORD PTR [rax+2592], 15
; Line 5006
	mov	BYTE PTR [rax+2568], 0
; File D:\dev\francium_network\francium_agent\src\ext\randomx\repo\src\vm_compiled.cpp
; Line 38
	lea	rax, OFFSET FLAT:??_7?$CompiledVm@U?$AlignedAllocator@$0EA@@randomx@@$00$00@randomx@@6B@
	mov	QWORD PTR [rbx], rax
	lea	rcx, QWORD PTR [rbx+2688]
	call	??0JitCompilerX86@randomx@@QEAA@XZ	; randomx::JitCompilerX86::JitCompilerX86
	npad	1
; File D:\dev\francium_network\francium_agent\src\ext\randomx\repo\src\randomx.cpp
; Line 223
	jmp	$LN656@randomx_cr
$LN11@randomx_cr:
; File D:\dev\francium_network\francium_agent\src\ext\randomx\repo\src\allocator.cpp
; Line 39
	call	_aligned_malloc
; Line 40
	test	rax, rax
	je	$LN664@randomx_cr
; File D:\dev\francium_network\francium_agent\src\ext\randomx\repo\src\vm_compiled.hpp
; Line 47
	mov	QWORD PTR $T24[rsp], rax
; File D:\dev\francium_network\francium_agent\src\ext\randomx\repo\src\randomx.cpp
; Line 225
	mov	rcx, rax
	call	??0?$CompiledVm@U?$AlignedAllocator@$0EA@@randomx@@$00$0A@@randomx@@QEAA@XZ ; randomx::CompiledVm<randomx::AlignedAllocator<64>,1,0>::CompiledVm<randomx::AlignedAllocator<64>,1,0>
	mov	rbx, rax
; Line 227
	jmp	$LN656@randomx_cr
$LN13@randomx_cr:
; File D:\dev\francium_network\francium_agent\src\ext\randomx\repo\src\allocator.cpp
; Line 39
	mov	edx, 64					; 00000040H
	mov	ecx, 10944				; 00002ac0H
	call	_aligned_malloc
	mov	rbx, rax
; Line 40
	test	rax, rax
	je	$LN665@randomx_cr
; File D:\dev\francium_network\francium_agent\src\ext\randomx\repo\src\randomx.cpp
; Line 230
	lea	rcx, QWORD PTR [rax+8]
	xor	edx, edx
	mov	r8d, 2536				; 000009e8H
	call	memset
	xor	eax, eax
	mov	QWORD PTR [rbx+2560], rax
	lea	rcx, QWORD PTR [rbx+2584]
	xor	edx, edx
	mov	r8d, 8360				; 000020a8H
	call	memset
	mov	QWORD PTR [rbx+2536], rsi
	mov	QWORD PTR [rbx+2544], rsi
	mov	QWORD PTR [rbx+2552], rsi
	xorps	xmm0, xmm0
; File D:\software\Visual Studio 2022\VC\Tools\MSVC\14.35.32215\include\xstring
; Line 2340
	movups	XMMWORD PTR [rbx+2568], xmm0
; Line 5001
	mov	QWORD PTR [rbx+2584], rsi
; Line 5002
	mov	QWORD PTR [rbx+2592], 15
; Line 5006
	mov	BYTE PTR [rbx+2568], 0
	lea	rax, OFFSET FLAT:??_7?$InterpretedLightVm@U?$AlignedAllocator@$0EA@@randomx@@$0A@@randomx@@6B@
	mov	QWORD PTR [rbx], rax
; File D:\dev\francium_network\francium_agent\src\ext\randomx\repo\src\randomx.cpp
; Line 231
	jmp	$LN656@randomx_cr
$LN14@randomx_cr:
; File D:\dev\francium_network\francium_agent\src\ext\randomx\repo\src\allocator.cpp
; Line 39
	mov	edx, 64					; 00000040H
	mov	ecx, 10944				; 00002ac0H
	call	_aligned_malloc
	mov	rbx, rax
; Line 40
	test	rax, rax
	je	$LN666@randomx_cr
; File D:\dev\francium_network\francium_agent\src\ext\randomx\repo\src\randomx.cpp
; Line 234
	lea	rcx, QWORD PTR [rax+8]
	xor	edx, edx
	mov	r8d, 2536				; 000009e8H
	call	memset
	xor	eax, eax
	mov	QWORD PTR [rbx+2560], rax
	lea	rcx, QWORD PTR [rbx+2584]
	xor	edx, edx
	mov	r8d, 8360				; 000020a8H
	call	memset
	mov	QWORD PTR [rbx+2536], rsi
	mov	QWORD PTR [rbx+2544], rsi
	mov	QWORD PTR [rbx+2552], rsi
	xorps	xmm0, xmm0
; File D:\software\Visual Studio 2022\VC\Tools\MSVC\14.35.32215\include\xstring
; Line 2340
	movups	XMMWORD PTR [rbx+2568], xmm0
; Line 5001
	mov	QWORD PTR [rbx+2584], rsi
; Line 5002
	mov	QWORD PTR [rbx+2592], 15
; Line 5006
	mov	BYTE PTR [rbx+2568], 0
	lea	rax, OFFSET FLAT:??_7?$InterpretedVm@U?$AlignedAllocator@$0EA@@randomx@@$0A@@randomx@@6B@
	mov	QWORD PTR [rbx], rax
; File D:\dev\francium_network\francium_agent\src\ext\randomx\repo\src\randomx.cpp
; Line 235
	jmp	$LN656@randomx_cr
$LN15@randomx_cr:
; Line 238
	mov	edx, 64					; 00000040H
; File D:\dev\francium_network\francium_agent\src\ext\randomx\repo\src\randomx.h
; Line 71
	test	cl, 16
; File D:\dev\francium_network\francium_agent\src\ext\randomx\repo\src\randomx.cpp
; Line 238
	mov	ecx, 2816				; 00000b00H
	je	SHORT $LN16@randomx_cr
; File D:\dev\francium_network\francium_agent\src\ext\randomx\repo\src\allocator.cpp
; Line 39
	call	_aligned_malloc
	mov	rbx, rax
; Line 40
	test	rax, rax
	je	$LN667@randomx_cr
; File D:\dev\francium_network\francium_agent\src\ext\randomx\repo\src\vm_compiled_light.hpp
; Line 43
	mov	QWORD PTR $T36[rsp], rbx
; File D:\dev\francium_network\francium_agent\src\ext\randomx\repo\src\randomx.cpp
; Line 239
	xor	edx, edx
	mov	r8d, 2816				; 00000b00H
	mov	rcx, rbx
	call	memset
	mov	rcx, rbx
	call	??0?$CompiledVm@U?$AlignedAllocator@$0EA@@randomx@@$0A@$00@randomx@@QEAA@XZ ; randomx::CompiledVm<randomx::AlignedAllocator<64>,0,1>::CompiledVm<randomx::AlignedAllocator<64>,0,1>
	lea	rax, OFFSET FLAT:??_7?$CompiledLightVm@U?$AlignedAllocator@$0EA@@randomx@@$0A@$00@randomx@@6B@
	mov	QWORD PTR [rbx], rax
; Line 240
	jmp	$LN656@randomx_cr
$LN16@randomx_cr:
; File D:\dev\francium_network\francium_agent\src\ext\randomx\repo\src\allocator.cpp
; Line 39
	call	_aligned_malloc
	mov	rbx, rax
; Line 40
	test	rax, rax
	je	$LN668@randomx_cr
; File D:\dev\francium_network\francium_agent\src\ext\randomx\repo\src\vm_compiled_light.hpp
; Line 43
	mov	QWORD PTR $T40[rsp], rbx
; File D:\dev\francium_network\francium_agent\src\ext\randomx\repo\src\randomx.cpp
; Line 242
	xor	edx, edx
	mov	r8d, 2816				; 00000b00H
	mov	rcx, rbx
	call	memset
	mov	rcx, rbx
	call	??0?$CompiledVm@U?$AlignedAllocator@$0EA@@randomx@@$0A@$0A@@randomx@@QEAA@XZ ; randomx::CompiledVm<randomx::AlignedAllocator<64>,0,0>::CompiledVm<randomx::AlignedAllocator<64>,0,0>
	lea	rax, OFFSET FLAT:??_7?$CompiledLightVm@U?$AlignedAllocator@$0EA@@randomx@@$0A@$0A@@randomx@@6B@
	mov	QWORD PTR [rbx], rax
; Line 244
	jmp	$LN656@randomx_cr
$LN18@randomx_cr:
; Line 247
	mov	edx, 64					; 00000040H
; File D:\dev\francium_network\francium_agent\src\ext\randomx\repo\src\randomx.h
; Line 71
	test	cl, 16
; File D:\dev\francium_network\francium_agent\src\ext\randomx\repo\src\randomx.cpp
; Line 247
	mov	ecx, 2816				; 00000b00H
	je	SHORT $LN19@randomx_cr
; File D:\dev\francium_network\francium_agent\src\ext\randomx\repo\src\allocator.cpp
; Line 39
	call	_aligned_malloc
	mov	rbx, rax
; Line 40
	test	rax, rax
	je	$LN669@randomx_cr
; File D:\dev\francium_network\francium_agent\src\ext\randomx\repo\src\vm_compiled.hpp
; Line 47
	mov	QWORD PTR $T44[rsp], rbx
	mov	QWORD PTR [rax+2536], rsi
	mov	QWORD PTR [rax+2544], rsi
	mov	QWORD PTR [rax+2552], rsi
	xorps	xmm0, xmm0
; File D:\software\Visual Studio 2022\VC\Tools\MSVC\14.35.32215\include\xstring
; Line 2340
	movups	XMMWORD PTR [rax+2568], xmm0
; Line 5001
	mov	QWORD PTR [rax+2584], rsi
; Line 5002
	mov	QWORD PTR [rax+2592], 15
; Line 5006
	mov	BYTE PTR [rax+2568], 0
; File D:\dev\francium_network\francium_agent\src\ext\randomx\repo\src\vm_compiled.cpp
; Line 38
	lea	rax, OFFSET FLAT:??_7?$CompiledVm@U?$AlignedAllocator@$0EA@@randomx@@$0A@$00@randomx@@6B@
	mov	QWORD PTR [rbx], rax
	lea	rcx, QWORD PTR [rbx+2688]
	call	??0JitCompilerX86@randomx@@QEAA@XZ	; randomx::JitCompilerX86::JitCompilerX86
	npad	1
; File D:\dev\francium_network\francium_agent\src\ext\randomx\repo\src\randomx.cpp
; Line 249
	jmp	$LN656@randomx_cr
$LN19@randomx_cr:
; File D:\dev\francium_network\francium_agent\src\ext\randomx\repo\src\allocator.cpp
; Line 39
	call	_aligned_malloc
; Line 40
	test	rax, rax
	je	$LN670@randomx_cr
; File D:\dev\francium_network\francium_agent\src\ext\randomx\repo\src\vm_compiled.hpp
; Line 47
	mov	QWORD PTR $T49[rsp], rax
; File D:\dev\francium_network\francium_agent\src\ext\randomx\repo\src\randomx.cpp
; Line 251
	mov	rcx, rax
	call	??0?$CompiledVm@U?$AlignedAllocator@$0EA@@randomx@@$0A@$0A@@randomx@@QEAA@XZ ; randomx::CompiledVm<randomx::AlignedAllocator<64>,0,0>::CompiledVm<randomx::AlignedAllocator<64>,0,0>
	mov	rbx, rax
; Line 253
	jmp	$LN656@randomx_cr
$LN21@randomx_cr:
; File D:\dev\francium_network\francium_agent\src\ext\randomx\repo\src\allocator.cpp
; Line 39
	mov	edx, 64					; 00000040H
	mov	ecx, 10944				; 00002ac0H
	call	_aligned_malloc
	mov	rbx, rax
; Line 40
	test	rax, rax
	je	$LN671@randomx_cr
; File D:\dev\francium_network\francium_agent\src\ext\randomx\repo\src\randomx.cpp
; Line 256
	lea	rcx, QWORD PTR [rax+8]
	xor	edx, edx
	mov	r8d, 2536				; 000009e8H
	call	memset
	xor	eax, eax
	mov	QWORD PTR [rbx+2560], rax
	lea	rcx, QWORD PTR [rbx+2584]
	xor	edx, edx
	mov	r8d, 8360				; 000020a8H
	call	memset
	mov	QWORD PTR [rbx+2536], rsi
	mov	QWORD PTR [rbx+2544], rsi
	mov	QWORD PTR [rbx+2552], rsi
	xorps	xmm0, xmm0
; File D:\software\Visual Studio 2022\VC\Tools\MSVC\14.35.32215\include\xstring
; Line 2340
	movups	XMMWORD PTR [rbx+2568], xmm0
; Line 5001
	mov	QWORD PTR [rbx+2584], rsi
; Line 5002
	mov	QWORD PTR [rbx+2592], 15
; Line 5006
	mov	BYTE PTR [rbx+2568], 0
	lea	rax, OFFSET FLAT:??_7?$InterpretedLightVm@ULargePageAllocator@randomx@@$00@randomx@@6B@
	mov	QWORD PTR [rbx], rax
; File D:\dev\francium_network\francium_agent\src\ext\randomx\repo\src\randomx.cpp
; Line 257
	jmp	$LN656@randomx_cr
$LN22@randomx_cr:
; File D:\dev\francium_network\francium_agent\src\ext\randomx\repo\src\allocator.cpp
; Line 39
	mov	edx, 64					; 00000040H
	mov	ecx, 10944				; 00002ac0H
	call	_aligned_malloc
	mov	rbx, rax
; Line 40
	test	rax, rax
	je	$LN672@randomx_cr
; File D:\dev\francium_network\francium_agent\src\ext\randomx\repo\src\randomx.cpp
; Line 260
	lea	rcx, QWORD PTR [rax+8]
	xor	edx, edx
	mov	r8d, 2536				; 000009e8H
	call	memset
	xor	eax, eax
	mov	QWORD PTR [rbx+2560], rax
	lea	rcx, QWORD PTR [rbx+2584]
	xor	edx, edx
	mov	r8d, 8360				; 000020a8H
	call	memset
	mov	QWORD PTR [rbx+2536], rsi
	mov	QWORD PTR [rbx+2544], rsi
	mov	QWORD PTR [rbx+2552], rsi
	xorps	xmm0, xmm0
; File D:\software\Visual Studio 2022\VC\Tools\MSVC\14.35.32215\include\xstring
; Line 2340
	movups	XMMWORD PTR [rbx+2568], xmm0
; Line 5001
	mov	QWORD PTR [rbx+2584], rsi
; Line 5002
	mov	QWORD PTR [rbx+2592], 15
; Line 5006
	mov	BYTE PTR [rbx+2568], 0
	lea	rax, OFFSET FLAT:??_7?$InterpretedVm@ULargePageAllocator@randomx@@$00@randomx@@6B@
	mov	QWORD PTR [rbx], rax
; File D:\dev\francium_network\francium_agent\src\ext\randomx\repo\src\randomx.cpp
; Line 261
	jmp	$LN656@randomx_cr
$LN23@randomx_cr:
; Line 264
	mov	edx, 64					; 00000040H
; File D:\dev\francium_network\francium_agent\src\ext\randomx\repo\src\randomx.h
; Line 71
	test	cl, 16
; File D:\dev\francium_network\francium_agent\src\ext\randomx\repo\src\randomx.cpp
; Line 264
	mov	ecx, 2816				; 00000b00H
	je	SHORT $LN24@randomx_cr
; File D:\dev\francium_network\francium_agent\src\ext\randomx\repo\src\allocator.cpp
; Line 39
	call	_aligned_malloc
	mov	rbx, rax
; Line 40
	test	rax, rax
	je	$LN673@randomx_cr
; File D:\dev\francium_network\francium_agent\src\ext\randomx\repo\src\vm_compiled_light.hpp
; Line 43
	mov	QWORD PTR $T61[rsp], rbx
; File D:\dev\francium_network\francium_agent\src\ext\randomx\repo\src\randomx.cpp
; Line 265
	xor	edx, edx
	mov	r8d, 2816				; 00000b00H
	mov	rcx, rbx
	call	memset
	mov	rcx, rbx
	call	??0?$CompiledVm@ULargePageAllocator@randomx@@$00$00@randomx@@QEAA@XZ ; randomx::CompiledVm<randomx::LargePageAllocator,1,1>::CompiledVm<randomx::LargePageAllocator,1,1>
	lea	rax, OFFSET FLAT:??_7?$CompiledLightVm@ULargePageAllocator@randomx@@$00$00@randomx@@6B@
	mov	QWORD PTR [rbx], rax
; Line 266
	jmp	$LN656@randomx_cr
$LN24@randomx_cr:
; File D:\dev\francium_network\francium_agent\src\ext\randomx\repo\src\allocator.cpp
; Line 39
	call	_aligned_malloc
	mov	rbx, rax
; Line 40
	test	rax, rax
	je	$LN674@randomx_cr
; File D:\dev\francium_network\francium_agent\src\ext\randomx\repo\src\vm_compiled_light.hpp
; Line 43
	mov	QWORD PTR $T65[rsp], rbx
; File D:\dev\francium_network\francium_agent\src\ext\randomx\repo\src\randomx.cpp
; Line 268
	xor	edx, edx
	mov	r8d, 2816				; 00000b00H
	mov	rcx, rbx
	call	memset
	mov	rcx, rbx
	call	??0?$CompiledVm@ULargePageAllocator@randomx@@$00$0A@@randomx@@QEAA@XZ ; randomx::CompiledVm<randomx::LargePageAllocator,1,0>::CompiledVm<randomx::LargePageAllocator,1,0>
	lea	rax, OFFSET FLAT:??_7?$CompiledLightVm@ULargePageAllocator@randomx@@$00$0A@@randomx@@6B@
	mov	QWORD PTR [rbx], rax
; Line 270
	jmp	$LN656@randomx_cr
$LN26@randomx_cr:
; Line 273
	mov	edx, 64					; 00000040H
; File D:\dev\francium_network\francium_agent\src\ext\randomx\repo\src\randomx.h
; Line 71
	test	cl, 16
; File D:\dev\francium_network\francium_agent\src\ext\randomx\repo\src\randomx.cpp
; Line 273
	mov	ecx, 2816				; 00000b00H
	je	SHORT $LN27@randomx_cr
; File D:\dev\francium_network\francium_agent\src\ext\randomx\repo\src\allocator.cpp
; Line 39
	call	_aligned_malloc
	mov	rbx, rax
; Line 40
	test	rax, rax
	je	$LN675@randomx_cr
; File D:\dev\francium_network\francium_agent\src\ext\randomx\repo\src\vm_compiled.hpp
; Line 47
	mov	QWORD PTR $T69[rsp], rbx
	mov	QWORD PTR [rax+2536], rsi
	mov	QWORD PTR [rax+2544], rsi
	mov	QWORD PTR [rax+2552], rsi
	xorps	xmm0, xmm0
; File D:\software\Visual Studio 2022\VC\Tools\MSVC\14.35.32215\include\xstring
; Line 2340
	movups	XMMWORD PTR [rax+2568], xmm0
; Line 5001
	mov	QWORD PTR [rax+2584], rsi
; Line 5002
	mov	QWORD PTR [rax+2592], 15
; Line 5006
	mov	BYTE PTR [rax+2568], 0
; File D:\dev\francium_network\francium_agent\src\ext\randomx\repo\src\vm_compiled.cpp
; Line 38
	lea	rax, OFFSET FLAT:??_7?$CompiledVm@ULargePageAllocator@randomx@@$00$00@randomx@@6B@
	mov	QWORD PTR [rbx], rax
	lea	rcx, QWORD PTR [rbx+2688]
	call	??0JitCompilerX86@randomx@@QEAA@XZ	; randomx::JitCompilerX86::JitCompilerX86
	npad	1
; File D:\dev\francium_network\francium_agent\src\ext\randomx\repo\src\randomx.cpp
; Line 275
	jmp	$LN656@randomx_cr
$LN27@randomx_cr:
; File D:\dev\francium_network\francium_agent\src\ext\randomx\repo\src\allocator.cpp
; Line 39
	call	_aligned_malloc
; Line 40
	test	rax, rax
	je	$LN676@randomx_cr
; File D:\dev\francium_network\francium_agent\src\ext\randomx\repo\src\vm_compiled.hpp
; Line 47
	mov	QWORD PTR $T74[rsp], rax
; File D:\dev\francium_network\francium_agent\src\ext\randomx\repo\src\randomx.cpp
; Line 277
	mov	rcx, rax
	call	??0?$CompiledVm@ULargePageAllocator@randomx@@$00$0A@@randomx@@QEAA@XZ ; randomx::CompiledVm<randomx::LargePageAllocator,1,0>::CompiledVm<randomx::LargePageAllocator,1,0>
	mov	rbx, rax
; Line 279
	jmp	$LN656@randomx_cr
$LN29@randomx_cr:
; File D:\dev\francium_network\francium_agent\src\ext\randomx\repo\src\allocator.cpp
; Line 39
	mov	edx, 64					; 00000040H
	mov	ecx, 10944				; 00002ac0H
	call	_aligned_malloc
	mov	rbx, rax
; Line 40
	test	rax, rax
	je	$LN677@randomx_cr
; File D:\dev\francium_network\francium_agent\src\ext\randomx\repo\src\randomx.cpp
; Line 282
	lea	rcx, QWORD PTR [rax+8]
	xor	edx, edx
	mov	r8d, 2536				; 000009e8H
	call	memset
	xor	eax, eax
	mov	QWORD PTR [rbx+2560], rax
	lea	rcx, QWORD PTR [rbx+2584]
	xor	edx, edx
	mov	r8d, 8360				; 000020a8H
	call	memset
	mov	QWORD PTR [rbx+2536], rsi
	mov	QWORD PTR [rbx+2544], rsi
	mov	QWORD PTR [rbx+2552], rsi
	xorps	xmm0, xmm0
; File D:\software\Visual Studio 2022\VC\Tools\MSVC\14.35.32215\include\xstring
; Line 2340
	movups	XMMWORD PTR [rbx+2568], xmm0
; Line 5001
	mov	QWORD PTR [rbx+2584], rsi
; Line 5002
	mov	QWORD PTR [rbx+2592], 15
; Line 5006
	mov	BYTE PTR [rbx+2568], 0
	lea	rax, OFFSET FLAT:??_7?$InterpretedLightVm@ULargePageAllocator@randomx@@$0A@@randomx@@6B@
	mov	QWORD PTR [rbx], rax
; File D:\dev\francium_network\francium_agent\src\ext\randomx\repo\src\randomx.cpp
; Line 283
	jmp	$LN656@randomx_cr
$LN30@randomx_cr:
; File D:\dev\francium_network\francium_agent\src\ext\randomx\repo\src\allocator.cpp
; Line 39
	mov	edx, 64					; 00000040H
	mov	ecx, 10944				; 00002ac0H
	call	_aligned_malloc
	mov	rbx, rax
; Line 40
	test	rax, rax
	je	$LN678@randomx_cr
; File D:\dev\francium_network\francium_agent\src\ext\randomx\repo\src\randomx.cpp
; Line 286
	lea	rcx, QWORD PTR [rax+8]
	xor	edx, edx
	mov	r8d, 2536				; 000009e8H
	call	memset
	xor	eax, eax
	mov	QWORD PTR [rbx+2560], rax
	lea	rcx, QWORD PTR [rbx+2584]
	xor	edx, edx
	mov	r8d, 8360				; 000020a8H
	call	memset
	mov	QWORD PTR [rbx+2536], rsi
	mov	QWORD PTR [rbx+2544], rsi
	mov	QWORD PTR [rbx+2552], rsi
	xorps	xmm0, xmm0
; File D:\software\Visual Studio 2022\VC\Tools\MSVC\14.35.32215\include\xstring
; Line 2340
	movups	XMMWORD PTR [rbx+2568], xmm0
; Line 5001
	mov	QWORD PTR [rbx+2584], rsi
; Line 5002
	mov	QWORD PTR [rbx+2592], 15
; Line 5006
	mov	BYTE PTR [rbx+2568], 0
	lea	rax, OFFSET FLAT:??_7?$InterpretedVm@ULargePageAllocator@randomx@@$0A@@randomx@@6B@
	mov	QWORD PTR [rbx], rax
; File D:\dev\francium_network\francium_agent\src\ext\randomx\repo\src\randomx.cpp
; Line 287
	jmp	$LN656@randomx_cr
$LN31@randomx_cr:
; Line 290
	mov	edx, 64					; 00000040H
; File D:\dev\francium_network\francium_agent\src\ext\randomx\repo\src\randomx.h
; Line 71
	test	cl, 16
; File D:\dev\francium_network\francium_agent\src\ext\randomx\repo\src\randomx.cpp
; Line 290
	mov	ecx, 2816				; 00000b00H
	je	SHORT $LN32@randomx_cr
; File D:\dev\francium_network\francium_agent\src\ext\randomx\repo\src\allocator.cpp
; Line 39
	call	_aligned_malloc
	mov	rbx, rax
; Line 40
	test	rax, rax
	je	$LN679@randomx_cr
; File D:\dev\francium_network\francium_agent\src\ext\randomx\repo\src\vm_compiled_light.hpp
; Line 43
	mov	QWORD PTR $T86[rsp], rbx
; File D:\dev\francium_network\francium_agent\src\ext\randomx\repo\src\randomx.cpp
; Line 291
	xor	edx, edx
	mov	r8d, 2816				; 00000b00H
	mov	rcx, rbx
	call	memset
	mov	rcx, rbx
	call	??0?$CompiledVm@ULargePageAllocator@randomx@@$0A@$00@randomx@@QEAA@XZ ; randomx::CompiledVm<randomx::LargePageAllocator,0,1>::CompiledVm<randomx::LargePageAllocator,0,1>
	lea	rax, OFFSET FLAT:??_7?$CompiledLightVm@ULargePageAllocator@randomx@@$0A@$00@randomx@@6B@
	mov	QWORD PTR [rbx], rax
; Line 292
	jmp	$LN656@randomx_cr
$LN32@randomx_cr:
; File D:\dev\francium_network\francium_agent\src\ext\randomx\repo\src\allocator.cpp
; Line 39
	call	_aligned_malloc
	mov	rbx, rax
; Line 40
	test	rax, rax
	je	$LN680@randomx_cr
; File D:\dev\francium_network\francium_agent\src\ext\randomx\repo\src\vm_compiled_light.hpp
; Line 43
	mov	QWORD PTR $T90[rsp], rbx
; File D:\dev\francium_network\francium_agent\src\ext\randomx\repo\src\randomx.cpp
; Line 294
	xor	edx, edx
	mov	r8d, 2816				; 00000b00H
	mov	rcx, rbx
	call	memset
	mov	rcx, rbx
	call	??0?$CompiledVm@ULargePageAllocator@randomx@@$0A@$0A@@randomx@@QEAA@XZ ; randomx::CompiledVm<randomx::LargePageAllocator,0,0>::CompiledVm<randomx::LargePageAllocator,0,0>
	lea	rax, OFFSET FLAT:??_7?$CompiledLightVm@ULargePageAllocator@randomx@@$0A@$0A@@randomx@@6B@
	mov	QWORD PTR [rbx], rax
; Line 296
	jmp	$LN656@randomx_cr
$LN34@randomx_cr:
; Line 299
	mov	edx, 64					; 00000040H
; File D:\dev\francium_network\francium_agent\src\ext\randomx\repo\src\randomx.h
; Line 71
	test	cl, 16
; File D:\dev\francium_network\francium_agent\src\ext\randomx\repo\src\randomx.cpp
; Line 299
	mov	ecx, 2816				; 00000b00H
	je	SHORT $LN35@randomx_cr
; File D:\dev\francium_network\francium_agent\src\ext\randomx\repo\src\allocator.cpp
; Line 39
	call	_aligned_malloc
	mov	rbx, rax
; Line 40
	test	rax, rax
	je	$LN681@randomx_cr
; File D:\dev\francium_network\francium_agent\src\ext\randomx\repo\src\vm_compiled.hpp
; Line 47
	mov	QWORD PTR $T94[rsp], rbx
	mov	QWORD PTR [rax+2536], rsi
	mov	QWORD PTR [rax+2544], rsi
	mov	QWORD PTR [rax+2552], rsi
	xorps	xmm0, xmm0
; File D:\software\Visual Studio 2022\VC\Tools\MSVC\14.35.32215\include\xstring
; Line 2340
	movups	XMMWORD PTR [rax+2568], xmm0
; Line 5001
	mov	QWORD PTR [rax+2584], rsi
; Line 5002
	mov	QWORD PTR [rax+2592], 15
; Line 5006
	mov	BYTE PTR [rax+2568], 0
; File D:\dev\francium_network\francium_agent\src\ext\randomx\repo\src\vm_compiled.cpp
; Line 38
	lea	rax, OFFSET FLAT:??_7?$CompiledVm@ULargePageAllocator@randomx@@$0A@$00@randomx@@6B@
	mov	QWORD PTR [rbx], rax
	lea	rcx, QWORD PTR [rbx+2688]
	call	??0JitCompilerX86@randomx@@QEAA@XZ	; randomx::JitCompilerX86::JitCompilerX86
	npad	1
; File D:\dev\francium_network\francium_agent\src\ext\randomx\repo\src\randomx.cpp
; Line 301
	jmp	SHORT $LN656@randomx_cr
$LN35@randomx_cr:
; File D:\dev\francium_network\francium_agent\src\ext\randomx\repo\src\allocator.cpp
; Line 39
	call	_aligned_malloc
; Line 40
	test	rax, rax
	je	$LN682@randomx_cr
; File D:\dev\francium_network\francium_agent\src\ext\randomx\repo\src\vm_compiled.hpp
; Line 47
	mov	QWORD PTR $T99[rsp], rax
; File D:\dev\francium_network\francium_agent\src\ext\randomx\repo\src\randomx.cpp
; Line 303
	mov	rcx, rax
	call	??0?$CompiledVm@ULargePageAllocator@randomx@@$0A@$0A@@randomx@@QEAA@XZ ; randomx::CompiledVm<randomx::LargePageAllocator,0,0>::CompiledVm<randomx::LargePageAllocator,0,0>
	mov	rbx, rax
$LN656@randomx_cr:
; Line 311
	mov	QWORD PTR vm$[rsp], rbx
	test	rdi, rdi
	je	SHORT $LN127@randomx_cr
; Line 312
	mov	rax, QWORD PTR [rbx]
	mov	rdx, rdi
	mov	rcx, rbx
	call	QWORD PTR [rax+40]
; Line 313
	lea	rax, QWORD PTR [rdi+33664]
	lea	rcx, QWORD PTR [rbx+2568]
; File D:\software\Visual Studio 2022\VC\Tools\MSVC\14.35.32215\include\xstring
; Line 3305
	cmp	rcx, rax
	je	SHORT $LN127@randomx_cr
; Line 2291
	mov	r9, rax
; Line 2292
	cmp	QWORD PTR [rax+24], 16
	jb	SHORT $LN123@randomx_cr
; Line 2293
	mov	r9, QWORD PTR [rax]
$LN123@randomx_cr:
; Line 3345
	mov	rdi, QWORD PTR [rax+16]
; Line 3529
	mov	rax, QWORD PTR [rcx+24]
	cmp	rdi, rax
	ja	SHORT $LN128@randomx_cr
; Line 2282
	mov	rsi, rcx
; Line 2283
	cmp	rax, 16
	jb	SHORT $LN131@randomx_cr
; Line 2284
	mov	rsi, QWORD PTR [rcx]
$LN131@randomx_cr:
; Line 3532
	mov	QWORD PTR [rcx+16], rdi
; Line 117
	mov	r8, rdi
	mov	rdx, r9
	mov	rcx, rsi
	call	memmove
; Line 3534
	mov	BYTE PTR [rsi+rdi], 0
; Line 3535
	jmp	SHORT $LN127@randomx_cr
$LN128@randomx_cr:
; Line 3538
	mov	rdx, rdi
	call	??$_Reallocate_for@V<lambda_1>@?1??assign@?$basic_string@DU?$char_traits@D@std@@V?$allocator@D@2@@std@@QEAAAEAV34@QEBD_K@Z@PEBD@?$basic_string@DU?$char_traits@D@std@@V?$allocator@D@2@@std@@AEAAAEAV01@_KV<lambda_1>@?1??assign@01@QEAAAEAV01@QEBD0@Z@PEBD@Z ; std::basic_string<char,std::char_traits<char>,std::allocator<char> >::_Reallocate_for<`std::basic_string<char,std::char_traits<char>,std::allocator<char> >::assign'::`2'::<lambda_1>,char const *>
$LN127@randomx_cr:
; File D:\dev\francium_network\francium_agent\src\ext\randomx\repo\src\randomx.cpp
; Line 316
	test	r14, r14
	je	SHORT $LN39@randomx_cr
; Line 317
	mov	rax, QWORD PTR [rbx]
	mov	rdx, r14
	mov	rcx, rbx
	call	QWORD PTR [rax+32]
$LN39@randomx_cr:
; Line 319
	mov	rax, QWORD PTR [rbx]
	mov	rcx, rbx
	call	QWORD PTR [rax+8]
	npad	1
	jmp	SHORT $LN109@randomx_cr
$LN110@randomx_cr:
; File D:\software\Visual Studio 2022\VC\Tools\MSVC\14.35.32215\include\xstring
	mov	rbx, QWORD PTR vm$[rsp]
$LN109@randomx_cr:
; File D:\dev\francium_network\francium_agent\src\ext\randomx\repo\src\randomx.cpp
; Line 326
	mov	rax, rbx
; Line 327
	lea	r11, QWORD PTR [rsp+624]
	mov	rbx, QWORD PTR [r11+16]
	mov	rsi, QWORD PTR [r11+24]
	mov	rdi, QWORD PTR [r11+32]
	mov	rsp, r11
	pop	r14
	ret	0
$LN37@randomx_cr:
; Line 308
$LN659@randomx_cr:
; File D:\dev\francium_network\francium_agent\src\ext\randomx\repo\src\allocator.cpp
; Line 41
	lea	rcx, QWORD PTR $T1[rsp]
	call	??0bad_alloc@std@@QEAA@XZ		; std::bad_alloc::bad_alloc
	lea	rdx, OFFSET FLAT:_TI2?AVbad_alloc@std@@
	lea	rcx, QWORD PTR $T1[rsp]
	call	_CxxThrowException
$LN660@randomx_cr:
	lea	rcx, QWORD PTR $T5[rsp]
	call	??0bad_alloc@std@@QEAA@XZ		; std::bad_alloc::bad_alloc
	lea	rdx, OFFSET FLAT:_TI2?AVbad_alloc@std@@
	lea	rcx, QWORD PTR $T5[rsp]
	call	_CxxThrowException
$LN661@randomx_cr:
	lea	rcx, QWORD PTR $T9[rsp]
	call	??0bad_alloc@std@@QEAA@XZ		; std::bad_alloc::bad_alloc
	lea	rdx, OFFSET FLAT:_TI2?AVbad_alloc@std@@
	lea	rcx, QWORD PTR $T9[rsp]
	call	_CxxThrowException
$LN662@randomx_cr:
	lea	rcx, QWORD PTR $T13[rsp]
	call	??0bad_alloc@std@@QEAA@XZ		; std::bad_alloc::bad_alloc
	lea	rdx, OFFSET FLAT:_TI2?AVbad_alloc@std@@
	lea	rcx, QWORD PTR $T13[rsp]
	call	_CxxThrowException
$LN663@randomx_cr:
	lea	rcx, QWORD PTR $T17[rsp]
	call	??0bad_alloc@std@@QEAA@XZ		; std::bad_alloc::bad_alloc
	lea	rdx, OFFSET FLAT:_TI2?AVbad_alloc@std@@
	lea	rcx, QWORD PTR $T17[rsp]
	call	_CxxThrowException
$LN664@randomx_cr:
	lea	rcx, QWORD PTR $T22[rsp]
	call	??0bad_alloc@std@@QEAA@XZ		; std::bad_alloc::bad_alloc
	lea	rdx, OFFSET FLAT:_TI2?AVbad_alloc@std@@
	lea	rcx, QWORD PTR $T22[rsp]
	call	_CxxThrowException
$LN665@randomx_cr:
	lea	rcx, QWORD PTR $T26[rsp]
	call	??0bad_alloc@std@@QEAA@XZ		; std::bad_alloc::bad_alloc
	lea	rdx, OFFSET FLAT:_TI2?AVbad_alloc@std@@
	lea	rcx, QWORD PTR $T26[rsp]
	call	_CxxThrowException
$LN666@randomx_cr:
	lea	rcx, QWORD PTR $T30[rsp]
	call	??0bad_alloc@std@@QEAA@XZ		; std::bad_alloc::bad_alloc
	lea	rdx, OFFSET FLAT:_TI2?AVbad_alloc@std@@
	lea	rcx, QWORD PTR $T30[rsp]
	call	_CxxThrowException
$LN667@randomx_cr:
	lea	rcx, QWORD PTR $T34[rsp]
	call	??0bad_alloc@std@@QEAA@XZ		; std::bad_alloc::bad_alloc
	lea	rdx, OFFSET FLAT:_TI2?AVbad_alloc@std@@
	lea	rcx, QWORD PTR $T34[rsp]
	call	_CxxThrowException
$LN668@randomx_cr:
	lea	rcx, QWORD PTR $T38[rsp]
	call	??0bad_alloc@std@@QEAA@XZ		; std::bad_alloc::bad_alloc
	lea	rdx, OFFSET FLAT:_TI2?AVbad_alloc@std@@
	lea	rcx, QWORD PTR $T38[rsp]
	call	_CxxThrowException
$LN669@randomx_cr:
	lea	rcx, QWORD PTR $T42[rsp]
	call	??0bad_alloc@std@@QEAA@XZ		; std::bad_alloc::bad_alloc
	lea	rdx, OFFSET FLAT:_TI2?AVbad_alloc@std@@
	lea	rcx, QWORD PTR $T42[rsp]
	call	_CxxThrowException
$LN670@randomx_cr:
	lea	rcx, QWORD PTR $T47[rsp]
	call	??0bad_alloc@std@@QEAA@XZ		; std::bad_alloc::bad_alloc
	lea	rdx, OFFSET FLAT:_TI2?AVbad_alloc@std@@
	lea	rcx, QWORD PTR $T47[rsp]
	call	_CxxThrowException
