; Listing generated by Microsoft (R) Optimizing Compiler Version 19.35.32216.1 

include listing.inc

INCLUDELIB OLDNAMES

PUBLIC	??_C@_07EGKJEGOK@add?5r?0r@			; `string'
PUBLIC	??_C@_07GPMHAENL@sub?5r?0r@			; `string'
PUBLIC	??_C@_07PCNFNJJG@xor?5r?0r@			; `string'
PUBLIC	??_C@_06KNFBEPKD@imul?5r@			; `string'
PUBLIC	??_C@_05JPNBDIEI@mul?5r@			; `string'
PUBLIC	??_C@_07FNBPKEMP@mov?5r?0r@			; `string'
PUBLIC	??_C@_0M@NCEIDJEA@lea?5r?0r?$CLr?$CKs@		; `string'
PUBLIC	??_C@_08EPBHLKIK@imul?5r?0r@			; `string'
PUBLIC	??_C@_07MKCDAOME@ror?5r?0i@			; `string'
PUBLIC	??_C@_07OPJPINHA@add?5r?0i@			; `string'
PUBLIC	??_C@_07FLODBCAM@xor?5r?0i@			; `string'
PUBLIC	??_C@_0M@HFELAPLN@mov?5rax?0i64@		; `string'
PUBLIC	??_C@_08FIBMIENK@ror?5r?0cl@			; `string'
PUBLIC	??_C@_0M@MOCHBIMO@xor?5rcx?0rcx@		; `string'
PUBLIC	??_C@_07KAGFIPFD@cmp?5r?0i@			; `string'
PUBLIC	??_C@_08CDONMACD@setcc?5cl@			; `string'
PUBLIC	??_C@_0L@MJJNFFJ@testjz?5r?0i@			; `string'
PUBLIC	??_C@_06BHJJOMCE@ISUB_R@			; `string'
PUBLIC	??_C@_06HBHMEFL@IXOR_R@				; `string'
PUBLIC	??_C@_07BKAJNKND@IADD_RS@			; `string'
PUBLIC	??_C@_06MOJKPIPM@IMUL_R@			; `string'
PUBLIC	??_C@_06PFFFMECN@IROR_C@			; `string'
PUBLIC	??_C@_07GHMLNDH@IADD_C7@			; `string'
PUBLIC	??_C@_07HBFNPGML@IXOR_C7@			; `string'
PUBLIC	??_C@_07IBOEKBPI@IADD_C8@			; `string'
PUBLIC	??_C@_07PGMFOKAE@IXOR_C8@			; `string'
PUBLIC	??_C@_07JIPPJALJ@IADD_C9@			; `string'
PUBLIC	??_C@_07OPNONLEF@IXOR_C9@			; `string'
PUBLIC	??_C@_07PJFOOHGM@IMULH_R@			; `string'
PUBLIC	??_C@_08OFDPLEBE@ISMULH_R@			; `string'
PUBLIC	??_C@_08MDAIHEMI@IMUL_RCP@			; `string'
PUBLIC	??_C@_03GEANJIEE@NOP@				; `string'
PUBLIC	??_C@_05GKAFEFNP@4?08?04@			; `string'
PUBLIC	??_C@_07LMLFBDOH@7?03?03?03@			; `string'
PUBLIC	??_C@_07KDGOFPAL@3?07?03?03@			; `string'
PUBLIC	??_C@_05JNPILEHN@4?09?03@			; `string'
PUBLIC	??_C@_07PNKJIKMC@4?04?04?04@			; `string'
PUBLIC	??_C@_06HNPMDBIH@3?03?010@			; `string'
PUBLIC	??_C@_01PKGAHCOL@?$CJ@				; `string'
PUBLIC	??_C@_02GFKOMOKH@?5?$CI@			; `string'
PUBLIC	??_C@_0BN@DLEPNBFH@?$DL?5?9?9?9?9?9?9?9?9?9?9?9?9?9?5fetch?5cycle?5@ ; `string'
PUBLIC	??_C@_02LNAEAIDO@?$DL?5@			; `string'
PUBLIC	??_C@_01CLKCMJKC@?5@				; `string'
PUBLIC	??_C@_0BM@DNDFKKPL@?8?5to?5execution?5port?5?$CIcycle?5@ ; `string'
PUBLIC	??_C@_0BK@CHANDLHJ@Unable?5to?5map?5operation?5?8@ ; `string'
PUBLIC	??_C@_0BG@LCHOFLB@?$DL?5src?5STALL?5at?5cycle?5@ ; `string'
PUBLIC	??_C@_0O@MDNCHFJG@?$DL?5THROW?5away?5@		; `string'
PUBLIC	??_C@_0DB@GBHHBOIP@?5?9?5source?5registers?5not?5availab@ ; `string'
PUBLIC	??_C@_0BF@KEMJEAAI@?5with?5decode?5buffer?5@	; `string'
PUBLIC	??_C@_0BD@LINOOFHF@Aborting?5at?5cycle?5@	; `string'
PUBLIC	??_C@_09DPBLBEIM@?$DL?5src?5?$DN?5r@		; `string'
PUBLIC	??_C@_0BG@BCMKDOCD@?$DL?5dst?5STALL?5at?5cycle?5@ ; `string'
PUBLIC	??_C@_0CH@DGAOLDAG@?5?9?5destination?5registers?5not?5av@ ; `string'
PUBLIC	??_C@_09PBMBBFCJ@?$DL?5dst?5?$DN?5r@		; `string'
PUBLIC	??_C@_0BE@NNLOIHGN@?$DL?5RETIRED?5at?5cycle?5@	; `string'
PUBLIC	??_C@_0P@KIDAKACH@?$DL?5?$CIeliminated?$CJ@	; `string'
PUBLIC	??_C@_0P@HMBCIHKC@?$DL?5P5?5at?5cycle?5@	; `string'
PUBLIC	??_C@_0P@OELBPALC@?$DL?5P0?5at?5cycle?5@	; `string'
PUBLIC	??_C@_0P@HPBELMNN@?$DL?5P1?5at?5cycle?5@	; `string'
PUBLIC	?slot_10@randomx@@3PEBVSuperscalarInstructionInfo@1@EB ; randomx::slot_10
PUBLIC	?slot_8@randomx@@3PAPEBVSuperscalarInstructionInfo@1@A ; randomx::slot_8
PUBLIC	?slot_3@randomx@@3PAPEBVSuperscalarInstructionInfo@1@A ; randomx::slot_3
PUBLIC	?decodeBuffers@DecoderBuffer@randomx@@0PAPEBV12@A ; randomx::DecoderBuffer::decodeBuffers
PUBLIC	?slot_9@randomx@@3PAPEBVSuperscalarInstructionInfo@1@A ; randomx::slot_9
PUBLIC	?slot_4@randomx@@3PAPEBVSuperscalarInstructionInfo@1@A ; randomx::slot_4
PUBLIC	?slot_7@randomx@@3PAPEBVSuperscalarInstructionInfo@1@A ; randomx::slot_7
PUBLIC	?slot_3L@randomx@@3PAPEBVSuperscalarInstructionInfo@1@A ; randomx::slot_3L
;	COMDAT ??_C@_0P@HPBELMNN@?$DL?5P1?5at?5cycle?5@
CONST	SEGMENT
??_C@_0P@HPBELMNN@?$DL?5P1?5at?5cycle?5@ DB '; P1 at cycle ', 00H ; `string'
CONST	ENDS
;	COMDAT ??_C@_0P@OELBPALC@?$DL?5P0?5at?5cycle?5@
CONST	SEGMENT
??_C@_0P@OELBPALC@?$DL?5P0?5at?5cycle?5@ DB '; P0 at cycle ', 00H ; `string'
CONST	ENDS
;	COMDAT ??_C@_0P@HMBCIHKC@?$DL?5P5?5at?5cycle?5@
CONST	SEGMENT
??_C@_0P@HMBCIHKC@?$DL?5P5?5at?5cycle?5@ DB '; P5 at cycle ', 00H ; `string'
CONST	ENDS
;	COMDAT ??_C@_0P@KIDAKACH@?$DL?5?$CIeliminated?$CJ@
CONST	SEGMENT
??_C@_0P@KIDAKACH@?$DL?5?$CIeliminated?$CJ@ DB '; (eliminated)', 00H ; `string'
CONST	ENDS
;	COMDAT ??_C@_0BE@NNLOIHGN@?$DL?5RETIRED?5at?5cycle?5@
CONST	SEGMENT
??_C@_0BE@NNLOIHGN@?$DL?5RETIRED?5at?5cycle?5@ DB '; RETIRED at cycle ', 00H ; `string'
CONST	ENDS
;	COMDAT ??_C@_09PBMBBFCJ@?$DL?5dst?5?$DN?5r@
CONST	SEGMENT
??_C@_09PBMBBFCJ@?$DL?5dst?5?$DN?5r@ DB '; dst = r', 00H ; `string'
CONST	ENDS
;	COMDAT ??_C@_0CH@DGAOLDAG@?5?9?5destination?5registers?5not?5av@
CONST	SEGMENT
??_C@_0CH@DGAOLDAG@?5?9?5destination?5registers?5not?5av@ DB ' - destinat'
	DB	'ion registers not available', 00H		; `string'
CONST	ENDS
;	COMDAT ??_C@_0BG@BCMKDOCD@?$DL?5dst?5STALL?5at?5cycle?5@
CONST	SEGMENT
??_C@_0BG@BCMKDOCD@?$DL?5dst?5STALL?5at?5cycle?5@ DB '; dst STALL at cycl'
	DB	'e ', 00H					; `string'
CONST	ENDS
;	COMDAT ??_C@_09DPBLBEIM@?$DL?5src?5?$DN?5r@
CONST	SEGMENT
??_C@_09DPBLBEIM@?$DL?5src?5?$DN?5r@ DB '; src = r', 00H ; `string'
CONST	ENDS
;	COMDAT ??_C@_0BD@LINOOFHF@Aborting?5at?5cycle?5@
CONST	SEGMENT
??_C@_0BD@LINOOFHF@Aborting?5at?5cycle?5@ DB 'Aborting at cycle ', 00H ; `string'
CONST	ENDS
;	COMDAT ??_C@_0BF@KEMJEAAI@?5with?5decode?5buffer?5@
CONST	SEGMENT
??_C@_0BF@KEMJEAAI@?5with?5decode?5buffer?5@ DB ' with decode buffer ', 00H ; `string'
CONST	ENDS
;	COMDAT ??_C@_0DB@GBHHBOIP@?5?9?5source?5registers?5not?5availab@
CONST	SEGMENT
??_C@_0DB@GBHHBOIP@?5?9?5source?5registers?5not?5availab@ DB ' - source r'
	DB	'egisters not available for operation ', 00H	; `string'
CONST	ENDS
;	COMDAT ??_C@_0O@MDNCHFJG@?$DL?5THROW?5away?5@
CONST	SEGMENT
??_C@_0O@MDNCHFJG@?$DL?5THROW?5away?5@ DB '; THROW away ', 00H ; `string'
CONST	ENDS
;	COMDAT ??_C@_0BG@LCHOFLB@?$DL?5src?5STALL?5at?5cycle?5@
CONST	SEGMENT
??_C@_0BG@LCHOFLB@?$DL?5src?5STALL?5at?5cycle?5@ DB '; src STALL at cycle'
	DB	' ', 00H					; `string'
CONST	ENDS
;	COMDAT ??_C@_0BK@CHANDLHJ@Unable?5to?5map?5operation?5?8@
CONST	SEGMENT
??_C@_0BK@CHANDLHJ@Unable?5to?5map?5operation?5?8@ DB 'Unable to map oper'
	DB	'ation ''', 00H				; `string'
CONST	ENDS
;	COMDAT ??_C@_0BM@DNDFKKPL@?8?5to?5execution?5port?5?$CIcycle?5@
CONST	SEGMENT
??_C@_0BM@DNDFKKPL@?8?5to?5execution?5port?5?$CIcycle?5@ DB ''' to execut'
	DB	'ion port (cycle ', 00H			; `string'
CONST	ENDS
;	COMDAT ??_C@_01CLKCMJKC@?5@
CONST	SEGMENT
??_C@_01CLKCMJKC@?5@ DB ' ', 00H			; `string'
CONST	ENDS
;	COMDAT ??_C@_02LNAEAIDO@?$DL?5@
CONST	SEGMENT
??_C@_02LNAEAIDO@?$DL?5@ DB '; ', 00H			; `string'
CONST	ENDS
;	COMDAT ??_C@_0BN@DLEPNBFH@?$DL?5?9?9?9?9?9?9?9?9?9?9?9?9?9?5fetch?5cycle?5@
CONST	SEGMENT
??_C@_0BN@DLEPNBFH@?$DL?5?9?9?9?9?9?9?9?9?9?9?9?9?9?5fetch?5cycle?5@ DB ';'
	DB	' ------------- fetch cycle ', 00H		; `string'
CONST	ENDS
;	COMDAT ??_C@_02GFKOMOKH@?5?$CI@
CONST	SEGMENT
??_C@_02GFKOMOKH@?5?$CI@ DB ' (', 00H			; `string'
CONST	ENDS
;	COMDAT ??_C@_01PKGAHCOL@?$CJ@
CONST	SEGMENT
??_C@_01PKGAHCOL@?$CJ@ DB ')', 00H			; `string'
CONST	ENDS
;	COMDAT ??_C@_06HNPMDBIH@3?03?010@
CONST	SEGMENT
??_C@_06HNPMDBIH@3?03?010@ DB '3,3,10', 00H		; `string'
CONST	ENDS
;	COMDAT ??_C@_07PNKJIKMC@4?04?04?04@
CONST	SEGMENT
??_C@_07PNKJIKMC@4?04?04?04@ DB '4,4,4,4', 00H		; `string'
CONST	ENDS
;	COMDAT ??_C@_05JNPILEHN@4?09?03@
CONST	SEGMENT
??_C@_05JNPILEHN@4?09?03@ DB '4,9,3', 00H		; `string'
CONST	ENDS
;	COMDAT ??_C@_07KDGOFPAL@3?07?03?03@
CONST	SEGMENT
??_C@_07KDGOFPAL@3?07?03?03@ DB '3,7,3,3', 00H		; `string'
CONST	ENDS
;	COMDAT ??_C@_07LMLFBDOH@7?03?03?03@
CONST	SEGMENT
??_C@_07LMLFBDOH@7?03?03?03@ DB '7,3,3,3', 00H		; `string'
CONST	ENDS
;	COMDAT ??_C@_05GKAFEFNP@4?08?04@
CONST	SEGMENT
??_C@_05GKAFEFNP@4?08?04@ DB '4,8,4', 00H		; `string'
CONST	ENDS
;	COMDAT ??_C@_03GEANJIEE@NOP@
CONST	SEGMENT
??_C@_03GEANJIEE@NOP@ DB 'NOP', 00H			; `string'
CONST	ENDS
;	COMDAT ??_C@_08MDAIHEMI@IMUL_RCP@
CONST	SEGMENT
??_C@_08MDAIHEMI@IMUL_RCP@ DB 'IMUL_RCP', 00H		; `string'
CONST	ENDS
;	COMDAT ??_C@_08OFDPLEBE@ISMULH_R@
CONST	SEGMENT
??_C@_08OFDPLEBE@ISMULH_R@ DB 'ISMULH_R', 00H		; `string'
CONST	ENDS
;	COMDAT ??_C@_07PJFOOHGM@IMULH_R@
CONST	SEGMENT
??_C@_07PJFOOHGM@IMULH_R@ DB 'IMULH_R', 00H		; `string'
CONST	ENDS
;	COMDAT ??_C@_07OPNONLEF@IXOR_C9@
CONST	SEGMENT
??_C@_07OPNONLEF@IXOR_C9@ DB 'IXOR_C9', 00H		; `string'
CONST	ENDS
;	COMDAT ??_C@_07JIPPJALJ@IADD_C9@
CONST	SEGMENT
??_C@_07JIPPJALJ@IADD_C9@ DB 'IADD_C9', 00H		; `string'
CONST	ENDS
;	COMDAT ??_C@_07PGMFOKAE@IXOR_C8@
CONST	SEGMENT
??_C@_07PGMFOKAE@IXOR_C8@ DB 'IXOR_C8', 00H		; `string'
CONST	ENDS
;	COMDAT ??_C@_07IBOEKBPI@IADD_C8@
CONST	SEGMENT
??_C@_07IBOEKBPI@IADD_C8@ DB 'IADD_C8', 00H		; `string'
CONST	ENDS
;	COMDAT ??_C@_07HBFNPGML@IXOR_C7@
CONST	SEGMENT
??_C@_07HBFNPGML@IXOR_C7@ DB 'IXOR_C7', 00H		; `string'
CONST	ENDS
;	COMDAT ??_C@_07GHMLNDH@IADD_C7@
CONST	SEGMENT
??_C@_07GHMLNDH@IADD_C7@ DB 'IADD_C7', 00H		; `string'
CONST	ENDS
;	COMDAT ??_C@_06PFFFMECN@IROR_C@
CONST	SEGMENT
??_C@_06PFFFMECN@IROR_C@ DB 'IROR_C', 00H		; `string'
CONST	ENDS
;	COMDAT ??_C@_06MOJKPIPM@IMUL_R@
CONST	SEGMENT
??_C@_06MOJKPIPM@IMUL_R@ DB 'IMUL_R', 00H		; `string'
CONST	ENDS
;	COMDAT ??_C@_07BKAJNKND@IADD_RS@
CONST	SEGMENT
??_C@_07BKAJNKND@IADD_RS@ DB 'IADD_RS', 00H		; `string'
CONST	ENDS
;	COMDAT ??_C@_06HBHMEFL@IXOR_R@
CONST	SEGMENT
??_C@_06HBHMEFL@IXOR_R@ DB 'IXOR_R', 00H		; `string'
CONST	ENDS
;	COMDAT ??_C@_06BHJJOMCE@ISUB_R@
CONST	SEGMENT
??_C@_06BHJJOMCE@ISUB_R@ DB 'ISUB_R', 00H		; `string'
CONST	ENDS
;	COMDAT ??_C@_0L@MJJNFFJ@testjz?5r?0i@
CONST	SEGMENT
??_C@_0L@MJJNFFJ@testjz?5r?0i@ DB 'testjz r,i', 00H	; `string'
CONST	ENDS
;	COMDAT ??_C@_08CDONMACD@setcc?5cl@
CONST	SEGMENT
??_C@_08CDONMACD@setcc?5cl@ DB 'setcc cl', 00H		; `string'
CONST	ENDS
;	COMDAT ??_C@_07KAGFIPFD@cmp?5r?0i@
CONST	SEGMENT
??_C@_07KAGFIPFD@cmp?5r?0i@ DB 'cmp r,i', 00H		; `string'
CONST	ENDS
;	COMDAT ??_C@_0M@MOCHBIMO@xor?5rcx?0rcx@
CONST	SEGMENT
??_C@_0M@MOCHBIMO@xor?5rcx?0rcx@ DB 'xor rcx,rcx', 00H	; `string'
CONST	ENDS
;	COMDAT ??_C@_08FIBMIENK@ror?5r?0cl@
CONST	SEGMENT
??_C@_08FIBMIENK@ror?5r?0cl@ DB 'ror r,cl', 00H		; `string'
CONST	ENDS
;	COMDAT ??_C@_0M@HFELAPLN@mov?5rax?0i64@
CONST	SEGMENT
??_C@_0M@HFELAPLN@mov?5rax?0i64@ DB 'mov rax,i64', 00H	; `string'
CONST	ENDS
;	COMDAT ??_C@_07FLODBCAM@xor?5r?0i@
CONST	SEGMENT
??_C@_07FLODBCAM@xor?5r?0i@ DB 'xor r,i', 00H		; `string'
CONST	ENDS
;	COMDAT ??_C@_07OPJPINHA@add?5r?0i@
CONST	SEGMENT
??_C@_07OPJPINHA@add?5r?0i@ DB 'add r,i', 00H		; `string'
CONST	ENDS
;	COMDAT ??_C@_07MKCDAOME@ror?5r?0i@
CONST	SEGMENT
??_C@_07MKCDAOME@ror?5r?0i@ DB 'ror r,i', 00H		; `string'
CONST	ENDS
;	COMDAT ??_C@_08EPBHLKIK@imul?5r?0r@
CONST	SEGMENT
??_C@_08EPBHLKIK@imul?5r?0r@ DB 'imul r,r', 00H		; `string'
CONST	ENDS
;	COMDAT ??_C@_0M@NCEIDJEA@lea?5r?0r?$CLr?$CKs@
CONST	SEGMENT
??_C@_0M@NCEIDJEA@lea?5r?0r?$CLr?$CKs@ DB 'lea r,r+r*s', 00H ; `string'
CONST	ENDS
;	COMDAT ??_C@_07FNBPKEMP@mov?5r?0r@
CONST	SEGMENT
??_C@_07FNBPKEMP@mov?5r?0r@ DB 'mov r,r', 00H		; `string'
CONST	ENDS
;	COMDAT ??_C@_05JPNBDIEI@mul?5r@
CONST	SEGMENT
??_C@_05JPNBDIEI@mul?5r@ DB 'mul r', 00H		; `string'
CONST	ENDS
;	COMDAT ??_C@_06KNFBEPKD@imul?5r@
CONST	SEGMENT
??_C@_06KNFBEPKD@imul?5r@ DB 'imul r', 00H		; `string'
CONST	ENDS
;	COMDAT ??_C@_07PCNFNJJG@xor?5r?0r@
CONST	SEGMENT
??_C@_07PCNFNJJG@xor?5r?0r@ DB 'xor r,r', 00H		; `string'
CONST	ENDS
;	COMDAT ??_C@_07GPMHAENL@sub?5r?0r@
CONST	SEGMENT
??_C@_07GPMHAENL@sub?5r?0r@ DB 'sub r,r', 00H		; `string'
CONST	ENDS
;	COMDAT ??_C@_07EGKJEGOK@add?5r?0r@
CONST	SEGMENT
??_C@_07EGKJEGOK@add?5r?0r@ DB 'add r,r', 00H		; `string'
?_Fake_alloc@std@@3U_Fake_allocator@1@B	ORG $+1		; std::_Fake_alloc
?buffer0@randomx@@3QBHB DD 04H				; randomx::buffer0
	DD	08H
	DD	04H
	ORG $+4
?slot_10@randomx@@3PEBVSuperscalarInstructionInfo@1@EB DQ FLAT:?IMUL_RCP@SuperscalarInstructionInfo@randomx@@2V12@B ; randomx::slot_10
?slot_8@randomx@@3PAPEBVSuperscalarInstructionInfo@1@A DQ FLAT:?IXOR_C8@SuperscalarInstructionInfo@randomx@@2V12@B ; randomx::slot_8
	DQ	FLAT:?IADD_C8@SuperscalarInstructionInfo@randomx@@2V12@B
?slot_3@randomx@@3PAPEBVSuperscalarInstructionInfo@1@A DQ FLAT:?ISUB_R@SuperscalarInstructionInfo@randomx@@2V12@B ; randomx::slot_3
	DQ	FLAT:?IXOR_R@SuperscalarInstructionInfo@randomx@@2V12@B
?buffer5@randomx@@3QBHB DD 03H				; randomx::buffer5
	DD	03H
	DD	0aH
	ORG $+4
?buffer1@randomx@@3QBHB DD 07H				; randomx::buffer1
	DD	03H
	DD	03H
	DD	03H
?buffer3@randomx@@3QBHB DD 04H				; randomx::buffer3
	DD	09H
	DD	03H
	ORG $+4
?decodeBuffers@DecoderBuffer@randomx@@0PAPEBV12@A DQ FLAT:?decodeBuffer484@DecoderBuffer@randomx@@0V12@B ; randomx::DecoderBuffer::decodeBuffers
	DQ	FLAT:?decodeBuffer7333@DecoderBuffer@randomx@@0V12@B
	DQ	FLAT:?decodeBuffer3733@DecoderBuffer@randomx@@0V12@B
	DQ	FLAT:?decodeBuffer493@DecoderBuffer@randomx@@0V12@B
?buffer4@randomx@@3QBHB DD 04H				; randomx::buffer4
	DD	04H
	DD	04H
	DD	04H
?slot_9@randomx@@3PAPEBVSuperscalarInstructionInfo@1@A DQ FLAT:?IXOR_C9@SuperscalarInstructionInfo@randomx@@2V12@B ; randomx::slot_9
	DQ	FLAT:?IADD_C9@SuperscalarInstructionInfo@randomx@@2V12@B
?slot_4@randomx@@3PAPEBVSuperscalarInstructionInfo@1@A DQ FLAT:?IROR_C@SuperscalarInstructionInfo@randomx@@2V12@B ; randomx::slot_4
	DQ	FLAT:?IADD_RS@SuperscalarInstructionInfo@randomx@@2V12@B
?buffer2@randomx@@3QBHB DD 03H				; randomx::buffer2
	DD	07H
	DD	03H
	DD	03H
?slot_7@randomx@@3PAPEBVSuperscalarInstructionInfo@1@A DQ FLAT:?IXOR_C7@SuperscalarInstructionInfo@randomx@@2V12@B ; randomx::slot_7
	DQ	FLAT:?IADD_C7@SuperscalarInstructionInfo@randomx@@2V12@B
?slot_3L@randomx@@3PAPEBVSuperscalarInstructionInfo@1@A DQ FLAT:?ISUB_R@SuperscalarInstructionInfo@randomx@@2V12@B ; randomx::slot_3L
	DQ	FLAT:?IXOR_R@SuperscalarInstructionInfo@randomx@@2V12@B
	DQ	FLAT:?IMULH_R@SuperscalarInstructionInfo@randomx@@2V12@B
	DQ	FLAT:?ISMULH_R@SuperscalarInstructionInfo@randomx@@2V12@B
PUBLIC	??$_Emplace_back@VMacroOp@randomx@@@?$_Uninitialized_backout_al@V?$allocator@VMacroOp@randomx@@@std@@@std@@QEAAX$$QEAVMacroOp@randomx@@@Z ; std::_Uninitialized_backout_al<std::allocator<randomx::MacroOp> >::_Emplace_back<randomx::MacroOp>
PUBLIC	??$_To_address@PEAVMacroOp@randomx@@@std@@YA?A_PAEBQEAVMacroOp@randomx@@@Z ; std::_To_address<randomx::MacroOp *>
PUBLIC	??$_Copy_memmove@PEAVMacroOp@randomx@@PEAV12@@std@@YAPEAVMacroOp@randomx@@PEAV12@00@Z ; std::_Copy_memmove<randomx::MacroOp *,randomx::MacroOp *>
PUBLIC	??$_Voidify_iter@PEAVMacroOp@randomx@@@std@@YAPEAXPEAVMacroOp@randomx@@@Z ; std::_Voidify_iter<randomx::MacroOp *>
PUBLIC	??$addressof@VMacroOp@randomx@@@std@@YAPEAVMacroOp@randomx@@AEAV12@@Z ; std::addressof<randomx::MacroOp>
PUBLIC	??0?$_Uninitialized_backout_al@V?$allocator@VMacroOp@randomx@@@std@@@std@@QEAA@PEAVMacroOp@randomx@@AEAV?$allocator@VMacroOp@randomx@@@1@@Z ; std::_Uninitialized_backout_al<std::allocator<randomx::MacroOp> >::_Uninitialized_backout_al<std::allocator<randomx::MacroOp> >
PUBLIC	??1?$_Uninitialized_backout_al@V?$allocator@VMacroOp@randomx@@@std@@@std@@QEAA@XZ ; std::_Uninitialized_backout_al<std::allocator<randomx::MacroOp> >::~_Uninitialized_backout_al<std::allocator<randomx::MacroOp> >
PUBLIC	?_Release@?$_Uninitialized_backout_al@V?$allocator@VMacroOp@randomx@@@std@@@std@@QEAAPEAVMacroOp@randomx@@XZ ; std::_Uninitialized_backout_al<std::allocator<randomx::MacroOp> >::_Release
PUBLIC	??$_Uninitialized_move@PEAVMacroOp@randomx@@V?$allocator@VMacroOp@randomx@@@std@@@std@@YAPEAVMacroOp@randomx@@QEAV12@0PEAV12@AEAV?$allocator@VMacroOp@randomx@@@0@@Z ; std::_Uninitialized_move<randomx::MacroOp *,std::allocator<randomx::MacroOp> >
PUBLIC	??$_Get_unwrapped@AEBQEAVMacroOp@randomx@@@std@@YA?A_TAEBQEAVMacroOp@randomx@@@Z ; std::_Get_unwrapped<randomx::MacroOp * const &>
PUBLIC	??$construct@VMacroOp@randomx@@V12@@?$_Default_allocator_traits@V?$allocator@VMacroOp@randomx@@@std@@@std@@SAXAEAV?$allocator@VMacroOp@randomx@@@1@QEAVMacroOp@randomx@@$$QEAV34@@Z ; std::_Default_allocator_traits<std::allocator<randomx::MacroOp> >::construct<randomx::MacroOp,randomx::MacroOp>
PUBLIC	??$_Unfancy@VMacroOp@randomx@@@std@@YAPEAVMacroOp@randomx@@PEAV12@@Z ; std::_Unfancy<randomx::MacroOp>
PUBLIC	??$_Construct_in_place@VMacroOp@randomx@@V12@@std@@YAXAEAVMacroOp@randomx@@$$QEAV12@@Z ; std::_Construct_in_place<randomx::MacroOp,randomx::MacroOp>
PUBLIC	??$_Construct_in_place@HH@std@@YAXAEAH$$QEAH@Z	; std::_Construct_in_place<int,int>
PUBLIC	?_Get_first@?$_Compressed_pair@V?$allocator@VMacroOp@randomx@@@std@@V?$_Vector_val@U?$_Simple_types@VMacroOp@randomx@@@std@@@2@$00@std@@QEBAAEBV?$allocator@VMacroOp@randomx@@@2@XZ ; std::_Compressed_pair<std::allocator<randomx::MacroOp>,std::_Vector_val<std::_Simple_types<randomx::MacroOp> >,1>::_Get_first
PUBLIC	?max_size@?$_Default_allocator_traits@V?$allocator@VMacroOp@randomx@@@std@@@std@@SA_KAEBV?$allocator@VMacroOp@randomx@@@2@@Z ; std::_Default_allocator_traits<std::allocator<randomx::MacroOp> >::max_size
PUBLIC	?capacity@?$vector@VMacroOp@randomx@@V?$allocator@VMacroOp@randomx@@@std@@@std@@QEBA_KXZ ; std::vector<randomx::MacroOp,std::allocator<randomx::MacroOp> >::capacity
PUBLIC	?_Getal@?$vector@VMacroOp@randomx@@V?$allocator@VMacroOp@randomx@@@std@@@std@@AEBAAEBV?$allocator@VMacroOp@randomx@@@2@XZ ; std::vector<randomx::MacroOp,std::allocator<randomx::MacroOp> >::_Getal
PUBLIC	?allocate@?$allocator@VMacroOp@randomx@@@std@@QEAAPEAVMacroOp@randomx@@_K@Z ; std::allocator<randomx::MacroOp>::allocate
PUBLIC	?max_size@?$vector@VMacroOp@randomx@@V?$allocator@VMacroOp@randomx@@@std@@@std@@QEBA_KXZ ; std::vector<randomx::MacroOp,std::allocator<randomx::MacroOp> >::max_size
PUBLIC	?_Calculate_growth@?$vector@VMacroOp@randomx@@V?$allocator@VMacroOp@randomx@@@std@@@std@@AEBA_K_K@Z ; std::vector<randomx::MacroOp,std::allocator<randomx::MacroOp> >::_Calculate_growth
PUBLIC	?_Change_array@?$vector@VMacroOp@randomx@@V?$allocator@VMacroOp@randomx@@@std@@@std@@AEAAXQEAVMacroOp@randomx@@_K1@Z ; std::vector<randomx::MacroOp,std::allocator<randomx::MacroOp> >::_Change_array
PUBLIC	?_Xlength@?$vector@VMacroOp@randomx@@V?$allocator@VMacroOp@randomx@@@std@@@std@@CAXXZ ; std::vector<randomx::MacroOp,std::allocator<randomx::MacroOp> >::_Xlength
PUBLIC	?_Orphan_range@?$vector@VMacroOp@randomx@@V?$allocator@VMacroOp@randomx@@@std@@@std@@AEBAXPEAVMacroOp@randomx@@0@Z ; std::vector<randomx::MacroOp,std::allocator<randomx::MacroOp> >::_Orphan_range
PUBLIC	??$_Emplace_reallocate@VMacroOp@randomx@@@?$vector@VMacroOp@randomx@@V?$allocator@VMacroOp@randomx@@@std@@@std@@AEAAPEAVMacroOp@randomx@@QEAV23@$$QEAV23@@Z ; std::vector<randomx::MacroOp,std::allocator<randomx::MacroOp> >::_Emplace_reallocate<randomx::MacroOp>
PUBLIC	??$_Emplace_back_with_unused_capacity@VMacroOp@randomx@@@?$vector@VMacroOp@randomx@@V?$allocator@VMacroOp@randomx@@@std@@@std@@AEAAAEAVMacroOp@randomx@@$$QEAV23@@Z ; std::vector<randomx::MacroOp,std::allocator<randomx::MacroOp> >::_Emplace_back_with_unused_capacity<randomx::MacroOp>
PUBLIC	??$forward@VMacroOp@randomx@@@std@@YA$$QEAVMacroOp@randomx@@AEAV12@@Z ; std::forward<randomx::MacroOp>
PUBLIC	??$_Emplace_reallocate@H@?$vector@HV?$allocator@H@std@@@std@@AEAAPEAHQEAH$$QEAH@Z ; std::vector<int,std::allocator<int> >::_Emplace_reallocate<int>
PUBLIC	??$_Emplace_back_with_unused_capacity@H@?$vector@HV?$allocator@H@std@@@std@@AEAAAEAH$$QEAH@Z ; std::vector<int,std::allocator<int> >::_Emplace_back_with_unused_capacity<int>
PUBLIC	??0?$allocator@VMacroOp@randomx@@@std@@QEAA@XZ	; std::allocator<randomx::MacroOp>::allocator<randomx::MacroOp>
PUBLIC	?back@?$vector@VMacroOp@randomx@@V?$allocator@VMacroOp@randomx@@@std@@@std@@QEAAAEAVMacroOp@randomx@@XZ ; std::vector<randomx::MacroOp,std::allocator<randomx::MacroOp> >::back
PUBLIC	??0?$_Vector_val@U?$_Simple_types@VMacroOp@randomx@@@std@@@std@@QEAA@XZ ; std::_Vector_val<std::_Simple_types<randomx::MacroOp> >::_Vector_val<std::_Simple_types<randomx::MacroOp> >
PUBLIC	?sputn@?$basic_streambuf@DU?$char_traits@D@std@@@std@@QEAA_JPEBD_J@Z ; std::basic_streambuf<char,std::char_traits<char> >::sputn
PUBLIC	??$_Destroy_range@V?$allocator@VMacroOp@randomx@@@std@@@std@@YAXPEAVMacroOp@randomx@@QEAV12@AEAV?$allocator@VMacroOp@randomx@@@0@@Z ; std::_Destroy_range<std::allocator<randomx::MacroOp> >
PUBLIC	??$?0$$V@?$_Compressed_pair@V?$allocator@VMacroOp@randomx@@@std@@V?$_Vector_val@U?$_Simple_types@VMacroOp@randomx@@@std@@@2@$00@std@@QEAA@U_Zero_then_variadic_args_t@1@@Z ; std::_Compressed_pair<std::allocator<randomx::MacroOp>,std::_Vector_val<std::_Simple_types<randomx::MacroOp> >,1>::_Compressed_pair<std::allocator<randomx::MacroOp>,std::_Vector_val<std::_Simple_types<randomx::MacroOp> >,1><>
PUBLIC	??$_Emplace_one_at_back@VMacroOp@randomx@@@?$vector@VMacroOp@randomx@@V?$allocator@VMacroOp@randomx@@@std@@@std@@AEAAAEAVMacroOp@randomx@@$$QEAV23@@Z ; std::vector<randomx::MacroOp,std::allocator<randomx::MacroOp> >::_Emplace_one_at_back<randomx::MacroOp>
PUBLIC	??$move@AEAVMacroOp@randomx@@@std@@YA$$QEAVMacroOp@randomx@@AEAV12@@Z ; std::move<randomx::MacroOp &>
PUBLIC	??$_Emplace_one_at_back@H@?$vector@HV?$allocator@H@std@@@std@@AEAAAEAH$$QEAH@Z ; std::vector<int,std::allocator<int> >::_Emplace_one_at_back<int>
PUBLIC	??$max@H@std@@YAAEBHAEBH0@Z			; std::max<int>
PUBLIC	??$?6U?$char_traits@D@std@@@std@@YAAEAV?$basic_ostream@DU?$char_traits@D@std@@@0@AEAV10@PEBD@Z ; std::operator<<<std::char_traits<char> >
PUBLIC	??$?0$03@DecoderBuffer@randomx@@QEAA@PEBDHAEAY03$$CBH@Z ; randomx::DecoderBuffer::DecoderBuffer<4>
PUBLIC	??$?0$02@DecoderBuffer@randomx@@QEAA@PEBDHAEAY02$$CBH@Z ; randomx::DecoderBuffer::DecoderBuffer<3>
PUBLIC	??$?0$01@SuperscalarInstructionInfo@randomx@@AEAA@PEBDW4SuperscalarInstructionType@1@AEAY01$$CBVMacroOp@1@HHH@Z ; randomx::SuperscalarInstructionInfo::SuperscalarInstructionInfo<2>
PUBLIC	??$?0$02@SuperscalarInstructionInfo@randomx@@AEAA@PEBDW4SuperscalarInstructionType@1@AEAY02$$CBVMacroOp@1@HHH@Z ; randomx::SuperscalarInstructionInfo::SuperscalarInstructionInfo<3>
PUBLIC	?deallocate@?$allocator@VMacroOp@randomx@@@std@@QEAAXQEAVMacroOp@randomx@@_K@Z ; std::allocator<randomx::MacroOp>::deallocate
PUBLIC	?_Get_first@?$_Compressed_pair@V?$allocator@VMacroOp@randomx@@@std@@V?$_Vector_val@U?$_Simple_types@VMacroOp@randomx@@@std@@@2@$00@std@@QEAAAEAV?$allocator@VMacroOp@randomx@@@2@XZ ; std::_Compressed_pair<std::allocator<randomx::MacroOp>,std::_Vector_val<std::_Simple_types<randomx::MacroOp> >,1>::_Get_first
PUBLIC	?_Tidy@?$vector@VMacroOp@randomx@@V?$allocator@VMacroOp@randomx@@@std@@@std@@AEAAXXZ ; std::vector<randomx::MacroOp,std::allocator<randomx::MacroOp> >::_Tidy
PUBLIC	?_Getal@?$vector@VMacroOp@randomx@@V?$allocator@VMacroOp@randomx@@@std@@@std@@AEAAAEAV?$allocator@VMacroOp@randomx@@@2@XZ ; std::vector<randomx::MacroOp,std::allocator<randomx::MacroOp> >::_Getal
PUBLIC	?put@?$num_put@DV?$ostreambuf_iterator@DU?$char_traits@D@std@@@std@@@std@@QEBA?AV?$ostreambuf_iterator@DU?$char_traits@D@std@@@2@V32@AEAVios_base@2@DJ@Z ; std::num_put<char,std::ostreambuf_iterator<char,std::char_traits<char> > >::put
PUBLIC	??6?$basic_ostream@DU?$char_traits@D@std@@@std@@QEAAAEAV01@H@Z ; std::basic_ostream<char,std::char_traits<char> >::operator<<
PUBLIC	??0?$vector@VMacroOp@randomx@@V?$allocator@VMacroOp@randomx@@@std@@@std@@QEAA@XZ ; std::vector<randomx::MacroOp,std::allocator<randomx::MacroOp> >::vector<randomx::MacroOp,std::allocator<randomx::MacroOp> >
PUBLIC	??1?$vector@VMacroOp@randomx@@V?$allocator@VMacroOp@randomx@@@std@@@std@@QEAA@XZ ; std::vector<randomx::MacroOp,std::allocator<randomx::MacroOp> >::~vector<randomx::MacroOp,std::allocator<randomx::MacroOp> >
PUBLIC	?push_back@?$vector@VMacroOp@randomx@@V?$allocator@VMacroOp@randomx@@@std@@@std@@QEAAX$$QEAVMacroOp@randomx@@@Z ; std::vector<randomx::MacroOp,std::allocator<randomx::MacroOp> >::push_back
PUBLIC	?size@?$vector@VMacroOp@randomx@@V?$allocator@VMacroOp@randomx@@@std@@@std@@QEBA_KXZ ; std::vector<randomx::MacroOp,std::allocator<randomx::MacroOp> >::size
PUBLIC	??A?$vector@VMacroOp@randomx@@V?$allocator@VMacroOp@randomx@@@std@@@std@@QEBAAEBVMacroOp@randomx@@_K@Z ; std::vector<randomx::MacroOp,std::allocator<randomx::MacroOp> >::operator[]
PUBLIC	?push_back@?$vector@HV?$allocator@H@std@@@std@@QEAAX$$QEAH@Z ; std::vector<int,std::allocator<int> >::push_back
PUBLIC	?size@?$vector@HV?$allocator@H@std@@@std@@QEBA_KXZ ; std::vector<int,std::allocator<int> >::size
PUBLIC	??_H@YAXPEAX_K1P6APEAX0@Z@Z			; `vector constructor iterator'
PUBLIC	??0SuperscalarInstruction@randomx@@AEAA@PEBVSuperscalarInstructionInfo@1@@Z ; randomx::SuperscalarInstruction::SuperscalarInstruction
PUBLIC	?reset@SuperscalarInstruction@randomx@@AEAAXXZ	; randomx::SuperscalarInstruction::reset
PUBLIC	?getInfo@SuperscalarInstruction@randomx@@QEBAAEBVSuperscalarInstructionInfo@2@XZ ; randomx::SuperscalarInstruction::getInfo
PUBLIC	?getGroupPar@SuperscalarInstruction@randomx@@QEAAHXZ ; randomx::SuperscalarInstruction::getGroupPar
PUBLIC	?getGroup@SuperscalarInstruction@randomx@@QEAA?AW4SuperscalarInstructionType@2@XZ ; randomx::SuperscalarInstruction::getGroup
PUBLIC	?getDestination@SuperscalarInstruction@randomx@@QEAAHXZ ; randomx::SuperscalarInstruction::getDestination
PUBLIC	?getSource@SuperscalarInstruction@randomx@@QEAAHXZ ; randomx::SuperscalarInstruction::getSource
PUBLIC	?getType@SuperscalarInstruction@randomx@@QEAA?AW4SuperscalarInstructionType@2@XZ ; randomx::SuperscalarInstruction::getType
PUBLIC	?selectSource@SuperscalarInstruction@randomx@@QEAA_NHAEAY07VRegisterInfo@2@AEAVBlake2Generator@2@@Z ; randomx::SuperscalarInstruction::selectSource
PUBLIC	?selectDestination@SuperscalarInstruction@randomx@@QEAA_NH_NAEAY07VRegisterInfo@2@AEAVBlake2Generator@2@@Z ; randomx::SuperscalarInstruction::selectDestination
PUBLIC	?create@SuperscalarInstruction@randomx@@QEAAXPEBVSuperscalarInstructionInfo@2@AEAVBlake2Generator@2@@Z ; randomx::SuperscalarInstruction::create
PUBLIC	?createForSlot@SuperscalarInstruction@randomx@@QEAAXAEAVBlake2Generator@2@HH_N1@Z ; randomx::SuperscalarInstruction::createForSlot
PUBLIC	?toInstr@SuperscalarInstruction@randomx@@QEAAXAEAVInstruction@2@@Z ; randomx::SuperscalarInstruction::toInstr
PUBLIC	??0RegisterInfo@randomx@@QEAA@XZ		; randomx::RegisterInfo::RegisterInfo
PUBLIC	?fetchNextDefault@DecoderBuffer@randomx@@AEBAPEBV12@AEAVBlake2Generator@2@@Z ; randomx::DecoderBuffer::fetchNextDefault
PUBLIC	??0DecoderBuffer@randomx@@AEAA@XZ		; randomx::DecoderBuffer::DecoderBuffer
PUBLIC	?fetchNext@DecoderBuffer@randomx@@QEBAPEBV12@W4SuperscalarInstructionType@2@HHAEAVBlake2Generator@2@@Z ; randomx::DecoderBuffer::fetchNext
PUBLIC	?getName@DecoderBuffer@randomx@@QEBAPEBDXZ	; randomx::DecoderBuffer::getName
PUBLIC	?getIndex@DecoderBuffer@randomx@@QEBAHXZ	; randomx::DecoderBuffer::getIndex
PUBLIC	?getSize@DecoderBuffer@randomx@@QEBAHXZ		; randomx::DecoderBuffer::getSize
PUBLIC	?getCounts@DecoderBuffer@randomx@@QEBAPEBHXZ	; randomx::DecoderBuffer::getCounts
PUBLIC	??1SuperscalarInstructionInfo@randomx@@QEAA@XZ	; randomx::SuperscalarInstructionInfo::~SuperscalarInstructionInfo
PUBLIC	??0SuperscalarInstructionInfo@randomx@@AEAA@PEBDW4SuperscalarInstructionType@1@AEBVMacroOp@1@H@Z ; randomx::SuperscalarInstructionInfo::SuperscalarInstructionInfo
PUBLIC	??0SuperscalarInstructionInfo@randomx@@AEAA@PEBD@Z ; randomx::SuperscalarInstructionInfo::SuperscalarInstructionInfo
PUBLIC	?getSrcOp@SuperscalarInstructionInfo@randomx@@QEBAHXZ ; randomx::SuperscalarInstructionInfo::getSrcOp
PUBLIC	?getDstOp@SuperscalarInstructionInfo@randomx@@QEBAHXZ ; randomx::SuperscalarInstructionInfo::getDstOp
PUBLIC	?getResultOp@SuperscalarInstructionInfo@randomx@@QEBAHXZ ; randomx::SuperscalarInstructionInfo::getResultOp
PUBLIC	?getType@SuperscalarInstructionInfo@randomx@@QEBA?AW4SuperscalarInstructionType@2@XZ ; randomx::SuperscalarInstructionInfo::getType
PUBLIC	?getOp@SuperscalarInstructionInfo@randomx@@QEBAAEBVMacroOp@2@H@Z ; randomx::SuperscalarInstructionInfo::getOp
PUBLIC	?getSize@SuperscalarInstructionInfo@randomx@@QEBAHXZ ; randomx::SuperscalarInstructionInfo::getSize
PUBLIC	?getName@SuperscalarInstructionInfo@randomx@@QEBAPEBDXZ ; randomx::SuperscalarInstructionInfo::getName
PUBLIC	?isDependent@MacroOp@randomx@@QEBA_NXZ		; randomx::MacroOp::isDependent
PUBLIC	?isEliminated@MacroOp@randomx@@QEBA_NXZ		; randomx::MacroOp::isEliminated
PUBLIC	?isSimple@MacroOp@randomx@@QEBA_NXZ		; randomx::MacroOp::isSimple
PUBLIC	?getUop2@MacroOp@randomx@@QEBAHXZ		; randomx::MacroOp::getUop2
PUBLIC	?getUop1@MacroOp@randomx@@QEBAHXZ		; randomx::MacroOp::getUop1
PUBLIC	?getLatency@MacroOp@randomx@@QEBAHXZ		; randomx::MacroOp::getLatency
PUBLIC	?getSize@MacroOp@randomx@@QEBAHXZ		; randomx::MacroOp::getSize
PUBLIC	?getName@MacroOp@randomx@@QEBAPEBDXZ		; randomx::MacroOp::getName
PUBLIC	??0MacroOp@randomx@@QEAA@AEBV01@_N@Z		; randomx::MacroOp::MacroOp
PUBLIC	??0MacroOp@randomx@@QEAA@PEBDHHHH@Z		; randomx::MacroOp::MacroOp
PUBLIC	??0MacroOp@randomx@@QEAA@PEBDHHH@Z		; randomx::MacroOp::MacroOp
PUBLIC	??0MacroOp@randomx@@QEAA@PEBDH@Z		; randomx::MacroOp::MacroOp
PUBLIC	?setAddressRegister@SuperscalarProgram@randomx@@QEAAXH@Z ; randomx::SuperscalarProgram::setAddressRegister
PUBLIC	?setSize@SuperscalarProgram@randomx@@QEAAXI@Z	; randomx::SuperscalarProgram::setSize
PUBLIC	?setMod@Instruction@randomx@@QEAAXE@Z		; randomx::Instruction::setMod
PUBLIC	?generateSuperscalar@randomx@@YAXAEAVSuperscalarProgram@1@AEAVBlake2Generator@1@@Z ; randomx::generateSuperscalar
PUBLIC	?executeSuperscalar@randomx@@YAXAEAY07_KAEAVSuperscalarProgram@1@PEAV?$vector@_KV?$allocator@_K@std@@@std@@@Z ; randomx::executeSuperscalar
PUBLIC	?IXOR_R@SuperscalarInstructionInfo@randomx@@2V12@B ; randomx::SuperscalarInstructionInfo::IXOR_R
PUBLIC	?IADD_C9@SuperscalarInstructionInfo@randomx@@2V12@B ; randomx::SuperscalarInstructionInfo::IADD_C9
PUBLIC	?Cmp_ri@MacroOp@randomx@@2V12@B			; randomx::MacroOp::Cmp_ri
PUBLIC	?decodeBuffer493@DecoderBuffer@randomx@@0V12@B	; randomx::DecoderBuffer::decodeBuffer493
PUBLIC	?Ror_rcl@MacroOp@randomx@@2V12@B		; randomx::MacroOp::Ror_rcl
PUBLIC	?IMULH_R@SuperscalarInstructionInfo@randomx@@2V12@B ; randomx::SuperscalarInstructionInfo::IMULH_R
PUBLIC	?Lea_sib@MacroOp@randomx@@2V12@B		; randomx::MacroOp::Lea_sib
PUBLIC	?TestJz_fused@MacroOp@randomx@@2V12@B		; randomx::MacroOp::TestJz_fused
PUBLIC	?ISMULH_R@SuperscalarInstructionInfo@randomx@@2V12@B ; randomx::SuperscalarInstructionInfo::ISMULH_R
PUBLIC	?NOP@SuperscalarInstructionInfo@randomx@@2V12@B	; randomx::SuperscalarInstructionInfo::NOP
PUBLIC	?Xor_self@MacroOp@randomx@@2V12@B		; randomx::MacroOp::Xor_self
PUBLIC	?Setcc_r@MacroOp@randomx@@2V12@B		; randomx::MacroOp::Setcc_r
PUBLIC	?Imul_r@MacroOp@randomx@@2V12@B			; randomx::MacroOp::Imul_r
PUBLIC	?IXOR_C9@SuperscalarInstructionInfo@randomx@@2V12@B ; randomx::SuperscalarInstructionInfo::IXOR_C9
PUBLIC	?decodeBuffer3733@DecoderBuffer@randomx@@0V12@B	; randomx::DecoderBuffer::decodeBuffer3733
PUBLIC	?Add_ri@MacroOp@randomx@@2V12@B			; randomx::MacroOp::Add_ri
PUBLIC	?Imul_rr@MacroOp@randomx@@2V12@B		; randomx::MacroOp::Imul_rr
PUBLIC	?Mul_r@MacroOp@randomx@@2V12@B			; randomx::MacroOp::Mul_r
PUBLIC	?Null@SuperscalarInstruction@randomx@@2V12@B	; randomx::SuperscalarInstruction::Null
PUBLIC	?decodeBuffer484@DecoderBuffer@randomx@@0V12@B	; randomx::DecoderBuffer::decodeBuffer484
PUBLIC	?decodeBuffer3310@DecoderBuffer@randomx@@0V12@B	; randomx::DecoderBuffer::decodeBuffer3310
PUBLIC	?IROR_C@SuperscalarInstructionInfo@randomx@@2V12@B ; randomx::SuperscalarInstructionInfo::IROR_C
PUBLIC	?IADD_C7@SuperscalarInstructionInfo@randomx@@2V12@B ; randomx::SuperscalarInstructionInfo::IADD_C7
PUBLIC	?Ror_ri@MacroOp@randomx@@2V12@B			; randomx::MacroOp::Ror_ri
PUBLIC	?Xor_ri@MacroOp@randomx@@2V12@B			; randomx::MacroOp::Xor_ri
PUBLIC	?decodeBuffer7333@DecoderBuffer@randomx@@0V12@B	; randomx::DecoderBuffer::decodeBuffer7333
PUBLIC	?IXOR_C7@SuperscalarInstructionInfo@randomx@@2V12@B ; randomx::SuperscalarInstructionInfo::IXOR_C7
PUBLIC	?decodeBuffer4444@DecoderBuffer@randomx@@0V12@B	; randomx::DecoderBuffer::decodeBuffer4444
PUBLIC	?IMUL_R@SuperscalarInstructionInfo@randomx@@2V12@B ; randomx::SuperscalarInstructionInfo::IMUL_R
PUBLIC	?IADD_RS@SuperscalarInstructionInfo@randomx@@2V12@B ; randomx::SuperscalarInstructionInfo::IADD_RS
PUBLIC	?Default@DecoderBuffer@randomx@@2V12@B		; randomx::DecoderBuffer::Default
PUBLIC	?ISUB_R@SuperscalarInstructionInfo@randomx@@2V12@B ; randomx::SuperscalarInstructionInfo::ISUB_R
PUBLIC	?Mov_rr@MacroOp@randomx@@2V12@B			; randomx::MacroOp::Mov_rr
PUBLIC	?Add_rr@MacroOp@randomx@@2V12@B			; randomx::MacroOp::Add_rr
PUBLIC	?Mov_ri64@MacroOp@randomx@@2V12@B		; randomx::MacroOp::Mov_ri64
PUBLIC	?IADD_C8@SuperscalarInstructionInfo@randomx@@2V12@B ; randomx::SuperscalarInstructionInfo::IADD_C8
PUBLIC	?IMUL_RCP@SuperscalarInstructionInfo@randomx@@2V12@B ; randomx::SuperscalarInstructionInfo::IMUL_RCP
PUBLIC	?Sub_rr@MacroOp@randomx@@2V12@B			; randomx::MacroOp::Sub_rr
PUBLIC	?Xor_rr@MacroOp@randomx@@2V12@B			; randomx::MacroOp::Xor_rr
PUBLIC	?IXOR_C8@SuperscalarInstructionInfo@randomx@@2V12@B ; randomx::SuperscalarInstructionInfo::IXOR_C8
?IMULH_R_ops_array@randomx@@3QBVMacroOp@1@B DB 060H DUP (?) ; randomx::IMULH_R_ops_array
?ISMULH_R_ops_array@randomx@@3QBVMacroOp@1@B DB 060H DUP (?) ; randomx::ISMULH_R_ops_array
_BSS	ENDS
;	COMDAT pdata
pdata	SEGMENT
$pdata$??$_Copy_memmove@PEAVMacroOp@randomx@@PEAV12@@std@@YAPEAVMacroOp@randomx@@PEAV12@00@Z DD imagerel $LN4
	DD	imagerel $LN4+48
	DD	imagerel $unwind$??$_Copy_memmove@PEAVMacroOp@randomx@@PEAV12@@std@@YAPEAVMacroOp@randomx@@PEAV12@00@Z
pdata	ENDS
;	COMDAT pdata
pdata	SEGMENT
$pdata$??$_Uninitialized_move@PEAVMacroOp@randomx@@V?$allocator@VMacroOp@randomx@@@std@@@std@@YAPEAVMacroOp@randomx@@QEAV12@0PEAV12@AEAV?$allocator@VMacroOp@randomx@@@0@@Z DD imagerel $LN18
	DD	imagerel $LN18+52
	DD	imagerel $unwind$??$_Uninitialized_move@PEAVMacroOp@randomx@@V?$allocator@VMacroOp@randomx@@@std@@@std@@YAPEAVMacroOp@randomx@@QEAV12@0PEAV12@AEAV?$allocator@VMacroOp@randomx@@@0@@Z
pdata	ENDS
;	COMDAT pdata
pdata	SEGMENT
$pdata$?allocate@?$allocator@VMacroOp@randomx@@@std@@QEAAPEAVMacroOp@randomx@@_K@Z DD imagerel $LN31
	DD	imagerel $LN31+107
	DD	imagerel $unwind$?allocate@?$allocator@VMacroOp@randomx@@@std@@QEAAPEAVMacroOp@randomx@@_K@Z
pdata	ENDS
;	COMDAT pdata
pdata	SEGMENT
$pdata$?_Change_array@?$vector@VMacroOp@randomx@@V?$allocator@VMacroOp@randomx@@@std@@@std@@AEAAXQEAVMacroOp@randomx@@_K1@Z DD imagerel $LN25
	DD	imagerel $LN25+141
	DD	imagerel $unwind$?_Change_array@?$vector@VMacroOp@randomx@@V?$allocator@VMacroOp@randomx@@@std@@@std@@AEAAXQEAVMacroOp@randomx@@_K1@Z
pdata	ENDS
;	COMDAT pdata
pdata	SEGMENT
$pdata$?_Xlength@?$vector@VMacroOp@randomx@@V?$allocator@VMacroOp@randomx@@@std@@@std@@CAXXZ DD imagerel $LN4
	DD	imagerel $LN4+17
	DD	imagerel $unwind$?_Xlength@?$vector@VMacroOp@randomx@@V?$allocator@VMacroOp@randomx@@@std@@@std@@CAXXZ
pdata	ENDS
;	COMDAT pdata
pdata	SEGMENT
$pdata$??$_Emplace_reallocate@VMacroOp@randomx@@@?$vector@VMacroOp@randomx@@V?$allocator@VMacroOp@randomx@@@std@@@std@@AEAAPEAVMacroOp@randomx@@QEAV23@$$QEAV23@@Z DD imagerel $LN123
	DD	imagerel $LN123+71
	DD	imagerel $unwind$??$_Emplace_reallocate@VMacroOp@randomx@@@?$vector@VMacroOp@randomx@@V?$allocator@VMacroOp@randomx@@@std@@@std@@AEAAPEAVMacroOp@randomx@@QEAV23@$$QEAV23@@Z
pdata	ENDS
;	COMDAT pdata
pdata	SEGMENT
$pdata$1$??$_Emplace_reallocate@VMacroOp@randomx@@@?$vector@VMacroOp@randomx@@V?$allocator@VMacroOp@randomx@@@std@@@std@@AEAAPEAVMacroOp@randomx@@QEAV23@$$QEAV23@@Z DD imagerel $LN123+71
	DD	imagerel $LN123+385
	DD	imagerel $chain$1$??$_Emplace_reallocate@VMacroOp@randomx@@@?$vector@VMacroOp@randomx@@V?$allocator@VMacroOp@randomx@@@std@@@std@@AEAAPEAVMacroOp@randomx@@QEAV23@$$QEAV23@@Z
pdata	ENDS
;	COMDAT pdata
pdata	SEGMENT
$pdata$3$??$_Emplace_reallocate@VMacroOp@randomx@@@?$vector@VMacroOp@randomx@@V?$allocator@VMacroOp@randomx@@@std@@@std@@AEAAPEAVMacroOp@randomx@@QEAV23@$$QEAV23@@Z DD imagerel $LN123+385
	DD	imagerel $LN123+397
	DD	imagerel $chain$3$??$_Emplace_reallocate@VMacroOp@randomx@@@?$vector@VMacroOp@randomx@@V?$allocator@VMacroOp@randomx@@@std@@@std@@AEAAPEAVMacroOp@randomx@@QEAV23@$$QEAV23@@Z
pdata	ENDS
;	COMDAT pdata
pdata	SEGMENT
$pdata$4$??$_Emplace_reallocate@VMacroOp@randomx@@@?$vector@VMacroOp@randomx@@V?$allocator@VMacroOp@randomx@@@std@@@std@@AEAAPEAVMacroOp@randomx@@QEAV23@$$QEAV23@@Z DD imagerel $LN123+397
	DD	imagerel $LN123+403
	DD	imagerel $chain$4$??$_Emplace_reallocate@VMacroOp@randomx@@@?$vector@VMacroOp@randomx@@V?$allocator@VMacroOp@randomx@@@std@@@std@@AEAAPEAVMacroOp@randomx@@QEAV23@$$QEAV23@@Z
pdata	ENDS
;	COMDAT pdata
pdata	SEGMENT
$pdata$??$_Emplace_reallocate@H@?$vector@HV?$allocator@H@std@@@std@@AEAAPEAHQEAH$$QEAH@Z DD imagerel $LN116
	DD	imagerel $LN116+70
	DD	imagerel $unwind$??$_Emplace_reallocate@H@?$vector@HV?$allocator@H@std@@@std@@AEAAPEAHQEAH$$QEAH@Z
pdata	ENDS
;	COMDAT pdata
pdata	SEGMENT
$pdata$2$??$_Emplace_reallocate@H@?$vector@HV?$allocator@H@std@@@std@@AEAAPEAHQEAH$$QEAH@Z DD imagerel $LN116+70
	DD	imagerel $LN116+381
	DD	imagerel $chain$2$??$_Emplace_reallocate@H@?$vector@HV?$allocator@H@std@@@std@@AEAAPEAHQEAH$$QEAH@Z
pdata	ENDS
;	COMDAT pdata
pdata	SEGMENT
$pdata$4$??$_Emplace_reallocate@H@?$vector@HV?$allocator@H@std@@@std@@AEAAPEAHQEAH$$QEAH@Z DD imagerel $LN116+381
	DD	imagerel $LN116+393
	DD	imagerel $chain$4$??$_Emplace_reallocate@H@?$vector@HV?$allocator@H@std@@@std@@AEAAPEAHQEAH$$QEAH@Z
pdata	ENDS
;	COMDAT pdata
pdata	SEGMENT
$pdata$5$??$_Emplace_reallocate@H@?$vector@HV?$allocator@H@std@@@std@@AEAAPEAHQEAH$$QEAH@Z DD imagerel $LN116+393
	DD	imagerel $LN116+399
	DD	imagerel $chain$5$??$_Emplace_reallocate@H@?$vector@HV?$allocator@H@std@@@std@@AEAAPEAHQEAH$$QEAH@Z
pdata	ENDS
;	COMDAT pdata
pdata	SEGMENT
$pdata$??$scheduleMop@$00@randomx@@YAHAEBVMacroOp@0@AEAY1KO@2HHH@Z DD imagerel ??$scheduleMop@$00@randomx@@YAHAEBVMacroOp@0@AEAY1KO@2HHH@Z
	DD	imagerel ??$scheduleMop@$00@randomx@@YAHAEBVMacroOp@0@AEAY1KO@2HHH@Z+39
	DD	imagerel $unwind$??$scheduleMop@$00@randomx@@YAHAEBVMacroOp@0@AEAY1KO@2HHH@Z
pdata	ENDS
;	COMDAT pdata
pdata	SEGMENT
$pdata$0$??$scheduleMop@$00@randomx@@YAHAEBVMacroOp@0@AEAY1KO@2HHH@Z DD imagerel ??$scheduleMop@$00@randomx@@YAHAEBVMacroOp@0@AEAY1KO@2HHH@Z+39
	DD	imagerel ??$scheduleMop@$00@randomx@@YAHAEBVMacroOp@0@AEAY1KO@2HHH@Z+168
	DD	imagerel $chain$0$??$scheduleMop@$00@randomx@@YAHAEBVMacroOp@0@AEAY1KO@2HHH@Z
pdata	ENDS
;	COMDAT pdata
pdata	SEGMENT
$pdata$2$??$scheduleMop@$00@randomx@@YAHAEBVMacroOp@0@AEAY1KO@2HHH@Z DD imagerel ??$scheduleMop@$00@randomx@@YAHAEBVMacroOp@0@AEAY1KO@2HHH@Z+168
	DD	imagerel ??$scheduleMop@$00@randomx@@YAHAEBVMacroOp@0@AEAY1KO@2HHH@Z+194
	DD	imagerel $chain$2$??$scheduleMop@$00@randomx@@YAHAEBVMacroOp@0@AEAY1KO@2HHH@Z
pdata	ENDS
;	COMDAT pdata
pdata	SEGMENT
$pdata$4$??$scheduleMop@$00@randomx@@YAHAEBVMacroOp@0@AEAY1KO@2HHH@Z DD imagerel ??$scheduleMop@$00@randomx@@YAHAEBVMacroOp@0@AEAY1KO@2HHH@Z+194
	DD	imagerel ??$scheduleMop@$00@randomx@@YAHAEBVMacroOp@0@AEAY1KO@2HHH@Z+219
	DD	imagerel $chain$4$??$scheduleMop@$00@randomx@@YAHAEBVMacroOp@0@AEAY1KO@2HHH@Z
pdata	ENDS
;	COMDAT pdata
pdata	SEGMENT
$pdata$6$??$scheduleMop@$00@randomx@@YAHAEBVMacroOp@0@AEAY1KO@2HHH@Z DD imagerel ??$scheduleMop@$00@randomx@@YAHAEBVMacroOp@0@AEAY1KO@2HHH@Z+219
	DD	imagerel ??$scheduleMop@$00@randomx@@YAHAEBVMacroOp@0@AEAY1KO@2HHH@Z+245
	DD	imagerel $chain$6$??$scheduleMop@$00@randomx@@YAHAEBVMacroOp@0@AEAY1KO@2HHH@Z
pdata	ENDS
;	COMDAT pdata
pdata	SEGMENT
$pdata$8$??$scheduleMop@$00@randomx@@YAHAEBVMacroOp@0@AEAY1KO@2HHH@Z DD imagerel ??$scheduleMop@$00@randomx@@YAHAEBVMacroOp@0@AEAY1KO@2HHH@Z+245
	DD	imagerel ??$scheduleMop@$00@randomx@@YAHAEBVMacroOp@0@AEAY1KO@2HHH@Z+487
	DD	imagerel $chain$8$??$scheduleMop@$00@randomx@@YAHAEBVMacroOp@0@AEAY1KO@2HHH@Z
pdata	ENDS
;	COMDAT pdata
pdata	SEGMENT
$pdata$10$??$scheduleMop@$00@randomx@@YAHAEBVMacroOp@0@AEAY1KO@2HHH@Z DD imagerel ??$scheduleMop@$00@randomx@@YAHAEBVMacroOp@0@AEAY1KO@2HHH@Z+487
	DD	imagerel ??$scheduleMop@$00@randomx@@YAHAEBVMacroOp@0@AEAY1KO@2HHH@Z+723
	DD	imagerel $chain$10$??$scheduleMop@$00@randomx@@YAHAEBVMacroOp@0@AEAY1KO@2HHH@Z
pdata	ENDS
;	COMDAT pdata
pdata	SEGMENT
$pdata$12$??$scheduleMop@$00@randomx@@YAHAEBVMacroOp@0@AEAY1KO@2HHH@Z DD imagerel ??$scheduleMop@$00@randomx@@YAHAEBVMacroOp@0@AEAY1KO@2HHH@Z+723
	DD	imagerel ??$scheduleMop@$00@randomx@@YAHAEBVMacroOp@0@AEAY1KO@2HHH@Z+749
	DD	imagerel $chain$12$??$scheduleMop@$00@randomx@@YAHAEBVMacroOp@0@AEAY1KO@2HHH@Z
pdata	ENDS
;	COMDAT pdata
pdata	SEGMENT
$pdata$14$??$scheduleMop@$00@randomx@@YAHAEBVMacroOp@0@AEAY1KO@2HHH@Z DD imagerel ??$scheduleMop@$00@randomx@@YAHAEBVMacroOp@0@AEAY1KO@2HHH@Z+749
	DD	imagerel ??$scheduleMop@$00@randomx@@YAHAEBVMacroOp@0@AEAY1KO@2HHH@Z+774
	DD	imagerel $chain$14$??$scheduleMop@$00@randomx@@YAHAEBVMacroOp@0@AEAY1KO@2HHH@Z
pdata	ENDS
;	COMDAT pdata
pdata	SEGMENT
$pdata$16$??$scheduleMop@$00@randomx@@YAHAEBVMacroOp@0@AEAY1KO@2HHH@Z DD imagerel ??$scheduleMop@$00@randomx@@YAHAEBVMacroOp@0@AEAY1KO@2HHH@Z+774
	DD	imagerel ??$scheduleMop@$00@randomx@@YAHAEBVMacroOp@0@AEAY1KO@2HHH@Z+800
	DD	imagerel $chain$16$??$scheduleMop@$00@randomx@@YAHAEBVMacroOp@0@AEAY1KO@2HHH@Z
pdata	ENDS
;	COMDAT pdata
pdata	SEGMENT
$pdata$??$scheduleMop@$0A@@randomx@@YAHAEBVMacroOp@0@AEAY1KO@2HHH@Z DD imagerel ??$scheduleMop@$0A@@randomx@@YAHAEBVMacroOp@0@AEAY1KO@2HHH@Z
	DD	imagerel ??$scheduleMop@$0A@@randomx@@YAHAEBVMacroOp@0@AEAY1KO@2HHH@Z+39
	DD	imagerel $unwind$??$scheduleMop@$0A@@randomx@@YAHAEBVMacroOp@0@AEAY1KO@2HHH@Z
pdata	ENDS
;	COMDAT pdata
pdata	SEGMENT
$pdata$0$??$scheduleMop@$0A@@randomx@@YAHAEBVMacroOp@0@AEAY1KO@2HHH@Z DD imagerel ??$scheduleMop@$0A@@randomx@@YAHAEBVMacroOp@0@AEAY1KO@2HHH@Z+39
	DD	imagerel ??$scheduleMop@$0A@@randomx@@YAHAEBVMacroOp@0@AEAY1KO@2HHH@Z+157
	DD	imagerel $chain$0$??$scheduleMop@$0A@@randomx@@YAHAEBVMacroOp@0@AEAY1KO@2HHH@Z
pdata	ENDS
;	COMDAT pdata
pdata	SEGMENT
$pdata$2$??$scheduleMop@$0A@@randomx@@YAHAEBVMacroOp@0@AEAY1KO@2HHH@Z DD imagerel ??$scheduleMop@$0A@@randomx@@YAHAEBVMacroOp@0@AEAY1KO@2HHH@Z+157
	DD	imagerel ??$scheduleMop@$0A@@randomx@@YAHAEBVMacroOp@0@AEAY1KO@2HHH@Z+411
	DD	imagerel $chain$2$??$scheduleMop@$0A@@randomx@@YAHAEBVMacroOp@0@AEAY1KO@2HHH@Z
pdata	ENDS
;	COMDAT pdata
pdata	SEGMENT
$pdata$4$??$scheduleMop@$0A@@randomx@@YAHAEBVMacroOp@0@AEAY1KO@2HHH@Z DD imagerel ??$scheduleMop@$0A@@randomx@@YAHAEBVMacroOp@0@AEAY1KO@2HHH@Z+411
	DD	imagerel ??$scheduleMop@$0A@@randomx@@YAHAEBVMacroOp@0@AEAY1KO@2HHH@Z+431
	DD	imagerel $chain$4$??$scheduleMop@$0A@@randomx@@YAHAEBVMacroOp@0@AEAY1KO@2HHH@Z
pdata	ENDS
;	COMDAT pdata
pdata	SEGMENT
$pdata$??$?6U?$char_traits@D@std@@@std@@YAAEAV?$basic_ostream@DU?$char_traits@D@std@@@0@AEAV10@PEBD@Z DD imagerel $LN132
	DD	imagerel $LN132+686
	DD	imagerel $unwind$??$?6U?$char_traits@D@std@@@std@@YAAEAV?$basic_ostream@DU?$char_traits@D@std@@@0@AEAV10@PEBD@Z
pdata	ENDS
;	COMDAT pdata
pdata	SEGMENT
$pdata$?catch$4@?0???$?6U?$char_traits@D@std@@@std@@YAAEAV?$basic_ostream@DU?$char_traits@D@std@@@0@AEAV10@PEBD@Z@4HA DD imagerel ?catch$4@?0???$?6U?$char_traits@D@std@@@std@@YAAEAV?$basic_ostream@DU?$char_traits@D@std@@@0@AEAV10@PEBD@Z@4HA
	DD	imagerel ?catch$4@?0???$?6U?$char_traits@D@std@@@std@@YAAEAV?$basic_ostream@DU?$char_traits@D@std@@@0@AEAV10@PEBD@Z@4HA+89
	DD	imagerel $unwind$?catch$4@?0???$?6U?$char_traits@D@std@@@std@@YAAEAV?$basic_ostream@DU?$char_traits@D@std@@@0@AEAV10@PEBD@Z@4HA
pdata	ENDS
;	COMDAT pdata
pdata	SEGMENT
$pdata$??$?0$01@SuperscalarInstructionInfo@randomx@@AEAA@PEBDW4SuperscalarInstructionType@1@AEAY01$$CBVMacroOp@1@HHH@Z DD imagerel $LN34
	DD	imagerel $LN34+235
	DD	imagerel $unwind$??$?0$01@SuperscalarInstructionInfo@randomx@@AEAA@PEBDW4SuperscalarInstructionType@1@AEAY01$$CBVMacroOp@1@HHH@Z
pdata	ENDS
;	COMDAT pdata
pdata	SEGMENT
$pdata$??$?0$02@SuperscalarInstructionInfo@randomx@@AEAA@PEBDW4SuperscalarInstructionType@1@AEAY02$$CBVMacroOp@1@HHH@Z DD imagerel $LN30
	DD	imagerel $LN30+179
	DD	imagerel $unwind$??$?0$02@SuperscalarInstructionInfo@randomx@@AEAA@PEBDW4SuperscalarInstructionType@1@AEAY02$$CBVMacroOp@1@HHH@Z
pdata	ENDS
;	COMDAT pdata
pdata	SEGMENT
$pdata$?deallocate@?$allocator@VMacroOp@randomx@@@std@@QEAAXQEAVMacroOp@randomx@@_K@Z DD imagerel $LN21
	DD	imagerel $LN21+65
	DD	imagerel $unwind$?deallocate@?$allocator@VMacroOp@randomx@@@std@@QEAAXQEAVMacroOp@randomx@@_K@Z
pdata	ENDS
;	COMDAT pdata
pdata	SEGMENT
$pdata$?_Tidy@?$vector@VMacroOp@randomx@@V?$allocator@VMacroOp@randomx@@@std@@@std@@AEAAXXZ DD imagerel $LN25
	DD	imagerel $LN25+91
	DD	imagerel $unwind$?_Tidy@?$vector@VMacroOp@randomx@@V?$allocator@VMacroOp@randomx@@@std@@@std@@AEAAXXZ
pdata	ENDS
;	COMDAT pdata
pdata	SEGMENT
$pdata$?put@?$num_put@DV?$ostreambuf_iterator@DU?$char_traits@D@std@@@std@@@std@@QEBA?AV?$ostreambuf_iterator@DU?$char_traits@D@std@@@2@V32@AEAVios_base@2@DJ@Z DD imagerel $LN4
	DD	imagerel $LN4+56
	DD	imagerel $unwind$?put@?$num_put@DV?$ostreambuf_iterator@DU?$char_traits@D@std@@@std@@@std@@QEBA?AV?$ostreambuf_iterator@DU?$char_traits@D@std@@@2@V32@AEAVios_base@2@DJ@Z
pdata	ENDS
;	COMDAT pdata
pdata	SEGMENT
$pdata$??6?$basic_ostream@DU?$char_traits@D@std@@@std@@QEAAAEAV01@H@Z DD imagerel $LN86
	DD	imagerel $LN86+501
	DD	imagerel $unwind$??6?$basic_ostream@DU?$char_traits@D@std@@@std@@QEAAAEAV01@H@Z
pdata	ENDS
;	COMDAT pdata
pdata	SEGMENT
$pdata$?catch$5@?0???6?$basic_ostream@DU?$char_traits@D@std@@@std@@QEAAAEAV01@H@Z@4HA DD imagerel ?catch$5@?0???6?$basic_ostream@DU?$char_traits@D@std@@@std@@QEAAAEAV01@H@Z@4HA
	DD	imagerel ?catch$5@?0???6?$basic_ostream@DU?$char_traits@D@std@@@std@@QEAAAEAV01@H@Z@4HA+92
	DD	imagerel $unwind$?catch$5@?0???6?$basic_ostream@DU?$char_traits@D@std@@@std@@QEAAAEAV01@H@Z@4HA
pdata	ENDS
;	COMDAT pdata
pdata	SEGMENT
$pdata$??1?$vector@VMacroOp@randomx@@V?$allocator@VMacroOp@randomx@@@std@@@std@@QEAA@XZ DD imagerel $LN28
	DD	imagerel $LN28+91
	DD	imagerel $unwind$??1?$vector@VMacroOp@randomx@@V?$allocator@VMacroOp@randomx@@@std@@@std@@QEAA@XZ
pdata	ENDS
;	COMDAT pdata
pdata	SEGMENT
$pdata$?selectSource@SuperscalarInstruction@randomx@@QEAA_NHAEAY07VRegisterInfo@2@AEAVBlake2Generator@2@@Z DD imagerel $LN135
	DD	imagerel $LN135+380
	DD	imagerel $unwind$?selectSource@SuperscalarInstruction@randomx@@QEAA_NHAEAY07VRegisterInfo@2@AEAVBlake2Generator@2@@Z
pdata	ENDS
;	COMDAT pdata
pdata	SEGMENT
$pdata$?selectDestination@SuperscalarInstruction@randomx@@QEAA_NH_NAEAY07VRegisterInfo@2@AEAVBlake2Generator@2@@Z DD imagerel $LN76
	DD	imagerel $LN76+401
	DD	imagerel $unwind$?selectDestination@SuperscalarInstruction@randomx@@QEAA_NH_NAEAY07VRegisterInfo@2@AEAVBlake2Generator@2@@Z
pdata	ENDS
;	COMDAT pdata
pdata	SEGMENT
$pdata$?create@SuperscalarInstruction@randomx@@QEAAXPEBVSuperscalarInstructionInfo@2@AEAVBlake2Generator@2@@Z DD imagerel $LN77
	DD	imagerel $LN77+53
	DD	imagerel $unwind$?create@SuperscalarInstruction@randomx@@QEAAXPEBVSuperscalarInstructionInfo@2@AEAVBlake2Generator@2@@Z
pdata	ENDS
;	COMDAT pdata
pdata	SEGMENT
$pdata$0$?create@SuperscalarInstruction@randomx@@QEAAXPEBVSuperscalarInstructionInfo@2@AEAVBlake2Generator@2@@Z DD imagerel $LN77+53
	DD	imagerel $LN77+103
	DD	imagerel $chain$0$?create@SuperscalarInstruction@randomx@@QEAAXPEBVSuperscalarInstructionInfo@2@AEAVBlake2Generator@2@@Z
pdata	ENDS
;	COMDAT pdata
pdata	SEGMENT
$pdata$2$?create@SuperscalarInstruction@randomx@@QEAAXPEBVSuperscalarInstructionInfo@2@AEAVBlake2Generator@2@@Z DD imagerel $LN77+103
	DD	imagerel $LN77+136
	DD	imagerel $chain$2$?create@SuperscalarInstruction@randomx@@QEAAXPEBVSuperscalarInstructionInfo@2@AEAVBlake2Generator@2@@Z
pdata	ENDS
;	COMDAT pdata
pdata	SEGMENT
$pdata$4$?create@SuperscalarInstruction@randomx@@QEAAXPEBVSuperscalarInstructionInfo@2@AEAVBlake2Generator@2@@Z DD imagerel $LN77+136
	DD	imagerel $LN77+219
	DD	imagerel $chain$4$?create@SuperscalarInstruction@randomx@@QEAAXPEBVSuperscalarInstructionInfo@2@AEAVBlake2Generator@2@@Z
pdata	ENDS
;	COMDAT pdata
pdata	SEGMENT
$pdata$6$?create@SuperscalarInstruction@randomx@@QEAAXPEBVSuperscalarInstructionInfo@2@AEAVBlake2Generator@2@@Z DD imagerel $LN77+219
	DD	imagerel $LN77+252
	DD	imagerel $chain$6$?create@SuperscalarInstruction@randomx@@QEAAXPEBVSuperscalarInstructionInfo@2@AEAVBlake2Generator@2@@Z
pdata	ENDS
;	COMDAT pdata
pdata	SEGMENT
$pdata$8$?create@SuperscalarInstruction@randomx@@QEAAXPEBVSuperscalarInstructionInfo@2@AEAVBlake2Generator@2@@Z DD imagerel $LN77+252
	DD	imagerel $LN77+556
	DD	imagerel $chain$8$?create@SuperscalarInstruction@randomx@@QEAAXPEBVSuperscalarInstructionInfo@2@AEAVBlake2Generator@2@@Z
pdata	ENDS
;	COMDAT pdata
pdata	SEGMENT
$pdata$10$?create@SuperscalarInstruction@randomx@@QEAAXPEBVSuperscalarInstructionInfo@2@AEAVBlake2Generator@2@@Z DD imagerel $LN77+556
	DD	imagerel $LN77+644
	DD	imagerel $chain$10$?create@SuperscalarInstruction@randomx@@QEAAXPEBVSuperscalarInstructionInfo@2@AEAVBlake2Generator@2@@Z
pdata	ENDS
;	COMDAT pdata
pdata	SEGMENT
$pdata$11$?create@SuperscalarInstruction@randomx@@QEAAXPEBVSuperscalarInstructionInfo@2@AEAVBlake2Generator@2@@Z DD imagerel $LN77+644
	DD	imagerel $LN77+712
	DD	imagerel $chain$11$?create@SuperscalarInstruction@randomx@@QEAAXPEBVSuperscalarInstructionInfo@2@AEAVBlake2Generator@2@@Z
pdata	ENDS
;	COMDAT pdata
pdata	SEGMENT
$pdata$?createForSlot@SuperscalarInstruction@randomx@@QEAAXAEAVBlake2Generator@2@HH_N1@Z DD imagerel $LN49
	DD	imagerel $LN49+556
	DD	imagerel $unwind$?createForSlot@SuperscalarInstruction@randomx@@QEAAXAEAVBlake2Generator@2@HH_N1@Z
pdata	ENDS
;	COMDAT pdata
pdata	SEGMENT
$pdata$?selectRegister@randomx@@YA_NAEAV?$vector@HV?$allocator@H@std@@@std@@AEAVBlake2Generator@1@AEAH@Z DD imagerel ?selectRegister@randomx@@YA_NAEAV?$vector@HV?$allocator@H@std@@@std@@AEAVBlake2Generator@1@AEAH@Z
	DD	imagerel ?selectRegister@randomx@@YA_NAEAV?$vector@HV?$allocator@H@std@@@std@@AEAVBlake2Generator@1@AEAH@Z+171
	DD	imagerel $unwind$?selectRegister@randomx@@YA_NAEAV?$vector@HV?$allocator@H@std@@@std@@AEAVBlake2Generator@1@AEAH@Z
pdata	ENDS
;	COMDAT pdata
pdata	SEGMENT
$pdata$?fetchNextDefault@DecoderBuffer@randomx@@AEBAPEBV12@AEAVBlake2Generator@2@@Z DD imagerel $LN9
	DD	imagerel $LN9+83
	DD	imagerel $unwind$?fetchNextDefault@DecoderBuffer@randomx@@AEBAPEBV12@AEAVBlake2Generator@2@@Z
pdata	ENDS
;	COMDAT pdata
pdata	SEGMENT
$pdata$?fetchNext@DecoderBuffer@randomx@@QEBAPEBV12@W4SuperscalarInstructionType@2@HHAEAVBlake2Generator@2@@Z DD imagerel $LN22
	DD	imagerel $LN22+40
	DD	imagerel $unwind$?fetchNext@DecoderBuffer@randomx@@QEBAPEBV12@W4SuperscalarInstructionType@2@HHAEAVBlake2Generator@2@@Z
pdata	ENDS
;	COMDAT pdata
pdata	SEGMENT
$pdata$0$?fetchNext@DecoderBuffer@randomx@@QEBAPEBV12@W4SuperscalarInstructionType@2@HHAEAVBlake2Generator@2@@Z DD imagerel $LN22+40
	DD	imagerel $LN22+139
	DD	imagerel $chain$0$?fetchNext@DecoderBuffer@randomx@@QEBAPEBV12@W4SuperscalarInstructionType@2@HHAEAVBlake2Generator@2@@Z
pdata	ENDS
;	COMDAT pdata
pdata	SEGMENT
$pdata$2$?fetchNext@DecoderBuffer@randomx@@QEBAPEBV12@W4SuperscalarInstructionType@2@HHAEAVBlake2Generator@2@@Z DD imagerel $LN22+139
	DD	imagerel $LN22+209
	DD	imagerel $chain$2$?fetchNext@DecoderBuffer@randomx@@QEBAPEBV12@W4SuperscalarInstructionType@2@HHAEAVBlake2Generator@2@@Z
pdata	ENDS
;	COMDAT pdata
pdata	SEGMENT
$pdata$3$?fetchNext@DecoderBuffer@randomx@@QEBAPEBV12@W4SuperscalarInstructionType@2@HHAEAVBlake2Generator@2@@Z DD imagerel $LN22+209
	DD	imagerel $LN22+221
	DD	imagerel $chain$3$?fetchNext@DecoderBuffer@randomx@@QEBAPEBV12@W4SuperscalarInstructionType@2@HHAEAVBlake2Generator@2@@Z
pdata	ENDS
;	COMDAT pdata
pdata	SEGMENT
$pdata$??__F?NOP@SuperscalarInstructionInfo@randomx@@2V12@B@@YAXXZ DD imagerel ??__F?NOP@SuperscalarInstructionInfo@randomx@@2V12@B@@YAXXZ
	DD	imagerel ??__F?NOP@SuperscalarInstructionInfo@randomx@@2V12@B@@YAXXZ+101
	DD	imagerel $unwind$??__F?NOP@SuperscalarInstructionInfo@randomx@@2V12@B@@YAXXZ
pdata	ENDS
;	COMDAT pdata
pdata	SEGMENT
$pdata$??__F?IMUL_RCP@SuperscalarInstructionInfo@randomx@@2V12@B@@YAXXZ DD imagerel ??__F?IMUL_RCP@SuperscalarInstructionInfo@randomx@@2V12@B@@YAXXZ
	DD	imagerel ??__F?IMUL_RCP@SuperscalarInstructionInfo@randomx@@2V12@B@@YAXXZ+101
	DD	imagerel $unwind$??__F?IMUL_RCP@SuperscalarInstructionInfo@randomx@@2V12@B@@YAXXZ
pdata	ENDS
;	COMDAT pdata
pdata	SEGMENT
$pdata$??__E?IMUL_RCP@SuperscalarInstructionInfo@randomx@@2V12@B@@YAXXZ DD imagerel ??__E?IMUL_RCP@SuperscalarInstructionInfo@randomx@@2V12@B@@YAXXZ
	DD	imagerel ??__E?IMUL_RCP@SuperscalarInstructionInfo@randomx@@2V12@B@@YAXXZ+158
	DD	imagerel $unwind$??__E?IMUL_RCP@SuperscalarInstructionInfo@randomx@@2V12@B@@YAXXZ
pdata	ENDS
;	COMDAT pdata
pdata	SEGMENT
$pdata$??__F?ISMULH_R@SuperscalarInstructionInfo@randomx@@2V12@B@@YAXXZ DD imagerel ??__F?ISMULH_R@SuperscalarInstructionInfo@randomx@@2V12@B@@YAXXZ
	DD	imagerel ??__F?ISMULH_R@SuperscalarInstructionInfo@randomx@@2V12@B@@YAXXZ+101
	DD	imagerel $unwind$??__F?ISMULH_R@SuperscalarInstructionInfo@randomx@@2V12@B@@YAXXZ
pdata	ENDS
;	COMDAT pdata
pdata	SEGMENT
$pdata$??__E?ISMULH_R@SuperscalarInstructionInfo@randomx@@2V12@B@@YAXXZ DD imagerel ??__E?ISMULH_R@SuperscalarInstructionInfo@randomx@@2V12@B@@YAXXZ
	DD	imagerel ??__E?ISMULH_R@SuperscalarInstructionInfo@randomx@@2V12@B@@YAXXZ+158
	DD	imagerel $unwind$??__E?ISMULH_R@SuperscalarInstructionInfo@randomx@@2V12@B@@YAXXZ
pdata	ENDS
;	COMDAT pdata
pdata	SEGMENT
$pdata$??__F?IMULH_R@SuperscalarInstructionInfo@randomx@@2V12@B@@YAXXZ DD imagerel ??__F?IMULH_R@SuperscalarInstructionInfo@randomx@@2V12@B@@YAXXZ
	DD	imagerel ??__F?IMULH_R@SuperscalarInstructionInfo@randomx@@2V12@B@@YAXXZ+101
	DD	imagerel $unwind$??__F?IMULH_R@SuperscalarInstructionInfo@randomx@@2V12@B@@YAXXZ
pdata	ENDS
;	COMDAT pdata
pdata	SEGMENT
$pdata$??__E?IMULH_R@SuperscalarInstructionInfo@randomx@@2V12@B@@YAXXZ DD imagerel ??__E?IMULH_R@SuperscalarInstructionInfo@randomx@@2V12@B@@YAXXZ
	DD	imagerel ??__E?IMULH_R@SuperscalarInstructionInfo@randomx@@2V12@B@@YAXXZ+158
	DD	imagerel $unwind$??__E?IMULH_R@SuperscalarInstructionInfo@randomx@@2V12@B@@YAXXZ
pdata	ENDS
;	COMDAT pdata
pdata	SEGMENT
$pdata$??__F?IXOR_C9@SuperscalarInstructionInfo@randomx@@2V12@B@@YAXXZ DD imagerel ??__F?IXOR_C9@SuperscalarInstructionInfo@randomx@@2V12@B@@YAXXZ
	DD	imagerel ??__F?IXOR_C9@SuperscalarInstructionInfo@randomx@@2V12@B@@YAXXZ+101
	DD	imagerel $unwind$??__F?IXOR_C9@SuperscalarInstructionInfo@randomx@@2V12@B@@YAXXZ
pdata	ENDS
;	COMDAT pdata
pdata	SEGMENT
$pdata$??__E?IXOR_C9@SuperscalarInstructionInfo@randomx@@2V12@B@@YAXXZ DD imagerel ??__E?IXOR_C9@SuperscalarInstructionInfo@randomx@@2V12@B@@YAXXZ
	DD	imagerel ??__E?IXOR_C9@SuperscalarInstructionInfo@randomx@@2V12@B@@YAXXZ+76
	DD	imagerel $unwind$??__E?IXOR_C9@SuperscalarInstructionInfo@randomx@@2V12@B@@YAXXZ
pdata	ENDS
;	COMDAT pdata
pdata	SEGMENT
$pdata$??__F?IADD_C9@SuperscalarInstructionInfo@randomx@@2V12@B@@YAXXZ DD imagerel ??__F?IADD_C9@SuperscalarInstructionInfo@randomx@@2V12@B@@YAXXZ
	DD	imagerel ??__F?IADD_C9@SuperscalarInstructionInfo@randomx@@2V12@B@@YAXXZ+101
	DD	imagerel $unwind$??__F?IADD_C9@SuperscalarInstructionInfo@randomx@@2V12@B@@YAXXZ
pdata	ENDS
;	COMDAT pdata
pdata	SEGMENT
$pdata$??__E?IADD_C9@SuperscalarInstructionInfo@randomx@@2V12@B@@YAXXZ DD imagerel ??__E?IADD_C9@SuperscalarInstructionInfo@randomx@@2V12@B@@YAXXZ
	DD	imagerel ??__E?IADD_C9@SuperscalarInstructionInfo@randomx@@2V12@B@@YAXXZ+76
	DD	imagerel $unwind$??__E?IADD_C9@SuperscalarInstructionInfo@randomx@@2V12@B@@YAXXZ
pdata	ENDS
;	COMDAT pdata
pdata	SEGMENT
$pdata$??__F?IXOR_C8@SuperscalarInstructionInfo@randomx@@2V12@B@@YAXXZ DD imagerel ??__F?IXOR_C8@SuperscalarInstructionInfo@randomx@@2V12@B@@YAXXZ
	DD	imagerel ??__F?IXOR_C8@SuperscalarInstructionInfo@randomx@@2V12@B@@YAXXZ+101
	DD	imagerel $unwind$??__F?IXOR_C8@SuperscalarInstructionInfo@randomx@@2V12@B@@YAXXZ
pdata	ENDS
;	COMDAT pdata
pdata	SEGMENT
$pdata$??__E?IXOR_C8@SuperscalarInstructionInfo@randomx@@2V12@B@@YAXXZ DD imagerel ??__E?IXOR_C8@SuperscalarInstructionInfo@randomx@@2V12@B@@YAXXZ
	DD	imagerel ??__E?IXOR_C8@SuperscalarInstructionInfo@randomx@@2V12@B@@YAXXZ+76
	DD	imagerel $unwind$??__E?IXOR_C8@SuperscalarInstructionInfo@randomx@@2V12@B@@YAXXZ
pdata	ENDS
;	COMDAT pdata
pdata	SEGMENT
$pdata$??__F?IADD_C8@SuperscalarInstructionInfo@randomx@@2V12@B@@YAXXZ DD imagerel ??__F?IADD_C8@SuperscalarInstructionInfo@randomx@@2V12@B@@YAXXZ
	DD	imagerel ??__F?IADD_C8@SuperscalarInstructionInfo@randomx@@2V12@B@@YAXXZ+101
	DD	imagerel $unwind$??__F?IADD_C8@SuperscalarInstructionInfo@randomx@@2V12@B@@YAXXZ
pdata	ENDS
;	COMDAT pdata
pdata	SEGMENT
$pdata$??__E?IADD_C8@SuperscalarInstructionInfo@randomx@@2V12@B@@YAXXZ DD imagerel ??__E?IADD_C8@SuperscalarInstructionInfo@randomx@@2V12@B@@YAXXZ
	DD	imagerel ??__E?IADD_C8@SuperscalarInstructionInfo@randomx@@2V12@B@@YAXXZ+76
	DD	imagerel $unwind$??__E?IADD_C8@SuperscalarInstructionInfo@randomx@@2V12@B@@YAXXZ
pdata	ENDS
;	COMDAT pdata
pdata	SEGMENT
$pdata$??__F?IXOR_C7@SuperscalarInstructionInfo@randomx@@2V12@B@@YAXXZ DD imagerel ??__F?IXOR_C7@SuperscalarInstructionInfo@randomx@@2V12@B@@YAXXZ
	DD	imagerel ??__F?IXOR_C7@SuperscalarInstructionInfo@randomx@@2V12@B@@YAXXZ+101
	DD	imagerel $unwind$??__F?IXOR_C7@SuperscalarInstructionInfo@randomx@@2V12@B@@YAXXZ
pdata	ENDS
;	COMDAT pdata
pdata	SEGMENT
$pdata$??__E?IXOR_C7@SuperscalarInstructionInfo@randomx@@2V12@B@@YAXXZ DD imagerel ??__E?IXOR_C7@SuperscalarInstructionInfo@randomx@@2V12@B@@YAXXZ
	DD	imagerel ??__E?IXOR_C7@SuperscalarInstructionInfo@randomx@@2V12@B@@YAXXZ+76
	DD	imagerel $unwind$??__E?IXOR_C7@SuperscalarInstructionInfo@randomx@@2V12@B@@YAXXZ
pdata	ENDS
;	COMDAT pdata
pdata	SEGMENT
$pdata$??__F?IADD_C7@SuperscalarInstructionInfo@randomx@@2V12@B@@YAXXZ DD imagerel ??__F?IADD_C7@SuperscalarInstructionInfo@randomx@@2V12@B@@YAXXZ
	DD	imagerel ??__F?IADD_C7@SuperscalarInstructionInfo@randomx@@2V12@B@@YAXXZ+101
	DD	imagerel $unwind$??__F?IADD_C7@SuperscalarInstructionInfo@randomx@@2V12@B@@YAXXZ
pdata	ENDS
;	COMDAT pdata
pdata	SEGMENT
$pdata$??__E?IADD_C7@SuperscalarInstructionInfo@randomx@@2V12@B@@YAXXZ DD imagerel ??__E?IADD_C7@SuperscalarInstructionInfo@randomx@@2V12@B@@YAXXZ
	DD	imagerel ??__E?IADD_C7@SuperscalarInstructionInfo@randomx@@2V12@B@@YAXXZ+76
	DD	imagerel $unwind$??__E?IADD_C7@SuperscalarInstructionInfo@randomx@@2V12@B@@YAXXZ
pdata	ENDS
;	COMDAT pdata
pdata	SEGMENT
$pdata$??__F?IROR_C@SuperscalarInstructionInfo@randomx@@2V12@B@@YAXXZ DD imagerel ??__F?IROR_C@SuperscalarInstructionInfo@randomx@@2V12@B@@YAXXZ
	DD	imagerel ??__F?IROR_C@SuperscalarInstructionInfo@randomx@@2V12@B@@YAXXZ+101
	DD	imagerel $unwind$??__F?IROR_C@SuperscalarInstructionInfo@randomx@@2V12@B@@YAXXZ
pdata	ENDS
;	COMDAT pdata
pdata	SEGMENT
$pdata$??__E?IROR_C@SuperscalarInstructionInfo@randomx@@2V12@B@@YAXXZ DD imagerel ??__E?IROR_C@SuperscalarInstructionInfo@randomx@@2V12@B@@YAXXZ
	DD	imagerel ??__E?IROR_C@SuperscalarInstructionInfo@randomx@@2V12@B@@YAXXZ+76
	DD	imagerel $unwind$??__E?IROR_C@SuperscalarInstructionInfo@randomx@@2V12@B@@YAXXZ
pdata	ENDS
;	COMDAT pdata
pdata	SEGMENT
$pdata$??__F?IMUL_R@SuperscalarInstructionInfo@randomx@@2V12@B@@YAXXZ DD imagerel ??__F?IMUL_R@SuperscalarInstructionInfo@randomx@@2V12@B@@YAXXZ
	DD	imagerel ??__F?IMUL_R@SuperscalarInstructionInfo@randomx@@2V12@B@@YAXXZ+101
	DD	imagerel $unwind$??__F?IMUL_R@SuperscalarInstructionInfo@randomx@@2V12@B@@YAXXZ
pdata	ENDS
;	COMDAT pdata
pdata	SEGMENT
$pdata$??__E?IMUL_R@SuperscalarInstructionInfo@randomx@@2V12@B@@YAXXZ DD imagerel ??__E?IMUL_R@SuperscalarInstructionInfo@randomx@@2V12@B@@YAXXZ
	DD	imagerel ??__E?IMUL_R@SuperscalarInstructionInfo@randomx@@2V12@B@@YAXXZ+76
	DD	imagerel $unwind$??__E?IMUL_R@SuperscalarInstructionInfo@randomx@@2V12@B@@YAXXZ
pdata	ENDS
;	COMDAT pdata
pdata	SEGMENT
$pdata$??__F?IADD_RS@SuperscalarInstructionInfo@randomx@@2V12@B@@YAXXZ DD imagerel ??__F?IADD_RS@SuperscalarInstructionInfo@randomx@@2V12@B@@YAXXZ
	DD	imagerel ??__F?IADD_RS@SuperscalarInstructionInfo@randomx@@2V12@B@@YAXXZ+101
	DD	imagerel $unwind$??__F?IADD_RS@SuperscalarInstructionInfo@randomx@@2V12@B@@YAXXZ
pdata	ENDS
;	COMDAT pdata
pdata	SEGMENT
$pdata$??__E?IADD_RS@SuperscalarInstructionInfo@randomx@@2V12@B@@YAXXZ DD imagerel ??__E?IADD_RS@SuperscalarInstructionInfo@randomx@@2V12@B@@YAXXZ
	DD	imagerel ??__E?IADD_RS@SuperscalarInstructionInfo@randomx@@2V12@B@@YAXXZ+76
	DD	imagerel $unwind$??__E?IADD_RS@SuperscalarInstructionInfo@randomx@@2V12@B@@YAXXZ
pdata	ENDS
;	COMDAT pdata
pdata	SEGMENT
$pdata$??__F?IXOR_R@SuperscalarInstructionInfo@randomx@@2V12@B@@YAXXZ DD imagerel ??__F?IXOR_R@SuperscalarInstructionInfo@randomx@@2V12@B@@YAXXZ
	DD	imagerel ??__F?IXOR_R@SuperscalarInstructionInfo@randomx@@2V12@B@@YAXXZ+101
	DD	imagerel $unwind$??__F?IXOR_R@SuperscalarInstructionInfo@randomx@@2V12@B@@YAXXZ
pdata	ENDS
;	COMDAT pdata
pdata	SEGMENT
$pdata$??__E?IXOR_R@SuperscalarInstructionInfo@randomx@@2V12@B@@YAXXZ DD imagerel ??__E?IXOR_R@SuperscalarInstructionInfo@randomx@@2V12@B@@YAXXZ
	DD	imagerel ??__E?IXOR_R@SuperscalarInstructionInfo@randomx@@2V12@B@@YAXXZ+76
	DD	imagerel $unwind$??__E?IXOR_R@SuperscalarInstructionInfo@randomx@@2V12@B@@YAXXZ
pdata	ENDS
;	COMDAT pdata
pdata	SEGMENT
$pdata$??1SuperscalarInstructionInfo@randomx@@QEAA@XZ DD imagerel $LN31
	DD	imagerel $LN31+93
	DD	imagerel $unwind$??1SuperscalarInstructionInfo@randomx@@QEAA@XZ
pdata	ENDS
;	COMDAT pdata
pdata	SEGMENT
$pdata$??__F?ISUB_R@SuperscalarInstructionInfo@randomx@@2V12@B@@YAXXZ DD imagerel ??__F?ISUB_R@SuperscalarInstructionInfo@randomx@@2V12@B@@YAXXZ
	DD	imagerel ??__F?ISUB_R@SuperscalarInstructionInfo@randomx@@2V12@B@@YAXXZ+101
	DD	imagerel $unwind$??__F?ISUB_R@SuperscalarInstructionInfo@randomx@@2V12@B@@YAXXZ
pdata	ENDS
;	COMDAT pdata
pdata	SEGMENT
$pdata$??__E?ISUB_R@SuperscalarInstructionInfo@randomx@@2V12@B@@YAXXZ DD imagerel ??__E?ISUB_R@SuperscalarInstructionInfo@randomx@@2V12@B@@YAXXZ
	DD	imagerel ??__E?ISUB_R@SuperscalarInstructionInfo@randomx@@2V12@B@@YAXXZ+76
	DD	imagerel $unwind$??__E?ISUB_R@SuperscalarInstructionInfo@randomx@@2V12@B@@YAXXZ
pdata	ENDS
;	COMDAT pdata
pdata	SEGMENT
$pdata$??0SuperscalarInstructionInfo@randomx@@AEAA@PEBDW4SuperscalarInstructionType@1@AEBVMacroOp@1@H@Z DD imagerel $LN22
	DD	imagerel $LN22+118
	DD	imagerel $unwind$??0SuperscalarInstructionInfo@randomx@@AEAA@PEBDW4SuperscalarInstructionType@1@AEBVMacroOp@1@H@Z
pdata	ENDS
;	COMDAT pdata
pdata	SEGMENT
$pdata$?generateSuperscalar@randomx@@YAXAEAVSuperscalarProgram@1@AEAVBlake2Generator@1@@Z DD imagerel $LN221
	DD	imagerel $LN221+1907
	DD	imagerel $unwind$?generateSuperscalar@randomx@@YAXAEAVSuperscalarProgram@1@AEAVBlake2Generator@1@@Z
pdata	ENDS
;	COMDAT pdata
pdata	SEGMENT
$pdata$?executeSuperscalar@randomx@@YAXAEAY07_KAEAVSuperscalarProgram@1@PEAV?$vector@_KV?$allocator@_K@std@@@std@@@Z DD imagerel $LN85
	DD	imagerel $LN85+33
	DD	imagerel $unwind$?executeSuperscalar@randomx@@YAXAEAY07_KAEAVSuperscalarProgram@1@PEAV?$vector@_KV?$allocator@_K@std@@@std@@@Z
pdata	ENDS
;	COMDAT pdata
pdata	SEGMENT
$pdata$3$?executeSuperscalar@randomx@@YAXAEAY07_KAEAVSuperscalarProgram@1@PEAV?$vector@_KV?$allocator@_K@std@@@std@@@Z DD imagerel $LN85+33
	DD	imagerel $LN85+548
	DD	imagerel $chain$3$?executeSuperscalar@randomx@@YAXAEAY07_KAEAVSuperscalarProgram@1@PEAV?$vector@_KV?$allocator@_K@std@@@std@@@Z
pdata	ENDS
;	COMDAT pdata
pdata	SEGMENT
$pdata$4$?executeSuperscalar@randomx@@YAXAEAY07_KAEAVSuperscalarProgram@1@PEAV?$vector@_KV?$allocator@_K@std@@@std@@@Z DD imagerel $LN85+548
	DD	imagerel $LN85+612
	DD	imagerel $chain$4$?executeSuperscalar@randomx@@YAXAEAY07_KAEAVSuperscalarProgram@1@PEAV?$vector@_KV?$allocator@_K@std@@@std@@@Z
?Cmp_ri@MacroOp@randomx@@2V12@B DQ FLAT:??_C@_07KAGFIPFD@cmp?5r?0i@ ; randomx::MacroOp::Cmp_ri
	DD	07H
	DD	01H
	DD	07H
	DD	00H
	DB	00H
	ORG $+7
?Ror_rcl@MacroOp@randomx@@2V12@B DQ FLAT:??_C@_08FIBMIENK@ror?5r?0cl@ ; randomx::MacroOp::Ror_rcl
	DD	03H
	DD	01H
	DD	01H
	DD	04H
	DB	00H
	ORG $+7
?TestJz_fused@MacroOp@randomx@@2V12@B DQ FLAT:??_C@_0L@MJJNFFJ@testjz?5r?0i@ ; randomx::MacroOp::TestJz_fused
	DD	0dH
	DD	00H
	DD	04H
	DD	00H
	DB	00H
	ORG $+7
?Xor_self@MacroOp@randomx@@2V12@B DQ FLAT:??_C@_0M@MOCHBIMO@xor?5rcx?0rcx@ ; randomx::MacroOp::Xor_self
	DD	03H
	DD	00H
	DD	00H
	DD	00H
	DB	00H
	ORG $+7
?Setcc_r@MacroOp@randomx@@2V12@B DQ FLAT:??_C@_08CDONMACD@setcc?5cl@ ; randomx::MacroOp::Setcc_r
	DD	03H
	DD	01H
	DD	05H
	DD	00H
	DB	00H
	ORG $+7
?Imul_r@MacroOp@randomx@@2V12@B DQ FLAT:??_C@_06KNFBEPKD@imul?5r@ ; randomx::MacroOp::Imul_r
	DD	03H
	DD	04H
	DD	02H
	DD	04H
	DB	00H
	ORG $+7
?Mul_r@MacroOp@randomx@@2V12@B DQ FLAT:??_C@_05JPNBDIEI@mul?5r@ ; randomx::MacroOp::Mul_r
	DD	03H
	DD	04H
	DD	02H
	DD	04H
	DB	00H
	ORG $+7
?Null@SuperscalarInstruction@randomx@@2V12@B DQ FLAT:?NOP@SuperscalarInstructionInfo@randomx@@2V12@B ; randomx::SuperscalarInstruction::Null
	DD	0ffffffffH
	DD	0ffffffffH
	DB	16 DUP(00H)
	DB	00H
	DB	00H
	ORG $+6
?Mov_rr@MacroOp@randomx@@2V12@B DQ FLAT:??_C@_07FNBPKEMP@mov?5r?0r@ ; randomx::MacroOp::Mov_rr
	DD	03H
	DD	00H
	DD	00H
	DD	00H
	DB	00H
	ORG $+7
?Add_rr@MacroOp@randomx@@2V12@B DQ FLAT:??_C@_07EGKJEGOK@add?5r?0r@ ; randomx::MacroOp::Add_rr
	DD	03H
	DD	01H
	DD	07H
	DD	00H
	DB	00H
	ORG $+7
?Mov_ri64@MacroOp@randomx@@2V12@B DQ FLAT:??_C@_0M@HFELAPLN@mov?5rax?0i64@ ; randomx::MacroOp::Mov_ri64
	DD	0aH
	DD	01H
	DD	07H
	DD	00H
	DB	00H
	ORG $+16
?IXOR_R@SuperscalarInstructionInfo@randomx@@2V12@B DQ FLAT:??_C@_06HBHMEFL@IXOR_R@ ; randomx::SuperscalarInstructionInfo::IXOR_R
	DD	01H
	DB	4 DUP(00H)
	DQ	0000000000000000H
	DQ	0000000000000000H
	DQ	0000000000000000H
	DB	4 DUP(00H)
	DD	00H
	DD	00H
	DD	00H
?IADD_C9@SuperscalarInstructionInfo@randomx@@2V12@B DQ FLAT:??_C@_07JIPPJALJ@IADD_C9@ ; randomx::SuperscalarInstructionInfo::IADD_C9
	DD	09H
	DB	4 DUP(00H)
	DQ	0000000000000000H
	DQ	0000000000000000H
	DQ	0000000000000000H
	DB	4 DUP(00H)
	DD	00H
	DD	00H
	DD	0ffffffffH
?decodeBuffer493@DecoderBuffer@randomx@@0V12@B DQ FLAT:??_C@_05JNPILEHN@4?09?03@ ; randomx::DecoderBuffer::decodeBuffer493
	DD	03H
	DB	4 DUP(00H)
	DQ	FLAT:?buffer3@randomx@@3QBHB
	DD	03H
	ORG $+4
?IMULH_R@SuperscalarInstructionInfo@randomx@@2V12@B DQ FLAT:??_C@_07PJFOOHGM@IMULH_R@ ; randomx::SuperscalarInstructionInfo::IMULH_R
	DD	0bH
	DB	4 DUP(00H)
	DQ	0000000000000000H
	DQ	0000000000000000H
	DQ	0000000000000000H
	DD	00H
	DD	01H
	DD	00H
	DD	01H
?Lea_sib@MacroOp@randomx@@2V12@B DQ FLAT:??_C@_0M@NCEIDJEA@lea?5r?0r?$CLr?$CKs@ ; randomx::MacroOp::Lea_sib
	DD	04H
	DD	01H
	DD	03H
	DD	00H
	DB	00H
	ORG $+7
?ISMULH_R@SuperscalarInstructionInfo@randomx@@2V12@B DQ FLAT:??_C@_08OFDPLEBE@ISMULH_R@ ; randomx::SuperscalarInstructionInfo::ISMULH_R
	DD	0cH
	DB	4 DUP(00H)
	DQ	0000000000000000H
	DQ	0000000000000000H
	DQ	0000000000000000H
	DD	00H
	DD	01H
	DD	00H
	DD	01H
?NOP@SuperscalarInstructionInfo@randomx@@2V12@B DQ FLAT:??_C@_03GEANJIEE@NOP@ ; randomx::SuperscalarInstructionInfo::NOP
	DD	0ffffffffH
	DB	4 DUP(00H)
	DQ	0000000000000000H
	DQ	0000000000000000H
	DQ	0000000000000000H
	DD	00H
	DD	00H
	DD	00H
	ORG $+4
?IXOR_C9@SuperscalarInstructionInfo@randomx@@2V12@B DQ FLAT:??_C@_07OPNONLEF@IXOR_C9@ ; randomx::SuperscalarInstructionInfo::IXOR_C9
	DD	0aH
	DB	4 DUP(00H)
	DQ	0000000000000000H
	DQ	0000000000000000H
	DQ	0000000000000000H
	DB	4 DUP(00H)
	DD	00H
	DD	00H
	DD	0ffffffffH
?decodeBuffer3733@DecoderBuffer@randomx@@0V12@B DQ FLAT:??_C@_07KDGOFPAL@3?07?03?03@ ; randomx::DecoderBuffer::decodeBuffer3733
	DD	02H
	DB	4 DUP(00H)
	DQ	FLAT:?buffer2@randomx@@3QBHB
	DD	04H
	ORG $+4
?Add_ri@MacroOp@randomx@@2V12@B DQ FLAT:??_C@_07OPJPINHA@add?5r?0i@ ; randomx::MacroOp::Add_ri
	DD	07H
	DD	01H
	DD	07H
	DD	00H
	DB	00H
	ORG $+7
?Imul_rr@MacroOp@randomx@@2V12@B DQ FLAT:??_C@_08EPBHLKIK@imul?5r?0r@ ; randomx::MacroOp::Imul_rr
	DD	04H
	DD	03H
	DD	02H
	DD	00H
	DB	00H
	ORG $+7
?decodeBuffer484@DecoderBuffer@randomx@@0V12@B DQ FLAT:??_C@_05GKAFEFNP@4?08?04@ ; randomx::DecoderBuffer::decodeBuffer484
	DD	00H
	DB	4 DUP(00H)
	DQ	FLAT:?buffer0@randomx@@3QBHB
	DD	03H
	ORG $+4
?decodeBuffer3310@DecoderBuffer@randomx@@0V12@B DQ FLAT:??_C@_06HNPMDBIH@3?03?010@ ; randomx::DecoderBuffer::decodeBuffer3310
	DD	05H
	DB	4 DUP(00H)
	DQ	FLAT:?buffer5@randomx@@3QBHB
	DD	03H
	ORG $+4
?IROR_C@SuperscalarInstructionInfo@randomx@@2V12@B DQ FLAT:??_C@_06PFFFMECN@IROR_C@ ; randomx::SuperscalarInstructionInfo::IROR_C
	DD	04H
	DB	4 DUP(00H)
	DQ	0000000000000000H
	DQ	0000000000000000H
	DQ	0000000000000000H
	DB	4 DUP(00H)
	DD	00H
	DD	00H
	DD	0ffffffffH
?IADD_C7@SuperscalarInstructionInfo@randomx@@2V12@B DQ FLAT:??_C@_07GHMLNDH@IADD_C7@ ; randomx::SuperscalarInstructionInfo::IADD_C7
	DD	05H
	DB	4 DUP(00H)
	DQ	0000000000000000H
	DQ	0000000000000000H
	DQ	0000000000000000H
	DB	4 DUP(00H)
	DD	00H
	DD	00H
	DD	0ffffffffH
?Ror_ri@MacroOp@randomx@@2V12@B DQ FLAT:??_C@_07MKCDAOME@ror?5r?0i@ ; randomx::MacroOp::Ror_ri
	DD	04H
	DD	01H
	DD	05H
	DD	00H
	DB	00H
	ORG $+7
?Xor_ri@MacroOp@randomx@@2V12@B DQ FLAT:??_C@_07FLODBCAM@xor?5r?0i@ ; randomx::MacroOp::Xor_ri
	DD	07H
	DD	01H
	DD	07H
	DD	00H
	DB	00H
	ORG $+7
?decodeBuffer7333@DecoderBuffer@randomx@@0V12@B DQ FLAT:??_C@_07LMLFBDOH@7?03?03?03@ ; randomx::DecoderBuffer::decodeBuffer7333
	DD	01H
	DB	4 DUP(00H)
	DQ	FLAT:?buffer1@randomx@@3QBHB
	DD	04H
	ORG $+4
?IXOR_C7@SuperscalarInstructionInfo@randomx@@2V12@B DQ FLAT:??_C@_07HBFNPGML@IXOR_C7@ ; randomx::SuperscalarInstructionInfo::IXOR_C7
	DD	06H
	DB	4 DUP(00H)
	DQ	0000000000000000H
	DQ	0000000000000000H
	DQ	0000000000000000H
	DB	4 DUP(00H)
	DD	00H
	DD	00H
	DD	0ffffffffH
?decodeBuffer4444@DecoderBuffer@randomx@@0V12@B DQ FLAT:??_C@_07PNKJIKMC@4?04?04?04@ ; randomx::DecoderBuffer::decodeBuffer4444
	DD	04H
	DB	4 DUP(00H)
	DQ	FLAT:?buffer4@randomx@@3QBHB
	DD	04H
	ORG $+4
?IMUL_R@SuperscalarInstructionInfo@randomx@@2V12@B DQ FLAT:??_C@_06MOJKPIPM@IMUL_R@ ; randomx::SuperscalarInstructionInfo::IMUL_R
	DD	03H
	DB	4 DUP(00H)
	DQ	0000000000000000H
	DQ	0000000000000000H
	DQ	0000000000000000H
	DB	4 DUP(00H)
	DD	00H
	DD	00H
	DD	00H
?IADD_RS@SuperscalarInstructionInfo@randomx@@2V12@B DQ FLAT:??_C@_07BKAJNKND@IADD_RS@ ; randomx::SuperscalarInstructionInfo::IADD_RS
	DD	02H
	DB	4 DUP(00H)
	DQ	0000000000000000H
	DQ	0000000000000000H
	DQ	0000000000000000H
	DB	4 DUP(00H)
	DD	00H
	DD	00H
	DD	00H
	ORG $+8
?IMUL_RCP_ops_array@randomx@@3QBVMacroOp@1@B DB 038H DUP (?)
	DB	01H					; randomx::IMUL_RCP_ops_array
	ORG $+7
?Default@DecoderBuffer@randomx@@2V12@B DB 08H DUP (?)
	DD	0ffffffffH				; randomx::DecoderBuffer::Default
	ORG $+20
?ISUB_R@SuperscalarInstructionInfo@randomx@@2V12@B DQ FLAT:??_C@_06BHJJOMCE@ISUB_R@ ; randomx::SuperscalarInstructionInfo::ISUB_R
	DD	00H
	DB	4 DUP(00H)
	DQ	0000000000000000H
	DQ	0000000000000000H
	DQ	0000000000000000H
	DB	4 DUP(00H)
	DD	00H
	DD	00H
	DD	00H
?IADD_C8@SuperscalarInstructionInfo@randomx@@2V12@B DQ FLAT:??_C@_07IBOEKBPI@IADD_C8@ ; randomx::SuperscalarInstructionInfo::IADD_C8
	DD	07H
	DB	4 DUP(00H)
	DQ	0000000000000000H
	DQ	0000000000000000H
	DQ	0000000000000000H
	DB	4 DUP(00H)
	DD	00H
	DD	00H
	DD	0ffffffffH
?IMUL_RCP@SuperscalarInstructionInfo@randomx@@2V12@B DQ FLAT:??_C@_08MDAIHEMI@IMUL_RCP@ ; randomx::SuperscalarInstructionInfo::IMUL_RCP
	DD	0dH
	DB	4 DUP(00H)
	DQ	0000000000000000H
	DQ	0000000000000000H
	DQ	0000000000000000H
	DD	00H
	DD	01H
	DD	01H
	DD	0ffffffffH
?Sub_rr@MacroOp@randomx@@2V12@B DQ FLAT:??_C@_07GPMHAENL@sub?5r?0r@ ; randomx::MacroOp::Sub_rr
	DD	03H
	DD	01H
	DD	07H
	DD	00H
	DB	00H
	ORG $+7
?Xor_rr@MacroOp@randomx@@2V12@B DQ FLAT:??_C@_07PCNFNJJG@xor?5r?0r@ ; randomx::MacroOp::Xor_rr
	DD	03H
	DD	01H
	DD	07H
	DD	00H
	DB	00H
	ORG $+7
?IXOR_C8@SuperscalarInstructionInfo@randomx@@2V12@B DQ FLAT:??_C@_07PGMFOKAE@IXOR_C8@ ; randomx::SuperscalarInstructionInfo::IXOR_C8
	DD	08H
	DB	4 DUP(00H)
	DQ	0000000000000000H
	DQ	0000000000000000H
	DQ	0000000000000000H
	DB	4 DUP(00H)
	DD	00H
	DD	00H
	DD	0ffffffffH
_DATA	ENDS
;	COMDAT xdata
xdata	SEGMENT
$chain$4$?executeSuperscalar@randomx@@YAXAEAY07_KAEAVSuperscalarProgram@1@PEAV?$vector@_KV?$allocator@_K@std@@@std@@@Z DD 021H
	DD	imagerel $LN85
	DD	imagerel $LN85+33
	DD	imagerel $unwind$?executeSuperscalar@randomx@@YAXAEAY07_KAEAVSuperscalarProgram@1@PEAV?$vector@_KV?$allocator@_K@std@@@std@@@Z
xdata	ENDS
;	COMDAT xdata
xdata	SEGMENT
$chain$3$?executeSuperscalar@randomx@@YAXAEAY07_KAEAVSuperscalarProgram@1@PEAV?$vector@_KV?$allocator@_K@std@@@std@@@Z DD 081421H
	DD	08d414H
	DD	07740fH
	DD	06640aH
	DD	055405H
	DD	imagerel $LN85
	DD	imagerel $LN85+33
	DD	imagerel $unwind$?executeSuperscalar@randomx@@YAXAEAY07_KAEAVSuperscalarProgram@1@PEAV?$vector@_KV?$allocator@_K@std@@@std@@@Z
xdata	ENDS
;	COMDAT xdata
xdata	SEGMENT
$unwind$?executeSuperscalar@randomx@@YAXAEAY07_KAEAVSuperscalarProgram@1@PEAV?$vector@_KV?$allocator@_K@std@@@std@@@Z DD 040801H
	DD	0e006f008H
	DD	03002c004H
xdata	ENDS
;	COMDAT xdata
xdata	SEGMENT
$unwind$?generateSuperscalar@randomx@@YAXAEAVSuperscalarProgram@1@AEAVBlake2Generator@1@@Z DD 0b3019H
	DD	013a341fH
	DD	0130011fH
	DD	0e00ef010H
	DD	0c00ad00cH
	DD	060077008H
	DD	05006H
	DD	imagerel __GSHandlerCheck
	DD	0970H
xdata	ENDS
;	COMDAT xdata
xdata	SEGMENT
$ip2state$??0SuperscalarInstructionInfo@randomx@@AEAA@PEBDW4SuperscalarInstructionType@1@AEBVMacroOp@1@H@Z DB 02H
	DB	0ceH
	DB	02H
xdata	ENDS
;	COMDAT xdata
xdata	SEGMENT
$stateUnwindMap$??0SuperscalarInstructionInfo@randomx@@AEAA@PEBDW4SuperscalarInstructionType@1@AEBVMacroOp@1@H@Z DB 02H
	DB	0eH
	DD	imagerel ?dtor$0@?0???0SuperscalarInstructionInfo@randomx@@AEAA@PEBDW4SuperscalarInstructionType@1@AEBVMacroOp@1@H@Z@4HA
xdata	ENDS
;	COMDAT xdata
xdata	SEGMENT
$cppxdata$??0SuperscalarInstructionInfo@randomx@@AEAA@PEBDW4SuperscalarInstructionType@1@AEBVMacroOp@1@H@Z DB 028H
	DD	imagerel $stateUnwindMap$??0SuperscalarInstructionInfo@randomx@@AEAA@PEBDW4SuperscalarInstructionType@1@AEBVMacroOp@1@H@Z
	DD	imagerel $ip2state$??0SuperscalarInstructionInfo@randomx@@AEAA@PEBDW4SuperscalarInstructionType@1@AEBVMacroOp@1@H@Z
xdata	ENDS
;	COMDAT xdata
xdata	SEGMENT
$unwind$??0SuperscalarInstructionInfo@randomx@@AEAA@PEBDW4SuperscalarInstructionType@1@AEBVMacroOp@1@H@Z DD 020a11H
	DD	03006720aH
	DD	imagerel __CxxFrameHandler4
	DD	imagerel $cppxdata$??0SuperscalarInstructionInfo@randomx@@AEAA@PEBDW4SuperscalarInstructionType@1@AEBVMacroOp@1@H@Z
xdata	ENDS
;	COMDAT xdata
xdata	SEGMENT
$ip2state$??__E?ISUB_R@SuperscalarInstructionInfo@randomx@@2V12@B@@YAXXZ DB 02H
	DB	'l'
	DB	02H
xdata	ENDS
;	COMDAT xdata
xdata	SEGMENT
$stateUnwindMap$??__E?ISUB_R@SuperscalarInstructionInfo@randomx@@2V12@B@@YAXXZ DB 02H
	DB	0eH
	DD	imagerel ?dtor$0@?0???__E?ISUB_R@SuperscalarInstructionInfo@randomx@@2V12@B@@YAXXZ@4HA
xdata	ENDS
;	COMDAT xdata
xdata	SEGMENT
$cppxdata$??__E?ISUB_R@SuperscalarInstructionInfo@randomx@@2V12@B@@YAXXZ DB 028H
	DD	imagerel $stateUnwindMap$??__E?ISUB_R@SuperscalarInstructionInfo@randomx@@2V12@B@@YAXXZ
	DD	imagerel $ip2state$??__E?ISUB_R@SuperscalarInstructionInfo@randomx@@2V12@B@@YAXXZ
xdata	ENDS
;	COMDAT xdata
xdata	SEGMENT
$unwind$??__E?ISUB_R@SuperscalarInstructionInfo@randomx@@2V12@B@@YAXXZ DD 010411H
	DD	08204H
	DD	imagerel __CxxFrameHandler4
	DD	imagerel $cppxdata$??__E?ISUB_R@SuperscalarInstructionInfo@randomx@@2V12@B@@YAXXZ
xdata	ENDS
;	COMDAT xdata
xdata	SEGMENT
$unwind$??__F?ISUB_R@SuperscalarInstructionInfo@randomx@@2V12@B@@YAXXZ DD 010401H
	DD	04204H
xdata	ENDS
;	COMDAT xdata
xdata	SEGMENT
$unwind$??1SuperscalarInstructionInfo@randomx@@QEAA@XZ DD 020601H
	DD	030023206H
xdata	ENDS
;	COMDAT xdata
xdata	SEGMENT
$ip2state$??__E?IXOR_R@SuperscalarInstructionInfo@randomx@@2V12@B@@YAXXZ DB 02H
	DB	'l'
	DB	02H
xdata	ENDS
;	COMDAT xdata
xdata	SEGMENT
$stateUnwindMap$??__E?IXOR_R@SuperscalarInstructionInfo@randomx@@2V12@B@@YAXXZ DB 02H
	DB	0eH
	DD	imagerel ?dtor$0@?0???__E?IXOR_R@SuperscalarInstructionInfo@randomx@@2V12@B@@YAXXZ@4HA
xdata	ENDS
;	COMDAT xdata
xdata	SEGMENT
$cppxdata$??__E?IXOR_R@SuperscalarInstructionInfo@randomx@@2V12@B@@YAXXZ DB 028H
	DD	imagerel $stateUnwindMap$??__E?IXOR_R@SuperscalarInstructionInfo@randomx@@2V12@B@@YAXXZ
	DD	imagerel $ip2state$??__E?IXOR_R@SuperscalarInstructionInfo@randomx@@2V12@B@@YAXXZ
xdata	ENDS
;	COMDAT xdata
xdata	SEGMENT
$unwind$??__E?IXOR_R@SuperscalarInstructionInfo@randomx@@2V12@B@@YAXXZ DD 010411H
	DD	08204H
	DD	imagerel __CxxFrameHandler4
	DD	imagerel $cppxdata$??__E?IXOR_R@SuperscalarInstructionInfo@randomx@@2V12@B@@YAXXZ
xdata	ENDS
;	COMDAT xdata
xdata	SEGMENT
$unwind$??__F?IXOR_R@SuperscalarInstructionInfo@randomx@@2V12@B@@YAXXZ DD 010401H
	DD	04204H
xdata	ENDS
;	COMDAT xdata
xdata	SEGMENT
$ip2state$??__E?IADD_RS@SuperscalarInstructionInfo@randomx@@2V12@B@@YAXXZ DB 02H
	DB	'l'
	DB	02H
xdata	ENDS
;	COMDAT xdata
xdata	SEGMENT
$stateUnwindMap$??__E?IADD_RS@SuperscalarInstructionInfo@randomx@@2V12@B@@YAXXZ DB 02H
	DB	0eH
	DD	imagerel ?dtor$0@?0???__E?IADD_RS@SuperscalarInstructionInfo@randomx@@2V12@B@@YAXXZ@4HA
xdata	ENDS
;	COMDAT xdata
xdata	SEGMENT
$cppxdata$??__E?IADD_RS@SuperscalarInstructionInfo@randomx@@2V12@B@@YAXXZ DB 028H
	DD	imagerel $stateUnwindMap$??__E?IADD_RS@SuperscalarInstructionInfo@randomx@@2V12@B@@YAXXZ
	DD	imagerel $ip2state$??__E?IADD_RS@SuperscalarInstructionInfo@randomx@@2V12@B@@YAXXZ
xdata	ENDS
;	COMDAT xdata
xdata	SEGMENT
$unwind$??__E?IADD_RS@SuperscalarInstructionInfo@randomx@@2V12@B@@YAXXZ DD 010411H
	DD	08204H
	DD	imagerel __CxxFrameHandler4
	DD	imagerel $cppxdata$??__E?IADD_RS@SuperscalarInstructionInfo@randomx@@2V12@B@@YAXXZ
xdata	ENDS
;	COMDAT xdata
xdata	SEGMENT
$unwind$??__F?IADD_RS@SuperscalarInstructionInfo@randomx@@2V12@B@@YAXXZ DD 010401H
	DD	04204H
xdata	ENDS
;	COMDAT xdata
xdata	SEGMENT
$ip2state$??__E?IMUL_R@SuperscalarInstructionInfo@randomx@@2V12@B@@YAXXZ DB 02H
	DB	'l'
	DB	02H
xdata	ENDS
;	COMDAT xdata
xdata	SEGMENT
$stateUnwindMap$??__E?IMUL_R@SuperscalarInstructionInfo@randomx@@2V12@B@@YAXXZ DB 02H
	DB	0eH
	DD	imagerel ?dtor$0@?0???__E?IMUL_R@SuperscalarInstructionInfo@randomx@@2V12@B@@YAXXZ@4HA
xdata	ENDS
;	COMDAT xdata
xdata	SEGMENT
$cppxdata$??__E?IMUL_R@SuperscalarInstructionInfo@randomx@@2V12@B@@YAXXZ DB 028H
	DD	imagerel $stateUnwindMap$??__E?IMUL_R@SuperscalarInstructionInfo@randomx@@2V12@B@@YAXXZ
	DD	imagerel $ip2state$??__E?IMUL_R@SuperscalarInstructionInfo@randomx@@2V12@B@@YAXXZ
xdata	ENDS
;	COMDAT xdata
xdata	SEGMENT
$unwind$??__E?IMUL_R@SuperscalarInstructionInfo@randomx@@2V12@B@@YAXXZ DD 010411H
	DD	08204H
	DD	imagerel __CxxFrameHandler4
	DD	imagerel $cppxdata$??__E?IMUL_R@SuperscalarInstructionInfo@randomx@@2V12@B@@YAXXZ
xdata	ENDS
;	COMDAT xdata
xdata	SEGMENT
$unwind$??__F?IMUL_R@SuperscalarInstructionInfo@randomx@@2V12@B@@YAXXZ DD 010401H
	DD	04204H
xdata	ENDS
;	COMDAT xdata
xdata	SEGMENT
$ip2state$??__E?IROR_C@SuperscalarInstructionInfo@randomx@@2V12@B@@YAXXZ DB 02H
	DB	'l'
	DB	02H
xdata	ENDS
;	COMDAT xdata
xdata	SEGMENT
$stateUnwindMap$??__E?IROR_C@SuperscalarInstructionInfo@randomx@@2V12@B@@YAXXZ DB 02H
	DB	0eH
	DD	imagerel ?dtor$0@?0???__E?IROR_C@SuperscalarInstructionInfo@randomx@@2V12@B@@YAXXZ@4HA
xdata	ENDS
;	COMDAT xdata
xdata	SEGMENT
$cppxdata$??__E?IROR_C@SuperscalarInstructionInfo@randomx@@2V12@B@@YAXXZ DB 028H
	DD	imagerel $stateUnwindMap$??__E?IROR_C@SuperscalarInstructionInfo@randomx@@2V12@B@@YAXXZ
	DD	imagerel $ip2state$??__E?IROR_C@SuperscalarInstructionInfo@randomx@@2V12@B@@YAXXZ
xdata	ENDS
;	COMDAT xdata
xdata	SEGMENT
$unwind$??__E?IROR_C@SuperscalarInstructionInfo@randomx@@2V12@B@@YAXXZ DD 010411H
	DD	08204H
	DD	imagerel __CxxFrameHandler4
	DD	imagerel $cppxdata$??__E?IROR_C@SuperscalarInstructionInfo@randomx@@2V12@B@@YAXXZ
xdata	ENDS
;	COMDAT xdata
xdata	SEGMENT
$unwind$??__F?IROR_C@SuperscalarInstructionInfo@randomx@@2V12@B@@YAXXZ DD 010401H
	DD	04204H
xdata	ENDS
;	COMDAT xdata
xdata	SEGMENT
$ip2state$??__E?IADD_C7@SuperscalarInstructionInfo@randomx@@2V12@B@@YAXXZ DB 02H
	DB	'l'
	DB	02H
xdata	ENDS
;	COMDAT xdata
xdata	SEGMENT
$stateUnwindMap$??__E?IADD_C7@SuperscalarInstructionInfo@randomx@@2V12@B@@YAXXZ DB 02H
	DB	0eH
	DD	imagerel ?dtor$0@?0???__E?IADD_C7@SuperscalarInstructionInfo@randomx@@2V12@B@@YAXXZ@4HA
xdata	ENDS
;	COMDAT xdata
xdata	SEGMENT
$cppxdata$??__E?IADD_C7@SuperscalarInstructionInfo@randomx@@2V12@B@@YAXXZ DB 028H
	DD	imagerel $stateUnwindMap$??__E?IADD_C7@SuperscalarInstructionInfo@randomx@@2V12@B@@YAXXZ
	DD	imagerel $ip2state$??__E?IADD_C7@SuperscalarInstructionInfo@randomx@@2V12@B@@YAXXZ
xdata	ENDS
;	COMDAT xdata
xdata	SEGMENT
$unwind$??__E?IADD_C7@SuperscalarInstructionInfo@randomx@@2V12@B@@YAXXZ DD 010411H
	DD	08204H
	DD	imagerel __CxxFrameHandler4
	DD	imagerel $cppxdata$??__E?IADD_C7@SuperscalarInstructionInfo@randomx@@2V12@B@@YAXXZ
xdata	ENDS
;	COMDAT xdata
xdata	SEGMENT
$unwind$??__F?IADD_C7@SuperscalarInstructionInfo@randomx@@2V12@B@@YAXXZ DD 010401H
	DD	04204H
xdata	ENDS
;	COMDAT xdata
xdata	SEGMENT
$ip2state$??__E?IXOR_C7@SuperscalarInstructionInfo@randomx@@2V12@B@@YAXXZ DB 02H
	DB	'l'
	DB	02H
xdata	ENDS
;	COMDAT xdata
xdata	SEGMENT
$stateUnwindMap$??__E?IXOR_C7@SuperscalarInstructionInfo@randomx@@2V12@B@@YAXXZ DB 02H
	DB	0eH
	DD	imagerel ?dtor$0@?0???__E?IXOR_C7@SuperscalarInstructionInfo@randomx@@2V12@B@@YAXXZ@4HA
xdata	ENDS
;	COMDAT xdata
xdata	SEGMENT
$cppxdata$??__E?IXOR_C7@SuperscalarInstructionInfo@randomx@@2V12@B@@YAXXZ DB 028H
	DD	imagerel $stateUnwindMap$??__E?IXOR_C7@SuperscalarInstructionInfo@randomx@@2V12@B@@YAXXZ
	DD	imagerel $ip2state$??__E?IXOR_C7@SuperscalarInstructionInfo@randomx@@2V12@B@@YAXXZ
xdata	ENDS
;	COMDAT xdata
xdata	SEGMENT
$unwind$??__E?IXOR_C7@SuperscalarInstructionInfo@randomx@@2V12@B@@YAXXZ DD 010411H
	DD	08204H
	DD	imagerel __CxxFrameHandler4
	DD	imagerel $cppxdata$??__E?IXOR_C7@SuperscalarInstructionInfo@randomx@@2V12@B@@YAXXZ
xdata	ENDS
;	COMDAT xdata
xdata	SEGMENT
$unwind$??__F?IXOR_C7@SuperscalarInstructionInfo@randomx@@2V12@B@@YAXXZ DD 010401H
	DD	04204H
xdata	ENDS
;	COMDAT xdata
xdata	SEGMENT
$ip2state$??__E?IADD_C8@SuperscalarInstructionInfo@randomx@@2V12@B@@YAXXZ DB 02H
	DB	'l'
	DB	02H
xdata	ENDS
;	COMDAT xdata
xdata	SEGMENT
$stateUnwindMap$??__E?IADD_C8@SuperscalarInstructionInfo@randomx@@2V12@B@@YAXXZ DB 02H
	DB	0eH
	DD	imagerel ?dtor$0@?0???__E?IADD_C8@SuperscalarInstructionInfo@randomx@@2V12@B@@YAXXZ@4HA
xdata	ENDS
;	COMDAT xdata
xdata	SEGMENT
$cppxdata$??__E?IADD_C8@SuperscalarInstructionInfo@randomx@@2V12@B@@YAXXZ DB 028H
	DD	imagerel $stateUnwindMap$??__E?IADD_C8@SuperscalarInstructionInfo@randomx@@2V12@B@@YAXXZ
	DD	imagerel $ip2state$??__E?IADD_C8@SuperscalarInstructionInfo@randomx@@2V12@B@@YAXXZ
xdata	ENDS
;	COMDAT xdata
xdata	SEGMENT
$unwind$??__E?IADD_C8@SuperscalarInstructionInfo@randomx@@2V12@B@@YAXXZ DD 010411H
	DD	08204H
	DD	imagerel __CxxFrameHandler4
	DD	imagerel $cppxdata$??__E?IADD_C8@SuperscalarInstructionInfo@randomx@@2V12@B@@YAXXZ
xdata	ENDS
;	COMDAT xdata
xdata	SEGMENT
$unwind$??__F?IADD_C8@SuperscalarInstructionInfo@randomx@@2V12@B@@YAXXZ DD 010401H
	DD	04204H
xdata	ENDS
;	COMDAT xdata
xdata	SEGMENT
$ip2state$??__E?IXOR_C8@SuperscalarInstructionInfo@randomx@@2V12@B@@YAXXZ DB 02H
	DB	'l'
	DB	02H
xdata	ENDS
;	COMDAT xdata
xdata	SEGMENT
$stateUnwindMap$??__E?IXOR_C8@SuperscalarInstructionInfo@randomx@@2V12@B@@YAXXZ DB 02H
	DB	0eH
	DD	imagerel ?dtor$0@?0???__E?IXOR_C8@SuperscalarInstructionInfo@randomx@@2V12@B@@YAXXZ@4HA
xdata	ENDS
;	COMDAT xdata
xdata	SEGMENT
$cppxdata$??__E?IXOR_C8@SuperscalarInstructionInfo@randomx@@2V12@B@@YAXXZ DB 028H
	DD	imagerel $stateUnwindMap$??__E?IXOR_C8@SuperscalarInstructionInfo@randomx@@2V12@B@@YAXXZ
	DD	imagerel $ip2state$??__E?IXOR_C8@SuperscalarInstructionInfo@randomx@@2V12@B@@YAXXZ
xdata	ENDS
;	COMDAT xdata
xdata	SEGMENT
$unwind$??__E?IXOR_C8@SuperscalarInstructionInfo@randomx@@2V12@B@@YAXXZ DD 010411H
	DD	08204H
	DD	imagerel __CxxFrameHandler4
	DD	imagerel $cppxdata$??__E?IXOR_C8@SuperscalarInstructionInfo@randomx@@2V12@B@@YAXXZ
xdata	ENDS
;	COMDAT xdata
xdata	SEGMENT
$unwind$??__F?IXOR_C8@SuperscalarInstructionInfo@randomx@@2V12@B@@YAXXZ DD 010401H
	DD	04204H
xdata	ENDS
;	COMDAT xdata
xdata	SEGMENT
$ip2state$??__E?IADD_C9@SuperscalarInstructionInfo@randomx@@2V12@B@@YAXXZ DB 02H
	DB	'l'
	DB	02H
xdata	ENDS
;	COMDAT xdata
xdata	SEGMENT
$stateUnwindMap$??__E?IADD_C9@SuperscalarInstructionInfo@randomx@@2V12@B@@YAXXZ DB 02H
	DB	0eH
	DD	imagerel ?dtor$0@?0???__E?IADD_C9@SuperscalarInstructionInfo@randomx@@2V12@B@@YAXXZ@4HA
xdata	ENDS
;	COMDAT xdata
xdata	SEGMENT
$cppxdata$??__E?IADD_C9@SuperscalarInstructionInfo@randomx@@2V12@B@@YAXXZ DB 028H
	DD	imagerel $stateUnwindMap$??__E?IADD_C9@SuperscalarInstructionInfo@randomx@@2V12@B@@YAXXZ
	DD	imagerel $ip2state$??__E?IADD_C9@SuperscalarInstructionInfo@randomx@@2V12@B@@YAXXZ
xdata	ENDS
;	COMDAT xdata
xdata	SEGMENT
$unwind$??__E?IADD_C9@SuperscalarInstructionInfo@randomx@@2V12@B@@YAXXZ DD 010411H
	DD	08204H
	DD	imagerel __CxxFrameHandler4
	DD	imagerel $cppxdata$??__E?IADD_C9@SuperscalarInstructionInfo@randomx@@2V12@B@@YAXXZ
xdata	ENDS
;	COMDAT xdata
xdata	SEGMENT
$unwind$??__F?IADD_C9@SuperscalarInstructionInfo@randomx@@2V12@B@@YAXXZ DD 010401H
	DD	04204H
xdata	ENDS
;	COMDAT xdata
xdata	SEGMENT
$ip2state$??__E?IXOR_C9@SuperscalarInstructionInfo@randomx@@2V12@B@@YAXXZ DB 02H
	DB	'l'
	DB	02H
xdata	ENDS
;	COMDAT xdata
xdata	SEGMENT
$stateUnwindMap$??__E?IXOR_C9@SuperscalarInstructionInfo@randomx@@2V12@B@@YAXXZ DB 02H
	DB	0eH
	DD	imagerel ?dtor$0@?0???__E?IXOR_C9@SuperscalarInstructionInfo@randomx@@2V12@B@@YAXXZ@4HA
xdata	ENDS
;	COMDAT xdata
xdata	SEGMENT
$cppxdata$??__E?IXOR_C9@SuperscalarInstructionInfo@randomx@@2V12@B@@YAXXZ DB 028H
	DD	imagerel $stateUnwindMap$??__E?IXOR_C9@SuperscalarInstructionInfo@randomx@@2V12@B@@YAXXZ
	DD	imagerel $ip2state$??__E?IXOR_C9@SuperscalarInstructionInfo@randomx@@2V12@B@@YAXXZ
xdata	ENDS
;	COMDAT xdata
xdata	SEGMENT
$unwind$??__E?IXOR_C9@SuperscalarInstructionInfo@randomx@@2V12@B@@YAXXZ DD 010411H
	DD	08204H
	DD	imagerel __CxxFrameHandler4
	DD	imagerel $cppxdata$??__E?IXOR_C9@SuperscalarInstructionInfo@randomx@@2V12@B@@YAXXZ
xdata	ENDS
;	COMDAT xdata
xdata	SEGMENT
$unwind$??__F?IXOR_C9@SuperscalarInstructionInfo@randomx@@2V12@B@@YAXXZ DD 010401H
	DD	04204H
xdata	ENDS
;	COMDAT xdata
xdata	SEGMENT
$ip2state$??__E?IMULH_R@SuperscalarInstructionInfo@randomx@@2V12@B@@YAXXZ DB 02H
	DB	0d2H
	DB	02H
xdata	ENDS
;	COMDAT xdata
xdata	SEGMENT
$stateUnwindMap$??__E?IMULH_R@SuperscalarInstructionInfo@randomx@@2V12@B@@YAXXZ DB 02H
	DB	0eH
	DD	imagerel ?dtor$0@?0???__E?IMULH_R@SuperscalarInstructionInfo@randomx@@2V12@B@@YAXXZ@4HA
xdata	ENDS
;	COMDAT xdata
xdata	SEGMENT
$cppxdata$??__E?IMULH_R@SuperscalarInstructionInfo@randomx@@2V12@B@@YAXXZ DB 028H
	DD	imagerel $stateUnwindMap$??__E?IMULH_R@SuperscalarInstructionInfo@randomx@@2V12@B@@YAXXZ
	DD	imagerel $ip2state$??__E?IMULH_R@SuperscalarInstructionInfo@randomx@@2V12@B@@YAXXZ
xdata	ENDS
;	COMDAT xdata
xdata	SEGMENT
$unwind$??__E?IMULH_R@SuperscalarInstructionInfo@randomx@@2V12@B@@YAXXZ DD 040a11H
	DD	0a340aH
	DD	07006720aH
	DD	imagerel __CxxFrameHandler4
	DD	imagerel $cppxdata$??__E?IMULH_R@SuperscalarInstructionInfo@randomx@@2V12@B@@YAXXZ
xdata	ENDS
;	COMDAT xdata
xdata	SEGMENT
$unwind$??__F?IMULH_R@SuperscalarInstructionInfo@randomx@@2V12@B@@YAXXZ DD 010401H
	DD	04204H
xdata	ENDS
;	COMDAT xdata
xdata	SEGMENT
$ip2state$??__E?ISMULH_R@SuperscalarInstructionInfo@randomx@@2V12@B@@YAXXZ DB 02H
	DB	0d2H
	DB	02H
xdata	ENDS
;	COMDAT xdata
xdata	SEGMENT
$stateUnwindMap$??__E?ISMULH_R@SuperscalarInstructionInfo@randomx@@2V12@B@@YAXXZ DB 02H
	DB	0eH
	DD	imagerel ?dtor$0@?0???__E?ISMULH_R@SuperscalarInstructionInfo@randomx@@2V12@B@@YAXXZ@4HA
xdata	ENDS
;	COMDAT xdata
xdata	SEGMENT
$cppxdata$??__E?ISMULH_R@SuperscalarInstructionInfo@randomx@@2V12@B@@YAXXZ DB 028H
	DD	imagerel $stateUnwindMap$??__E?ISMULH_R@SuperscalarInstructionInfo@randomx@@2V12@B@@YAXXZ
	DD	imagerel $ip2state$??__E?ISMULH_R@SuperscalarInstructionInfo@randomx@@2V12@B@@YAXXZ
xdata	ENDS
;	COMDAT xdata
xdata	SEGMENT
$unwind$??__E?ISMULH_R@SuperscalarInstructionInfo@randomx@@2V12@B@@YAXXZ DD 040a11H
	DD	0a340aH
	DD	07006720aH
	DD	imagerel __CxxFrameHandler4
	DD	imagerel $cppxdata$??__E?ISMULH_R@SuperscalarInstructionInfo@randomx@@2V12@B@@YAXXZ
xdata	ENDS
;	COMDAT xdata
xdata	SEGMENT
$unwind$??__F?ISMULH_R@SuperscalarInstructionInfo@randomx@@2V12@B@@YAXXZ DD 010401H
	DD	04204H
xdata	ENDS
;	COMDAT xdata
xdata	SEGMENT
$ip2state$??__E?IMUL_RCP@SuperscalarInstructionInfo@randomx@@2V12@B@@YAXXZ DB 02H
	DB	0d2H
	DB	02H
xdata	ENDS
;	COMDAT xdata
xdata	SEGMENT
$stateUnwindMap$??__E?IMUL_RCP@SuperscalarInstructionInfo@randomx@@2V12@B@@YAXXZ DB 02H
	DB	0eH
	DD	imagerel ?dtor$0@?0???__E?IMUL_RCP@SuperscalarInstructionInfo@randomx@@2V12@B@@YAXXZ@4HA
xdata	ENDS
;	COMDAT xdata
xdata	SEGMENT
$cppxdata$??__E?IMUL_RCP@SuperscalarInstructionInfo@randomx@@2V12@B@@YAXXZ DB 028H
	DD	imagerel $stateUnwindMap$??__E?IMUL_RCP@SuperscalarInstructionInfo@randomx@@2V12@B@@YAXXZ
	DD	imagerel $ip2state$??__E?IMUL_RCP@SuperscalarInstructionInfo@randomx@@2V12@B@@YAXXZ
xdata	ENDS
;	COMDAT xdata
xdata	SEGMENT
$unwind$??__E?IMUL_RCP@SuperscalarInstructionInfo@randomx@@2V12@B@@YAXXZ DD 040a11H
	DD	0a340aH
	DD	07006720aH
	DD	imagerel __CxxFrameHandler4
	DD	imagerel $cppxdata$??__E?IMUL_RCP@SuperscalarInstructionInfo@randomx@@2V12@B@@YAXXZ
xdata	ENDS
;	COMDAT xdata
xdata	SEGMENT
$unwind$??__F?IMUL_RCP@SuperscalarInstructionInfo@randomx@@2V12@B@@YAXXZ DD 010401H
	DD	04204H
xdata	ENDS
;	COMDAT xdata
xdata	SEGMENT
$unwind$??__F?NOP@SuperscalarInstructionInfo@randomx@@2V12@B@@YAXXZ DD 010401H
	DD	04204H
xdata	ENDS
;	COMDAT xdata
xdata	SEGMENT
$chain$3$?fetchNext@DecoderBuffer@randomx@@QEBAPEBV12@W4SuperscalarInstructionType@2@HHAEAVBlake2Generator@2@@Z DD 021H
	DD	imagerel $LN22
	DD	imagerel $LN22+40
	DD	imagerel $unwind$?fetchNext@DecoderBuffer@randomx@@QEBAPEBV12@W4SuperscalarInstructionType@2@HHAEAVBlake2Generator@2@@Z
xdata	ENDS
;	COMDAT xdata
xdata	SEGMENT
$chain$2$?fetchNext@DecoderBuffer@randomx@@QEBAPEBV12@W4SuperscalarInstructionType@2@HHAEAVBlake2Generator@2@@Z DD 020021H
	DD	063400H
	DD	imagerel $LN22
	DD	imagerel $LN22+40
	DD	imagerel $unwind$?fetchNext@DecoderBuffer@randomx@@QEBAPEBV12@W4SuperscalarInstructionType@2@HHAEAVBlake2Generator@2@@Z
xdata	ENDS
;	COMDAT xdata
xdata	SEGMENT
$chain$0$?fetchNext@DecoderBuffer@randomx@@QEBAPEBV12@W4SuperscalarInstructionType@2@HHAEAVBlake2Generator@2@@Z DD 020521H
	DD	063405H
	DD	imagerel $LN22
	DD	imagerel $LN22+40
	DD	imagerel $unwind$?fetchNext@DecoderBuffer@randomx@@QEBAPEBV12@W4SuperscalarInstructionType@2@HHAEAVBlake2Generator@2@@Z
xdata	ENDS
;	COMDAT xdata
xdata	SEGMENT
$unwind$?fetchNext@DecoderBuffer@randomx@@QEBAPEBV12@W4SuperscalarInstructionType@2@HHAEAVBlake2Generator@2@@Z DD 010401H
	DD	06204H
xdata	ENDS
;	COMDAT xdata
xdata	SEGMENT
$unwind$?fetchNextDefault@DecoderBuffer@randomx@@AEBAPEBV12@AEAVBlake2Generator@2@@Z DD 020601H
	DD	030025206H
xdata	ENDS
;	COMDAT xdata
xdata	SEGMENT
$unwind$?selectRegister@randomx@@YA_NAEAV?$vector@HV?$allocator@H@std@@@std@@AEAVBlake2Generator@1@AEAH@Z DD 060f01H
	DD	09640fH
	DD	08340fH
	DD	0700b520fH
xdata	ENDS
;	COMDAT xdata
xdata	SEGMENT
$unwind$?createForSlot@SuperscalarInstruction@randomx@@QEAAXAEAVBlake2Generator@2@HH_N1@Z DD 060f01H
	DD	09640fH
	DD	08340fH
	DD	0700b520fH
xdata	ENDS
;	COMDAT xdata
xdata	SEGMENT
$chain$11$?create@SuperscalarInstruction@randomx@@QEAAXPEBVSuperscalarInstructionInfo@2@AEAVBlake2Generator@2@@Z DD 021H
	DD	imagerel $LN77
	DD	imagerel $LN77+53
	DD	imagerel $unwind$?create@SuperscalarInstruction@randomx@@QEAAXPEBVSuperscalarInstructionInfo@2@AEAVBlake2Generator@2@@Z
xdata	ENDS
;	COMDAT xdata
xdata	SEGMENT
$chain$10$?create@SuperscalarInstruction@randomx@@QEAAXPEBVSuperscalarInstructionInfo@2@AEAVBlake2Generator@2@@Z DD 020021H
	DD	086400H
	DD	imagerel $LN77
	DD	imagerel $LN77+53
	DD	imagerel $unwind$?create@SuperscalarInstruction@randomx@@QEAAXPEBVSuperscalarInstructionInfo@2@AEAVBlake2Generator@2@@Z
xdata	ENDS
;	COMDAT xdata
xdata	SEGMENT
$chain$8$?create@SuperscalarInstruction@randomx@@QEAAXPEBVSuperscalarInstructionInfo@2@AEAVBlake2Generator@2@@Z DD 020021H
	DD	086400H
	DD	imagerel $LN77
	DD	imagerel $LN77+53
	DD	imagerel $unwind$?create@SuperscalarInstruction@randomx@@QEAAXPEBVSuperscalarInstructionInfo@2@AEAVBlake2Generator@2@@Z
xdata	ENDS
;	COMDAT xdata
xdata	SEGMENT
$chain$6$?create@SuperscalarInstruction@randomx@@QEAAXPEBVSuperscalarInstructionInfo@2@AEAVBlake2Generator@2@@Z DD 020021H
	DD	086400H
	DD	imagerel $LN77
	DD	imagerel $LN77+53
	DD	imagerel $unwind$?create@SuperscalarInstruction@randomx@@QEAAXPEBVSuperscalarInstructionInfo@2@AEAVBlake2Generator@2@@Z
xdata	ENDS
;	COMDAT xdata
xdata	SEGMENT
$chain$4$?create@SuperscalarInstruction@randomx@@QEAAXPEBVSuperscalarInstructionInfo@2@AEAVBlake2Generator@2@@Z DD 020021H
	DD	086400H
	DD	imagerel $LN77
	DD	imagerel $LN77+53
	DD	imagerel $unwind$?create@SuperscalarInstruction@randomx@@QEAAXPEBVSuperscalarInstructionInfo@2@AEAVBlake2Generator@2@@Z
xdata	ENDS
;	COMDAT xdata
xdata	SEGMENT
$chain$2$?create@SuperscalarInstruction@randomx@@QEAAXPEBVSuperscalarInstructionInfo@2@AEAVBlake2Generator@2@@Z DD 020021H
	DD	086400H
	DD	imagerel $LN77
	DD	imagerel $LN77+53
	DD	imagerel $unwind$?create@SuperscalarInstruction@randomx@@QEAAXPEBVSuperscalarInstructionInfo@2@AEAVBlake2Generator@2@@Z
xdata	ENDS
;	COMDAT xdata
xdata	SEGMENT
$chain$0$?create@SuperscalarInstruction@randomx@@QEAAXPEBVSuperscalarInstructionInfo@2@AEAVBlake2Generator@2@@Z DD 020521H
	DD	086405H
	DD	imagerel $LN77
	DD	imagerel $LN77+53
	DD	imagerel $unwind$?create@SuperscalarInstruction@randomx@@QEAAXPEBVSuperscalarInstructionInfo@2@AEAVBlake2Generator@2@@Z
xdata	ENDS
;	COMDAT xdata
xdata	SEGMENT
$unwind$?create@SuperscalarInstruction@randomx@@QEAAXPEBVSuperscalarInstructionInfo@2@AEAVBlake2Generator@2@@Z DD 040a01H
	DD	09340aH
	DD	07006520aH
xdata	ENDS
;	COMDAT xdata
xdata	SEGMENT
$ip2state$?selectDestination@SuperscalarInstruction@randomx@@QEAA_NH_NAEAY07VRegisterInfo@2@AEAVBlake2Generator@2@@Z DB 02H
	DB	0cdH, 02H
	DB	02H
xdata	ENDS
;	COMDAT xdata
xdata	SEGMENT
$stateUnwindMap$?selectDestination@SuperscalarInstruction@randomx@@QEAA_NH_NAEAY07VRegisterInfo@2@AEAVBlake2Generator@2@@Z DB 02H
	DB	0aH
	DD	imagerel ??1?$vector@HV?$allocator@H@std@@@std@@QEAA@XZ
	DB	070H
xdata	ENDS
;	COMDAT xdata
xdata	SEGMENT
$cppxdata$?selectDestination@SuperscalarInstruction@randomx@@QEAA_NH_NAEAY07VRegisterInfo@2@AEAVBlake2Generator@2@@Z DB 028H
	DD	imagerel $stateUnwindMap$?selectDestination@SuperscalarInstruction@randomx@@QEAA_NH_NAEAY07VRegisterInfo@2@AEAVBlake2Generator@2@@Z
	DD	imagerel $ip2state$?selectDestination@SuperscalarInstruction@randomx@@QEAA_NH_NAEAY07VRegisterInfo@2@AEAVBlake2Generator@2@@Z
xdata	ENDS
;	COMDAT xdata
xdata	SEGMENT
$unwind$?selectDestination@SuperscalarInstruction@randomx@@QEAA_NH_NAEAY07VRegisterInfo@2@AEAVBlake2Generator@2@@Z DD 0c1c11H
	DD	013641cH
	DD	012541cH
	DD	011341cH
	DD	0f018921cH
	DD	0d014e016H
	DD	07010c012H
	DD	imagerel __CxxFrameHandler4
	DD	imagerel $cppxdata$?selectDestination@SuperscalarInstruction@randomx@@QEAA_NH_NAEAY07VRegisterInfo@2@AEAVBlake2Generator@2@@Z
xdata	ENDS
;	COMDAT xdata
xdata	SEGMENT
$ip2state$?selectSource@SuperscalarInstruction@randomx@@QEAA_NHAEAY07VRegisterInfo@2@AEAVBlake2Generator@2@@Z DB 02H
	DB	0d2H
	DB	02H
xdata	ENDS
;	COMDAT xdata
xdata	SEGMENT
$stateUnwindMap$?selectSource@SuperscalarInstruction@randomx@@QEAA_NHAEAY07VRegisterInfo@2@AEAVBlake2Generator@2@@Z DB 02H
	DB	0aH
	DD	imagerel ??1?$vector@HV?$allocator@H@std@@@std@@QEAA@XZ
	DB	070H
xdata	ENDS
;	COMDAT xdata
xdata	SEGMENT
$cppxdata$?selectSource@SuperscalarInstruction@randomx@@QEAA_NHAEAY07VRegisterInfo@2@AEAVBlake2Generator@2@@Z DB 028H
	DD	imagerel $stateUnwindMap$?selectSource@SuperscalarInstruction@randomx@@QEAA_NHAEAY07VRegisterInfo@2@AEAVBlake2Generator@2@@Z
	DD	imagerel $ip2state$?selectSource@SuperscalarInstruction@randomx@@QEAA_NHAEAY07VRegisterInfo@2@AEAVBlake2Generator@2@@Z
xdata	ENDS
;	COMDAT xdata
xdata	SEGMENT
$unwind$?selectSource@SuperscalarInstruction@randomx@@QEAA_NHAEAY07VRegisterInfo@2@AEAVBlake2Generator@2@@Z DD 0a1611H
	DD	0125416H
	DD	0113416H
	DD	0f0129216H
	DD	0c00ee010H
	DD	0600b700cH
	DD	imagerel __CxxFrameHandler4
	DD	imagerel $cppxdata$?selectSource@SuperscalarInstruction@randomx@@QEAA_NHAEAY07VRegisterInfo@2@AEAVBlake2Generator@2@@Z
xdata	ENDS
;	COMDAT xdata
xdata	SEGMENT
$unwind$??1?$vector@VMacroOp@randomx@@V?$allocator@VMacroOp@randomx@@@std@@@std@@QEAA@XZ DD 020601H
	DD	030023206H
xdata	ENDS
;	COMDAT xdata
xdata	SEGMENT
$unwind$?catch$5@?0???6?$basic_ostream@DU?$char_traits@D@std@@@std@@QEAAAEAV01@H@Z@4HA DD 020a01H
	DD	05006520aH
xdata	ENDS
;	COMDAT xdata
xdata	SEGMENT
$ip2state$??6?$basic_ostream@DU?$char_traits@D@std@@@std@@QEAAAEAV01@H@Z DB 0eH
	DB	'z'
	DB	00H
	DB	'P'
	DB	02H
	DB	084H
	DB	06H
	DB	0d8H
	DB	08H
	DB	0bcH
	DB	0cH
	DB	'4'
	DB	0eH
	DB	0a6H
	DB	04H
xdata	ENDS
;	COMDAT xdata
xdata	SEGMENT
$handlerMap$??6?$basic_ostream@DU?$char_traits@D@std@@@std@@QEAAAEAV01@H@Z DB 02H
	DB	011H
	DB	080H
	DD	imagerel ?catch$5@?0???6?$basic_ostream@DU?$char_traits@D@std@@@std@@QEAAAEAV01@H@Z@4HA
	DB	0b5H, 04H
xdata	ENDS
;	COMDAT xdata
xdata	SEGMENT
$tryMap$??6?$basic_ostream@DU?$char_traits@D@std@@@std@@QEAAAEAV01@H@Z DB 02H
	DB	06H
	DB	06H
	DB	08H
	DD	imagerel $handlerMap$??6?$basic_ostream@DU?$char_traits@D@std@@@std@@QEAAAEAV01@H@Z
xdata	ENDS
;	COMDAT xdata
xdata	SEGMENT
$stateUnwindMap$??6?$basic_ostream@DU?$char_traits@D@std@@@std@@QEAAAEAV01@H@Z DB 0eH
	DB	0aH
	DD	imagerel ??1_Sentry_base@?$basic_ostream@DU?$char_traits@D@std@@@std@@QEAA@XZ
	DB	060H
	DB	03aH
	DD	imagerel ??1sentry@?$basic_ostream@DU?$char_traits@D@std@@@std@@QEAA@XZ
	DB	060H
	DB	032H
	DD	imagerel ??1locale@std@@QEAA@XZ
	DB	080H
	DB	060H
	DB	068H
	DB	0aeH
	DD	imagerel __std_terminate
	DB	02eH
	DD	imagerel __std_terminate
xdata	ENDS
;	COMDAT xdata
xdata	SEGMENT
$cppxdata$??6?$basic_ostream@DU?$char_traits@D@std@@@std@@QEAAAEAV01@H@Z DB 038H
	DD	imagerel $stateUnwindMap$??6?$basic_ostream@DU?$char_traits@D@std@@@std@@QEAAAEAV01@H@Z
	DD	imagerel $tryMap$??6?$basic_ostream@DU?$char_traits@D@std@@@std@@QEAAAEAV01@H@Z
	DD	imagerel $ip2state$??6?$basic_ostream@DU?$char_traits@D@std@@@std@@QEAAAEAV01@H@Z
xdata	ENDS
;	COMDAT xdata
xdata	SEGMENT
$unwind$??6?$basic_ostream@DU?$char_traits@D@std@@@std@@QEAAAEAV01@H@Z DD 071319H
	DD	0120113H
	DD	0e00af00cH
	DD	060077008H
	DD	03006H
	DD	imagerel __CxxFrameHandler4
	DD	imagerel $cppxdata$??6?$basic_ostream@DU?$char_traits@D@std@@@std@@QEAAAEAV01@H@Z
xdata	ENDS
;	COMDAT xdata
xdata	SEGMENT
$unwind$?put@?$num_put@DV?$ostreambuf_iterator@DU?$char_traits@D@std@@@std@@@std@@QEBA?AV?$ostreambuf_iterator@DU?$char_traits@D@std@@@2@V32@AEAVios_base@2@DJ@Z DD 020601H
	DD	030027206H
xdata	ENDS
;	COMDAT xdata
xdata	SEGMENT
$unwind$?_Tidy@?$vector@VMacroOp@randomx@@V?$allocator@VMacroOp@randomx@@@std@@@std@@AEAAXXZ DD 020601H
	DD	030023206H
xdata	ENDS
;	COMDAT xdata
xdata	SEGMENT
$unwind$?deallocate@?$allocator@VMacroOp@randomx@@@std@@QEAAXQEAVMacroOp@randomx@@_K@Z DD 010401H
	DD	04204H
xdata	ENDS
;	COMDAT xdata
xdata	SEGMENT
$ip2state$??$?0$02@SuperscalarInstructionInfo@randomx@@AEAA@PEBDW4SuperscalarInstructionType@1@AEAY02$$CBVMacroOp@1@HHH@Z DB 02H
	DB	09H, 02H
	DB	02H
xdata	ENDS
;	COMDAT xdata
xdata	SEGMENT
$stateUnwindMap$??$?0$02@SuperscalarInstructionInfo@randomx@@AEAA@PEBDW4SuperscalarInstructionType@1@AEAY02$$CBVMacroOp@1@HHH@Z DB 02H
	DB	0eH
	DD	imagerel ?dtor$0@?0???$?0$02@SuperscalarInstructionInfo@randomx@@AEAA@PEBDW4SuperscalarInstructionType@1@AEAY02$$CBVMacroOp@1@HHH@Z@4HA
xdata	ENDS
;	COMDAT xdata
xdata	SEGMENT
$cppxdata$??$?0$02@SuperscalarInstructionInfo@randomx@@AEAA@PEBDW4SuperscalarInstructionType@1@AEAY02$$CBVMacroOp@1@HHH@Z DB 028H
	DD	imagerel $stateUnwindMap$??$?0$02@SuperscalarInstructionInfo@randomx@@AEAA@PEBDW4SuperscalarInstructionType@1@AEAY02$$CBVMacroOp@1@HHH@Z
	DD	imagerel $ip2state$??$?0$02@SuperscalarInstructionInfo@randomx@@AEAA@PEBDW4SuperscalarInstructionType@1@AEAY02$$CBVMacroOp@1@HHH@Z
xdata	ENDS
;	COMDAT xdata
xdata	SEGMENT
$unwind$??$?0$02@SuperscalarInstructionInfo@randomx@@AEAA@PEBDW4SuperscalarInstructionType@1@AEAY02$$CBVMacroOp@1@HHH@Z DD 081911H
	DD	0d6419H
	DD	0c5419H
	DD	0b3419H
	DD	070157219H
	DD	imagerel __CxxFrameHandler4
	DD	imagerel $cppxdata$??$?0$02@SuperscalarInstructionInfo@randomx@@AEAA@PEBDW4SuperscalarInstructionType@1@AEAY02$$CBVMacroOp@1@HHH@Z
xdata	ENDS
;	COMDAT xdata
xdata	SEGMENT
$ip2state$??$?0$01@SuperscalarInstructionInfo@randomx@@AEAA@PEBDW4SuperscalarInstructionType@1@AEAY01$$CBVMacroOp@1@HHH@Z DB 02H
	DB	0c1H, 02H
	DB	02H
xdata	ENDS
;	COMDAT xdata
xdata	SEGMENT
$stateUnwindMap$??$?0$01@SuperscalarInstructionInfo@randomx@@AEAA@PEBDW4SuperscalarInstructionType@1@AEAY01$$CBVMacroOp@1@HHH@Z DB 02H
	DB	0eH
	DD	imagerel ?dtor$0@?0???$?0$01@SuperscalarInstructionInfo@randomx@@AEAA@PEBDW4SuperscalarInstructionType@1@AEAY01$$CBVMacroOp@1@HHH@Z@4HA
xdata	ENDS
;	COMDAT xdata
xdata	SEGMENT
$cppxdata$??$?0$01@SuperscalarInstructionInfo@randomx@@AEAA@PEBDW4SuperscalarInstructionType@1@AEAY01$$CBVMacroOp@1@HHH@Z DB 028H
	DD	imagerel $stateUnwindMap$??$?0$01@SuperscalarInstructionInfo@randomx@@AEAA@PEBDW4SuperscalarInstructionType@1@AEAY01$$CBVMacroOp@1@HHH@Z
	DD	imagerel $ip2state$??$?0$01@SuperscalarInstructionInfo@randomx@@AEAA@PEBDW4SuperscalarInstructionType@1@AEAY01$$CBVMacroOp@1@HHH@Z
xdata	ENDS
;	COMDAT xdata
xdata	SEGMENT
$unwind$??$?0$01@SuperscalarInstructionInfo@randomx@@AEAA@PEBDW4SuperscalarInstructionType@1@AEAY01$$CBVMacroOp@1@HHH@Z DD 061411H
	DD	0b6414H
	DD	0a3414H
	DD	070107214H
	DD	imagerel __CxxFrameHandler4
	DD	imagerel $cppxdata$??$?0$01@SuperscalarInstructionInfo@randomx@@AEAA@PEBDW4SuperscalarInstructionType@1@AEAY01$$CBVMacroOp@1@HHH@Z
xdata	ENDS
;	COMDAT xdata
xdata	SEGMENT
$unwind$?catch$4@?0???$?6U?$char_traits@D@std@@@std@@YAAEAV?$basic_ostream@DU?$char_traits@D@std@@@0@AEAV10@PEBD@Z@4HA DD 020a01H
	DD	05006320aH
xdata	ENDS
;	COMDAT xdata
xdata	SEGMENT
$ip2state$??$?6U?$char_traits@D@std@@@std@@YAAEAV?$basic_ostream@DU?$char_traits@D@std@@@0@AEAV10@PEBD@Z DB 0eH
	DB	0e6H
	DB	00H
	DB	'P'
	DB	02H
	DB	'A', 02H
	DB	06H
	DB	0a9H, 02H
	DB	04H
	DB	08cH
	DB	0aH
	DB	'6'
	DB	0cH
	DB	0c2H
	DB	04H
xdata	ENDS
;	COMDAT xdata
xdata	SEGMENT
$handlerMap$??$?6U?$char_traits@D@std@@@std@@YAAEAV?$basic_ostream@DU?$char_traits@D@std@@@0@AEAV10@PEBD@Z DB 02H
	DB	011H
	DB	080H
	DD	imagerel ?catch$4@?0???$?6U?$char_traits@D@std@@@std@@YAAEAV?$basic_ostream@DU?$char_traits@D@std@@@0@AEAV10@PEBD@Z@4HA
	DB	']', 07H
xdata	ENDS
;	COMDAT xdata
xdata	SEGMENT
$tryMap$??$?6U?$char_traits@D@std@@@std@@YAAEAV?$basic_ostream@DU?$char_traits@D@std@@@0@AEAV10@PEBD@Z DB 02H
	DB	04H
	DB	04H
	DB	06H
	DD	imagerel $handlerMap$??$?6U?$char_traits@D@std@@@std@@YAAEAV?$basic_ostream@DU?$char_traits@D@std@@@0@AEAV10@PEBD@Z
xdata	ENDS
;	COMDAT xdata
xdata	SEGMENT
$stateUnwindMap$??$?6U?$char_traits@D@std@@@std@@YAAEAV?$basic_ostream@DU?$char_traits@D@std@@@0@AEAV10@PEBD@Z DB 0cH
	DB	0aH
	DD	imagerel ??1_Sentry_base@?$basic_ostream@DU?$char_traits@D@std@@@std@@QEAA@XZ
	DB	050H
	DB	03aH
	DD	imagerel ??1sentry@?$basic_ostream@DU?$char_traits@D@std@@@std@@QEAA@XZ
	DB	050H
	DB	030H
	DB	038H
	DB	07eH
	DD	imagerel __std_terminate
	DB	02eH
	DD	imagerel __std_terminate
xdata	ENDS
;	COMDAT xdata
xdata	SEGMENT
$cppxdata$??$?6U?$char_traits@D@std@@@std@@YAAEAV?$basic_ostream@DU?$char_traits@D@std@@@0@AEAV10@PEBD@Z DB 038H
	DD	imagerel $stateUnwindMap$??$?6U?$char_traits@D@std@@@std@@YAAEAV?$basic_ostream@DU?$char_traits@D@std@@@0@AEAV10@PEBD@Z
	DD	imagerel $tryMap$??$?6U?$char_traits@D@std@@@std@@YAAEAV?$basic_ostream@DU?$char_traits@D@std@@@0@AEAV10@PEBD@Z
	DD	imagerel $ip2state$??$?6U?$char_traits@D@std@@@std@@YAAEAV?$basic_ostream@DU?$char_traits@D@std@@@0@AEAV10@PEBD@Z
xdata	ENDS
;	COMDAT xdata
xdata	SEGMENT
$unwind$??$?6U?$char_traits@D@std@@@std@@YAAEAV?$basic_ostream@DU?$char_traits@D@std@@@0@AEAV10@PEBD@Z DD 0a1a19H
	DD	019641aH
	DD	018341aH
	DD	0f013f21aH
	DD	0d00fe011H
	DD	0700bc00dH
	DD	imagerel __CxxFrameHandler4
	DD	imagerel $cppxdata$??$?6U?$char_traits@D@std@@@std@@YAAEAV?$basic_ostream@DU?$char_traits@D@std@@@0@AEAV10@PEBD@Z
xdata	ENDS
;	COMDAT xdata
xdata	SEGMENT
$chain$4$??$scheduleMop@$0A@@randomx@@YAHAEBVMacroOp@0@AEAY1KO@2HHH@Z DD 020021H
	DD	027400H
	DD	imagerel ??$scheduleMop@$0A@@randomx@@YAHAEBVMacroOp@0@AEAY1KO@2HHH@Z
	DD	imagerel ??$scheduleMop@$0A@@randomx@@YAHAEBVMacroOp@0@AEAY1KO@2HHH@Z+39
	DD	imagerel $unwind$??$scheduleMop@$0A@@randomx@@YAHAEBVMacroOp@0@AEAY1KO@2HHH@Z
xdata	ENDS
;	COMDAT xdata
xdata	SEGMENT
$chain$2$??$scheduleMop@$0A@@randomx@@YAHAEBVMacroOp@0@AEAY1KO@2HHH@Z DD 020021H
	DD	027400H
	DD	imagerel ??$scheduleMop@$0A@@randomx@@YAHAEBVMacroOp@0@AEAY1KO@2HHH@Z
	DD	imagerel ??$scheduleMop@$0A@@randomx@@YAHAEBVMacroOp@0@AEAY1KO@2HHH@Z+39
	DD	imagerel $unwind$??$scheduleMop@$0A@@randomx@@YAHAEBVMacroOp@0@AEAY1KO@2HHH@Z
xdata	ENDS
;	COMDAT xdata
xdata	SEGMENT
$chain$0$??$scheduleMop@$0A@@randomx@@YAHAEBVMacroOp@0@AEAY1KO@2HHH@Z DD 020521H
	DD	027405H
	DD	imagerel ??$scheduleMop@$0A@@randomx@@YAHAEBVMacroOp@0@AEAY1KO@2HHH@Z
	DD	imagerel ??$scheduleMop@$0A@@randomx@@YAHAEBVMacroOp@0@AEAY1KO@2HHH@Z+39
	DD	imagerel $unwind$??$scheduleMop@$0A@@randomx@@YAHAEBVMacroOp@0@AEAY1KO@2HHH@Z
xdata	ENDS
;	COMDAT xdata
xdata	SEGMENT
$unwind$??$scheduleMop@$0A@@randomx@@YAHAEBVMacroOp@0@AEAY1KO@2HHH@Z DD 030601H
	DD	033406H
	DD	06006H
xdata	ENDS
;	COMDAT xdata
xdata	SEGMENT
$chain$16$??$scheduleMop@$00@randomx@@YAHAEBVMacroOp@0@AEAY1KO@2HHH@Z DD 020021H
	DD	027400H
	DD	imagerel ??$scheduleMop@$00@randomx@@YAHAEBVMacroOp@0@AEAY1KO@2HHH@Z
	DD	imagerel ??$scheduleMop@$00@randomx@@YAHAEBVMacroOp@0@AEAY1KO@2HHH@Z+39
	DD	imagerel $unwind$??$scheduleMop@$00@randomx@@YAHAEBVMacroOp@0@AEAY1KO@2HHH@Z
xdata	ENDS
;	COMDAT xdata
xdata	SEGMENT
$chain$14$??$scheduleMop@$00@randomx@@YAHAEBVMacroOp@0@AEAY1KO@2HHH@Z DD 020021H
	DD	027400H
	DD	imagerel ??$scheduleMop@$00@randomx@@YAHAEBVMacroOp@0@AEAY1KO@2HHH@Z
	DD	imagerel ??$scheduleMop@$00@randomx@@YAHAEBVMacroOp@0@AEAY1KO@2HHH@Z+39
	DD	imagerel $unwind$??$scheduleMop@$00@randomx@@YAHAEBVMacroOp@0@AEAY1KO@2HHH@Z
xdata	ENDS
;	COMDAT xdata
xdata	SEGMENT
$chain$12$??$scheduleMop@$00@randomx@@YAHAEBVMacroOp@0@AEAY1KO@2HHH@Z DD 020021H
	DD	027400H
	DD	imagerel ??$scheduleMop@$00@randomx@@YAHAEBVMacroOp@0@AEAY1KO@2HHH@Z
	DD	imagerel ??$scheduleMop@$00@randomx@@YAHAEBVMacroOp@0@AEAY1KO@2HHH@Z+39
	DD	imagerel $unwind$??$scheduleMop@$00@randomx@@YAHAEBVMacroOp@0@AEAY1KO@2HHH@Z
xdata	ENDS
;	COMDAT xdata
xdata	SEGMENT
$chain$10$??$scheduleMop@$00@randomx@@YAHAEBVMacroOp@0@AEAY1KO@2HHH@Z DD 020021H
	DD	027400H
	DD	imagerel ??$scheduleMop@$00@randomx@@YAHAEBVMacroOp@0@AEAY1KO@2HHH@Z
	DD	imagerel ??$scheduleMop@$00@randomx@@YAHAEBVMacroOp@0@AEAY1KO@2HHH@Z+39
	DD	imagerel $unwind$??$scheduleMop@$00@randomx@@YAHAEBVMacroOp@0@AEAY1KO@2HHH@Z
xdata	ENDS
;	COMDAT xdata
xdata	SEGMENT
$chain$8$??$scheduleMop@$00@randomx@@YAHAEBVMacroOp@0@AEAY1KO@2HHH@Z DD 020021H
	DD	027400H
	DD	imagerel ??$scheduleMop@$00@randomx@@YAHAEBVMacroOp@0@AEAY1KO@2HHH@Z
	DD	imagerel ??$scheduleMop@$00@randomx@@YAHAEBVMacroOp@0@AEAY1KO@2HHH@Z+39
	DD	imagerel $unwind$??$scheduleMop@$00@randomx@@YAHAEBVMacroOp@0@AEAY1KO@2HHH@Z
xdata	ENDS
;	COMDAT xdata
xdata	SEGMENT
$chain$6$??$scheduleMop@$00@randomx@@YAHAEBVMacroOp@0@AEAY1KO@2HHH@Z DD 020021H
	DD	027400H
	DD	imagerel ??$scheduleMop@$00@randomx@@YAHAEBVMacroOp@0@AEAY1KO@2HHH@Z
	DD	imagerel ??$scheduleMop@$00@randomx@@YAHAEBVMacroOp@0@AEAY1KO@2HHH@Z+39
	DD	imagerel $unwind$??$scheduleMop@$00@randomx@@YAHAEBVMacroOp@0@AEAY1KO@2HHH@Z
xdata	ENDS
;	COMDAT xdata
xdata	SEGMENT
$chain$4$??$scheduleMop@$00@randomx@@YAHAEBVMacroOp@0@AEAY1KO@2HHH@Z DD 020021H
	DD	027400H
	DD	imagerel ??$scheduleMop@$00@randomx@@YAHAEBVMacroOp@0@AEAY1KO@2HHH@Z
	DD	imagerel ??$scheduleMop@$00@randomx@@YAHAEBVMacroOp@0@AEAY1KO@2HHH@Z+39
	DD	imagerel $unwind$??$scheduleMop@$00@randomx@@YAHAEBVMacroOp@0@AEAY1KO@2HHH@Z
xdata	ENDS
;	COMDAT xdata
xdata	SEGMENT
$chain$2$??$scheduleMop@$00@randomx@@YAHAEBVMacroOp@0@AEAY1KO@2HHH@Z DD 020021H
	DD	027400H
	DD	imagerel ??$scheduleMop@$00@randomx@@YAHAEBVMacroOp@0@AEAY1KO@2HHH@Z
	DD	imagerel ??$scheduleMop@$00@randomx@@YAHAEBVMacroOp@0@AEAY1KO@2HHH@Z+39
	DD	imagerel $unwind$??$scheduleMop@$00@randomx@@YAHAEBVMacroOp@0@AEAY1KO@2HHH@Z
xdata	ENDS
;	COMDAT xdata
xdata	SEGMENT
$chain$0$??$scheduleMop@$00@randomx@@YAHAEBVMacroOp@0@AEAY1KO@2HHH@Z DD 020521H
	DD	027405H
	DD	imagerel ??$scheduleMop@$00@randomx@@YAHAEBVMacroOp@0@AEAY1KO@2HHH@Z
	DD	imagerel ??$scheduleMop@$00@randomx@@YAHAEBVMacroOp@0@AEAY1KO@2HHH@Z+39
	DD	imagerel $unwind$??$scheduleMop@$00@randomx@@YAHAEBVMacroOp@0@AEAY1KO@2HHH@Z
xdata	ENDS
;	COMDAT xdata
xdata	SEGMENT
$unwind$??$scheduleMop@$00@randomx@@YAHAEBVMacroOp@0@AEAY1KO@2HHH@Z DD 030601H
	DD	033406H
	DD	06006H
xdata	ENDS
;	COMDAT xdata
xdata	SEGMENT
$chain$5$??$_Emplace_reallocate@H@?$vector@HV?$allocator@H@std@@@std@@AEAAPEAHQEAH$$QEAH@Z DD 021H
	DD	imagerel $LN116
	DD	imagerel $LN116+70
	DD	imagerel $unwind$??$_Emplace_reallocate@H@?$vector@HV?$allocator@H@std@@@std@@AEAAPEAHQEAH$$QEAH@Z
xdata	ENDS
;	COMDAT xdata
xdata	SEGMENT
$chain$4$??$_Emplace_reallocate@H@?$vector@HV?$allocator@H@std@@@std@@AEAAPEAHQEAH$$QEAH@Z DD 060021H
	DD	04f400H
	DD	0d6400H
	DD	0c3400H
	DD	imagerel $LN116
	DD	imagerel $LN116+70
	DD	imagerel $unwind$??$_Emplace_reallocate@H@?$vector@HV?$allocator@H@std@@@std@@AEAAPEAHQEAH$$QEAH@Z
xdata	ENDS
;	COMDAT xdata
xdata	SEGMENT
$chain$2$??$_Emplace_reallocate@H@?$vector@HV?$allocator@H@std@@@std@@AEAAPEAHQEAH$$QEAH@Z DD 061921H
	DD	04f419H
	DD	0d640eH
	DD	0c3405H
	DD	imagerel $LN116
	DD	imagerel $LN116+70
	DD	imagerel $unwind$??$_Emplace_reallocate@H@?$vector@HV?$allocator@H@std@@@std@@AEAAPEAHQEAH$$QEAH@Z
xdata	ENDS
;	COMDAT xdata
xdata	SEGMENT
$unwind$??$_Emplace_reallocate@H@?$vector@HV?$allocator@H@std@@@std@@AEAAPEAHQEAH$$QEAH@Z DD 050b01H
	DD	0e007420bH
	DD	07003c005H
	DD	05002H
xdata	ENDS
;	COMDAT xdata
xdata	SEGMENT
$chain$4$??$_Emplace_reallocate@VMacroOp@randomx@@@?$vector@VMacroOp@randomx@@V?$allocator@VMacroOp@randomx@@@std@@@std@@AEAAPEAVMacroOp@randomx@@QEAV23@$$QEAV23@@Z DD 021H
	DD	imagerel $LN123
	DD	imagerel $LN123+71
	DD	imagerel $unwind$??$_Emplace_reallocate@VMacroOp@randomx@@@?$vector@VMacroOp@randomx@@V?$allocator@VMacroOp@randomx@@@std@@@std@@AEAAPEAVMacroOp@randomx@@QEAV23@$$QEAV23@@Z
xdata	ENDS
;	COMDAT xdata
xdata	SEGMENT
$chain$3$??$_Emplace_reallocate@VMacroOp@randomx@@@?$vector@VMacroOp@randomx@@V?$allocator@VMacroOp@randomx@@@std@@@std@@AEAAPEAVMacroOp@randomx@@QEAV23@$$QEAV23@@Z DD 040021H
	DD	0d7400H
	DD	0c3400H
	DD	imagerel $LN123
	DD	imagerel $LN123+71
	DD	imagerel $unwind$??$_Emplace_reallocate@VMacroOp@randomx@@@?$vector@VMacroOp@randomx@@V?$allocator@VMacroOp@randomx@@@std@@@std@@AEAAPEAVMacroOp@randomx@@QEAV23@$$QEAV23@@Z
xdata	ENDS
;	COMDAT xdata
xdata	SEGMENT
$chain$1$??$_Emplace_reallocate@VMacroOp@randomx@@@?$vector@VMacroOp@randomx@@V?$allocator@VMacroOp@randomx@@@std@@@std@@AEAAPEAVMacroOp@randomx@@QEAV23@$$QEAV23@@Z DD 041421H
	DD	0d7414H
	DD	0c3405H
	DD	imagerel $LN123
	DD	imagerel $LN123+71
	DD	imagerel $unwind$??$_Emplace_reallocate@VMacroOp@randomx@@@?$vector@VMacroOp@randomx@@V?$allocator@VMacroOp@randomx@@@std@@@std@@AEAAPEAVMacroOp@randomx@@QEAV23@$$QEAV23@@Z
xdata	ENDS
;	COMDAT xdata
xdata	SEGMENT
$unwind$??$_Emplace_reallocate@VMacroOp@randomx@@@?$vector@VMacroOp@randomx@@V?$allocator@VMacroOp@randomx@@@std@@@std@@AEAAPEAVMacroOp@randomx@@QEAV23@$$QEAV23@@Z DD 060d01H
	DD	0f009320dH
	DD	0c005e007H
	DD	050026003H
xdata	ENDS
;	COMDAT xdata
xdata	SEGMENT
$unwind$?_Xlength@?$vector@VMacroOp@randomx@@V?$allocator@VMacroOp@randomx@@@std@@@std@@CAXXZ DD 010401H
	DD	04204H
xdata	ENDS
;	COMDAT xdata
xdata	SEGMENT
$unwind$?_Change_array@?$vector@VMacroOp@randomx@@V?$allocator@VMacroOp@randomx@@@std@@@std@@AEAAXQEAVMacroOp@randomx@@_K1@Z DD 081401H
	DD	096414H
	DD	085414H
	DD	073414H
	DD	070103214H
xdata	ENDS
;	COMDAT xdata
xdata	SEGMENT
$unwind$?allocate@?$allocator@VMacroOp@randomx@@@std@@QEAAPEAVMacroOp@randomx@@_K@Z DD 010401H
	DD	04204H
xdata	ENDS
;	COMDAT xdata
xdata	SEGMENT
$unwind$??$_Uninitialized_move@PEAVMacroOp@randomx@@V?$allocator@VMacroOp@randomx@@@std@@@std@@YAPEAVMacroOp@randomx@@QEAV12@0PEAV12@AEAV?$allocator@VMacroOp@randomx@@@0@@Z DD 040a01H
	DD	06340aH
	DD	07006320aH
xdata	ENDS
;	COMDAT xdata
xdata	SEGMENT
$unwind$??$_Copy_memmove@PEAVMacroOp@randomx@@PEAV12@@std@@YAPEAVMacroOp@randomx@@PEAV12@00@Z DD 040a01H
	DD	06340aH
	DD	07006320aH
?IMULH_R_ops_array$initializer$@randomx@@3P6AXXZEA DQ FLAT:??__EIMULH_R_ops_array@randomx@@YAXXZ ; randomx::IMULH_R_ops_array$initializer$
?ISMULH_R_ops_array$initializer$@randomx@@3P6AXXZEA DQ FLAT:??__EISMULH_R_ops_array@randomx@@YAXXZ ; randomx::ISMULH_R_ops_array$initializer$
?IMUL_RCP_ops_array$initializer$@randomx@@3P6AXXZEA DQ FLAT:??__EIMUL_RCP_ops_array@randomx@@YAXXZ ; randomx::IMUL_RCP_ops_array$initializer$
??ISUB_R$initializer$@SuperscalarInstructionInfo@randomx@@2P6AXXZEA@@3P6AXXZEA DQ FLAT:??__E?ISUB_R@SuperscalarInstructionInfo@randomx@@2V12@B@@YAXXZ ; randomx::SuperscalarInstructionInfo::SUB_R$initializer$::operator&
??IXOR_R$initializer$@SuperscalarInstructionInfo@randomx@@2P6AXXZEA@@3P6AXXZEA DQ FLAT:??__E?IXOR_R@SuperscalarInstructionInfo@randomx@@2V12@B@@YAXXZ ; randomx::SuperscalarInstructionInfo::XOR_R$initializer$::operator&
??IADD_RS$initializer$@SuperscalarInstructionInfo@randomx@@2P6AXXZEA@@3P6AXXZEA DQ FLAT:??__E?IADD_RS@SuperscalarInstructionInfo@randomx@@2V12@B@@YAXXZ ; randomx::SuperscalarInstructionInfo::ADD_RS$initializer$::operator&
??IMUL_R$initializer$@SuperscalarInstructionInfo@randomx@@2P6AXXZEA@@3P6AXXZEA DQ FLAT:??__E?IMUL_R@SuperscalarInstructionInfo@randomx@@2V12@B@@YAXXZ ; randomx::SuperscalarInstructionInfo::MUL_R$initializer$::operator&
??IROR_C$initializer$@SuperscalarInstructionInfo@randomx@@2P6AXXZEA@@3P6AXXZEA DQ FLAT:??__E?IROR_C@SuperscalarInstructionInfo@randomx@@2V12@B@@YAXXZ ; randomx::SuperscalarInstructionInfo::ROR_C$initializer$::operator&
??IADD_C7$initializer$@SuperscalarInstructionInfo@randomx@@2P6AXXZEA@@3P6AXXZEA DQ FLAT:??__E?IADD_C7@SuperscalarInstructionInfo@randomx@@2V12@B@@YAXXZ ; randomx::SuperscalarInstructionInfo::ADD_C7$initializer$::operator&
??IXOR_C7$initializer$@SuperscalarInstructionInfo@randomx@@2P6AXXZEA@@3P6AXXZEA DQ FLAT:??__E?IXOR_C7@SuperscalarInstructionInfo@randomx@@2V12@B@@YAXXZ ; randomx::SuperscalarInstructionInfo::XOR_C7$initializer$::operator&
??IADD_C8$initializer$@SuperscalarInstructionInfo@randomx@@2P6AXXZEA@@3P6AXXZEA DQ FLAT:??__E?IADD_C8@SuperscalarInstructionInfo@randomx@@2V12@B@@YAXXZ ; randomx::SuperscalarInstructionInfo::ADD_C8$initializer$::operator&
??IXOR_C8$initializer$@SuperscalarInstructionInfo@randomx@@2P6AXXZEA@@3P6AXXZEA DQ FLAT:??__E?IXOR_C8@SuperscalarInstructionInfo@randomx@@2V12@B@@YAXXZ ; randomx::SuperscalarInstructionInfo::XOR_C8$initializer$::operator&
??IADD_C9$initializer$@SuperscalarInstructionInfo@randomx@@2P6AXXZEA@@3P6AXXZEA DQ FLAT:??__E?IADD_C9@SuperscalarInstructionInfo@randomx@@2V12@B@@YAXXZ ; randomx::SuperscalarInstructionInfo::ADD_C9$initializer$::operator&
??IXOR_C9$initializer$@SuperscalarInstructionInfo@randomx@@2P6AXXZEA@@3P6AXXZEA DQ FLAT:??__E?IXOR_C9@SuperscalarInstructionInfo@randomx@@2V12@B@@YAXXZ ; randomx::SuperscalarInstructionInfo::XOR_C9$initializer$::operator&
??IMULH_R$initializer$@SuperscalarInstructionInfo@randomx@@2P6AXXZEA@@3P6AXXZEA DQ FLAT:??__E?IMULH_R@SuperscalarInstructionInfo@randomx@@2V12@B@@YAXXZ ; randomx::SuperscalarInstructionInfo::MULH_R$initializer$::operator&
??ISMULH_R$initializer$@SuperscalarInstructionInfo@randomx@@2P6AXXZEA@@3P6AXXZEA DQ FLAT:??__E?ISMULH_R@SuperscalarInstructionInfo@randomx@@2V12@B@@YAXXZ ; randomx::SuperscalarInstructionInfo::SMULH_R$initializer$::operator&
??IMUL_RCP$initializer$@SuperscalarInstructionInfo@randomx@@2P6AXXZEA@@3P6AXXZEA DQ FLAT:??__E?IMUL_RCP@SuperscalarInstructionInfo@randomx@@2V12@B@@YAXXZ ; randomx::SuperscalarInstructionInfo::MUL_RCP$initializer$::operator&
??NOP$initializer$@SuperscalarInstructionInfo@randomx@@2P6AXXZEA@@3P6AXXZEA DQ FLAT:??__E?NOP@SuperscalarInstructionInfo@randomx@@2V12@B@@YAXXZ ; randomx::SuperscalarInstructionInfo::OP$initializer$::operator<=
; Function compile flags: /Ogtpy
;	COMDAT ?executeSuperscalar@randomx@@YAXAEAY07_KAEAVSuperscalarProgram@1@PEAV?$vector@_KV?$allocator@_K@std@@@std@@@Z
_TEXT	SEGMENT
r$ = 40
prog$ = 48
reciprocals$ = 56
?executeSuperscalar@randomx@@YAXAEAY07_KAEAVSuperscalarProgram@1@PEAV?$vector@_KV?$allocator@_K@std@@@std@@@Z PROC ; randomx::executeSuperscalar, COMDAT
; File D:\dev\francium_network\francium_agent\src\ext\randomx\repo\src\superscalar.cpp
; Line 856
$LN85:
	push	rbx
	push	r12
	push	r14
	push	r15
; Line 857
	xor	r14d, r14d
	mov	r12, r8
	mov	r15, rdx
	mov	rbx, rcx
	cmp	DWORD PTR [rdx+4096], r14d
	jbe	$LN3@executeSup
	mov	QWORD PTR [rsp+40], rbp
	mov	QWORD PTR [rsp+48], rsi
	mov	QWORD PTR [rsp+56], rdi
	mov	QWORD PTR [rsp+64], r13
	lea	r13, OFFSET FLAT:__ImageBase
	npad	4
$LL4@executeSup:
; File D:\dev\francium_network\francium_agent\src\ext\randomx\repo\src\superscalar_program.hpp
; Line 40
	movsxd	rax, r14d
	lea	r10, QWORD PTR [r15+rax*8]
; File D:\dev\francium_network\francium_agent\src\ext\randomx\repo\src\superscalar.cpp
; Line 859
	movzx	eax, BYTE PTR [r15+rax*8]
	mov	eax, DWORD PTR $LN77@executeSup[r13+rax*4]
	add	rax, r13
	jmp	rax
$LN7@executeSup:
; Line 862
	movzx	eax, BYTE PTR [r10+1]
	lea	rdx, QWORD PTR [rbx+rax*8]
	movzx	eax, BYTE PTR [r10+2]
	mov	rcx, QWORD PTR [rbx+rax*8]
	sub	QWORD PTR [rdx], rcx
; Line 863
	jmp	$LN2@executeSup
$LN8@executeSup:
; Line 865
	movzx	eax, BYTE PTR [r10+1]
	lea	rdx, QWORD PTR [rbx+rax*8]
	movzx	eax, BYTE PTR [r10+2]
	mov	rcx, QWORD PTR [rbx+rax*8]
	xor	QWORD PTR [rdx], rcx
; Line 866
	jmp	$LN2@executeSup
$LN9@executeSup:
; Line 868
	movzx	eax, BYTE PTR [r10+1]
	movzx	r8d, BYTE PTR [r10+2]
	lea	rdx, QWORD PTR [rbx+rax*8]
; File D:\dev\francium_network\francium_agent\src\ext\randomx\repo\src\instruction.hpp
; Line 94
	movzx	eax, BYTE PTR [r10+3]
	shr	eax, 2
	and	eax, -2147483645			; ffffffff80000003H
	jge	SHORT $LN76@executeSup
	dec	eax
	or	eax, -4
	inc	eax
$LN76@executeSup:
; File D:\dev\francium_network\francium_agent\src\ext\randomx\repo\src\superscalar.cpp
; Line 868
	movzx	ecx, al
	mov	rax, QWORD PTR [rbx+r8*8]
	shl	rax, cl
	add	QWORD PTR [rdx], rax
; Line 869
	jmp	$LN2@executeSup
$LN10@executeSup:
; Line 871
	movzx	eax, BYTE PTR [r10+1]
	mov	rcx, QWORD PTR [rbx+rax*8]
	lea	rdx, QWORD PTR [rbx+rax*8]
	movzx	eax, BYTE PTR [r10+2]
	imul	rcx, QWORD PTR [rbx+rax*8]
	mov	QWORD PTR [rdx], rcx
; Line 872
	jmp	$LN2@executeSup
$LN11@executeSup:
; Line 874
	movzx	eax, BYTE PTR [r10+1]
; File D:\dev\francium_network\francium_agent\src\ext\randomx\repo\src\instructions_portable.cpp
; Line 58
	mov	ecx, DWORD PTR [r10+4]
; File D:\dev\francium_network\francium_agent\src\ext\randomx\repo\src\superscalar.cpp
; Line 874
	lea	rdx, QWORD PTR [rbx+rax*8]
; File D:\dev\francium_network\francium_agent\src\ext\randomx\repo\src\instructions_portable.cpp
; Line 58
	mov	rax, QWORD PTR [rbx+rax*8]
	ror	rax, cl
; File D:\dev\francium_network\francium_agent\src\ext\randomx\repo\src\superscalar.cpp
; Line 874
	mov	QWORD PTR [rdx], rax
; Line 875
	jmp	$LN2@executeSup
$LN12@executeSup:
; Line 879
	movzx	eax, BYTE PTR [r10+1]
	lea	rcx, QWORD PTR [rbx+rax*8]
; File D:\dev\francium_network\francium_agent\src\ext\randomx\repo\src\intrin_portable.h
; Line 43
	movsxd	rax, DWORD PTR [r10+4]
; File D:\dev\francium_network\francium_agent\src\ext\randomx\repo\src\superscalar.cpp
; Line 879
	add	QWORD PTR [rcx], rax
; Line 880
	jmp	$LN2@executeSup
$LN15@executeSup:
; Line 884
	movzx	eax, BYTE PTR [r10+1]
	lea	rcx, QWORD PTR [rbx+rax*8]
; File D:\dev\francium_network\francium_agent\src\ext\randomx\repo\src\intrin_portable.h
; Line 43
	movsxd	rax, DWORD PTR [r10+4]
; File D:\dev\francium_network\francium_agent\src\ext\randomx\repo\src\superscalar.cpp
; Line 884
	xor	QWORD PTR [rcx], rax
; Line 885
	jmp	$LN2@executeSup
$LN18@executeSup:
; Line 887
	movzx	eax, BYTE PTR [r10+2]
	movzx	ecx, BYTE PTR [r10+1]
; File D:\dev\francium_network\francium_agent\src\ext\randomx\repo\src\instructions_portable.cpp
; Line 65
	mov	rax, QWORD PTR [rbx+rax*8]
	mul	QWORD PTR [rbx+rcx*8]
; File D:\dev\francium_network\francium_agent\src\ext\randomx\repo\src\superscalar.cpp
; Line 887
	mov	QWORD PTR [rbx+rcx*8], rdx
; Line 888
	jmp	$LN2@executeSup
$LN19@executeSup:
; Line 890
	movzx	eax, BYTE PTR [r10+1]
	lea	rcx, QWORD PTR [rbx+rax*8]
	movzx	eax, BYTE PTR [r10+2]
; File D:\dev\francium_network\francium_agent\src\ext\randomx\repo\src\instructions_portable.cpp
; Line 73
	mov	rax, QWORD PTR [rbx+rax*8]
	imul	QWORD PTR [rcx]
; File D:\dev\francium_network\francium_agent\src\ext\randomx\repo\src\superscalar.cpp
; Line 890
	mov	QWORD PTR [rcx], rdx
; Line 891
	jmp	$LN2@executeSup
$LN20@executeSup:
; Line 893
	test	r12, r12
	je	SHORT $LN21@executeSup
; Line 894
	movzx	eax, BYTE PTR [r10+1]
	mov	edx, DWORD PTR [r10+4]
	lea	r8, QWORD PTR [rbx+rax*8]
	mov	rax, QWORD PTR [r12]
	mov	rcx, QWORD PTR [r8]
	imul	rcx, QWORD PTR [rax+rdx*8]
	mov	QWORD PTR [r8], rcx
	jmp	SHORT $LN2@executeSup
$LN21@executeSup:
; Line 896
	mov	esi, DWORD PTR [r10+4]
; File D:\dev\francium_network\francium_agent\src\ext\randomx\repo\src\reciprocal.c
; Line 53
	xor	edx, edx
	mov	rax, -9223372036854775808		; 8000000000000000H
; Line 55
	xor	ecx, ecx
	div	rsi
; Line 57
	mov	r8d, esi
	mov	rdi, rdx
	mov	r11, rax
	test	rsi, rsi
	je	SHORT $LN54@executeSup
$LL52@executeSup:
; Line 58
	inc	ecx
	shr	r8, 1
	jne	SHORT $LL52@executeSup
; Line 60
	test	ecx, ecx
	je	SHORT $LN54@executeSup
	mov	ebp, ecx
	npad	13
$LL65@executeSup:
; Line 61
	lea	rcx, QWORD PTR [rdi+rdi]
	mov	r9, rdi
; Line 63
	mov	rax, rcx
	lea	rdx, QWORD PTR [r11+r11]
	sub	rax, rsi
	lea	r11, QWORD PTR [rdx+1]
	mov	r8, rsi
	sub	r8, rdi
	cmp	rdi, r8
	cmovae	rcx, rax
	cmp	r9, r8
	mov	rdi, rcx
	cmovb	r11, rdx
	sub	rbp, 1
	jne	SHORT $LL65@executeSup
$LN54@executeSup:
; File D:\dev\francium_network\francium_agent\src\ext\randomx\repo\src\superscalar.cpp
; Line 896
	movzx	eax, BYTE PTR [r10+1]
	imul	r11, QWORD PTR [rbx+rax*8]
	mov	QWORD PTR [rbx+rax*8], r11
$LN2@executeSup:
; Line 857
	inc	r14d
	cmp	r14d, DWORD PTR [r15+4096]
	jb	$LL4@executeSup
	mov	rdi, QWORD PTR [rsp+56]
	mov	rsi, QWORD PTR [rsp+48]
	mov	rbp, QWORD PTR [rsp+40]
	mov	r13, QWORD PTR [rsp+64]
$LN3@executeSup:
; Line 902
	pop	r15
	pop	r14
	pop	r12
	pop	rbx
	ret	0
$LN23@executeSup:
; Line 899
$LN82@executeSup:
$LN77@executeSup:
; Line 902
	DD	$LN7@executeSup
	DD	$LN8@executeSup
	DD	$LN9@executeSup
	DD	$LN10@executeSup
	DD	$LN11@executeSup
	DD	$LN12@executeSup
	DD	$LN15@executeSup
	DD	$LN12@executeSup
	DD	$LN15@executeSup
	DD	$LN12@executeSup
	DD	$LN15@executeSup
	DD	$LN18@executeSup
	DD	$LN19@executeSup
	DD	$LN20@executeSup
?executeSuperscalar@randomx@@YAXAEAY07_KAEAVSuperscalarProgram@1@PEAV?$vector@_KV?$allocator@_K@std@@@std@@@Z ENDP ; randomx::executeSuperscalar
_TEXT	ENDS
; Function compile flags: /Ogtpy
;	COMDAT ?generateSuperscalar@randomx@@YAXAEAVSuperscalarProgram@1@AEAVBlake2Generator@1@@Z
_TEXT	SEGMENT
tv3323 = 48
$T14 = 52
throwAwayCount$1$ = 56
programSize$1$ = 60
macroOpCount$1$ = 64
mulCount$1$ = 68
prog$GSCopy$1$ = 72
$T15 = 80
bufferIndex$1$ = 88
retireCycle$1$ = 92
codeSize$1$ = 96
topCycle$1$ = 100
tv3374 = 100
currentInstruction$ = 104
depCycle$1$ = 144
tv3189 = 152
decodeBuffer$1$ = 160
tv3188 = 168
tv3161 = 168
tv3216 = 176
registers$ = 192
portBusy$ = 320
__$ArrayPad$ = 2416
prog$ = 2496
gen$ = 2504
?generateSuperscalar@randomx@@YAXAEAVSuperscalarProgram@1@AEAVBlake2Generator@1@@Z PROC ; randomx::generateSuperscalar, COMDAT
; File D:\dev\francium_network\francium_agent\src\ext\randomx\repo\src\superscalar.cpp
; Line 653
$LN221:
	mov	QWORD PTR [rsp+24], rbx
	push	rbp
	push	rsi
	push	rdi
	push	r12
	push	r13
	push	r14
	push	r15
	lea	rbp, QWORD PTR [rsp-2176]
	sub	rsp, 2432				; 00000980H
	mov	rax, QWORD PTR __security_cookie
	xor	rax, rsp
	mov	QWORD PTR __$ArrayPad$[rbp-256], rax
	mov	r12, rdx
	mov	QWORD PTR prog$GSCopy$1$[rsp], rcx
	mov	r13, rcx
; Line 656
	xor	edx, edx
	lea	rcx, QWORD PTR portBusy$[rbp-256]
	mov	r8d, 2088				; 00000828H
	call	memset
; Line 349
	movdqa	xmm0, XMMWORD PTR __xmm@00000000ffffffffffffffff00000000
; Line 661
	xor	ebx, ebx
; Line 349
	movdqa	xmm1, xmm0
	movdqa	XMMWORD PTR registers$[rbp-256], xmm0
; Line 660
	movups	xmm1, XMMWORD PTR ?Null@SuperscalarInstruction@randomx@@2V12@B+16
; Line 667
	xor	r9b, r9b
	mov	QWORD PTR tv3216[rbp-256], rbx
; Line 349
	movdqa	XMMWORD PTR registers$[rbp-240], xmm0
; Line 678
	lea	r10d, QWORD PTR [rbx+1]
; Line 349
	movdqa	XMMWORD PTR registers$[rbp-224], xmm0
; Line 661
	mov	r14d, ebx
; Line 349
	movdqa	XMMWORD PTR registers$[rbp-208], xmm0
; Line 664
	mov	edi, ebx
; Line 349
	movdqa	XMMWORD PTR registers$[rbp-192], xmm0
; Line 669
	mov	ecx, ebx
; Line 349
	movdqa	XMMWORD PTR registers$[rbp-176], xmm0
; Line 671
	mov	r15d, ebx
; Line 349
	movdqa	XMMWORD PTR registers$[rbp-160], xmm0
; Line 678
	mov	r8d, ebx
; Line 349
	movdqa	XMMWORD PTR registers$[rbp-144], xmm0
	mov	r11d, ebx
; Line 660
	movups	xmm0, XMMWORD PTR ?Null@SuperscalarInstruction@randomx@@2V12@B
; Line 662
	mov	DWORD PTR codeSize$1$[rsp], ebx
	movups	XMMWORD PTR currentInstruction$[rsp+16], xmm1
; Line 663
	mov	DWORD PTR macroOpCount$1$[rsp], ebx
	movups	XMMWORD PTR currentInstruction$[rsp], xmm0
; Line 678
	mov	rsi, QWORD PTR currentInstruction$[rsp]
	movsd	xmm0, QWORD PTR ?Null@SuperscalarInstruction@randomx@@2V12@B+32
	movsd	QWORD PTR currentInstruction$[rbp-224], xmm0
	mov	DWORD PTR depCycle$1$[rbp-256], ebx
	mov	DWORD PTR retireCycle$1$[rsp], ebx
	mov	DWORD PTR tv3323[rsp], r9d
	mov	DWORD PTR programSize$1$[rsp], ebx
	mov	DWORD PTR mulCount$1$[rsp], ebx
	mov	DWORD PTR throwAwayCount$1$[rsp], ebx
	mov	DWORD PTR $T14[rsp], ebx
	mov	QWORD PTR $T15[rsp], rbx
$LL4@generateSu:
	test	r9b, r9b
	jne	$LN3@generateSu
	cmp	r11, 512				; 00000200H
	jge	$LN3@generateSu
; Line 681
	mov	edx, DWORD PTR [rsi+8]
; Line 275
	lea	eax, DWORD PTR [rdx-11]
	cmp	eax, 1
	jbe	$LN105@generateSu
; Line 280
	lea	eax, DWORD PTR [r8+1]
	cmp	ecx, eax
	jge	SHORT $LN106@generateSu
; Line 281
	lea	rdx, OFFSET FLAT:?decodeBuffer4444@DecoderBuffer@randomx@@0V12@B ; randomx::DecoderBuffer::decodeBuffer4444
	jmp	$LN214@generateSu
$LN106@generateSu:
; Line 284
	mov	rax, QWORD PTR [r12+64]
	lea	rcx, QWORD PTR [rax+1]
	cmp	edx, 13
	jne	SHORT $LN107@generateSu
; File D:\dev\francium_network\francium_agent\src\ext\randomx\repo\src\blake2_generator.cpp
; Line 57
	cmp	rcx, 64					; 00000040H
	jbe	SHORT $LN112@generateSu
; Line 58
	mov	r9d, 64					; 00000040H
	mov	r8, r12
	mov	edx, r9d
	mov	rcx, r12
	call	randomx_blake2b
	mov	r9d, DWORD PTR tv3323[rsp]
; Line 59
	mov	rax, rbx
	mov	r11, QWORD PTR $T15[rsp]
	mov	r10d, 1
	mov	r8d, DWORD PTR $T14[rsp]
	mov	QWORD PTR [r12+64], rbx
$LN112@generateSu:
; Line 46
	movzx	ecx, BYTE PTR [rax+r12]
; File D:\dev\francium_network\francium_agent\src\ext\randomx\repo\src\superscalar.cpp
; Line 285
	lea	rdx, OFFSET FLAT:?decodeBuffer493@DecoderBuffer@randomx@@0V12@B ; randomx::DecoderBuffer::decodeBuffer493
; File D:\dev\francium_network\francium_agent\src\ext\randomx\repo\src\blake2_generator.cpp
; Line 46
	inc	rax
	mov	QWORD PTR [r12+64], rax
; File D:\dev\francium_network\francium_agent\src\ext\randomx\repo\src\superscalar.cpp
; Line 285
	test	cl, 1
	lea	rax, OFFSET FLAT:?decodeBuffer484@DecoderBuffer@randomx@@0V12@B ; randomx::DecoderBuffer::decodeBuffer484
	cmovne	rdx, rax
	jmp	SHORT $LN214@generateSu
$LN107@generateSu:
; File D:\dev\francium_network\francium_agent\src\ext\randomx\repo\src\blake2_generator.cpp
; Line 57
	cmp	rcx, 64					; 00000040H
	jbe	SHORT $LN119@generateSu
; Line 58
	mov	r9d, 64					; 00000040H
	mov	r8, r12
	mov	edx, r9d
	mov	rcx, r12
	call	randomx_blake2b
	mov	r9d, DWORD PTR tv3323[rsp]
; Line 59
	mov	rax, rbx
	mov	r11, QWORD PTR $T15[rsp]
	mov	r10d, 1
	mov	r8d, DWORD PTR $T14[rsp]
	mov	QWORD PTR [r12+64], rbx
$LN119@generateSu:
; Line 46
	movzx	ecx, BYTE PTR [rax+r12]
	inc	rax
	mov	QWORD PTR [r12+64], rax
; File D:\dev\francium_network\francium_agent\src\ext\randomx\repo\src\superscalar.cpp
; Line 304
	mov	eax, ecx
	and	eax, 3
; Line 288
	lea	rcx, OFFSET FLAT:?decodeBuffers@DecoderBuffer@randomx@@0PAPEBV12@A ; randomx::DecoderBuffer::decodeBuffers
	mov	rdx, QWORD PTR [rcx+rax*8]
	jmp	SHORT $LN214@generateSu
$LN105@generateSu:
; Line 276
	lea	rdx, OFFSET FLAT:?decodeBuffer3310@DecoderBuffer@randomx@@0V12@B ; randomx::DecoderBuffer::decodeBuffer3310
$LN214@generateSu:
; Line 687
	mov	ecx, DWORD PTR [rdx+24]
	mov	eax, r10d
	add	r8d, eax
	mov	QWORD PTR decodeBuffer$1$[rbp-256], rdx
	mov	DWORD PTR $T14[rsp], r8d
	mov	r8d, ebx
	mov	DWORD PTR bufferIndex$1$[rsp], ebx
	test	ecx, ecx
	jle	$LN6@generateSu
	lea	rax, QWORD PTR [r11*8+2]
	mov	QWORD PTR tv3189[rbp-256], rbx
	add	rax, r13
	mov	r10, rbx
	mov	QWORD PTR tv3188[rbp-256], rax
	npad	10
$LL5@generateSu:
; File D:\software\Visual Studio 2022\VC\Tools\MSVC\14.35.32215\include\vector
; Line 1932
	mov	rax, QWORD PTR [rsi+24]
	sub	rax, QWORD PTR [rsi+16]
	sar	rax, 5
; File D:\dev\francium_network\francium_agent\src\ext\randomx\repo\src\superscalar.cpp
; Line 688
	mov	DWORD PTR topCycle$1$[rsp], edi
; Line 691
	cmp	r14d, eax
	jl	SHORT $LN23@generateSu
; Line 692
	test	r9b, r9b
	jne	$LN213@generateSu
	cmp	r11, 512				; 00000200H
	jge	$LN213@generateSu
; Line 695
	mov	r9d, DWORD PTR [rdx+8]
	lea	eax, DWORD PTR [r8+1]
	cmp	ecx, eax
	mov	rcx, QWORD PTR [rdx+16]
	mov	rdx, r12
	sete	al
	mov	BYTE PTR [rsp+32], al
	mov	r8d, DWORD PTR [rcx+r10]
	lea	rcx, QWORD PTR currentInstruction$[rsp]
	call	?createForSlot@SuperscalarInstruction@randomx@@QEAAXAEAVBlake2Generator@2@HH_N1@Z ; randomx::SuperscalarInstruction::createForSlot
; Line 696
	mov	rsi, QWORD PTR currentInstruction$[rsp]
	mov	r14d, ebx
$LN23@generateSu:
; Line 703
	mov	r9d, DWORD PTR depCycle$1$[rbp-256]
	lea	rdx, QWORD PTR portBusy$[rbp-256]
; Line 169
	movsxd	r13, r14d
; Line 703
	mov	r8d, edi
; File D:\software\Visual Studio 2022\VC\Tools\MSVC\14.35.32215\include\vector
; Line 1962
	shl	r13, 5
	add	r13, QWORD PTR [rsi+16]
; File D:\dev\francium_network\francium_agent\src\ext\randomx\repo\src\superscalar.cpp
; Line 703
	mov	rcx, r13
	call	??$scheduleMop@$0A@@randomx@@YAHAEBVMacroOp@0@AEAY1KO@2HHH@Z ; randomx::scheduleMop<0>
	mov	ebx, eax
; Line 704
	test	eax, eax
	js	$LN157@generateSu
; Line 712
	cmp	r14d, DWORD PTR [rsi+52]
	jne	$LN203@generateSu
; Line 715
	xor	esi, esi
	npad	3
$LL9@generateSu:
	mov	r9, r12
	lea	r8, QWORD PTR registers$[rbp-256]
	mov	edx, ebx
	lea	rcx, QWORD PTR currentInstruction$[rsp]
	call	?selectSource@SuperscalarInstruction@randomx@@QEAA_NHAEAY07VRegisterInfo@2@AEAVBlake2Generator@2@@Z ; randomx::SuperscalarInstruction::selectSource
	test	al, al
	jne	SHORT $LN208@generateSu
; Line 717
	inc	ebx
; Line 718
	inc	edi
	inc	esi
	cmp	esi, 4
	jl	SHORT $LL9@generateSu
; Line 721
	jne	SHORT $LN208@generateSu
$LN217@generateSu:
; Line 687
	mov	r9d, DWORD PTR tv3323[rsp]
	cmp	r15d, 256				; 00000100H
	jge	$LN30@generateSu
	mov	rsi, QWORD PTR currentInstruction$[rsp]
	inc	r15d
	mov	r10, QWORD PTR tv3189[rbp-256]
	mov	DWORD PTR throwAwayCount$1$[rsp], r15d
	mov	r14, QWORD PTR [rsi+24]
	sub	r14, QWORD PTR [rsi+16]
	sar	r14, 5
$LN211@generateSu:
	mov	r11, QWORD PTR $T15[rsp]
$LN46@generateSu:
	mov	rdx, QWORD PTR decodeBuffer$1$[rbp-256]
	xor	ebx, ebx
	mov	r8d, DWORD PTR bufferIndex$1$[rsp]
	mov	ecx, DWORD PTR [rdx+24]
	cmp	r8d, ecx
	jge	$LN213@generateSu
	jmp	$LL5@generateSu
$LN208@generateSu:
; Line 721
	mov	rsi, QWORD PTR currentInstruction$[rsp]
$LN203@generateSu:
; Line 737
	cmp	r14d, DWORD PTR [rsi+48]
	jne	SHORT $LN204@generateSu
; Line 739
	xor	esi, esi
	test	r15d, r15d
	setg	r15b
	npad	8
$LL12@generateSu:
	lea	r9, QWORD PTR registers$[rbp-256]
	mov	QWORD PTR [rsp+32], r12
	movzx	r8d, r15b
	lea	rcx, QWORD PTR currentInstruction$[rsp]
	mov	edx, ebx
	call	?selectDestination@SuperscalarInstruction@randomx@@QEAA_NH_NAEAY07VRegisterInfo@2@AEAVBlake2Generator@2@@Z ; randomx::SuperscalarInstruction::selectDestination
	test	al, al
	jne	SHORT $LN209@generateSu
; Line 741
	inc	ebx
; Line 742
	inc	edi
	inc	esi
	cmp	esi, 4
	jl	SHORT $LL12@generateSu
; Line 744
	jne	SHORT $LN209@generateSu
; Line 745
	mov	r15d, DWORD PTR throwAwayCount$1$[rsp]
; Line 750
	jmp	$LN217@generateSu
$LN209@generateSu:
; Line 744
	mov	rsi, QWORD PTR currentInstruction$[rsp]
$LN204@generateSu:
; Line 759
	xor	r15d, r15d
; Line 762
	lea	rdx, QWORD PTR portBusy$[rbp-256]
	mov	r9d, ebx
	mov	DWORD PTR throwAwayCount$1$[rsp], r15d
	mov	r8d, ebx
	mov	rcx, r13
	call	??$scheduleMop@$00@randomx@@YAHAEBVMacroOp@0@AEAY1KO@2HHH@Z ; randomx::scheduleMop<1>
	mov	r8d, eax
; Line 764
	test	eax, eax
	js	$LN157@generateSu
; Line 771
	mov	r10d, DWORD PTR [r13+12]
	add	r10d, eax
	mov	DWORD PTR depCycle$1$[rbp-256], r10d
; Line 777
	cmp	r14d, DWORD PTR [rsi+44]
	jne	SHORT $LN44@generateSu
; Line 779
	movsxd	rdx, DWORD PTR currentInstruction$[rsp+12]
; Line 782
	mov	ecx, DWORD PTR currentInstruction$[rbp-232]
	add	rdx, rdx
; Line 783
	mov	eax, DWORD PTR currentInstruction$[rbp-228]
	mov	DWORD PTR retireCycle$1$[rsp], r10d
	mov	DWORD PTR registers$[rbp+rdx*8-256], r10d
	mov	DWORD PTR registers$[rbp+rdx*8-252], ecx
	mov	DWORD PTR registers$[rbp+rdx*8-248], eax
$LN44@generateSu:
; Line 786
	mov	eax, DWORD PTR codeSize$1$[rsp]
; Line 788
	inc	r14d
	add	eax, DWORD PTR [r13+8]
	mov	r10, QWORD PTR tv3189[rbp-256]
	inc	DWORD PTR bufferIndex$1$[rsp]
	add	r10, 4
; Line 789
	inc	DWORD PTR macroOpCount$1$[rsp]
; Line 792
	mov	r9d, DWORD PTR tv3323[rsp]
	cmp	r8d, 170				; 000000aaH
; Line 795
	mov	edi, DWORD PTR topCycle$1$[rsp]
	mov	r8d, 1
	mov	DWORD PTR codeSize$1$[rsp], eax
; File D:\software\Visual Studio 2022\VC\Tools\MSVC\14.35.32215\include\vector
; Line 1932
	mov	rax, QWORD PTR [rsi+24]
; File D:\dev\francium_network\francium_agent\src\ext\randomx\repo\src\superscalar.cpp
; Line 792
	movzx	r9d, r9b
	cmovge	r9d, r8d
	mov	QWORD PTR tv3189[rbp-256], r10
; File D:\software\Visual Studio 2022\VC\Tools\MSVC\14.35.32215\include\vector
; Line 1932
	sub	rax, QWORD PTR [rsi+16]
	sar	rax, 5
; File D:\dev\francium_network\francium_agent\src\ext\randomx\repo\src\superscalar.cpp
; Line 792
	mov	DWORD PTR tv3323[rsp], r9d
; Line 798
	cmp	r14d, eax
	jl	$LN211@generateSu
; Line 360
	mov	rdx, QWORD PTR tv3188[rbp-256]
	movzx	eax, BYTE PTR [rsi+8]
; Line 799
	mov	r11, QWORD PTR $T15[rsp]
; Line 362
	mov	ecx, DWORD PTR currentInstruction$[rsp+12]
	mov	BYTE PTR [rdx-2], al
	movzx	eax, BYTE PTR currentInstruction$[rsp+12]
	mov	BYTE PTR [rdx-1], al
	mov	eax, DWORD PTR currentInstruction$[rsp+8]
	test	eax, eax
	cmovns	ecx, eax
; Line 363
	movzx	eax, BYTE PTR currentInstruction$[rsp+16]
; Line 799
	inc	DWORD PTR programSize$1$[rsp]
	inc	r11
; Line 363
	mov	BYTE PTR [rdx+1], al
; Line 364
	mov	eax, DWORD PTR currentInstruction$[rsp+20]
	mov	DWORD PTR [rdx+2], eax
	mov	BYTE PTR [rdx], cl
; Line 799
	add	rdx, 8
; Line 800
	mov	eax, DWORD PTR [rsi+8]
	mov	QWORD PTR $T15[rsp], r11
	mov	QWORD PTR tv3188[rbp-256], rdx
; Line 45
	cmp	eax, 3
	je	SHORT $LN85@generateSu
	add	eax, -11				; fffffff5H
	cmp	eax, 2
	jbe	SHORT $LN85@generateSu
	xor	eax, eax
; Line 800
	add	DWORD PTR mulCount$1$[rsp], eax
	jmp	$LN46@generateSu
$LN85@generateSu:
; Line 45
	mov	eax, r8d
; Line 800
	add	DWORD PTR mulCount$1$[rsp], eax
	jmp	$LN46@generateSu
$LN30@generateSu:
; Line 803
	movups	xmm2, XMMWORD PTR ?Null@SuperscalarInstruction@randomx@@2V12@B+16
	movups	xmm3, XMMWORD PTR ?Null@SuperscalarInstruction@randomx@@2V12@B
	movsd	xmm0, QWORD PTR ?Null@SuperscalarInstruction@randomx@@2V12@B+32
	movdqa	xmm1, xmm2
	psrldq	xmm1, 12
	movq	rsi, xmm3
	movups	XMMWORD PTR currentInstruction$[rsp+16], xmm2
	movd	DWORD PTR currentInstruction$[rbp-228], xmm1
	movdqa	xmm1, xmm2
	movsd	QWORD PTR currentInstruction$[rbp-224], xmm0
	movdqa	xmm0, xmm2
	psrldq	xmm1, 4
	psrldq	xmm0, 8
	movd	DWORD PTR currentInstruction$[rsp+20], xmm1
	movdqa	xmm1, xmm3
	movd	DWORD PTR currentInstruction$[rbp-232], xmm0
	movdqa	xmm0, xmm3
	movups	XMMWORD PTR currentInstruction$[rsp], xmm3
	movd	eax, xmm2
	psrldq	xmm1, 12
	psrldq	xmm0, 8
	movd	DWORD PTR currentInstruction$[rsp+12], xmm1
	mov	BYTE PTR currentInstruction$[rsp+16], al
	movd	DWORD PTR currentInstruction$[rsp+8], xmm0
	jmp	SHORT $LN218@generateSu
$LN157@generateSu:
	mov	r9b, 1
	mov	DWORD PTR tv3323[rsp], r9d
$LN218@generateSu:
	xor	ebx, ebx
$LN213@generateSu:
	mov	r13, QWORD PTR prog$GSCopy$1$[rsp]
	mov	r10d, 1
$LN6@generateSu:
	mov	r8d, DWORD PTR $T14[rsp]
	inc	edi
	mov	r11, QWORD PTR $T15[rsp]
	mov	ecx, DWORD PTR mulCount$1$[rsp]
	cmp	r8d, 170				; 000000aaH
	jl	$LL4@generateSu
$LN3@generateSu:
	movd	xmm1, DWORD PTR macroOpCount$1$[rsp]
	movd	xmm0, DWORD PTR retireCycle$1$[rsp]
; Line 812
	movsxd	r10, DWORD PTR programSize$1$[rsp]
	cvtdq2pd xmm0, xmm0
	cvtdq2pd xmm1, xmm1
	divsd	xmm1, xmm0
	xorps	xmm0, xmm0
	movups	XMMWORD PTR [r13+4168], xmm0
	movups	XMMWORD PTR [r13+4184], xmm0
	test	r10, r10
	jle	SHORT $LN14@generateSu
	lea	r8, QWORD PTR [r13+2]
$LL15@generateSu:
; Line 814
	movzx	r9d, BYTE PTR [r8-1]
; Line 815
	movzx	eax, BYTE PTR [r8]
	mov	edx, DWORD PTR [r13+r9*4+4168]
	inc	edx
	cmp	r9b, al
	je	SHORT $LN49@generateSu
	mov	ecx, DWORD PTR [r13+rax*4+4168]
	inc	ecx
	jmp	SHORT $LN50@generateSu
$LN49@generateSu:
	mov	ecx, ebx
$LN50@generateSu:
; File D:\software\Visual Studio 2022\VC\Tools\MSVC\14.35.32215\include\utility
; Line 43
	cmp	edx, ecx
	cmovl	edx, ecx
; File D:\dev\francium_network\francium_agent\src\ext\randomx\repo\src\superscalar.cpp
; Line 812
	add	r8, 8
; Line 816
	mov	DWORD PTR [r13+r9*4+4168], edx
	sub	r10, 1
	jne	SHORT $LL15@generateSu
$LN14@generateSu:
; Line 820
	mov	rsi, QWORD PTR prog$GSCopy$1$[rsp]
	lea	r12, QWORD PTR registers$[rbp-240]
	add	rsi, 4136				; 00001028H
; Line 821
	mov	r13d, ebx
	xor	ecx, ecx
	mov	r15d, ebx
	npad	8
$LL18@generateSu:
; Line 823
	mov	ebx, DWORD PTR [rsi+32]
	lea	rax, QWORD PTR [rsi+32]
; Line 827
	cmp	ebx, ecx
	mov	QWORD PTR tv3161[rbp-256], rax
	mov	eax, DWORD PTR [r12-16]
	mov	edi, ebx
	mov	DWORD PTR [rsi], eax
	cmovle	edi, ecx
	mov	r10d, DWORD PTR [rsi+36]
	mov	ecx, r15d
	mov	eax, DWORD PTR [r12]
	cmp	r10d, edi
	mov	DWORD PTR [rsi+4], eax
	mov	r11d, r10d
	mov	r8d, DWORD PTR [rsi+40]
	cmovle	r11d, edi
	mov	eax, DWORD PTR [r12+16]
	cmp	r8d, r11d
	mov	DWORD PTR [rsi+8], eax
	mov	r9d, r8d
	mov	edx, DWORD PTR [rsi+44]
	cmovle	r9d, r11d
	cmp	edx, r9d
	mov	eax, edx
	cmovle	eax, r9d
	cmp	ebx, DWORD PTR tv3216[rbp-256]
	mov	DWORD PTR tv3374[rsp], eax
	mov	eax, DWORD PTR [r12+32]
	cmovle	ecx, r13d
	cmp	r10d, edi
	mov	DWORD PTR [rsi+12], eax
	mov	r14d, DWORD PTR [rsi+48]
	lea	eax, DWORD PTR [r15+1]
	cmovle	eax, ecx
	lea	r13d, DWORD PTR [r15+3]
	cmp	r8d, r11d
	lea	ecx, DWORD PTR [r15+2]
	cmovle	ecx, eax
	mov	eax, DWORD PTR tv3374[rsp]
	cmp	edx, r9d
	cmovle	r13d, ecx
	cmp	r14d, eax
	jle	SHORT $LN180@generateSu
; Line 825
	lea	r13d, DWORD PTR [r15+4]
$LN180@generateSu:
; Line 827
	cmovle	r14d, eax
	mov	eax, DWORD PTR [r12+48]
	mov	DWORD PTR [rsi+16], eax
	mov	eax, DWORD PTR [rsi+52]
	cmp	eax, r14d
	jle	SHORT $LN182@generateSu
; Line 825
	mov	r14d, eax
	lea	r13d, DWORD PTR [r15+5]
$LN182@generateSu:
; Line 827
	mov	eax, DWORD PTR [r12+64]
	mov	DWORD PTR [rsi+20], eax
	mov	ecx, DWORD PTR [rsi+56]
	cmp	ecx, r14d
	jle	SHORT $LN184@generateSu
; Line 825
	lea	r13d, DWORD PTR [r15+6]
$LN184@generateSu:
; Line 827
	mov	eax, DWORD PTR [r12+80]
	cmovle	ecx, r14d
	mov	DWORD PTR [rsi+24], eax
	mov	edx, DWORD PTR [rsi+60]
	cmp	edx, ecx
	jle	SHORT $LN186@generateSu
; Line 825
	lea	r13d, DWORD PTR [r15+7]
$LN186@generateSu:
; Line 827
	mov	eax, DWORD PTR [r12+96]
	cmovle	edx, ecx
	add	r15d, 8
	mov	DWORD PTR [rsi+28], eax
	mov	rsi, QWORD PTR tv3161[rbp-256]
	sub	r12, -128				; ffffffffffffff80H
	mov	ecx, edx
	mov	QWORD PTR tv3216[rbp-256], rcx
	cmp	r15d, 8
	jl	$LL18@generateSu
; Line 830
	mov	rax, QWORD PTR prog$GSCopy$1$[rsp]
	mov	ecx, DWORD PTR programSize$1$[rsp]
	mov	DWORD PTR [rax+4096], ecx
; Line 833
	mov	ecx, DWORD PTR retireCycle$1$[rsp]
	mov	DWORD PTR [rax+4124], ecx
; Line 835
	mov	ecx, DWORD PTR codeSize$1$[rsp]
	mov	DWORD PTR [rax+4112], ecx
; Line 836
	mov	ecx, DWORD PTR macroOpCount$1$[rsp]
	mov	DWORD PTR [rax+4116], ecx
; Line 837
	mov	ecx, DWORD PTR $T14[rsp]
	mov	DWORD PTR [rax+4120], ecx
; Line 839
	mov	ecx, DWORD PTR mulCount$1$[rsp]
	mov	DWORD PTR [rax+4132], ecx
	movsd	QWORD PTR [rax+4104], xmm1
	mov	DWORD PTR [rax+4100], r13d
	mov	DWORD PTR [rax+4128], edx
; Line 854
	mov	rcx, QWORD PTR __$ArrayPad$[rbp-256]
	xor	rcx, rsp
	call	__security_check_cookie
	mov	rbx, QWORD PTR [rsp+2512]
	add	rsp, 2432				; 00000980H
	pop	r15
	pop	r14
	pop	r13
	pop	r12
	pop	rdi
	pop	rsi
	pop	rbp
	ret	0
?generateSuperscalar@randomx@@YAXAEAVSuperscalarProgram@1@AEAVBlake2Generator@1@@Z ENDP ; randomx::generateSuperscalar
_TEXT	ENDS
; Function compile flags: /Ogtpy
;	COMDAT ?setMod@Instruction@randomx@@QEAAXE@Z
_TEXT	SEGMENT
this$ = 8
val$ = 16
?setMod@Instruction@randomx@@QEAAXE@Z PROC		; randomx::Instruction::setMod, COMDAT
; File D:\dev\francium_network\francium_agent\src\ext\randomx\repo\src\instruction.hpp
; Line 100
	mov	BYTE PTR [rcx+3], dl
; Line 101
	ret	0
?setMod@Instruction@randomx@@QEAAXE@Z ENDP		; randomx::Instruction::setMod
_TEXT	ENDS
; Function compile flags: /Ogtpy
;	COMDAT ?setSize@SuperscalarProgram@randomx@@QEAAXI@Z
_TEXT	SEGMENT
this$ = 8
val$ = 16
?setSize@SuperscalarProgram@randomx@@QEAAXI@Z PROC	; randomx::SuperscalarProgram::setSize, COMDAT
; File D:\dev\francium_network\francium_agent\src\ext\randomx\repo\src\superscalar_program.hpp
; Line 50
	mov	DWORD PTR [rcx+4096], edx
; Line 51
	ret	0
?setSize@SuperscalarProgram@randomx@@QEAAXI@Z ENDP	; randomx::SuperscalarProgram::setSize
_TEXT	ENDS
; Function compile flags: /Ogtpy
;	COMDAT ?setAddressRegister@SuperscalarProgram@randomx@@QEAAXH@Z
_TEXT	SEGMENT
this$ = 8
val$ = 16
?setAddressRegister@SuperscalarProgram@randomx@@QEAAXH@Z PROC ; randomx::SuperscalarProgram::setAddressRegister, COMDAT
; File D:\dev\francium_network\francium_agent\src\ext\randomx\repo\src\superscalar_program.hpp
; Line 56
	mov	DWORD PTR [rcx+4100], edx
; Line 57
	ret	0
?setAddressRegister@SuperscalarProgram@randomx@@QEAAXH@Z ENDP ; randomx::SuperscalarProgram::setAddressRegister
_TEXT	ENDS
; Function compile flags: /Ogtpy
;	COMDAT ?isMultiplication@randomx@@YA_NW4SuperscalarInstructionType@1@@Z
_TEXT	SEGMENT
type$ = 8
?isMultiplication@randomx@@YA_NW4SuperscalarInstructionType@1@@Z PROC ; randomx::isMultiplication, COMDAT
; File D:\dev\francium_network\francium_agent\src\ext\randomx\repo\src\superscalar.cpp
; Line 45
	cmp	ecx, 3
	je	SHORT $LN3@isMultipli
	lea	eax, DWORD PTR [rcx-11]
	cmp	eax, 2
	jbe	SHORT $LN3@isMultipli
	xor	al, al
; Line 46
	ret	0
$LN3@isMultipli:
; Line 45
	mov	al, 1
; Line 46
	ret	0
?isMultiplication@randomx@@YA_NW4SuperscalarInstructionType@1@@Z ENDP ; randomx::isMultiplication
_TEXT	ENDS
; Function compile flags: /Ogtpy
;	COMDAT ??0MacroOp@randomx@@QEAA@PEBDH@Z
_TEXT	SEGMENT
this$ = 8
name$ = 16
size$dead$ = 24
??0MacroOp@randomx@@QEAA@PEBDH@Z PROC			; randomx::MacroOp::MacroOp, COMDAT
; File D:\dev\francium_network\francium_agent\src\ext\randomx\repo\src\superscalar.cpp
; Line 66
	xor	eax, eax
	mov	QWORD PTR [rcx], rdx
	mov	QWORD PTR [rcx+16], rax
; Line 120
	mov	BYTE PTR [rcx+24], al
	mov	rax, rcx
	mov	QWORD PTR [rcx+8], 3
	ret	0
??0MacroOp@randomx@@QEAA@PEBDH@Z ENDP			; randomx::MacroOp::MacroOp
_TEXT	ENDS
; Function compile flags: /Ogtpy
;	COMDAT ??0MacroOp@randomx@@QEAA@PEBDHHH@Z
_TEXT	SEGMENT
this$ = 8
name$ = 16
size$ = 24
latency$ = 32
uop$ = 40
??0MacroOp@randomx@@QEAA@PEBDHHH@Z PROC			; randomx::MacroOp::MacroOp, COMDAT
; File D:\dev\francium_network\francium_agent\src\ext\randomx\repo\src\superscalar.cpp
; Line 68
	mov	eax, DWORD PTR uop$[rsp]
	mov	DWORD PTR [rcx+16], eax
	mov	rax, rcx
	mov	QWORD PTR [rcx], rdx
	mov	DWORD PTR [rcx+8], r8d
	mov	DWORD PTR [rcx+12], r9d
	mov	DWORD PTR [rcx+20], 0
; Line 120
	mov	BYTE PTR [rcx+24], 0
	ret	0
??0MacroOp@randomx@@QEAA@PEBDHHH@Z ENDP			; randomx::MacroOp::MacroOp
_TEXT	ENDS
; Function compile flags: /Ogtpy
;	COMDAT ??0MacroOp@randomx@@QEAA@PEBDHHHH@Z
_TEXT	SEGMENT
this$ = 8
name$ = 16
size$dead$ = 24
latency$ = 32
uop1$ = 40
uop2$dead$ = 48
??0MacroOp@randomx@@QEAA@PEBDHHHH@Z PROC		; randomx::MacroOp::MacroOp, COMDAT
; File D:\dev\francium_network\francium_agent\src\ext\randomx\repo\src\superscalar.cpp
; Line 70
	mov	eax, DWORD PTR uop1$[rsp]
	mov	DWORD PTR [rcx+16], eax
	mov	rax, rcx
	mov	QWORD PTR [rcx], rdx
	mov	DWORD PTR [rcx+8], 3
	mov	DWORD PTR [rcx+12], r9d
	mov	DWORD PTR [rcx+20], 4
; Line 120
	mov	BYTE PTR [rcx+24], 0
	ret	0
??0MacroOp@randomx@@QEAA@PEBDHHHH@Z ENDP		; randomx::MacroOp::MacroOp
_TEXT	ENDS
; Function compile flags: /Ogtpy
;	COMDAT ??0MacroOp@randomx@@QEAA@AEBV01@_N@Z
_TEXT	SEGMENT
this$ = 8
parent$dead$ = 16
dependent$dead$ = 24
??0MacroOp@randomx@@QEAA@AEBV01@_N@Z PROC		; randomx::MacroOp::MacroOp, COMDAT
; File D:\dev\francium_network\francium_agent\src\ext\randomx\repo\src\superscalar.cpp
; Line 72
	mov	rax, QWORD PTR ?Imul_rr@MacroOp@randomx@@2V12@B
	mov	QWORD PTR [rcx], rax
	mov	eax, DWORD PTR ?Imul_rr@MacroOp@randomx@@2V12@B+8
	mov	DWORD PTR [rcx+8], eax
	mov	eax, DWORD PTR ?Imul_rr@MacroOp@randomx@@2V12@B+12
	mov	DWORD PTR [rcx+12], eax
	mov	eax, DWORD PTR ?Imul_rr@MacroOp@randomx@@2V12@B+16
	mov	DWORD PTR [rcx+16], eax
	mov	eax, DWORD PTR ?Imul_rr@MacroOp@randomx@@2V12@B+20
	mov	DWORD PTR [rcx+20], eax
	mov	rax, rcx
	mov	BYTE PTR [rcx+24], 1
	ret	0
??0MacroOp@randomx@@QEAA@AEBV01@_N@Z ENDP		; randomx::MacroOp::MacroOp
_TEXT	ENDS
; Function compile flags: /Ogtpy
;	COMDAT ?getName@MacroOp@randomx@@QEBAPEBDXZ
_TEXT	SEGMENT
this$ = 8
?getName@MacroOp@randomx@@QEBAPEBDXZ PROC		; randomx::MacroOp::getName, COMDAT
; File D:\dev\francium_network\francium_agent\src\ext\randomx\repo\src\superscalar.cpp
; Line 74
	mov	rax, QWORD PTR [rcx]
; Line 75
	ret	0
?getName@MacroOp@randomx@@QEBAPEBDXZ ENDP		; randomx::MacroOp::getName
_TEXT	ENDS
; Function compile flags: /Ogtpy
;	COMDAT ?getSize@MacroOp@randomx@@QEBAHXZ
_TEXT	SEGMENT
this$ = 8
?getSize@MacroOp@randomx@@QEBAHXZ PROC			; randomx::MacroOp::getSize, COMDAT
; File D:\dev\francium_network\francium_agent\src\ext\randomx\repo\src\superscalar.cpp
; Line 77
	mov	eax, DWORD PTR [rcx+8]
; Line 78
	ret	0
?getSize@MacroOp@randomx@@QEBAHXZ ENDP			; randomx::MacroOp::getSize
_TEXT	ENDS
; Function compile flags: /Ogtpy
;	COMDAT ?getLatency@MacroOp@randomx@@QEBAHXZ
_TEXT	SEGMENT
this$ = 8
?getLatency@MacroOp@randomx@@QEBAHXZ PROC		; randomx::MacroOp::getLatency, COMDAT
; File D:\dev\francium_network\francium_agent\src\ext\randomx\repo\src\superscalar.cpp
; Line 80
	mov	eax, DWORD PTR [rcx+12]
; Line 81
	ret	0
?getLatency@MacroOp@randomx@@QEBAHXZ ENDP		; randomx::MacroOp::getLatency
_TEXT	ENDS
; Function compile flags: /Ogtpy
;	COMDAT ?getUop1@MacroOp@randomx@@QEBAHXZ
_TEXT	SEGMENT
this$ = 8
?getUop1@MacroOp@randomx@@QEBAHXZ PROC			; randomx::MacroOp::getUop1, COMDAT
; File D:\dev\francium_network\francium_agent\src\ext\randomx\repo\src\superscalar.cpp
; Line 83
	mov	eax, DWORD PTR [rcx+16]
; Line 84
	ret	0
?getUop1@MacroOp@randomx@@QEBAHXZ ENDP			; randomx::MacroOp::getUop1
_TEXT	ENDS
; Function compile flags: /Ogtpy
;	COMDAT ?getUop2@MacroOp@randomx@@QEBAHXZ
_TEXT	SEGMENT
this$ = 8
?getUop2@MacroOp@randomx@@QEBAHXZ PROC			; randomx::MacroOp::getUop2, COMDAT
; File D:\dev\francium_network\francium_agent\src\ext\randomx\repo\src\superscalar.cpp
; Line 86
	mov	eax, DWORD PTR [rcx+20]
; Line 87
	ret	0
?getUop2@MacroOp@randomx@@QEBAHXZ ENDP			; randomx::MacroOp::getUop2
_TEXT	ENDS
; Function compile flags: /Ogtpy
;	COMDAT ?isSimple@MacroOp@randomx@@QEBA_NXZ
_TEXT	SEGMENT
this$ = 8
?isSimple@MacroOp@randomx@@QEBA_NXZ PROC		; randomx::MacroOp::isSimple, COMDAT
; File D:\dev\francium_network\francium_agent\src\ext\randomx\repo\src\superscalar.cpp
; Line 89
	cmp	DWORD PTR [rcx+20], 0
	sete	al
; Line 90
	ret	0
?isSimple@MacroOp@randomx@@QEBA_NXZ ENDP		; randomx::MacroOp::isSimple
_TEXT	ENDS
; Function compile flags: /Ogtpy
;	COMDAT ?isEliminated@MacroOp@randomx@@QEBA_NXZ
_TEXT	SEGMENT
this$ = 8
?isEliminated@MacroOp@randomx@@QEBA_NXZ PROC		; randomx::MacroOp::isEliminated, COMDAT
; File D:\dev\francium_network\francium_agent\src\ext\randomx\repo\src\superscalar.cpp
; Line 92
	cmp	DWORD PTR [rcx+16], 0
	sete	al
; Line 93
	ret	0
?isEliminated@MacroOp@randomx@@QEBA_NXZ ENDP		; randomx::MacroOp::isEliminated
_TEXT	ENDS
; Function compile flags: /Ogtpy
;	COMDAT ?isDependent@MacroOp@randomx@@QEBA_NXZ
_TEXT	SEGMENT
this$ = 8
?isDependent@MacroOp@randomx@@QEBA_NXZ PROC		; randomx::MacroOp::isDependent, COMDAT
; File D:\dev\francium_network\francium_agent\src\ext\randomx\repo\src\superscalar.cpp
; Line 95
	movzx	eax, BYTE PTR [rcx+24]
; Line 96
	ret	0
?isDependent@MacroOp@randomx@@QEBA_NXZ ENDP		; randomx::MacroOp::isDependent
_TEXT	ENDS
; Function compile flags: /Ogtpy
;	COMDAT ??__EIMULH_R_ops_array@randomx@@YAXXZ
text$di	SEGMENT
??__EIMULH_R_ops_array@randomx@@YAXXZ PROC		; randomx::`dynamic initializer for 'IMULH_R_ops_array'', COMDAT
; File D:\dev\francium_network\francium_agent\src\ext\randomx\repo\src\superscalar.cpp
; Line 150
	movups	xmm3, XMMWORD PTR ?Mov_rr@MacroOp@randomx@@2V12@B
	movups	xmm2, XMMWORD PTR ?Mov_rr@MacroOp@randomx@@2V12@B+16
	movups	xmm0, XMMWORD PTR ?Mul_r@MacroOp@randomx@@2V12@B
	movups	xmm1, XMMWORD PTR ?Mul_r@MacroOp@randomx@@2V12@B+16
	movaps	XMMWORD PTR ?IMULH_R_ops_array@randomx@@3QBVMacroOp@1@B, xmm3
	movaps	XMMWORD PTR ?IMULH_R_ops_array@randomx@@3QBVMacroOp@1@B+16, xmm2
	movaps	XMMWORD PTR ?IMULH_R_ops_array@randomx@@3QBVMacroOp@1@B+32, xmm0
	movaps	XMMWORD PTR ?IMULH_R_ops_array@randomx@@3QBVMacroOp@1@B+48, xmm1
	movaps	XMMWORD PTR ?IMULH_R_ops_array@randomx@@3QBVMacroOp@1@B+64, xmm3
	movaps	XMMWORD PTR ?IMULH_R_ops_array@randomx@@3QBVMacroOp@1@B+80, xmm2
	ret	0
??__EIMULH_R_ops_array@randomx@@YAXXZ ENDP		; randomx::`dynamic initializer for 'IMULH_R_ops_array''
text$di	ENDS
; Function compile flags: /Ogtpy
;	COMDAT ??__EISMULH_R_ops_array@randomx@@YAXXZ
text$di	SEGMENT
??__EISMULH_R_ops_array@randomx@@YAXXZ PROC		; randomx::`dynamic initializer for 'ISMULH_R_ops_array'', COMDAT
; File D:\dev\francium_network\francium_agent\src\ext\randomx\repo\src\superscalar.cpp
; Line 151
	movups	xmm3, XMMWORD PTR ?Mov_rr@MacroOp@randomx@@2V12@B
	movups	xmm2, XMMWORD PTR ?Mov_rr@MacroOp@randomx@@2V12@B+16
	movups	xmm0, XMMWORD PTR ?Imul_r@MacroOp@randomx@@2V12@B
	movups	xmm1, XMMWORD PTR ?Imul_r@MacroOp@randomx@@2V12@B+16
	movaps	XMMWORD PTR ?ISMULH_R_ops_array@randomx@@3QBVMacroOp@1@B, xmm3
	movaps	XMMWORD PTR ?ISMULH_R_ops_array@randomx@@3QBVMacroOp@1@B+16, xmm2
	movaps	XMMWORD PTR ?ISMULH_R_ops_array@randomx@@3QBVMacroOp@1@B+32, xmm0
	movaps	XMMWORD PTR ?ISMULH_R_ops_array@randomx@@3QBVMacroOp@1@B+48, xmm1
	movaps	XMMWORD PTR ?ISMULH_R_ops_array@randomx@@3QBVMacroOp@1@B+64, xmm3
	movaps	XMMWORD PTR ?ISMULH_R_ops_array@randomx@@3QBVMacroOp@1@B+80, xmm2
	ret	0
??__EISMULH_R_ops_array@randomx@@YAXXZ ENDP		; randomx::`dynamic initializer for 'ISMULH_R_ops_array''
text$di	ENDS
; Function compile flags: /Ogtpy
;	COMDAT ??__EIMUL_RCP_ops_array@randomx@@YAXXZ
text$di	SEGMENT
??__EIMUL_RCP_ops_array@randomx@@YAXXZ PROC		; randomx::`dynamic initializer for 'IMUL_RCP_ops_array'', COMDAT
; File D:\dev\francium_network\francium_agent\src\ext\randomx\repo\src\superscalar.cpp
; Line 72
	mov	rax, QWORD PTR ?Imul_rr@MacroOp@randomx@@2V12@B
; Line 152
	movups	xmm0, XMMWORD PTR ?Mov_ri64@MacroOp@randomx@@2V12@B
; Line 72
	mov	QWORD PTR ?IMUL_RCP_ops_array@randomx@@3QBVMacroOp@1@B+32, rax
	mov	eax, DWORD PTR ?Imul_rr@MacroOp@randomx@@2V12@B+8
; Line 152
	movups	xmm1, XMMWORD PTR ?Mov_ri64@MacroOp@randomx@@2V12@B+16
; Line 72
	mov	DWORD PTR ?IMUL_RCP_ops_array@randomx@@3QBVMacroOp@1@B+40, eax
	mov	eax, DWORD PTR ?Imul_rr@MacroOp@randomx@@2V12@B+12
	mov	DWORD PTR ?IMUL_RCP_ops_array@randomx@@3QBVMacroOp@1@B+44, eax
	mov	eax, DWORD PTR ?Imul_rr@MacroOp@randomx@@2V12@B+16
	mov	DWORD PTR ?IMUL_RCP_ops_array@randomx@@3QBVMacroOp@1@B+48, eax
	mov	eax, DWORD PTR ?Imul_rr@MacroOp@randomx@@2V12@B+20
	mov	DWORD PTR ?IMUL_RCP_ops_array@randomx@@3QBVMacroOp@1@B+52, eax
; Line 152
	movaps	XMMWORD PTR ?IMUL_RCP_ops_array@randomx@@3QBVMacroOp@1@B, xmm0
	movaps	XMMWORD PTR ?IMUL_RCP_ops_array@randomx@@3QBVMacroOp@1@B+16, xmm1
	ret	0
??__EIMUL_RCP_ops_array@randomx@@YAXXZ ENDP		; randomx::`dynamic initializer for 'IMUL_RCP_ops_array''
text$di	ENDS
; Function compile flags: /Ogtpy
;	COMDAT ?getName@SuperscalarInstructionInfo@randomx@@QEBAPEBDXZ
_TEXT	SEGMENT
this$ = 8
?getName@SuperscalarInstructionInfo@randomx@@QEBAPEBDXZ PROC ; randomx::SuperscalarInstructionInfo::getName, COMDAT
; File D:\dev\francium_network\francium_agent\src\ext\randomx\repo\src\superscalar.cpp
; Line 157
	mov	rax, QWORD PTR [rcx]
; Line 158
	ret	0
?getName@SuperscalarInstructionInfo@randomx@@QEBAPEBDXZ ENDP ; randomx::SuperscalarInstructionInfo::getName
_TEXT	ENDS
; Function compile flags: /Ogtpy
;	COMDAT ?getSize@SuperscalarInstructionInfo@randomx@@QEBAHXZ
_TEXT	SEGMENT
this$ = 8
?getSize@SuperscalarInstructionInfo@randomx@@QEBAHXZ PROC ; randomx::SuperscalarInstructionInfo::getSize, COMDAT
; File D:\dev\francium_network\francium_agent\src\ext\randomx\repo\src\superscalar.cpp
; File D:\software\Visual Studio 2022\VC\Tools\MSVC\14.35.32215\include\vector
; Line 1932
	mov	rax, QWORD PTR [rcx+24]
	sub	rax, QWORD PTR [rcx+16]
	sar	rax, 5
; File D:\dev\francium_network\francium_agent\src\ext\randomx\repo\src\superscalar.cpp
; Line 161
	ret	0
?getSize@SuperscalarInstructionInfo@randomx@@QEBAHXZ ENDP ; randomx::SuperscalarInstructionInfo::getSize
_TEXT	ENDS
; Function compile flags: /Ogtpy
;	COMDAT ?getOp@SuperscalarInstructionInfo@randomx@@QEBAAEBVMacroOp@2@H@Z
_TEXT	SEGMENT
this$ = 8
index$ = 16
?getOp@SuperscalarInstructionInfo@randomx@@QEBAAEBVMacroOp@2@H@Z PROC ; randomx::SuperscalarInstructionInfo::getOp, COMDAT
; File D:\dev\francium_network\francium_agent\src\ext\randomx\repo\src\superscalar.cpp
; Line 169
	movsxd	rax, edx
; File D:\software\Visual Studio 2022\VC\Tools\MSVC\14.35.32215\include\vector
; Line 1962
	shl	rax, 5
	add	rax, QWORD PTR [rcx+16]
; File D:\dev\francium_network\francium_agent\src\ext\randomx\repo\src\superscalar.cpp
; Line 170
	ret	0
?getOp@SuperscalarInstructionInfo@randomx@@QEBAAEBVMacroOp@2@H@Z ENDP ; randomx::SuperscalarInstructionInfo::getOp
_TEXT	ENDS
; Function compile flags: /Ogtpy
;	COMDAT ?getType@SuperscalarInstructionInfo@randomx@@QEBA?AW4SuperscalarInstructionType@2@XZ
_TEXT	SEGMENT
this$ = 8
?getType@SuperscalarInstructionInfo@randomx@@QEBA?AW4SuperscalarInstructionType@2@XZ PROC ; randomx::SuperscalarInstructionInfo::getType, COMDAT
; File D:\dev\francium_network\francium_agent\src\ext\randomx\repo\src\superscalar.cpp
; Line 172
	mov	eax, DWORD PTR [rcx+8]
; Line 173
	ret	0
?getType@SuperscalarInstructionInfo@randomx@@QEBA?AW4SuperscalarInstructionType@2@XZ ENDP ; randomx::SuperscalarInstructionInfo::getType
_TEXT	ENDS
; Function compile flags: /Ogtpy
;	COMDAT ?getResultOp@SuperscalarInstructionInfo@randomx@@QEBAHXZ
_TEXT	SEGMENT
this$ = 8
?getResultOp@SuperscalarInstructionInfo@randomx@@QEBAHXZ PROC ; randomx::SuperscalarInstructionInfo::getResultOp, COMDAT
; File D:\dev\francium_network\francium_agent\src\ext\randomx\repo\src\superscalar.cpp
; Line 175
	mov	eax, DWORD PTR [rcx+44]
; Line 176
	ret	0
?getResultOp@SuperscalarInstructionInfo@randomx@@QEBAHXZ ENDP ; randomx::SuperscalarInstructionInfo::getResultOp
_TEXT	ENDS
; Function compile flags: /Ogtpy
;	COMDAT ?getDstOp@SuperscalarInstructionInfo@randomx@@QEBAHXZ
_TEXT	SEGMENT
this$ = 8
?getDstOp@SuperscalarInstructionInfo@randomx@@QEBAHXZ PROC ; randomx::SuperscalarInstructionInfo::getDstOp, COMDAT
; File D:\dev\francium_network\francium_agent\src\ext\randomx\repo\src\superscalar.cpp
; Line 178
	mov	eax, DWORD PTR [rcx+48]
; Line 179
	ret	0
?getDstOp@SuperscalarInstructionInfo@randomx@@QEBAHXZ ENDP ; randomx::SuperscalarInstructionInfo::getDstOp
_TEXT	ENDS
; Function compile flags: /Ogtpy
;	COMDAT ?getSrcOp@SuperscalarInstructionInfo@randomx@@QEBAHXZ
_TEXT	SEGMENT
this$ = 8
?getSrcOp@SuperscalarInstructionInfo@randomx@@QEBAHXZ PROC ; randomx::SuperscalarInstructionInfo::getSrcOp, COMDAT
; File D:\dev\francium_network\francium_agent\src\ext\randomx\repo\src\superscalar.cpp
; Line 181
	mov	eax, DWORD PTR [rcx+52]
; Line 182
	ret	0
?getSrcOp@SuperscalarInstructionInfo@randomx@@QEBAHXZ ENDP ; randomx::SuperscalarInstructionInfo::getSrcOp
_TEXT	ENDS
; Function compile flags: /Ogtpy
;	COMDAT ??0SuperscalarInstructionInfo@randomx@@AEAA@PEBD@Z
_TEXT	SEGMENT
this$dead$ = 8
name$dead$ = 16
??0SuperscalarInstructionInfo@randomx@@AEAA@PEBD@Z PROC	; randomx::SuperscalarInstructionInfo::SuperscalarInstructionInfo, COMDAT
; File D:\dev\francium_network\francium_agent\src\ext\randomx\repo\src\superscalar.cpp
; Line 208
	lea	rax, OFFSET FLAT:??_C@_03GEANJIEE@NOP@
	mov	DWORD PTR ?NOP@SuperscalarInstructionInfo@randomx@@2V12@B+8, -1
	mov	QWORD PTR ?NOP@SuperscalarInstructionInfo@randomx@@2V12@B, rax
	xorps	xmm0, xmm0
; File D:\software\Visual Studio 2022\VC\Tools\MSVC\14.35.32215\include\vector
; Line 390
	xor	eax, eax
	mov	QWORD PTR ?NOP@SuperscalarInstructionInfo@randomx@@2V12@B+32, rax
; File D:\dev\francium_network\francium_agent\src\ext\randomx\repo\src\superscalar.cpp
; Line 208
	mov	QWORD PTR ?NOP@SuperscalarInstructionInfo@randomx@@2V12@B+40, rax
	mov	DWORD PTR ?NOP@SuperscalarInstructionInfo@randomx@@2V12@B+48, eax
	lea	rax, OFFSET FLAT:?NOP@SuperscalarInstructionInfo@randomx@@2V12@B ; randomx::SuperscalarInstructionInfo::NOP
; File D:\software\Visual Studio 2022\VC\Tools\MSVC\14.35.32215\include\vector
; Line 390
	movdqu	XMMWORD PTR ?NOP@SuperscalarInstructionInfo@randomx@@2V12@B+16, xmm0
; File D:\dev\francium_network\francium_agent\src\ext\randomx\repo\src\superscalar.cpp
; Line 208
	ret	0
??0SuperscalarInstructionInfo@randomx@@AEAA@PEBD@Z ENDP	; randomx::SuperscalarInstructionInfo::SuperscalarInstructionInfo
_TEXT	ENDS
; Function compile flags: /Ogtpy
;	COMDAT ??0SuperscalarInstructionInfo@randomx@@AEAA@PEBDW4SuperscalarInstructionType@1@AEBVMacroOp@1@H@Z
_TEXT	SEGMENT
$T1 = 32
this$ = 80
name$ = 88
type$ = 96
op$ = 104
srcOp$ = 112
??0SuperscalarInstructionInfo@randomx@@AEAA@PEBDW4SuperscalarInstructionType@1@AEBVMacroOp@1@H@Z PROC ; randomx::SuperscalarInstructionInfo::SuperscalarInstructionInfo, COMDAT
; File D:\dev\francium_network\francium_agent\src\ext\randomx\repo\src\superscalar.cpp
; Line 209
$LN22:
	mov	QWORD PTR [rsp+8], rcx
	push	rbx
	sub	rsp, 64					; 00000040H
	mov	rbx, rcx
; Line 210
	mov	QWORD PTR [rcx], rdx
	mov	DWORD PTR [rcx+8], r8d
	add	rcx, 16
; File D:\software\Visual Studio 2022\VC\Tools\MSVC\14.35.32215\include\vector
; Line 390
	xor	edx, edx
	mov	QWORD PTR [rcx], rdx
	mov	QWORD PTR [rcx+8], rdx
	mov	QWORD PTR [rcx+16], rdx
; File D:\dev\francium_network\francium_agent\src\ext\randomx\repo\src\superscalar.cpp
; Line 210
	mov	eax, DWORD PTR [r9+12]
	mov	DWORD PTR [rbx+40], eax
; Line 203
	mov	QWORD PTR [rbx+44], rdx
; Line 210
	mov	eax, DWORD PTR srcOp$[rsp]
	mov	DWORD PTR [rbx+52], eax
; Line 211
	movups	xmm0, XMMWORD PTR [r9]
	movups	XMMWORD PTR $T1[rsp], xmm0
	movups	xmm1, XMMWORD PTR [r9+16]
	movups	XMMWORD PTR $T1[rsp+16], xmm1
; File D:\software\Visual Studio 2022\VC\Tools\MSVC\14.35.32215\include\vector
; Line 844
	mov	rdx, QWORD PTR [rcx+8]
	cmp	rdx, QWORD PTR [rcx+16]
	je	SHORT $LN13@Superscala
; File D:\software\Visual Studio 2022\VC\Tools\MSVC\14.35.32215\include\xutility
; Line 275
	movups	XMMWORD PTR [rdx], xmm0
	movups	XMMWORD PTR [rdx+16], xmm1
; File D:\software\Visual Studio 2022\VC\Tools\MSVC\14.35.32215\include\vector
; Line 869
	add	QWORD PTR [rcx+8], 32			; 00000020H
; Line 845
	jmp	SHORT $LN19@Superscala
$LN13@Superscala:
; Line 848
	lea	r8, QWORD PTR $T1[rsp]
	call	??$_Emplace_reallocate@VMacroOp@randomx@@@?$vector@VMacroOp@randomx@@V?$allocator@VMacroOp@randomx@@@std@@@std@@AEAAPEAVMacroOp@randomx@@QEAV23@$$QEAV23@@Z ; std::vector<randomx::MacroOp,std::allocator<randomx::MacroOp> >::_Emplace_reallocate<randomx::MacroOp>
	npad	1
$LN19@Superscala:
; File D:\dev\francium_network\francium_agent\src\ext\randomx\repo\src\superscalar.cpp
; Line 212
	mov	rax, rbx
	add	rsp, 64					; 00000040H
	pop	rbx
	ret	0
??0SuperscalarInstructionInfo@randomx@@AEAA@PEBDW4SuperscalarInstructionType@1@AEBVMacroOp@1@H@Z ENDP ; randomx::SuperscalarInstructionInfo::SuperscalarInstructionInfo
_TEXT	ENDS
; Function compile flags: /Ogtpy
;	COMDAT text$x
text$x	SEGMENT
$T1 = 32
this$ = 80
name$ = 88
type$ = 96
op$ = 104
srcOp$ = 112
?dtor$0@?0???0SuperscalarInstructionInfo@randomx@@AEAA@PEBDW4SuperscalarInstructionType@1@AEBVMacroOp@1@H@Z@4HA PROC ; `randomx::SuperscalarInstructionInfo::SuperscalarInstructionInfo'::`1'::dtor$0
	mov	rcx, QWORD PTR this$[rdx]
	add	rcx, 16
	jmp	??1?$vector@VMacroOp@randomx@@V?$allocator@VMacroOp@randomx@@@std@@@std@@QEAA@XZ ; std::vector<randomx::MacroOp,std::allocator<randomx::MacroOp> >::~vector<randomx::MacroOp,std::allocator<randomx::MacroOp> >
?dtor$0@?0???0SuperscalarInstructionInfo@randomx@@AEAA@PEBDW4SuperscalarInstructionType@1@AEBVMacroOp@1@H@Z@4HA ENDP ; `randomx::SuperscalarInstructionInfo::SuperscalarInstructionInfo'::`1'::dtor$0
text$x	ENDS
; Function compile flags: /Ogtpy
;	COMDAT ??__E?ISUB_R@SuperscalarInstructionInfo@randomx@@2V12@B@@YAXXZ
text$di	SEGMENT
$T1 = 32
??__E?ISUB_R@SuperscalarInstructionInfo@randomx@@2V12@B@@YAXXZ PROC ; `dynamic initializer for 'randomx::SuperscalarInstructionInfo::ISUB_R'', COMDAT
; File D:\dev\francium_network\francium_agent\src\ext\randomx\repo\src\superscalar.cpp
; Line 224
	sub	rsp, 72					; 00000048H
; Line 210
	mov	eax, DWORD PTR ?Sub_rr@MacroOp@randomx@@2V12@B+12
	mov	DWORD PTR ?ISUB_R@SuperscalarInstructionInfo@randomx@@2V12@B+40, eax
; Line 211
	movups	xmm0, XMMWORD PTR ?Sub_rr@MacroOp@randomx@@2V12@B
	movups	XMMWORD PTR $T1[rsp], xmm0
	movups	xmm1, XMMWORD PTR ?Sub_rr@MacroOp@randomx@@2V12@B+16
	movups	XMMWORD PTR $T1[rsp+16], xmm1
; File D:\software\Visual Studio 2022\VC\Tools\MSVC\14.35.32215\include\vector
; Line 848
	lea	r8, QWORD PTR $T1[rsp]
	xor	edx, edx
	lea	rcx, OFFSET FLAT:?ISUB_R@SuperscalarInstructionInfo@randomx@@2V12@B+16
	call	??$_Emplace_reallocate@VMacroOp@randomx@@@?$vector@VMacroOp@randomx@@V?$allocator@VMacroOp@randomx@@@std@@@std@@AEAAPEAVMacroOp@randomx@@QEAV23@$$QEAV23@@Z ; std::vector<randomx::MacroOp,std::allocator<randomx::MacroOp> >::_Emplace_reallocate<randomx::MacroOp>
	npad	1
; File D:\dev\francium_network\francium_agent\src\ext\randomx\repo\src\superscalar.cpp
; Line 224
	lea	rcx, OFFSET FLAT:??__F?ISUB_R@SuperscalarInstructionInfo@randomx@@2V12@B@@YAXXZ ; `dynamic atexit destructor for 'randomx::SuperscalarInstructionInfo::ISUB_R''
	add	rsp, 72					; 00000048H
	jmp	atexit
??__E?ISUB_R@SuperscalarInstructionInfo@randomx@@2V12@B@@YAXXZ ENDP ; `dynamic initializer for 'randomx::SuperscalarInstructionInfo::ISUB_R''
text$di	ENDS
; Function compile flags: /Ogtpy
;	COMDAT text$x
text$x	SEGMENT
$T1 = 32
?dtor$0@?0???__E?ISUB_R@SuperscalarInstructionInfo@randomx@@2V12@B@@YAXXZ@4HA PROC ; ``dynamic initializer for 'randomx::SuperscalarInstructionInfo::ISUB_R'''::`1'::dtor$0
	lea	rcx, OFFSET FLAT:?ISUB_R@SuperscalarInstructionInfo@randomx@@2V12@B ; randomx::SuperscalarInstructionInfo::ISUB_R
	add	rcx, 16
	jmp	??1?$vector@VMacroOp@randomx@@V?$allocator@VMacroOp@randomx@@@std@@@std@@QEAA@XZ ; std::vector<randomx::MacroOp,std::allocator<randomx::MacroOp> >::~vector<randomx::MacroOp,std::allocator<randomx::MacroOp> >
?dtor$0@?0???__E?ISUB_R@SuperscalarInstructionInfo@randomx@@2V12@B@@YAXXZ@4HA ENDP ; ``dynamic initializer for 'randomx::SuperscalarInstructionInfo::ISUB_R'''::`1'::dtor$0
text$x	ENDS
; Function compile flags: /Ogtpy
;	COMDAT ??__F?ISUB_R@SuperscalarInstructionInfo@randomx@@2V12@B@@YAXXZ
text$yd	SEGMENT
??__F?ISUB_R@SuperscalarInstructionInfo@randomx@@2V12@B@@YAXXZ PROC ; `dynamic atexit destructor for 'randomx::SuperscalarInstructionInfo::ISUB_R'', COMDAT
	sub	rsp, 40					; 00000028H
; File D:\software\Visual Studio 2022\VC\Tools\MSVC\14.35.32215\include\vector
; Line 2107
	mov	rcx, QWORD PTR ?ISUB_R@SuperscalarInstructionInfo@randomx@@2V12@B+16
	test	rcx, rcx
	je	SHORT $LN9@ISUB_R
; Line 2110
	mov	rdx, QWORD PTR ?ISUB_R@SuperscalarInstructionInfo@randomx@@2V12@B+32
	sub	rdx, rcx
; File D:\software\Visual Studio 2022\VC\Tools\MSVC\14.35.32215\include\xmemory
; Line 829
	and	rdx, -32				; ffffffffffffffe0H
; Line 251
	cmp	rdx, 4096				; 00001000H
	jb	SHORT $LN25@ISUB_R
; Line 150
	mov	r8, QWORD PTR [rcx-8]
	add	rdx, 39					; 00000027H
; Line 163
	sub	rcx, r8
; Line 164
	lea	rax, QWORD PTR [rcx-8]
	cmp	rax, 31
	ja	SHORT $LN22@ISUB_R
; Line 165
	mov	rcx, r8
$LN25@ISUB_R:
; Line 255
	call	??3@YAXPEAX_K@Z				; operator delete
	xorps	xmm0, xmm0
; File D:\software\Visual Studio 2022\VC\Tools\MSVC\14.35.32215\include\vector
; Line 2112
	mov	QWORD PTR ?ISUB_R@SuperscalarInstructionInfo@randomx@@2V12@B+16, 0
; Line 2113
	movdqu	XMMWORD PTR ?ISUB_R@SuperscalarInstructionInfo@randomx@@2V12@B+24, xmm0
$LN9@ISUB_R:
	add	rsp, 40					; 00000028H
	ret	0
$LN22@ISUB_R:
; File D:\software\Visual Studio 2022\VC\Tools\MSVC\14.35.32215\include\xmemory
; Line 164
	call	_invalid_parameter_noinfo_noreturn
	int	3
$LN32@ISUB_R:
??__F?ISUB_R@SuperscalarInstructionInfo@randomx@@2V12@B@@YAXXZ ENDP ; `dynamic atexit destructor for 'randomx::SuperscalarInstructionInfo::ISUB_R''
text$yd	ENDS
; Function compile flags: /Ogtpy
;	COMDAT ??1SuperscalarInstructionInfo@randomx@@QEAA@XZ
_TEXT	SEGMENT
this$ = 48
??1SuperscalarInstructionInfo@randomx@@QEAA@XZ PROC	; randomx::SuperscalarInstructionInfo::~SuperscalarInstructionInfo, COMDAT
$LN31:
	push	rbx
	sub	rsp, 32					; 00000020H
	mov	rbx, rcx
; File D:\software\Visual Studio 2022\VC\Tools\MSVC\14.35.32215\include\vector
; Line 2107
	mov	rcx, QWORD PTR [rcx+16]
	test	rcx, rcx
	je	SHORT $LN6@Superscala
; Line 2110
	mov	rdx, QWORD PTR [rbx+32]
	sub	rdx, rcx
; File D:\software\Visual Studio 2022\VC\Tools\MSVC\14.35.32215\include\xmemory
; Line 829
	and	rdx, -32				; ffffffffffffffe0H
; Line 251
	cmp	rdx, 4096				; 00001000H
	jb	SHORT $LN22@Superscala
; Line 150
	mov	r8, QWORD PTR [rcx-8]
	add	rdx, 39					; 00000027H
; Line 163
	sub	rcx, r8
; Line 164
	lea	rax, QWORD PTR [rcx-8]
	cmp	rax, 31
	ja	SHORT $LN19@Superscala
; Line 165
	mov	rcx, r8
$LN22@Superscala:
; Line 255
	call	??3@YAXPEAX_K@Z				; operator delete
; File D:\software\Visual Studio 2022\VC\Tools\MSVC\14.35.32215\include\vector
; Line 2112
	xor	eax, eax
	mov	QWORD PTR [rbx+16], rax
; Line 2113
	mov	QWORD PTR [rbx+24], rax
; Line 2114
	mov	QWORD PTR [rbx+32], rax
$LN6@Superscala:
	add	rsp, 32					; 00000020H
	pop	rbx
	ret	0
$LN19@Superscala:
; File D:\software\Visual Studio 2022\VC\Tools\MSVC\14.35.32215\include\xmemory
; Line 164
	call	_invalid_parameter_noinfo_noreturn
	int	3
$LN28@Superscala:
??1SuperscalarInstructionInfo@randomx@@QEAA@XZ ENDP	; randomx::SuperscalarInstructionInfo::~SuperscalarInstructionInfo
_TEXT	ENDS
; Function compile flags: /Ogtpy
;	COMDAT ??__E?IXOR_R@SuperscalarInstructionInfo@randomx@@2V12@B@@YAXXZ
text$di	SEGMENT
$T1 = 32
??__E?IXOR_R@SuperscalarInstructionInfo@randomx@@2V12@B@@YAXXZ PROC ; `dynamic initializer for 'randomx::SuperscalarInstructionInfo::IXOR_R'', COMDAT
; File D:\dev\francium_network\francium_agent\src\ext\randomx\repo\src\superscalar.cpp
; Line 225
	sub	rsp, 72					; 00000048H
; Line 210
	mov	eax, DWORD PTR ?Xor_rr@MacroOp@randomx@@2V12@B+12
	mov	DWORD PTR ?IXOR_R@SuperscalarInstructionInfo@randomx@@2V12@B+40, eax
; Line 211
	movups	xmm0, XMMWORD PTR ?Xor_rr@MacroOp@randomx@@2V12@B
	movups	XMMWORD PTR $T1[rsp], xmm0
	movups	xmm1, XMMWORD PTR ?Xor_rr@MacroOp@randomx@@2V12@B+16
	movups	XMMWORD PTR $T1[rsp+16], xmm1
; File D:\software\Visual Studio 2022\VC\Tools\MSVC\14.35.32215\include\vector
; Line 848
	lea	r8, QWORD PTR $T1[rsp]
	xor	edx, edx
	lea	rcx, OFFSET FLAT:?IXOR_R@SuperscalarInstructionInfo@randomx@@2V12@B+16
	call	??$_Emplace_reallocate@VMacroOp@randomx@@@?$vector@VMacroOp@randomx@@V?$allocator@VMacroOp@randomx@@@std@@@std@@AEAAPEAVMacroOp@randomx@@QEAV23@$$QEAV23@@Z ; std::vector<randomx::MacroOp,std::allocator<randomx::MacroOp> >::_Emplace_reallocate<randomx::MacroOp>
	npad	1
; File D:\dev\francium_network\francium_agent\src\ext\randomx\repo\src\superscalar.cpp
; Line 225
	lea	rcx, OFFSET FLAT:??__F?IXOR_R@SuperscalarInstructionInfo@randomx@@2V12@B@@YAXXZ ; `dynamic atexit destructor for 'randomx::SuperscalarInstructionInfo::IXOR_R''
	add	rsp, 72					; 00000048H
	jmp	atexit
??__E?IXOR_R@SuperscalarInstructionInfo@randomx@@2V12@B@@YAXXZ ENDP ; `dynamic initializer for 'randomx::SuperscalarInstructionInfo::IXOR_R''
text$di	ENDS
; Function compile flags: /Ogtpy
;	COMDAT text$x
text$x	SEGMENT
$T1 = 32
?dtor$0@?0???__E?IXOR_R@SuperscalarInstructionInfo@randomx@@2V12@B@@YAXXZ@4HA PROC ; ``dynamic initializer for 'randomx::SuperscalarInstructionInfo::IXOR_R'''::`1'::dtor$0
	lea	rcx, OFFSET FLAT:?IXOR_R@SuperscalarInstructionInfo@randomx@@2V12@B ; randomx::SuperscalarInstructionInfo::IXOR_R
	add	rcx, 16
	jmp	??1?$vector@VMacroOp@randomx@@V?$allocator@VMacroOp@randomx@@@std@@@std@@QEAA@XZ ; std::vector<randomx::MacroOp,std::allocator<randomx::MacroOp> >::~vector<randomx::MacroOp,std::allocator<randomx::MacroOp> >
?dtor$0@?0???__E?IXOR_R@SuperscalarInstructionInfo@randomx@@2V12@B@@YAXXZ@4HA ENDP ; ``dynamic initializer for 'randomx::SuperscalarInstructionInfo::IXOR_R'''::`1'::dtor$0
text$x	ENDS
; Function compile flags: /Ogtpy
;	COMDAT ??__F?IXOR_R@SuperscalarInstructionInfo@randomx@@2V12@B@@YAXXZ
text$yd	SEGMENT
??__F?IXOR_R@SuperscalarInstructionInfo@randomx@@2V12@B@@YAXXZ PROC ; `dynamic atexit destructor for 'randomx::SuperscalarInstructionInfo::IXOR_R'', COMDAT
	sub	rsp, 40					; 00000028H
; File D:\software\Visual Studio 2022\VC\Tools\MSVC\14.35.32215\include\vector
; Line 2107
	mov	rcx, QWORD PTR ?IXOR_R@SuperscalarInstructionInfo@randomx@@2V12@B+16
	test	rcx, rcx
	je	SHORT $LN9@IXOR_R
; Line 2110
	mov	rdx, QWORD PTR ?IXOR_R@SuperscalarInstructionInfo@randomx@@2V12@B+32
	sub	rdx, rcx
; File D:\software\Visual Studio 2022\VC\Tools\MSVC\14.35.32215\include\xmemory
; Line 829
	and	rdx, -32				; ffffffffffffffe0H
; Line 251
	cmp	rdx, 4096				; 00001000H
	jb	SHORT $LN25@IXOR_R
; Line 150
	mov	r8, QWORD PTR [rcx-8]
	add	rdx, 39					; 00000027H
; Line 163
	sub	rcx, r8
; Line 164
	lea	rax, QWORD PTR [rcx-8]
	cmp	rax, 31
	ja	SHORT $LN22@IXOR_R
; Line 165
	mov	rcx, r8
$LN25@IXOR_R:
; Line 255
	call	??3@YAXPEAX_K@Z				; operator delete
	xorps	xmm0, xmm0
; File D:\software\Visual Studio 2022\VC\Tools\MSVC\14.35.32215\include\vector
; Line 2112
	mov	QWORD PTR ?IXOR_R@SuperscalarInstructionInfo@randomx@@2V12@B+16, 0
; Line 2113
	movdqu	XMMWORD PTR ?IXOR_R@SuperscalarInstructionInfo@randomx@@2V12@B+24, xmm0
$LN9@IXOR_R:
	add	rsp, 40					; 00000028H
	ret	0
$LN22@IXOR_R:
; File D:\software\Visual Studio 2022\VC\Tools\MSVC\14.35.32215\include\xmemory
; Line 164
	call	_invalid_parameter_noinfo_noreturn
	int	3
$LN32@IXOR_R:
??__F?IXOR_R@SuperscalarInstructionInfo@randomx@@2V12@B@@YAXXZ ENDP ; `dynamic atexit destructor for 'randomx::SuperscalarInstructionInfo::IXOR_R''
text$yd	ENDS
; Function compile flags: /Ogtpy
;	COMDAT ??__E?IADD_RS@SuperscalarInstructionInfo@randomx@@2V12@B@@YAXXZ
text$di	SEGMENT
$T1 = 32
??__E?IADD_RS@SuperscalarInstructionInfo@randomx@@2V12@B@@YAXXZ PROC ; `dynamic initializer for 'randomx::SuperscalarInstructionInfo::IADD_RS'', COMDAT
; File D:\dev\francium_network\francium_agent\src\ext\randomx\repo\src\superscalar.cpp
; Line 226
	sub	rsp, 72					; 00000048H
; Line 210
	mov	eax, DWORD PTR ?Lea_sib@MacroOp@randomx@@2V12@B+12
	mov	DWORD PTR ?IADD_RS@SuperscalarInstructionInfo@randomx@@2V12@B+40, eax
; Line 211
	movups	xmm0, XMMWORD PTR ?Lea_sib@MacroOp@randomx@@2V12@B
	movups	XMMWORD PTR $T1[rsp], xmm0
	movups	xmm1, XMMWORD PTR ?Lea_sib@MacroOp@randomx@@2V12@B+16
	movups	XMMWORD PTR $T1[rsp+16], xmm1
; File D:\software\Visual Studio 2022\VC\Tools\MSVC\14.35.32215\include\vector
; Line 848
	lea	r8, QWORD PTR $T1[rsp]
	xor	edx, edx
	lea	rcx, OFFSET FLAT:?IADD_RS@SuperscalarInstructionInfo@randomx@@2V12@B+16
	call	??$_Emplace_reallocate@VMacroOp@randomx@@@?$vector@VMacroOp@randomx@@V?$allocator@VMacroOp@randomx@@@std@@@std@@AEAAPEAVMacroOp@randomx@@QEAV23@$$QEAV23@@Z ; std::vector<randomx::MacroOp,std::allocator<randomx::MacroOp> >::_Emplace_reallocate<randomx::MacroOp>
	npad	1
; File D:\dev\francium_network\francium_agent\src\ext\randomx\repo\src\superscalar.cpp
; Line 226
	lea	rcx, OFFSET FLAT:??__F?IADD_RS@SuperscalarInstructionInfo@randomx@@2V12@B@@YAXXZ ; `dynamic atexit destructor for 'randomx::SuperscalarInstructionInfo::IADD_RS''
	add	rsp, 72					; 00000048H
	jmp	atexit
??__E?IADD_RS@SuperscalarInstructionInfo@randomx@@2V12@B@@YAXXZ ENDP ; `dynamic initializer for 'randomx::SuperscalarInstructionInfo::IADD_RS''
text$di	ENDS
; Function compile flags: /Ogtpy
;	COMDAT text$x
text$x	SEGMENT
$T1 = 32
?dtor$0@?0???__E?IADD_RS@SuperscalarInstructionInfo@randomx@@2V12@B@@YAXXZ@4HA PROC ; ``dynamic initializer for 'randomx::SuperscalarInstructionInfo::IADD_RS'''::`1'::dtor$0
	lea	rcx, OFFSET FLAT:?IADD_RS@SuperscalarInstructionInfo@randomx@@2V12@B ; randomx::SuperscalarInstructionInfo::IADD_RS
	add	rcx, 16
	jmp	??1?$vector@VMacroOp@randomx@@V?$allocator@VMacroOp@randomx@@@std@@@std@@QEAA@XZ ; std::vector<randomx::MacroOp,std::allocator<randomx::MacroOp> >::~vector<randomx::MacroOp,std::allocator<randomx::MacroOp> >
?dtor$0@?0???__E?IADD_RS@SuperscalarInstructionInfo@randomx@@2V12@B@@YAXXZ@4HA ENDP ; ``dynamic initializer for 'randomx::SuperscalarInstructionInfo::IADD_RS'''::`1'::dtor$0
text$x	ENDS
; Function compile flags: /Ogtpy
;	COMDAT ??__F?IADD_RS@SuperscalarInstructionInfo@randomx@@2V12@B@@YAXXZ
text$yd	SEGMENT
??__F?IADD_RS@SuperscalarInstructionInfo@randomx@@2V12@B@@YAXXZ PROC ; `dynamic atexit destructor for 'randomx::SuperscalarInstructionInfo::IADD_RS'', COMDAT
	sub	rsp, 40					; 00000028H
; File D:\software\Visual Studio 2022\VC\Tools\MSVC\14.35.32215\include\vector
; Line 2107
	mov	rcx, QWORD PTR ?IADD_RS@SuperscalarInstructionInfo@randomx@@2V12@B+16
	test	rcx, rcx
	je	SHORT $LN9@IADD_RS
; Line 2110
	mov	rdx, QWORD PTR ?IADD_RS@SuperscalarInstructionInfo@randomx@@2V12@B+32
	sub	rdx, rcx
; File D:\software\Visual Studio 2022\VC\Tools\MSVC\14.35.32215\include\xmemory
; Line 829
	and	rdx, -32				; ffffffffffffffe0H
; Line 251
	cmp	rdx, 4096				; 00001000H
	jb	SHORT $LN25@IADD_RS
; Line 150
	mov	r8, QWORD PTR [rcx-8]
	add	rdx, 39					; 00000027H
; Line 163
	sub	rcx, r8
; Line 164
	lea	rax, QWORD PTR [rcx-8]
	cmp	rax, 31
	ja	SHORT $LN22@IADD_RS
; Line 165
	mov	rcx, r8
$LN25@IADD_RS:
; Line 255
	call	??3@YAXPEAX_K@Z				; operator delete
	xorps	xmm0, xmm0
; File D:\software\Visual Studio 2022\VC\Tools\MSVC\14.35.32215\include\vector
; Line 2112
	mov	QWORD PTR ?IADD_RS@SuperscalarInstructionInfo@randomx@@2V12@B+16, 0
; Line 2113
	movdqu	XMMWORD PTR ?IADD_RS@SuperscalarInstructionInfo@randomx@@2V12@B+24, xmm0
$LN9@IADD_RS:
	add	rsp, 40					; 00000028H
	ret	0
$LN22@IADD_RS:
; File D:\software\Visual Studio 2022\VC\Tools\MSVC\14.35.32215\include\xmemory
; Line 164
	call	_invalid_parameter_noinfo_noreturn
	int	3
$LN32@IADD_RS:
??__F?IADD_RS@SuperscalarInstructionInfo@randomx@@2V12@B@@YAXXZ ENDP ; `dynamic atexit destructor for 'randomx::SuperscalarInstructionInfo::IADD_RS''
text$yd	ENDS
; Function compile flags: /Ogtpy
;	COMDAT ??__E?IMUL_R@SuperscalarInstructionInfo@randomx@@2V12@B@@YAXXZ
text$di	SEGMENT
$T1 = 32
??__E?IMUL_R@SuperscalarInstructionInfo@randomx@@2V12@B@@YAXXZ PROC ; `dynamic initializer for 'randomx::SuperscalarInstructionInfo::IMUL_R'', COMDAT
; File D:\dev\francium_network\francium_agent\src\ext\randomx\repo\src\superscalar.cpp
; Line 227
	sub	rsp, 72					; 00000048H
; Line 210
	mov	eax, DWORD PTR ?Imul_rr@MacroOp@randomx@@2V12@B+12
	mov	DWORD PTR ?IMUL_R@SuperscalarInstructionInfo@randomx@@2V12@B+40, eax
; Line 211
	movups	xmm0, XMMWORD PTR ?Imul_rr@MacroOp@randomx@@2V12@B
	movups	XMMWORD PTR $T1[rsp], xmm0
	movups	xmm1, XMMWORD PTR ?Imul_rr@MacroOp@randomx@@2V12@B+16
	movups	XMMWORD PTR $T1[rsp+16], xmm1
; File D:\software\Visual Studio 2022\VC\Tools\MSVC\14.35.32215\include\vector
; Line 848
	lea	r8, QWORD PTR $T1[rsp]
	xor	edx, edx
	lea	rcx, OFFSET FLAT:?IMUL_R@SuperscalarInstructionInfo@randomx@@2V12@B+16
	call	??$_Emplace_reallocate@VMacroOp@randomx@@@?$vector@VMacroOp@randomx@@V?$allocator@VMacroOp@randomx@@@std@@@std@@AEAAPEAVMacroOp@randomx@@QEAV23@$$QEAV23@@Z ; std::vector<randomx::MacroOp,std::allocator<randomx::MacroOp> >::_Emplace_reallocate<randomx::MacroOp>
	npad	1
; File D:\dev\francium_network\francium_agent\src\ext\randomx\repo\src\superscalar.cpp
; Line 227
	lea	rcx, OFFSET FLAT:??__F?IMUL_R@SuperscalarInstructionInfo@randomx@@2V12@B@@YAXXZ ; `dynamic atexit destructor for 'randomx::SuperscalarInstructionInfo::IMUL_R''
	add	rsp, 72					; 00000048H
	jmp	atexit
??__E?IMUL_R@SuperscalarInstructionInfo@randomx@@2V12@B@@YAXXZ ENDP ; `dynamic initializer for 'randomx::SuperscalarInstructionInfo::IMUL_R''
text$di	ENDS
; Function compile flags: /Ogtpy
;	COMDAT text$x
text$x	SEGMENT
$T1 = 32
?dtor$0@?0???__E?IMUL_R@SuperscalarInstructionInfo@randomx@@2V12@B@@YAXXZ@4HA PROC ; ``dynamic initializer for 'randomx::SuperscalarInstructionInfo::IMUL_R'''::`1'::dtor$0
	lea	rcx, OFFSET FLAT:?IMUL_R@SuperscalarInstructionInfo@randomx@@2V12@B ; randomx::SuperscalarInstructionInfo::IMUL_R
	add	rcx, 16
	jmp	??1?$vector@VMacroOp@randomx@@V?$allocator@VMacroOp@randomx@@@std@@@std@@QEAA@XZ ; std::vector<randomx::MacroOp,std::allocator<randomx::MacroOp> >::~vector<randomx::MacroOp,std::allocator<randomx::MacroOp> >
?dtor$0@?0???__E?IMUL_R@SuperscalarInstructionInfo@randomx@@2V12@B@@YAXXZ@4HA ENDP ; ``dynamic initializer for 'randomx::SuperscalarInstructionInfo::IMUL_R'''::`1'::dtor$0
text$x	ENDS
; Function compile flags: /Ogtpy
;	COMDAT ??__F?IMUL_R@SuperscalarInstructionInfo@randomx@@2V12@B@@YAXXZ
text$yd	SEGMENT
??__F?IMUL_R@SuperscalarInstructionInfo@randomx@@2V12@B@@YAXXZ PROC ; `dynamic atexit destructor for 'randomx::SuperscalarInstructionInfo::IMUL_R'', COMDAT
	sub	rsp, 40					; 00000028H
; File D:\software\Visual Studio 2022\VC\Tools\MSVC\14.35.32215\include\vector
; Line 2107
	mov	rcx, QWORD PTR ?IMUL_R@SuperscalarInstructionInfo@randomx@@2V12@B+16
	test	rcx, rcx
	je	SHORT $LN9@IMUL_R
; Line 2110
	mov	rdx, QWORD PTR ?IMUL_R@SuperscalarInstructionInfo@randomx@@2V12@B+32
	sub	rdx, rcx
; File D:\software\Visual Studio 2022\VC\Tools\MSVC\14.35.32215\include\xmemory
; Line 829
	and	rdx, -32				; ffffffffffffffe0H
; Line 251
	cmp	rdx, 4096				; 00001000H
	jb	SHORT $LN25@IMUL_R
; Line 150
	mov	r8, QWORD PTR [rcx-8]
	add	rdx, 39					; 00000027H
; Line 163
	sub	rcx, r8
; Line 164
	lea	rax, QWORD PTR [rcx-8]
	cmp	rax, 31
	ja	SHORT $LN22@IMUL_R
; Line 165
	mov	rcx, r8
$LN25@IMUL_R:
; Line 255
	call	??3@YAXPEAX_K@Z				; operator delete
	xorps	xmm0, xmm0
; File D:\software\Visual Studio 2022\VC\Tools\MSVC\14.35.32215\include\vector
; Line 2112
	mov	QWORD PTR ?IMUL_R@SuperscalarInstructionInfo@randomx@@2V12@B+16, 0
; Line 2113
	movdqu	XMMWORD PTR ?IMUL_R@SuperscalarInstructionInfo@randomx@@2V12@B+24, xmm0
$LN9@IMUL_R:
	add	rsp, 40					; 00000028H
	ret	0
$LN22@IMUL_R:
; File D:\software\Visual Studio 2022\VC\Tools\MSVC\14.35.32215\include\xmemory
; Line 164
	call	_invalid_parameter_noinfo_noreturn
	int	3
$LN32@IMUL_R:
??__F?IMUL_R@SuperscalarInstructionInfo@randomx@@2V12@B@@YAXXZ ENDP ; `dynamic atexit destructor for 'randomx::SuperscalarInstructionInfo::IMUL_R''
text$yd	ENDS
; Function compile flags: /Ogtpy
;	COMDAT ??__E?IROR_C@SuperscalarInstructionInfo@randomx@@2V12@B@@YAXXZ
text$di	SEGMENT
$T1 = 32
??__E?IROR_C@SuperscalarInstructionInfo@randomx@@2V12@B@@YAXXZ PROC ; `dynamic initializer for 'randomx::SuperscalarInstructionInfo::IROR_C'', COMDAT
; File D:\dev\francium_network\francium_agent\src\ext\randomx\repo\src\superscalar.cpp
; Line 228
	sub	rsp, 72					; 00000048H
; Line 210
	mov	eax, DWORD PTR ?Ror_ri@MacroOp@randomx@@2V12@B+12
	mov	DWORD PTR ?IROR_C@SuperscalarInstructionInfo@randomx@@2V12@B+40, eax
; Line 211
	movups	xmm0, XMMWORD PTR ?Ror_ri@MacroOp@randomx@@2V12@B
	movups	XMMWORD PTR $T1[rsp], xmm0
	movups	xmm1, XMMWORD PTR ?Ror_ri@MacroOp@randomx@@2V12@B+16
	movups	XMMWORD PTR $T1[rsp+16], xmm1
; File D:\software\Visual Studio 2022\VC\Tools\MSVC\14.35.32215\include\vector
; Line 848
	lea	r8, QWORD PTR $T1[rsp]
	xor	edx, edx
	lea	rcx, OFFSET FLAT:?IROR_C@SuperscalarInstructionInfo@randomx@@2V12@B+16
	call	??$_Emplace_reallocate@VMacroOp@randomx@@@?$vector@VMacroOp@randomx@@V?$allocator@VMacroOp@randomx@@@std@@@std@@AEAAPEAVMacroOp@randomx@@QEAV23@$$QEAV23@@Z ; std::vector<randomx::MacroOp,std::allocator<randomx::MacroOp> >::_Emplace_reallocate<randomx::MacroOp>
	npad	1
; File D:\dev\francium_network\francium_agent\src\ext\randomx\repo\src\superscalar.cpp
; Line 228
	lea	rcx, OFFSET FLAT:??__F?IROR_C@SuperscalarInstructionInfo@randomx@@2V12@B@@YAXXZ ; `dynamic atexit destructor for 'randomx::SuperscalarInstructionInfo::IROR_C''
	add	rsp, 72					; 00000048H
	jmp	atexit
??__E?IROR_C@SuperscalarInstructionInfo@randomx@@2V12@B@@YAXXZ ENDP ; `dynamic initializer for 'randomx::SuperscalarInstructionInfo::IROR_C''
text$di	ENDS
; Function compile flags: /Ogtpy
;	COMDAT text$x
text$x	SEGMENT
$T1 = 32
?dtor$0@?0???__E?IROR_C@SuperscalarInstructionInfo@randomx@@2V12@B@@YAXXZ@4HA PROC ; ``dynamic initializer for 'randomx::SuperscalarInstructionInfo::IROR_C'''::`1'::dtor$0
	lea	rcx, OFFSET FLAT:?IROR_C@SuperscalarInstructionInfo@randomx@@2V12@B ; randomx::SuperscalarInstructionInfo::IROR_C
	add	rcx, 16
	jmp	??1?$vector@VMacroOp@randomx@@V?$allocator@VMacroOp@randomx@@@std@@@std@@QEAA@XZ ; std::vector<randomx::MacroOp,std::allocator<randomx::MacroOp> >::~vector<randomx::MacroOp,std::allocator<randomx::MacroOp> >
?dtor$0@?0???__E?IROR_C@SuperscalarInstructionInfo@randomx@@2V12@B@@YAXXZ@4HA ENDP ; ``dynamic initializer for 'randomx::SuperscalarInstructionInfo::IROR_C'''::`1'::dtor$0
text$x	ENDS
; Function compile flags: /Ogtpy
;	COMDAT ??__F?IROR_C@SuperscalarInstructionInfo@randomx@@2V12@B@@YAXXZ
text$yd	SEGMENT
??__F?IROR_C@SuperscalarInstructionInfo@randomx@@2V12@B@@YAXXZ PROC ; `dynamic atexit destructor for 'randomx::SuperscalarInstructionInfo::IROR_C'', COMDAT
	sub	rsp, 40					; 00000028H
; File D:\software\Visual Studio 2022\VC\Tools\MSVC\14.35.32215\include\vector
; Line 2107
	mov	rcx, QWORD PTR ?IROR_C@SuperscalarInstructionInfo@randomx@@2V12@B+16
	test	rcx, rcx
	je	SHORT $LN9@IROR_C
; Line 2110
	mov	rdx, QWORD PTR ?IROR_C@SuperscalarInstructionInfo@randomx@@2V12@B+32
	sub	rdx, rcx
; File D:\software\Visual Studio 2022\VC\Tools\MSVC\14.35.32215\include\xmemory
; Line 829
	and	rdx, -32				; ffffffffffffffe0H
; Line 251
	cmp	rdx, 4096				; 00001000H
	jb	SHORT $LN25@IROR_C
; Line 150
	mov	r8, QWORD PTR [rcx-8]
	add	rdx, 39					; 00000027H
; Line 163
	sub	rcx, r8
; Line 164
	lea	rax, QWORD PTR [rcx-8]
	cmp	rax, 31
	ja	SHORT $LN22@IROR_C
; Line 165
	mov	rcx, r8
$LN25@IROR_C:
; Line 255
	call	??3@YAXPEAX_K@Z				; operator delete
	xorps	xmm0, xmm0
; File D:\software\Visual Studio 2022\VC\Tools\MSVC\14.35.32215\include\vector
; Line 2112
	mov	QWORD PTR ?IROR_C@SuperscalarInstructionInfo@randomx@@2V12@B+16, 0
; Line 2113
	movdqu	XMMWORD PTR ?IROR_C@SuperscalarInstructionInfo@randomx@@2V12@B+24, xmm0
$LN9@IROR_C:
	add	rsp, 40					; 00000028H
	ret	0
$LN22@IROR_C:
; File D:\software\Visual Studio 2022\VC\Tools\MSVC\14.35.32215\include\xmemory
; Line 164
	call	_invalid_parameter_noinfo_noreturn
	int	3
$LN32@IROR_C:
??__F?IROR_C@SuperscalarInstructionInfo@randomx@@2V12@B@@YAXXZ ENDP ; `dynamic atexit destructor for 'randomx::SuperscalarInstructionInfo::IROR_C''
text$yd	ENDS
; Function compile flags: /Ogtpy
;	COMDAT ??__E?IADD_C7@SuperscalarInstructionInfo@randomx@@2V12@B@@YAXXZ
text$di	SEGMENT
$T1 = 32
??__E?IADD_C7@SuperscalarInstructionInfo@randomx@@2V12@B@@YAXXZ PROC ; `dynamic initializer for 'randomx::SuperscalarInstructionInfo::IADD_C7'', COMDAT
; File D:\dev\francium_network\francium_agent\src\ext\randomx\repo\src\superscalar.cpp
; Line 230
	sub	rsp, 72					; 00000048H
; Line 210
	mov	eax, DWORD PTR ?Add_ri@MacroOp@randomx@@2V12@B+12
	mov	DWORD PTR ?IADD_C7@SuperscalarInstructionInfo@randomx@@2V12@B+40, eax
; Line 211
	movups	xmm0, XMMWORD PTR ?Add_ri@MacroOp@randomx@@2V12@B
	movups	XMMWORD PTR $T1[rsp], xmm0
	movups	xmm1, XMMWORD PTR ?Add_ri@MacroOp@randomx@@2V12@B+16
	movups	XMMWORD PTR $T1[rsp+16], xmm1
; File D:\software\Visual Studio 2022\VC\Tools\MSVC\14.35.32215\include\vector
; Line 848
	lea	r8, QWORD PTR $T1[rsp]
	xor	edx, edx
	lea	rcx, OFFSET FLAT:?IADD_C7@SuperscalarInstructionInfo@randomx@@2V12@B+16
	call	??$_Emplace_reallocate@VMacroOp@randomx@@@?$vector@VMacroOp@randomx@@V?$allocator@VMacroOp@randomx@@@std@@@std@@AEAAPEAVMacroOp@randomx@@QEAV23@$$QEAV23@@Z ; std::vector<randomx::MacroOp,std::allocator<randomx::MacroOp> >::_Emplace_reallocate<randomx::MacroOp>
	npad	1
; File D:\dev\francium_network\francium_agent\src\ext\randomx\repo\src\superscalar.cpp
; Line 230
	lea	rcx, OFFSET FLAT:??__F?IADD_C7@SuperscalarInstructionInfo@randomx@@2V12@B@@YAXXZ ; `dynamic atexit destructor for 'randomx::SuperscalarInstructionInfo::IADD_C7''
	add	rsp, 72					; 00000048H
	jmp	atexit
??__E?IADD_C7@SuperscalarInstructionInfo@randomx@@2V12@B@@YAXXZ ENDP ; `dynamic initializer for 'randomx::SuperscalarInstructionInfo::IADD_C7''
text$di	ENDS
; Function compile flags: /Ogtpy
;	COMDAT text$x
text$x	SEGMENT
$T1 = 32
?dtor$0@?0???__E?IADD_C7@SuperscalarInstructionInfo@randomx@@2V12@B@@YAXXZ@4HA PROC ; ``dynamic initializer for 'randomx::SuperscalarInstructionInfo::IADD_C7'''::`1'::dtor$0
	lea	rcx, OFFSET FLAT:?IADD_C7@SuperscalarInstructionInfo@randomx@@2V12@B ; randomx::SuperscalarInstructionInfo::IADD_C7
	add	rcx, 16
	jmp	??1?$vector@VMacroOp@randomx@@V?$allocator@VMacroOp@randomx@@@std@@@std@@QEAA@XZ ; std::vector<randomx::MacroOp,std::allocator<randomx::MacroOp> >::~vector<randomx::MacroOp,std::allocator<randomx::MacroOp> >
?dtor$0@?0???__E?IADD_C7@SuperscalarInstructionInfo@randomx@@2V12@B@@YAXXZ@4HA ENDP ; ``dynamic initializer for 'randomx::SuperscalarInstructionInfo::IADD_C7'''::`1'::dtor$0
text$x	ENDS
; Function compile flags: /Ogtpy
;	COMDAT ??__F?IADD_C7@SuperscalarInstructionInfo@randomx@@2V12@B@@YAXXZ
text$yd	SEGMENT
??__F?IADD_C7@SuperscalarInstructionInfo@randomx@@2V12@B@@YAXXZ PROC ; `dynamic atexit destructor for 'randomx::SuperscalarInstructionInfo::IADD_C7'', COMDAT
	sub	rsp, 40					; 00000028H
; File D:\software\Visual Studio 2022\VC\Tools\MSVC\14.35.32215\include\vector
; Line 2107
	mov	rcx, QWORD PTR ?IADD_C7@SuperscalarInstructionInfo@randomx@@2V12@B+16
	test	rcx, rcx
	je	SHORT $LN9@IADD_C7
; Line 2110
	mov	rdx, QWORD PTR ?IADD_C7@SuperscalarInstructionInfo@randomx@@2V12@B+32
	sub	rdx, rcx
; File D:\software\Visual Studio 2022\VC\Tools\MSVC\14.35.32215\include\xmemory
; Line 829
	and	rdx, -32				; ffffffffffffffe0H
; Line 251
	cmp	rdx, 4096				; 00001000H
	jb	SHORT $LN25@IADD_C7
; Line 150
	mov	r8, QWORD PTR [rcx-8]
	add	rdx, 39					; 00000027H
; Line 163
	sub	rcx, r8
; Line 164
	lea	rax, QWORD PTR [rcx-8]
	cmp	rax, 31
	ja	SHORT $LN22@IADD_C7
; Line 165
	mov	rcx, r8
$LN25@IADD_C7:
; Line 255
	call	??3@YAXPEAX_K@Z				; operator delete
	xorps	xmm0, xmm0
; File D:\software\Visual Studio 2022\VC\Tools\MSVC\14.35.32215\include\vector
; Line 2112
	mov	QWORD PTR ?IADD_C7@SuperscalarInstructionInfo@randomx@@2V12@B+16, 0
; Line 2113
	movdqu	XMMWORD PTR ?IADD_C7@SuperscalarInstructionInfo@randomx@@2V12@B+24, xmm0
$LN9@IADD_C7:
	add	rsp, 40					; 00000028H
	ret	0
$LN22@IADD_C7:
; File D:\software\Visual Studio 2022\VC\Tools\MSVC\14.35.32215\include\xmemory
; Line 164
	call	_invalid_parameter_noinfo_noreturn
	int	3
$LN32@IADD_C7:
??__F?IADD_C7@SuperscalarInstructionInfo@randomx@@2V12@B@@YAXXZ ENDP ; `dynamic atexit destructor for 'randomx::SuperscalarInstructionInfo::IADD_C7''
text$yd	ENDS
; Function compile flags: /Ogtpy
;	COMDAT ??__E?IXOR_C7@SuperscalarInstructionInfo@randomx@@2V12@B@@YAXXZ
text$di	SEGMENT
$T1 = 32
??__E?IXOR_C7@SuperscalarInstructionInfo@randomx@@2V12@B@@YAXXZ PROC ; `dynamic initializer for 'randomx::SuperscalarInstructionInfo::IXOR_C7'', COMDAT
; File D:\dev\francium_network\francium_agent\src\ext\randomx\repo\src\superscalar.cpp
; Line 231
	sub	rsp, 72					; 00000048H
; Line 210
	mov	eax, DWORD PTR ?Xor_ri@MacroOp@randomx@@2V12@B+12
	mov	DWORD PTR ?IXOR_C7@SuperscalarInstructionInfo@randomx@@2V12@B+40, eax
; Line 211
	movups	xmm0, XMMWORD PTR ?Xor_ri@MacroOp@randomx@@2V12@B
	movups	XMMWORD PTR $T1[rsp], xmm0
	movups	xmm1, XMMWORD PTR ?Xor_ri@MacroOp@randomx@@2V12@B+16
	movups	XMMWORD PTR $T1[rsp+16], xmm1
; File D:\software\Visual Studio 2022\VC\Tools\MSVC\14.35.32215\include\vector
; Line 848
	lea	r8, QWORD PTR $T1[rsp]
	xor	edx, edx
	lea	rcx, OFFSET FLAT:?IXOR_C7@SuperscalarInstructionInfo@randomx@@2V12@B+16
	call	??$_Emplace_reallocate@VMacroOp@randomx@@@?$vector@VMacroOp@randomx@@V?$allocator@VMacroOp@randomx@@@std@@@std@@AEAAPEAVMacroOp@randomx@@QEAV23@$$QEAV23@@Z ; std::vector<randomx::MacroOp,std::allocator<randomx::MacroOp> >::_Emplace_reallocate<randomx::MacroOp>
	npad	1
; File D:\dev\francium_network\francium_agent\src\ext\randomx\repo\src\superscalar.cpp
; Line 231
	lea	rcx, OFFSET FLAT:??__F?IXOR_C7@SuperscalarInstructionInfo@randomx@@2V12@B@@YAXXZ ; `dynamic atexit destructor for 'randomx::SuperscalarInstructionInfo::IXOR_C7''
	add	rsp, 72					; 00000048H
	jmp	atexit
??__E?IXOR_C7@SuperscalarInstructionInfo@randomx@@2V12@B@@YAXXZ ENDP ; `dynamic initializer for 'randomx::SuperscalarInstructionInfo::IXOR_C7''
text$di	ENDS
; Function compile flags: /Ogtpy
;	COMDAT text$x
text$x	SEGMENT
$T1 = 32
?dtor$0@?0???__E?IXOR_C7@SuperscalarInstructionInfo@randomx@@2V12@B@@YAXXZ@4HA PROC ; ``dynamic initializer for 'randomx::SuperscalarInstructionInfo::IXOR_C7'''::`1'::dtor$0
	lea	rcx, OFFSET FLAT:?IXOR_C7@SuperscalarInstructionInfo@randomx@@2V12@B ; randomx::SuperscalarInstructionInfo::IXOR_C7
	add	rcx, 16
	jmp	??1?$vector@VMacroOp@randomx@@V?$allocator@VMacroOp@randomx@@@std@@@std@@QEAA@XZ ; std::vector<randomx::MacroOp,std::allocator<randomx::MacroOp> >::~vector<randomx::MacroOp,std::allocator<randomx::MacroOp> >
?dtor$0@?0???__E?IXOR_C7@SuperscalarInstructionInfo@randomx@@2V12@B@@YAXXZ@4HA ENDP ; ``dynamic initializer for 'randomx::SuperscalarInstructionInfo::IXOR_C7'''::`1'::dtor$0
text$x	ENDS
; Function compile flags: /Ogtpy
;	COMDAT ??__F?IXOR_C7@SuperscalarInstructionInfo@randomx@@2V12@B@@YAXXZ
text$yd	SEGMENT
??__F?IXOR_C7@SuperscalarInstructionInfo@randomx@@2V12@B@@YAXXZ PROC ; `dynamic atexit destructor for 'randomx::SuperscalarInstructionInfo::IXOR_C7'', COMDAT
	sub	rsp, 40					; 00000028H
; File D:\software\Visual Studio 2022\VC\Tools\MSVC\14.35.32215\include\vector
; Line 2107
	mov	rcx, QWORD PTR ?IXOR_C7@SuperscalarInstructionInfo@randomx@@2V12@B+16
	test	rcx, rcx
	je	SHORT $LN9@IXOR_C7
; Line 2110
	mov	rdx, QWORD PTR ?IXOR_C7@SuperscalarInstructionInfo@randomx@@2V12@B+32
	sub	rdx, rcx
; File D:\software\Visual Studio 2022\VC\Tools\MSVC\14.35.32215\include\xmemory
; Line 829
	and	rdx, -32				; ffffffffffffffe0H
; Line 251
	cmp	rdx, 4096				; 00001000H
	jb	SHORT $LN25@IXOR_C7
; Line 150
	mov	r8, QWORD PTR [rcx-8]
	add	rdx, 39					; 00000027H
; Line 163
	sub	rcx, r8
; Line 164
	lea	rax, QWORD PTR [rcx-8]
	cmp	rax, 31
	ja	SHORT $LN22@IXOR_C7
; Line 165
	mov	rcx, r8
$LN25@IXOR_C7:
; Line 255
	call	??3@YAXPEAX_K@Z				; operator delete
	xorps	xmm0, xmm0
; File D:\software\Visual Studio 2022\VC\Tools\MSVC\14.35.32215\include\vector
; Line 2112
	mov	QWORD PTR ?IXOR_C7@SuperscalarInstructionInfo@randomx@@2V12@B+16, 0
; Line 2113
	movdqu	XMMWORD PTR ?IXOR_C7@SuperscalarInstructionInfo@randomx@@2V12@B+24, xmm0
$LN9@IXOR_C7:
	add	rsp, 40					; 00000028H
	ret	0
$LN22@IXOR_C7:
; File D:\software\Visual Studio 2022\VC\Tools\MSVC\14.35.32215\include\xmemory
; Line 164
	call	_invalid_parameter_noinfo_noreturn
	int	3
$LN32@IXOR_C7:
??__F?IXOR_C7@SuperscalarInstructionInfo@randomx@@2V12@B@@YAXXZ ENDP ; `dynamic atexit destructor for 'randomx::SuperscalarInstructionInfo::IXOR_C7''
text$yd	ENDS
; Function compile flags: /Ogtpy
;	COMDAT ??__E?IADD_C8@SuperscalarInstructionInfo@randomx@@2V12@B@@YAXXZ
text$di	SEGMENT
$T1 = 32
??__E?IADD_C8@SuperscalarInstructionInfo@randomx@@2V12@B@@YAXXZ PROC ; `dynamic initializer for 'randomx::SuperscalarInstructionInfo::IADD_C8'', COMDAT
; File D:\dev\francium_network\francium_agent\src\ext\randomx\repo\src\superscalar.cpp
; Line 232
	sub	rsp, 72					; 00000048H
; Line 210
	mov	eax, DWORD PTR ?Add_ri@MacroOp@randomx@@2V12@B+12
	mov	DWORD PTR ?IADD_C8@SuperscalarInstructionInfo@randomx@@2V12@B+40, eax
; Line 211
	movups	xmm0, XMMWORD PTR ?Add_ri@MacroOp@randomx@@2V12@B
	movups	XMMWORD PTR $T1[rsp], xmm0
	movups	xmm1, XMMWORD PTR ?Add_ri@MacroOp@randomx@@2V12@B+16
	movups	XMMWORD PTR $T1[rsp+16], xmm1
; File D:\software\Visual Studio 2022\VC\Tools\MSVC\14.35.32215\include\vector
; Line 848
	lea	r8, QWORD PTR $T1[rsp]
	xor	edx, edx
	lea	rcx, OFFSET FLAT:?IADD_C8@SuperscalarInstructionInfo@randomx@@2V12@B+16
	call	??$_Emplace_reallocate@VMacroOp@randomx@@@?$vector@VMacroOp@randomx@@V?$allocator@VMacroOp@randomx@@@std@@@std@@AEAAPEAVMacroOp@randomx@@QEAV23@$$QEAV23@@Z ; std::vector<randomx::MacroOp,std::allocator<randomx::MacroOp> >::_Emplace_reallocate<randomx::MacroOp>
	npad	1
; File D:\dev\francium_network\francium_agent\src\ext\randomx\repo\src\superscalar.cpp
; Line 232
	lea	rcx, OFFSET FLAT:??__F?IADD_C8@SuperscalarInstructionInfo@randomx@@2V12@B@@YAXXZ ; `dynamic atexit destructor for 'randomx::SuperscalarInstructionInfo::IADD_C8''
	add	rsp, 72					; 00000048H
	jmp	atexit
??__E?IADD_C8@SuperscalarInstructionInfo@randomx@@2V12@B@@YAXXZ ENDP ; `dynamic initializer for 'randomx::SuperscalarInstructionInfo::IADD_C8''
text$di	ENDS
; Function compile flags: /Ogtpy
;	COMDAT text$x
text$x	SEGMENT
$T1 = 32
?dtor$0@?0???__E?IADD_C8@SuperscalarInstructionInfo@randomx@@2V12@B@@YAXXZ@4HA PROC ; ``dynamic initializer for 'randomx::SuperscalarInstructionInfo::IADD_C8'''::`1'::dtor$0
	lea	rcx, OFFSET FLAT:?IADD_C8@SuperscalarInstructionInfo@randomx@@2V12@B ; randomx::SuperscalarInstructionInfo::IADD_C8
	add	rcx, 16
	jmp	??1?$vector@VMacroOp@randomx@@V?$allocator@VMacroOp@randomx@@@std@@@std@@QEAA@XZ ; std::vector<randomx::MacroOp,std::allocator<randomx::MacroOp> >::~vector<randomx::MacroOp,std::allocator<randomx::MacroOp> >
?dtor$0@?0???__E?IADD_C8@SuperscalarInstructionInfo@randomx@@2V12@B@@YAXXZ@4HA ENDP ; ``dynamic initializer for 'randomx::SuperscalarInstructionInfo::IADD_C8'''::`1'::dtor$0
text$x	ENDS
; Function compile flags: /Ogtpy
;	COMDAT ??__F?IADD_C8@SuperscalarInstructionInfo@randomx@@2V12@B@@YAXXZ
text$yd	SEGMENT
??__F?IADD_C8@SuperscalarInstructionInfo@randomx@@2V12@B@@YAXXZ PROC ; `dynamic atexit destructor for 'randomx::SuperscalarInstructionInfo::IADD_C8'', COMDAT
	sub	rsp, 40					; 00000028H
; File D:\software\Visual Studio 2022\VC\Tools\MSVC\14.35.32215\include\vector
; Line 2107
	mov	rcx, QWORD PTR ?IADD_C8@SuperscalarInstructionInfo@randomx@@2V12@B+16
	test	rcx, rcx
	je	SHORT $LN9@IADD_C8
; Line 2110
	mov	rdx, QWORD PTR ?IADD_C8@SuperscalarInstructionInfo@randomx@@2V12@B+32
	sub	rdx, rcx
; File D:\software\Visual Studio 2022\VC\Tools\MSVC\14.35.32215\include\xmemory
; Line 829
	and	rdx, -32				; ffffffffffffffe0H
; Line 251
	cmp	rdx, 4096				; 00001000H
	jb	SHORT $LN25@IADD_C8
; Line 150
	mov	r8, QWORD PTR [rcx-8]
	add	rdx, 39					; 00000027H
; Line 163
	sub	rcx, r8
; Line 164
	lea	rax, QWORD PTR [rcx-8]
	cmp	rax, 31
	ja	SHORT $LN22@IADD_C8
; Line 165
	mov	rcx, r8
$LN25@IADD_C8:
; Line 255
	call	??3@YAXPEAX_K@Z				; operator delete
	xorps	xmm0, xmm0
; File D:\software\Visual Studio 2022\VC\Tools\MSVC\14.35.32215\include\vector
; Line 2112
	mov	QWORD PTR ?IADD_C8@SuperscalarInstructionInfo@randomx@@2V12@B+16, 0
; Line 2113
	movdqu	XMMWORD PTR ?IADD_C8@SuperscalarInstructionInfo@randomx@@2V12@B+24, xmm0
$LN9@IADD_C8:
	add	rsp, 40					; 00000028H
	ret	0
$LN22@IADD_C8:
; File D:\software\Visual Studio 2022\VC\Tools\MSVC\14.35.32215\include\xmemory
; Line 164
	call	_invalid_parameter_noinfo_noreturn
	int	3
$LN32@IADD_C8:
??__F?IADD_C8@SuperscalarInstructionInfo@randomx@@2V12@B@@YAXXZ ENDP ; `dynamic atexit destructor for 'randomx::SuperscalarInstructionInfo::IADD_C8''
text$yd	ENDS
; Function compile flags: /Ogtpy
;	COMDAT ??__E?IXOR_C8@SuperscalarInstructionInfo@randomx@@2V12@B@@YAXXZ
text$di	SEGMENT
$T1 = 32
??__E?IXOR_C8@SuperscalarInstructionInfo@randomx@@2V12@B@@YAXXZ PROC ; `dynamic initializer for 'randomx::SuperscalarInstructionInfo::IXOR_C8'', COMDAT
; File D:\dev\francium_network\francium_agent\src\ext\randomx\repo\src\superscalar.cpp
; Line 233
	sub	rsp, 72					; 00000048H
; Line 210
	mov	eax, DWORD PTR ?Xor_ri@MacroOp@randomx@@2V12@B+12
	mov	DWORD PTR ?IXOR_C8@SuperscalarInstructionInfo@randomx@@2V12@B+40, eax
; Line 211
	movups	xmm0, XMMWORD PTR ?Xor_ri@MacroOp@randomx@@2V12@B
	movups	XMMWORD PTR $T1[rsp], xmm0
	movups	xmm1, XMMWORD PTR ?Xor_ri@MacroOp@randomx@@2V12@B+16
	movups	XMMWORD PTR $T1[rsp+16], xmm1
; File D:\software\Visual Studio 2022\VC\Tools\MSVC\14.35.32215\include\vector
; Line 848
	lea	r8, QWORD PTR $T1[rsp]
	xor	edx, edx
	lea	rcx, OFFSET FLAT:?IXOR_C8@SuperscalarInstructionInfo@randomx@@2V12@B+16
	call	??$_Emplace_reallocate@VMacroOp@randomx@@@?$vector@VMacroOp@randomx@@V?$allocator@VMacroOp@randomx@@@std@@@std@@AEAAPEAVMacroOp@randomx@@QEAV23@$$QEAV23@@Z ; std::vector<randomx::MacroOp,std::allocator<randomx::MacroOp> >::_Emplace_reallocate<randomx::MacroOp>
	npad	1
; File D:\dev\francium_network\francium_agent\src\ext\randomx\repo\src\superscalar.cpp
; Line 233
	lea	rcx, OFFSET FLAT:??__F?IXOR_C8@SuperscalarInstructionInfo@randomx@@2V12@B@@YAXXZ ; `dynamic atexit destructor for 'randomx::SuperscalarInstructionInfo::IXOR_C8''
	add	rsp, 72					; 00000048H
	jmp	atexit
??__E?IXOR_C8@SuperscalarInstructionInfo@randomx@@2V12@B@@YAXXZ ENDP ; `dynamic initializer for 'randomx::SuperscalarInstructionInfo::IXOR_C8''
text$di	ENDS
; Function compile flags: /Ogtpy
;	COMDAT text$x
text$x	SEGMENT
$T1 = 32
?dtor$0@?0???__E?IXOR_C8@SuperscalarInstructionInfo@randomx@@2V12@B@@YAXXZ@4HA PROC ; ``dynamic initializer for 'randomx::SuperscalarInstructionInfo::IXOR_C8'''::`1'::dtor$0
	lea	rcx, OFFSET FLAT:?IXOR_C8@SuperscalarInstructionInfo@randomx@@2V12@B ; randomx::SuperscalarInstructionInfo::IXOR_C8
	add	rcx, 16
	jmp	??1?$vector@VMacroOp@randomx@@V?$allocator@VMacroOp@randomx@@@std@@@std@@QEAA@XZ ; std::vector<randomx::MacroOp,std::allocator<randomx::MacroOp> >::~vector<randomx::MacroOp,std::allocator<randomx::MacroOp> >
?dtor$0@?0???__E?IXOR_C8@SuperscalarInstructionInfo@randomx@@2V12@B@@YAXXZ@4HA ENDP ; ``dynamic initializer for 'randomx::SuperscalarInstructionInfo::IXOR_C8'''::`1'::dtor$0
text$x	ENDS
; Function compile flags: /Ogtpy
;	COMDAT ??__F?IXOR_C8@SuperscalarInstructionInfo@randomx@@2V12@B@@YAXXZ
text$yd	SEGMENT
??__F?IXOR_C8@SuperscalarInstructionInfo@randomx@@2V12@B@@YAXXZ PROC ; `dynamic atexit destructor for 'randomx::SuperscalarInstructionInfo::IXOR_C8'', COMDAT
	sub	rsp, 40					; 00000028H
; File D:\software\Visual Studio 2022\VC\Tools\MSVC\14.35.32215\include\vector
; Line 2107
	mov	rcx, QWORD PTR ?IXOR_C8@SuperscalarInstructionInfo@randomx@@2V12@B+16
	test	rcx, rcx
	je	SHORT $LN9@IXOR_C8
; Line 2110
	mov	rdx, QWORD PTR ?IXOR_C8@SuperscalarInstructionInfo@randomx@@2V12@B+32
	sub	rdx, rcx
; File D:\software\Visual Studio 2022\VC\Tools\MSVC\14.35.32215\include\xmemory
; Line 829
	and	rdx, -32				; ffffffffffffffe0H
; Line 251
	cmp	rdx, 4096				; 00001000H
	jb	SHORT $LN25@IXOR_C8
; Line 150
	mov	r8, QWORD PTR [rcx-8]
	add	rdx, 39					; 00000027H
; Line 163
	sub	rcx, r8
; Line 164
	lea	rax, QWORD PTR [rcx-8]
	cmp	rax, 31
	ja	SHORT $LN22@IXOR_C8
; Line 165
	mov	rcx, r8
$LN25@IXOR_C8:
; Line 255
	call	??3@YAXPEAX_K@Z				; operator delete
	xorps	xmm0, xmm0
; File D:\software\Visual Studio 2022\VC\Tools\MSVC\14.35.32215\include\vector
; Line 2112
	mov	QWORD PTR ?IXOR_C8@SuperscalarInstructionInfo@randomx@@2V12@B+16, 0
; Line 2113
	movdqu	XMMWORD PTR ?IXOR_C8@SuperscalarInstructionInfo@randomx@@2V12@B+24, xmm0
$LN9@IXOR_C8:
	add	rsp, 40					; 00000028H
	ret	0
$LN22@IXOR_C8:
; File D:\software\Visual Studio 2022\VC\Tools\MSVC\14.35.32215\include\xmemory
; Line 164
	call	_invalid_parameter_noinfo_noreturn
	int	3
$LN32@IXOR_C8:
??__F?IXOR_C8@SuperscalarInstructionInfo@randomx@@2V12@B@@YAXXZ ENDP ; `dynamic atexit destructor for 'randomx::SuperscalarInstructionInfo::IXOR_C8''
text$yd	ENDS
; Function compile flags: /Ogtpy
;	COMDAT ??__E?IADD_C9@SuperscalarInstructionInfo@randomx@@2V12@B@@YAXXZ
text$di	SEGMENT
$T1 = 32
??__E?IADD_C9@SuperscalarInstructionInfo@randomx@@2V12@B@@YAXXZ PROC ; `dynamic initializer for 'randomx::SuperscalarInstructionInfo::IADD_C9'', COMDAT
; File D:\dev\francium_network\francium_agent\src\ext\randomx\repo\src\superscalar.cpp
; Line 234
	sub	rsp, 72					; 00000048H
; Line 210
	mov	eax, DWORD PTR ?Add_ri@MacroOp@randomx@@2V12@B+12
	mov	DWORD PTR ?IADD_C9@SuperscalarInstructionInfo@randomx@@2V12@B+40, eax
; Line 211
	movups	xmm0, XMMWORD PTR ?Add_ri@MacroOp@randomx@@2V12@B
	movups	XMMWORD PTR $T1[rsp], xmm0
	movups	xmm1, XMMWORD PTR ?Add_ri@MacroOp@randomx@@2V12@B+16
	movups	XMMWORD PTR $T1[rsp+16], xmm1
; File D:\software\Visual Studio 2022\VC\Tools\MSVC\14.35.32215\include\vector
; Line 848
	lea	r8, QWORD PTR $T1[rsp]
	xor	edx, edx
	lea	rcx, OFFSET FLAT:?IADD_C9@SuperscalarInstructionInfo@randomx@@2V12@B+16
	call	??$_Emplace_reallocate@VMacroOp@randomx@@@?$vector@VMacroOp@randomx@@V?$allocator@VMacroOp@randomx@@@std@@@std@@AEAAPEAVMacroOp@randomx@@QEAV23@$$QEAV23@@Z ; std::vector<randomx::MacroOp,std::allocator<randomx::MacroOp> >::_Emplace_reallocate<randomx::MacroOp>
	npad	1
; File D:\dev\francium_network\francium_agent\src\ext\randomx\repo\src\superscalar.cpp
; Line 234
	lea	rcx, OFFSET FLAT:??__F?IADD_C9@SuperscalarInstructionInfo@randomx@@2V12@B@@YAXXZ ; `dynamic atexit destructor for 'randomx::SuperscalarInstructionInfo::IADD_C9''
	add	rsp, 72					; 00000048H
	jmp	atexit
??__E?IADD_C9@SuperscalarInstructionInfo@randomx@@2V12@B@@YAXXZ ENDP ; `dynamic initializer for 'randomx::SuperscalarInstructionInfo::IADD_C9''
text$di	ENDS
; Function compile flags: /Ogtpy
;	COMDAT text$x
text$x	SEGMENT
$T1 = 32
?dtor$0@?0???__E?IADD_C9@SuperscalarInstructionInfo@randomx@@2V12@B@@YAXXZ@4HA PROC ; ``dynamic initializer for 'randomx::SuperscalarInstructionInfo::IADD_C9'''::`1'::dtor$0
	lea	rcx, OFFSET FLAT:?IADD_C9@SuperscalarInstructionInfo@randomx@@2V12@B ; randomx::SuperscalarInstructionInfo::IADD_C9
	add	rcx, 16
	jmp	??1?$vector@VMacroOp@randomx@@V?$allocator@VMacroOp@randomx@@@std@@@std@@QEAA@XZ ; std::vector<randomx::MacroOp,std::allocator<randomx::MacroOp> >::~vector<randomx::MacroOp,std::allocator<randomx::MacroOp> >
?dtor$0@?0???__E?IADD_C9@SuperscalarInstructionInfo@randomx@@2V12@B@@YAXXZ@4HA ENDP ; ``dynamic initializer for 'randomx::SuperscalarInstructionInfo::IADD_C9'''::`1'::dtor$0
text$x	ENDS
; Function compile flags: /Ogtpy
;	COMDAT ??__F?IADD_C9@SuperscalarInstructionInfo@randomx@@2V12@B@@YAXXZ
text$yd	SEGMENT
??__F?IADD_C9@SuperscalarInstructionInfo@randomx@@2V12@B@@YAXXZ PROC ; `dynamic atexit destructor for 'randomx::SuperscalarInstructionInfo::IADD_C9'', COMDAT
	sub	rsp, 40					; 00000028H
; File D:\software\Visual Studio 2022\VC\Tools\MSVC\14.35.32215\include\vector
; Line 2107
	mov	rcx, QWORD PTR ?IADD_C9@SuperscalarInstructionInfo@randomx@@2V12@B+16
	test	rcx, rcx
	je	SHORT $LN9@IADD_C9
; Line 2110
	mov	rdx, QWORD PTR ?IADD_C9@SuperscalarInstructionInfo@randomx@@2V12@B+32
	sub	rdx, rcx
; File D:\software\Visual Studio 2022\VC\Tools\MSVC\14.35.32215\include\xmemory
; Line 829
	and	rdx, -32				; ffffffffffffffe0H
; Line 251
	cmp	rdx, 4096				; 00001000H
	jb	SHORT $LN25@IADD_C9
; Line 150
	mov	r8, QWORD PTR [rcx-8]
	add	rdx, 39					; 00000027H
; Line 163
	sub	rcx, r8
; Line 164
	lea	rax, QWORD PTR [rcx-8]
	cmp	rax, 31
	ja	SHORT $LN22@IADD_C9
; Line 165
	mov	rcx, r8
$LN25@IADD_C9:
; Line 255
	call	??3@YAXPEAX_K@Z				; operator delete
	xorps	xmm0, xmm0
; File D:\software\Visual Studio 2022\VC\Tools\MSVC\14.35.32215\include\vector
; Line 2112
	mov	QWORD PTR ?IADD_C9@SuperscalarInstructionInfo@randomx@@2V12@B+16, 0
; Line 2113
	movdqu	XMMWORD PTR ?IADD_C9@SuperscalarInstructionInfo@randomx@@2V12@B+24, xmm0
$LN9@IADD_C9:
	add	rsp, 40					; 00000028H
	ret	0
$LN22@IADD_C9:
; File D:\software\Visual Studio 2022\VC\Tools\MSVC\14.35.32215\include\xmemory
; Line 164
	call	_invalid_parameter_noinfo_noreturn
	int	3
$LN32@IADD_C9:
??__F?IADD_C9@SuperscalarInstructionInfo@randomx@@2V12@B@@YAXXZ ENDP ; `dynamic atexit destructor for 'randomx::SuperscalarInstructionInfo::IADD_C9''
text$yd	ENDS
; Function compile flags: /Ogtpy
;	COMDAT ??__E?IXOR_C9@SuperscalarInstructionInfo@randomx@@2V12@B@@YAXXZ
text$di	SEGMENT
$T1 = 32
??__E?IXOR_C9@SuperscalarInstructionInfo@randomx@@2V12@B@@YAXXZ PROC ; `dynamic initializer for 'randomx::SuperscalarInstructionInfo::IXOR_C9'', COMDAT
; File D:\dev\francium_network\francium_agent\src\ext\randomx\repo\src\superscalar.cpp
; Line 235
	sub	rsp, 72					; 00000048H
; Line 210
	mov	eax, DWORD PTR ?Xor_ri@MacroOp@randomx@@2V12@B+12
	mov	DWORD PTR ?IXOR_C9@SuperscalarInstructionInfo@randomx@@2V12@B+40, eax
; Line 211
	movups	xmm0, XMMWORD PTR ?Xor_ri@MacroOp@randomx@@2V12@B
	movups	XMMWORD PTR $T1[rsp], xmm0
	movups	xmm1, XMMWORD PTR ?Xor_ri@MacroOp@randomx@@2V12@B+16
	movups	XMMWORD PTR $T1[rsp+16], xmm1
; File D:\software\Visual Studio 2022\VC\Tools\MSVC\14.35.32215\include\vector
; Line 848
	lea	r8, QWORD PTR $T1[rsp]
	xor	edx, edx
	lea	rcx, OFFSET FLAT:?IXOR_C9@SuperscalarInstructionInfo@randomx@@2V12@B+16
	call	??$_Emplace_reallocate@VMacroOp@randomx@@@?$vector@VMacroOp@randomx@@V?$allocator@VMacroOp@randomx@@@std@@@std@@AEAAPEAVMacroOp@randomx@@QEAV23@$$QEAV23@@Z ; std::vector<randomx::MacroOp,std::allocator<randomx::MacroOp> >::_Emplace_reallocate<randomx::MacroOp>
	npad	1
; File D:\dev\francium_network\francium_agent\src\ext\randomx\repo\src\superscalar.cpp
; Line 235
	lea	rcx, OFFSET FLAT:??__F?IXOR_C9@SuperscalarInstructionInfo@randomx@@2V12@B@@YAXXZ ; `dynamic atexit destructor for 'randomx::SuperscalarInstructionInfo::IXOR_C9''
	add	rsp, 72					; 00000048H
	jmp	atexit
??__E?IXOR_C9@SuperscalarInstructionInfo@randomx@@2V12@B@@YAXXZ ENDP ; `dynamic initializer for 'randomx::SuperscalarInstructionInfo::IXOR_C9''
text$di	ENDS
; Function compile flags: /Ogtpy
;	COMDAT text$x
text$x	SEGMENT
$T1 = 32
?dtor$0@?0???__E?IXOR_C9@SuperscalarInstructionInfo@randomx@@2V12@B@@YAXXZ@4HA PROC ; ``dynamic initializer for 'randomx::SuperscalarInstructionInfo::IXOR_C9'''::`1'::dtor$0
	lea	rcx, OFFSET FLAT:?IXOR_C9@SuperscalarInstructionInfo@randomx@@2V12@B ; randomx::SuperscalarInstructionInfo::IXOR_C9
	add	rcx, 16
	jmp	??1?$vector@VMacroOp@randomx@@V?$allocator@VMacroOp@randomx@@@std@@@std@@QEAA@XZ ; std::vector<randomx::MacroOp,std::allocator<randomx::MacroOp> >::~vector<randomx::MacroOp,std::allocator<randomx::MacroOp> >
?dtor$0@?0???__E?IXOR_C9@SuperscalarInstructionInfo@randomx@@2V12@B@@YAXXZ@4HA ENDP ; ``dynamic initializer for 'randomx::SuperscalarInstructionInfo::IXOR_C9'''::`1'::dtor$0
text$x	ENDS
; Function compile flags: /Ogtpy
;	COMDAT ??__F?IXOR_C9@SuperscalarInstructionInfo@randomx@@2V12@B@@YAXXZ
text$yd	SEGMENT
??__F?IXOR_C9@SuperscalarInstructionInfo@randomx@@2V12@B@@YAXXZ PROC ; `dynamic atexit destructor for 'randomx::SuperscalarInstructionInfo::IXOR_C9'', COMDAT
	sub	rsp, 40					; 00000028H
; File D:\software\Visual Studio 2022\VC\Tools\MSVC\14.35.32215\include\vector
; Line 2107
	mov	rcx, QWORD PTR ?IXOR_C9@SuperscalarInstructionInfo@randomx@@2V12@B+16
	test	rcx, rcx
	je	SHORT $LN9@IXOR_C9
; Line 2110
	mov	rdx, QWORD PTR ?IXOR_C9@SuperscalarInstructionInfo@randomx@@2V12@B+32
	sub	rdx, rcx
; File D:\software\Visual Studio 2022\VC\Tools\MSVC\14.35.32215\include\xmemory
; Line 829
	and	rdx, -32				; ffffffffffffffe0H
; Line 251
	cmp	rdx, 4096				; 00001000H
	jb	SHORT $LN25@IXOR_C9
; Line 150
	mov	r8, QWORD PTR [rcx-8]
	add	rdx, 39					; 00000027H
; Line 163
	sub	rcx, r8
; Line 164
	lea	rax, QWORD PTR [rcx-8]
	cmp	rax, 31
	ja	SHORT $LN22@IXOR_C9
; Line 165
	mov	rcx, r8
$LN25@IXOR_C9:
; Line 255
	call	??3@YAXPEAX_K@Z				; operator delete
	xorps	xmm0, xmm0
; File D:\software\Visual Studio 2022\VC\Tools\MSVC\14.35.32215\include\vector
; Line 2112
	mov	QWORD PTR ?IXOR_C9@SuperscalarInstructionInfo@randomx@@2V12@B+16, 0
; Line 2113
	movdqu	XMMWORD PTR ?IXOR_C9@SuperscalarInstructionInfo@randomx@@2V12@B+24, xmm0
$LN9@IXOR_C9:
	add	rsp, 40					; 00000028H
	ret	0
$LN22@IXOR_C9:
; File D:\software\Visual Studio 2022\VC\Tools\MSVC\14.35.32215\include\xmemory
; Line 164
	call	_invalid_parameter_noinfo_noreturn
	int	3
$LN32@IXOR_C9:
??__F?IXOR_C9@SuperscalarInstructionInfo@randomx@@2V12@B@@YAXXZ ENDP ; `dynamic atexit destructor for 'randomx::SuperscalarInstructionInfo::IXOR_C9''
text$yd	ENDS
; Function compile flags: /Ogtpy
;	COMDAT ??__E?IMULH_R@SuperscalarInstructionInfo@randomx@@2V12@B@@YAXXZ
text$di	SEGMENT
$T1 = 32
??__E?IMULH_R@SuperscalarInstructionInfo@randomx@@2V12@B@@YAXXZ PROC ; `dynamic initializer for 'randomx::SuperscalarInstructionInfo::IMULH_R'', COMDAT
; File D:\dev\francium_network\francium_agent\src\ext\randomx\repo\src\superscalar.cpp
; Line 237
	mov	QWORD PTR [rsp+8], rbx
	push	rdi
	sub	rsp, 64					; 00000040H
; Line 215
	lea	rbx, OFFSET FLAT:?IMULH_R_ops_array@randomx@@3QBVMacroOp@1@B
	mov	edi, 3
	mov	rcx, QWORD PTR ?IMULH_R@SuperscalarInstructionInfo@randomx@@2V12@B+24
	npad	3
$LL6@IMULH_R:
; Line 217
	movups	xmm1, XMMWORD PTR [rbx]
	movups	XMMWORD PTR $T1[rsp], xmm1
	movups	xmm0, XMMWORD PTR [rbx+16]
	movups	XMMWORD PTR $T1[rsp+16], xmm0
; File D:\software\Visual Studio 2022\VC\Tools\MSVC\14.35.32215\include\vector
; Line 844
	cmp	rcx, QWORD PTR ?IMULH_R@SuperscalarInstructionInfo@randomx@@2V12@B+32
	je	SHORT $LN12@IMULH_R
; File D:\software\Visual Studio 2022\VC\Tools\MSVC\14.35.32215\include\xutility
; Line 275
	movups	XMMWORD PTR [rcx], xmm1
	movups	xmm0, XMMWORD PTR $T1[rsp+16]
	movups	XMMWORD PTR [rcx+16], xmm0
; File D:\software\Visual Studio 2022\VC\Tools\MSVC\14.35.32215\include\vector
; Line 869
	mov	rcx, QWORD PTR ?IMULH_R@SuperscalarInstructionInfo@randomx@@2V12@B+24
	add	rcx, 32					; 00000020H
	mov	QWORD PTR ?IMULH_R@SuperscalarInstructionInfo@randomx@@2V12@B+24, rcx
; Line 845
	jmp	SHORT $LN11@IMULH_R
$LN12@IMULH_R:
; Line 848
	lea	r8, QWORD PTR $T1[rsp]
	mov	rdx, rcx
	lea	rcx, OFFSET FLAT:?IMULH_R@SuperscalarInstructionInfo@randomx@@2V12@B+16
	call	??$_Emplace_reallocate@VMacroOp@randomx@@@?$vector@VMacroOp@randomx@@V?$allocator@VMacroOp@randomx@@@std@@@std@@AEAAPEAVMacroOp@randomx@@QEAV23@$$QEAV23@@Z ; std::vector<randomx::MacroOp,std::allocator<randomx::MacroOp> >::_Emplace_reallocate<randomx::MacroOp>
	mov	rcx, QWORD PTR ?IMULH_R@SuperscalarInstructionInfo@randomx@@2V12@B+24
$LN11@IMULH_R:
; File D:\dev\francium_network\francium_agent\src\ext\randomx\repo\src\superscalar.cpp
; Line 218
	mov	eax, DWORD PTR [rcx-20]
	add	DWORD PTR ?IMULH_R@SuperscalarInstructionInfo@randomx@@2V12@B+40, eax
; Line 216
	add	rbx, 32					; 00000020H
	sub	rdi, 1
	jne	SHORT $LL6@IMULH_R
; Line 237
	lea	rcx, OFFSET FLAT:??__F?IMULH_R@SuperscalarInstructionInfo@randomx@@2V12@B@@YAXXZ ; `dynamic atexit destructor for 'randomx::SuperscalarInstructionInfo::IMULH_R''
	mov	rbx, QWORD PTR [rsp+80]
	add	rsp, 64					; 00000040H
	pop	rdi
	jmp	atexit
??__E?IMULH_R@SuperscalarInstructionInfo@randomx@@2V12@B@@YAXXZ ENDP ; `dynamic initializer for 'randomx::SuperscalarInstructionInfo::IMULH_R''
text$di	ENDS
; Function compile flags: /Ogtpy
;	COMDAT text$x
text$x	SEGMENT
$T1 = 32
?dtor$0@?0???__E?IMULH_R@SuperscalarInstructionInfo@randomx@@2V12@B@@YAXXZ@4HA PROC ; ``dynamic initializer for 'randomx::SuperscalarInstructionInfo::IMULH_R'''::`1'::dtor$0
	lea	rcx, OFFSET FLAT:?IMULH_R@SuperscalarInstructionInfo@randomx@@2V12@B ; randomx::SuperscalarInstructionInfo::IMULH_R
	add	rcx, 16
	jmp	??1?$vector@VMacroOp@randomx@@V?$allocator@VMacroOp@randomx@@@std@@@std@@QEAA@XZ ; std::vector<randomx::MacroOp,std::allocator<randomx::MacroOp> >::~vector<randomx::MacroOp,std::allocator<randomx::MacroOp> >
?dtor$0@?0???__E?IMULH_R@SuperscalarInstructionInfo@randomx@@2V12@B@@YAXXZ@4HA ENDP ; ``dynamic initializer for 'randomx::SuperscalarInstructionInfo::IMULH_R'''::`1'::dtor$0
text$x	ENDS
; Function compile flags: /Ogtpy
;	COMDAT ??__F?IMULH_R@SuperscalarInstructionInfo@randomx@@2V12@B@@YAXXZ
text$yd	SEGMENT
??__F?IMULH_R@SuperscalarInstructionInfo@randomx@@2V12@B@@YAXXZ PROC ; `dynamic atexit destructor for 'randomx::SuperscalarInstructionInfo::IMULH_R'', COMDAT
	sub	rsp, 40					; 00000028H
; File D:\software\Visual Studio 2022\VC\Tools\MSVC\14.35.32215\include\vector
; Line 2107
	mov	rcx, QWORD PTR ?IMULH_R@SuperscalarInstructionInfo@randomx@@2V12@B+16
	test	rcx, rcx
	je	SHORT $LN9@IMULH_R
; Line 2110
	mov	rdx, QWORD PTR ?IMULH_R@SuperscalarInstructionInfo@randomx@@2V12@B+32
	sub	rdx, rcx
; File D:\software\Visual Studio 2022\VC\Tools\MSVC\14.35.32215\include\xmemory
; Line 829
	and	rdx, -32				; ffffffffffffffe0H
; Line 251
	cmp	rdx, 4096				; 00001000H
	jb	SHORT $LN25@IMULH_R
; Line 150
	mov	r8, QWORD PTR [rcx-8]
	add	rdx, 39					; 00000027H
; Line 163
	sub	rcx, r8
; Line 164
	lea	rax, QWORD PTR [rcx-8]
	cmp	rax, 31
	ja	SHORT $LN22@IMULH_R
; Line 165
	mov	rcx, r8
$LN25@IMULH_R:
; Line 255
	call	??3@YAXPEAX_K@Z				; operator delete
	xorps	xmm0, xmm0
; File D:\software\Visual Studio 2022\VC\Tools\MSVC\14.35.32215\include\vector
; Line 2112
	mov	QWORD PTR ?IMULH_R@SuperscalarInstructionInfo@randomx@@2V12@B+16, 0
; Line 2113
	movdqu	XMMWORD PTR ?IMULH_R@SuperscalarInstructionInfo@randomx@@2V12@B+24, xmm0
$LN9@IMULH_R:
	add	rsp, 40					; 00000028H
	ret	0
$LN22@IMULH_R:
; File D:\software\Visual Studio 2022\VC\Tools\MSVC\14.35.32215\include\xmemory
; Line 164
	call	_invalid_parameter_noinfo_noreturn
	int	3
$LN32@IMULH_R:
??__F?IMULH_R@SuperscalarInstructionInfo@randomx@@2V12@B@@YAXXZ ENDP ; `dynamic atexit destructor for 'randomx::SuperscalarInstructionInfo::IMULH_R''
text$yd	ENDS
; Function compile flags: /Ogtpy
;	COMDAT ??__E?ISMULH_R@SuperscalarInstructionInfo@randomx@@2V12@B@@YAXXZ
text$di	SEGMENT
$T1 = 32
??__E?ISMULH_R@SuperscalarInstructionInfo@randomx@@2V12@B@@YAXXZ PROC ; `dynamic initializer for 'randomx::SuperscalarInstructionInfo::ISMULH_R'', COMDAT
; File D:\dev\francium_network\francium_agent\src\ext\randomx\repo\src\superscalar.cpp
; Line 238
	mov	QWORD PTR [rsp+8], rbx
	push	rdi
	sub	rsp, 64					; 00000040H
; Line 215
	lea	rbx, OFFSET FLAT:?ISMULH_R_ops_array@randomx@@3QBVMacroOp@1@B
	mov	edi, 3
	mov	rcx, QWORD PTR ?ISMULH_R@SuperscalarInstructionInfo@randomx@@2V12@B+24
	npad	3
$LL6@ISMULH_R:
; Line 217
	movups	xmm1, XMMWORD PTR [rbx]
	movups	XMMWORD PTR $T1[rsp], xmm1
	movups	xmm0, XMMWORD PTR [rbx+16]
	movups	XMMWORD PTR $T1[rsp+16], xmm0
; File D:\software\Visual Studio 2022\VC\Tools\MSVC\14.35.32215\include\vector
; Line 844
	cmp	rcx, QWORD PTR ?ISMULH_R@SuperscalarInstructionInfo@randomx@@2V12@B+32
	je	SHORT $LN12@ISMULH_R
; File D:\software\Visual Studio 2022\VC\Tools\MSVC\14.35.32215\include\xutility
; Line 275
	movups	XMMWORD PTR [rcx], xmm1
	movups	xmm0, XMMWORD PTR $T1[rsp+16]
	movups	XMMWORD PTR [rcx+16], xmm0
; File D:\software\Visual Studio 2022\VC\Tools\MSVC\14.35.32215\include\vector
; Line 869
	mov	rcx, QWORD PTR ?ISMULH_R@SuperscalarInstructionInfo@randomx@@2V12@B+24
	add	rcx, 32					; 00000020H
	mov	QWORD PTR ?ISMULH_R@SuperscalarInstructionInfo@randomx@@2V12@B+24, rcx
; Line 845
	jmp	SHORT $LN11@ISMULH_R
$LN12@ISMULH_R:
; Line 848
	lea	r8, QWORD PTR $T1[rsp]
	mov	rdx, rcx
	lea	rcx, OFFSET FLAT:?ISMULH_R@SuperscalarInstructionInfo@randomx@@2V12@B+16
	call	??$_Emplace_reallocate@VMacroOp@randomx@@@?$vector@VMacroOp@randomx@@V?$allocator@VMacroOp@randomx@@@std@@@std@@AEAAPEAVMacroOp@randomx@@QEAV23@$$QEAV23@@Z ; std::vector<randomx::MacroOp,std::allocator<randomx::MacroOp> >::_Emplace_reallocate<randomx::MacroOp>
	mov	rcx, QWORD PTR ?ISMULH_R@SuperscalarInstructionInfo@randomx@@2V12@B+24
$LN11@ISMULH_R:
; File D:\dev\francium_network\francium_agent\src\ext\randomx\repo\src\superscalar.cpp
; Line 218
	mov	eax, DWORD PTR [rcx-20]
	add	DWORD PTR ?ISMULH_R@SuperscalarInstructionInfo@randomx@@2V12@B+40, eax
; Line 216
	add	rbx, 32					; 00000020H
	sub	rdi, 1
	jne	SHORT $LL6@ISMULH_R
; Line 238
	lea	rcx, OFFSET FLAT:??__F?ISMULH_R@SuperscalarInstructionInfo@randomx@@2V12@B@@YAXXZ ; `dynamic atexit destructor for 'randomx::SuperscalarInstructionInfo::ISMULH_R''
	mov	rbx, QWORD PTR [rsp+80]
	add	rsp, 64					; 00000040H
	pop	rdi
	jmp	atexit
??__E?ISMULH_R@SuperscalarInstructionInfo@randomx@@2V12@B@@YAXXZ ENDP ; `dynamic initializer for 'randomx::SuperscalarInstructionInfo::ISMULH_R''
text$di	ENDS
; Function compile flags: /Ogtpy
;	COMDAT text$x
text$x	SEGMENT
$T1 = 32
?dtor$0@?0???__E?ISMULH_R@SuperscalarInstructionInfo@randomx@@2V12@B@@YAXXZ@4HA PROC ; ``dynamic initializer for 'randomx::SuperscalarInstructionInfo::ISMULH_R'''::`1'::dtor$0
	lea	rcx, OFFSET FLAT:?ISMULH_R@SuperscalarInstructionInfo@randomx@@2V12@B ; randomx::SuperscalarInstructionInfo::ISMULH_R
	add	rcx, 16
	jmp	??1?$vector@VMacroOp@randomx@@V?$allocator@VMacroOp@randomx@@@std@@@std@@QEAA@XZ ; std::vector<randomx::MacroOp,std::allocator<randomx::MacroOp> >::~vector<randomx::MacroOp,std::allocator<randomx::MacroOp> >
?dtor$0@?0???__E?ISMULH_R@SuperscalarInstructionInfo@randomx@@2V12@B@@YAXXZ@4HA ENDP ; ``dynamic initializer for 'randomx::SuperscalarInstructionInfo::ISMULH_R'''::`1'::dtor$0
text$x	ENDS
; Function compile flags: /Ogtpy
;	COMDAT ??__F?ISMULH_R@SuperscalarInstructionInfo@randomx@@2V12@B@@YAXXZ
text$yd	SEGMENT
??__F?ISMULH_R@SuperscalarInstructionInfo@randomx@@2V12@B@@YAXXZ PROC ; `dynamic atexit destructor for 'randomx::SuperscalarInstructionInfo::ISMULH_R'', COMDAT
	sub	rsp, 40					; 00000028H
; File D:\software\Visual Studio 2022\VC\Tools\MSVC\14.35.32215\include\vector
; Line 2107
	mov	rcx, QWORD PTR ?ISMULH_R@SuperscalarInstructionInfo@randomx@@2V12@B+16
	test	rcx, rcx
	je	SHORT $LN9@ISMULH_R
; Line 2110
	mov	rdx, QWORD PTR ?ISMULH_R@SuperscalarInstructionInfo@randomx@@2V12@B+32
	sub	rdx, rcx
; File D:\software\Visual Studio 2022\VC\Tools\MSVC\14.35.32215\include\xmemory
; Line 829
	and	rdx, -32				; ffffffffffffffe0H
; Line 251
	cmp	rdx, 4096				; 00001000H
	jb	SHORT $LN25@ISMULH_R
; Line 150
	mov	r8, QWORD PTR [rcx-8]
	add	rdx, 39					; 00000027H
; Line 163
	sub	rcx, r8
; Line 164
	lea	rax, QWORD PTR [rcx-8]
	cmp	rax, 31
	ja	SHORT $LN22@ISMULH_R
; Line 165
	mov	rcx, r8
$LN25@ISMULH_R:
; Line 255
	call	??3@YAXPEAX_K@Z				; operator delete
	xorps	xmm0, xmm0
; File D:\software\Visual Studio 2022\VC\Tools\MSVC\14.35.32215\include\vector
; Line 2112
	mov	QWORD PTR ?ISMULH_R@SuperscalarInstructionInfo@randomx@@2V12@B+16, 0
; Line 2113
	movdqu	XMMWORD PTR ?ISMULH_R@SuperscalarInstructionInfo@randomx@@2V12@B+24, xmm0
$LN9@ISMULH_R:
	add	rsp, 40					; 00000028H
	ret	0
$LN22@ISMULH_R:
; File D:\software\Visual Studio 2022\VC\Tools\MSVC\14.35.32215\include\xmemory
; Line 164
	call	_invalid_parameter_noinfo_noreturn
	int	3
$LN32@ISMULH_R:
??__F?ISMULH_R@SuperscalarInstructionInfo@randomx@@2V12@B@@YAXXZ ENDP ; `dynamic atexit destructor for 'randomx::SuperscalarInstructionInfo::ISMULH_R''
text$yd	ENDS
; Function compile flags: /Ogtpy
;	COMDAT ??__E?IMUL_RCP@SuperscalarInstructionInfo@randomx@@2V12@B@@YAXXZ
text$di	SEGMENT
$T1 = 32
??__E?IMUL_RCP@SuperscalarInstructionInfo@randomx@@2V12@B@@YAXXZ PROC ; `dynamic initializer for 'randomx::SuperscalarInstructionInfo::IMUL_RCP'', COMDAT
; File D:\dev\francium_network\francium_agent\src\ext\randomx\repo\src\superscalar.cpp
; Line 239
	mov	QWORD PTR [rsp+8], rbx
	push	rdi
	sub	rsp, 64					; 00000040H
; Line 215
	lea	rbx, OFFSET FLAT:?IMUL_RCP_ops_array@randomx@@3QBVMacroOp@1@B
	mov	edi, 2
	mov	rcx, QWORD PTR ?IMUL_RCP@SuperscalarInstructionInfo@randomx@@2V12@B+24
	npad	3
$LL6@IMUL_RCP:
; Line 217
	movups	xmm1, XMMWORD PTR [rbx]
	movups	XMMWORD PTR $T1[rsp], xmm1
	movups	xmm0, XMMWORD PTR [rbx+16]
	movups	XMMWORD PTR $T1[rsp+16], xmm0
; File D:\software\Visual Studio 2022\VC\Tools\MSVC\14.35.32215\include\vector
; Line 844
	cmp	rcx, QWORD PTR ?IMUL_RCP@SuperscalarInstructionInfo@randomx@@2V12@B+32
	je	SHORT $LN12@IMUL_RCP
; File D:\software\Visual Studio 2022\VC\Tools\MSVC\14.35.32215\include\xutility
; Line 275
	movups	XMMWORD PTR [rcx], xmm1
	movups	xmm0, XMMWORD PTR $T1[rsp+16]
	movups	XMMWORD PTR [rcx+16], xmm0
; File D:\software\Visual Studio 2022\VC\Tools\MSVC\14.35.32215\include\vector
; Line 869
	mov	rcx, QWORD PTR ?IMUL_RCP@SuperscalarInstructionInfo@randomx@@2V12@B+24
	add	rcx, 32					; 00000020H
	mov	QWORD PTR ?IMUL_RCP@SuperscalarInstructionInfo@randomx@@2V12@B+24, rcx
; Line 845
	jmp	SHORT $LN11@IMUL_RCP
$LN12@IMUL_RCP:
; Line 848
	lea	r8, QWORD PTR $T1[rsp]
	mov	rdx, rcx
	lea	rcx, OFFSET FLAT:?IMUL_RCP@SuperscalarInstructionInfo@randomx@@2V12@B+16
	call	??$_Emplace_reallocate@VMacroOp@randomx@@@?$vector@VMacroOp@randomx@@V?$allocator@VMacroOp@randomx@@@std@@@std@@AEAAPEAVMacroOp@randomx@@QEAV23@$$QEAV23@@Z ; std::vector<randomx::MacroOp,std::allocator<randomx::MacroOp> >::_Emplace_reallocate<randomx::MacroOp>
	mov	rcx, QWORD PTR ?IMUL_RCP@SuperscalarInstructionInfo@randomx@@2V12@B+24
$LN11@IMUL_RCP:
; File D:\dev\francium_network\francium_agent\src\ext\randomx\repo\src\superscalar.cpp
; Line 218
	mov	eax, DWORD PTR [rcx-20]
	add	DWORD PTR ?IMUL_RCP@SuperscalarInstructionInfo@randomx@@2V12@B+40, eax
; Line 216
	add	rbx, 32					; 00000020H
	sub	rdi, 1
	jne	SHORT $LL6@IMUL_RCP
; Line 239
	lea	rcx, OFFSET FLAT:??__F?IMUL_RCP@SuperscalarInstructionInfo@randomx@@2V12@B@@YAXXZ ; `dynamic atexit destructor for 'randomx::SuperscalarInstructionInfo::IMUL_RCP''
	mov	rbx, QWORD PTR [rsp+80]
	add	rsp, 64					; 00000040H
	pop	rdi
	jmp	atexit
??__E?IMUL_RCP@SuperscalarInstructionInfo@randomx@@2V12@B@@YAXXZ ENDP ; `dynamic initializer for 'randomx::SuperscalarInstructionInfo::IMUL_RCP''
text$di	ENDS
; Function compile flags: /Ogtpy
;	COMDAT text$x
text$x	SEGMENT
$T1 = 32
?dtor$0@?0???__E?IMUL_RCP@SuperscalarInstructionInfo@randomx@@2V12@B@@YAXXZ@4HA PROC ; ``dynamic initializer for 'randomx::SuperscalarInstructionInfo::IMUL_RCP'''::`1'::dtor$0
	lea	rcx, OFFSET FLAT:?IMUL_RCP@SuperscalarInstructionInfo@randomx@@2V12@B ; randomx::SuperscalarInstructionInfo::IMUL_RCP
	add	rcx, 16
	jmp	??1?$vector@VMacroOp@randomx@@V?$allocator@VMacroOp@randomx@@@std@@@std@@QEAA@XZ ; std::vector<randomx::MacroOp,std::allocator<randomx::MacroOp> >::~vector<randomx::MacroOp,std::allocator<randomx::MacroOp> >
?dtor$0@?0???__E?IMUL_RCP@SuperscalarInstructionInfo@randomx@@2V12@B@@YAXXZ@4HA ENDP ; ``dynamic initializer for 'randomx::SuperscalarInstructionInfo::IMUL_RCP'''::`1'::dtor$0
text$x	ENDS
; Function compile flags: /Ogtpy
;	COMDAT ??__F?IMUL_RCP@SuperscalarInstructionInfo@randomx@@2V12@B@@YAXXZ
text$yd	SEGMENT
??__F?IMUL_RCP@SuperscalarInstructionInfo@randomx@@2V12@B@@YAXXZ PROC ; `dynamic atexit destructor for 'randomx::SuperscalarInstructionInfo::IMUL_RCP'', COMDAT
	sub	rsp, 40					; 00000028H
; File D:\software\Visual Studio 2022\VC\Tools\MSVC\14.35.32215\include\vector
; Line 2107
	mov	rcx, QWORD PTR ?IMUL_RCP@SuperscalarInstructionInfo@randomx@@2V12@B+16
	test	rcx, rcx
	je	SHORT $LN9@IMUL_RCP
; Line 2110
	mov	rdx, QWORD PTR ?IMUL_RCP@SuperscalarInstructionInfo@randomx@@2V12@B+32
	sub	rdx, rcx
; File D:\software\Visual Studio 2022\VC\Tools\MSVC\14.35.32215\include\xmemory
; Line 829
	and	rdx, -32				; ffffffffffffffe0H
; Line 251
	cmp	rdx, 4096				; 00001000H
	jb	SHORT $LN25@IMUL_RCP
; Line 150
	mov	r8, QWORD PTR [rcx-8]
	add	rdx, 39					; 00000027H
; Line 163
	sub	rcx, r8
; Line 164
	lea	rax, QWORD PTR [rcx-8]
	cmp	rax, 31
	ja	SHORT $LN22@IMUL_RCP
; Line 165
	mov	rcx, r8
$LN25@IMUL_RCP:
; Line 255
	call	??3@YAXPEAX_K@Z				; operator delete
	xorps	xmm0, xmm0
; File D:\software\Visual Studio 2022\VC\Tools\MSVC\14.35.32215\include\vector
; Line 2112
	mov	QWORD PTR ?IMUL_RCP@SuperscalarInstructionInfo@randomx@@2V12@B+16, 0
; Line 2113
	movdqu	XMMWORD PTR ?IMUL_RCP@SuperscalarInstructionInfo@randomx@@2V12@B+24, xmm0
$LN9@IMUL_RCP:
	add	rsp, 40					; 00000028H
	ret	0
$LN22@IMUL_RCP:
; File D:\software\Visual Studio 2022\VC\Tools\MSVC\14.35.32215\include\xmemory
; Line 164
	call	_invalid_parameter_noinfo_noreturn
	int	3
$LN32@IMUL_RCP:
??__F?IMUL_RCP@SuperscalarInstructionInfo@randomx@@2V12@B@@YAXXZ ENDP ; `dynamic atexit destructor for 'randomx::SuperscalarInstructionInfo::IMUL_RCP''
text$yd	ENDS
; Function compile flags: /Ogtpy
;	COMDAT ??__E?NOP@SuperscalarInstructionInfo@randomx@@2V12@B@@YAXXZ
text$di	SEGMENT
??__E?NOP@SuperscalarInstructionInfo@randomx@@2V12@B@@YAXXZ PROC ; `dynamic initializer for 'randomx::SuperscalarInstructionInfo::NOP'', COMDAT
; File D:\dev\francium_network\francium_agent\src\ext\randomx\repo\src\superscalar.cpp
; Line 241
	lea	rcx, OFFSET FLAT:??__F?NOP@SuperscalarInstructionInfo@randomx@@2V12@B@@YAXXZ ; `dynamic atexit destructor for 'randomx::SuperscalarInstructionInfo::NOP''
	jmp	atexit
??__E?NOP@SuperscalarInstructionInfo@randomx@@2V12@B@@YAXXZ ENDP ; `dynamic initializer for 'randomx::SuperscalarInstructionInfo::NOP''
text$di	ENDS
; Function compile flags: /Ogtpy
;	COMDAT ??__F?NOP@SuperscalarInstructionInfo@randomx@@2V12@B@@YAXXZ
text$yd	SEGMENT
??__F?NOP@SuperscalarInstructionInfo@randomx@@2V12@B@@YAXXZ PROC ; `dynamic atexit destructor for 'randomx::SuperscalarInstructionInfo::NOP'', COMDAT
	sub	rsp, 40					; 00000028H
; File D:\software\Visual Studio 2022\VC\Tools\MSVC\14.35.32215\include\vector
; Line 2107
	mov	rcx, QWORD PTR ?NOP@SuperscalarInstructionInfo@randomx@@2V12@B+16
	test	rcx, rcx
	je	SHORT $LN9@NOP
; Line 2110
	mov	rdx, QWORD PTR ?NOP@SuperscalarInstructionInfo@randomx@@2V12@B+32
	sub	rdx, rcx
; File D:\software\Visual Studio 2022\VC\Tools\MSVC\14.35.32215\include\xmemory
; Line 829
	and	rdx, -32				; ffffffffffffffe0H
; Line 251
	cmp	rdx, 4096				; 00001000H
	jb	SHORT $LN25@NOP
; Line 150
	mov	r8, QWORD PTR [rcx-8]
	add	rdx, 39					; 00000027H
; Line 163
	sub	rcx, r8
; Line 164
	lea	rax, QWORD PTR [rcx-8]
	cmp	rax, 31
	ja	SHORT $LN22@NOP
; Line 165
	mov	rcx, r8
$LN25@NOP:
; Line 255
	call	??3@YAXPEAX_K@Z				; operator delete
	xorps	xmm0, xmm0
; File D:\software\Visual Studio 2022\VC\Tools\MSVC\14.35.32215\include\vector
; Line 2112
	mov	QWORD PTR ?NOP@SuperscalarInstructionInfo@randomx@@2V12@B+16, 0
; Line 2113
	movdqu	XMMWORD PTR ?NOP@SuperscalarInstructionInfo@randomx@@2V12@B+24, xmm0
$LN9@NOP:
	add	rsp, 40					; 00000028H
	ret	0
$LN22@NOP:
; File D:\software\Visual Studio 2022\VC\Tools\MSVC\14.35.32215\include\xmemory
; Line 164
	call	_invalid_parameter_noinfo_noreturn
	int	3
$LN32@NOP:
??__F?NOP@SuperscalarInstructionInfo@randomx@@2V12@B@@YAXXZ ENDP ; `dynamic atexit destructor for 'randomx::SuperscalarInstructionInfo::NOP''
text$yd	ENDS
; Function compile flags: /Ogtpy
;	COMDAT ?getCounts@DecoderBuffer@randomx@@QEBAPEBHXZ
_TEXT	SEGMENT
this$ = 8
?getCounts@DecoderBuffer@randomx@@QEBAPEBHXZ PROC	; randomx::DecoderBuffer::getCounts, COMDAT
; File D:\dev\francium_network\francium_agent\src\ext\randomx\repo\src\superscalar.cpp
; Line 260
	mov	rax, QWORD PTR [rcx+16]
; Line 261
	ret	0
?getCounts@DecoderBuffer@randomx@@QEBAPEBHXZ ENDP	; randomx::DecoderBuffer::getCounts
_TEXT	ENDS
; Function compile flags: /Ogtpy
;	COMDAT ?getSize@DecoderBuffer@randomx@@QEBAHXZ
_TEXT	SEGMENT
this$ = 8
?getSize@DecoderBuffer@randomx@@QEBAHXZ PROC		; randomx::DecoderBuffer::getSize, COMDAT
; File D:\dev\francium_network\francium_agent\src\ext\randomx\repo\src\superscalar.cpp
; Line 263
	mov	eax, DWORD PTR [rcx+24]
; Line 264
	ret	0
?getSize@DecoderBuffer@randomx@@QEBAHXZ ENDP		; randomx::DecoderBuffer::getSize
_TEXT	ENDS
; Function compile flags: /Ogtpy
;	COMDAT ?getIndex@DecoderBuffer@randomx@@QEBAHXZ
_TEXT	SEGMENT
this$ = 8
?getIndex@DecoderBuffer@randomx@@QEBAHXZ PROC		; randomx::DecoderBuffer::getIndex, COMDAT
; File D:\dev\francium_network\francium_agent\src\ext\randomx\repo\src\superscalar.cpp
; Line 266
	mov	eax, DWORD PTR [rcx+8]
; Line 267
	ret	0
?getIndex@DecoderBuffer@randomx@@QEBAHXZ ENDP		; randomx::DecoderBuffer::getIndex
_TEXT	ENDS
; Function compile flags: /Ogtpy
;	COMDAT ?getName@DecoderBuffer@randomx@@QEBAPEBDXZ
_TEXT	SEGMENT
this$ = 8
?getName@DecoderBuffer@randomx@@QEBAPEBDXZ PROC		; randomx::DecoderBuffer::getName, COMDAT
; File D:\dev\francium_network\francium_agent\src\ext\randomx\repo\src\superscalar.cpp
; Line 269
	mov	rax, QWORD PTR [rcx]
; Line 270
	ret	0
?getName@DecoderBuffer@randomx@@QEBAPEBDXZ ENDP		; randomx::DecoderBuffer::getName
_TEXT	ENDS
; Function compile flags: /Ogtpy
;	COMDAT ?fetchNext@DecoderBuffer@randomx@@QEBAPEBV12@W4SuperscalarInstructionType@2@HHAEAVBlake2Generator@2@@Z
_TEXT	SEGMENT
this$dead$ = 64
instrType$ = 72
cycle$ = 80
mulCount$ = 88
gen$ = 96
?fetchNext@DecoderBuffer@randomx@@QEBAPEBV12@W4SuperscalarInstructionType@2@HHAEAVBlake2Generator@2@@Z PROC ; randomx::DecoderBuffer::fetchNext, COMDAT
; File D:\dev\francium_network\francium_agent\src\ext\randomx\repo\src\superscalar.cpp
; Line 271
$LN22:
	sub	rsp, 56					; 00000038H
; Line 275
	lea	eax, DWORD PTR [rdx-11]
	mov	r10d, edx
	cmp	eax, 1
	jbe	$LN3@fetchNext
; Line 280
	lea	eax, DWORD PTR [r8+1]
	cmp	r9d, eax
	jge	SHORT $LN4@fetchNext
; Line 281
	lea	rax, OFFSET FLAT:?decodeBuffer4444@DecoderBuffer@randomx@@0V12@B ; randomx::DecoderBuffer::decodeBuffer4444
; Line 289
	add	rsp, 56					; 00000038H
	ret	0
$LN4@fetchNext:
	mov	QWORD PTR [rsp+48], rbx
; Line 284
	mov	rbx, QWORD PTR gen$[rsp]
	mov	rdx, QWORD PTR [rbx+64]
	lea	rax, QWORD PTR [rdx+1]
	cmp	r10d, 13
	jne	SHORT $LN5@fetchNext
; File D:\dev\francium_network\francium_agent\src\ext\randomx\repo\src\blake2_generator.cpp
; Line 57
	cmp	rax, 64					; 00000040H
	jbe	SHORT $LN10@fetchNext
; Line 58
	mov	r9d, 64					; 00000040H
	mov	r8, rbx
	mov	edx, r9d
	mov	rcx, rbx
	call	randomx_blake2b
; Line 59
	xor	edx, edx
	mov	QWORD PTR [rbx+64], rdx
$LN10@fetchNext:
; Line 46
	movzx	ecx, BYTE PTR [rdx+rbx]
	lea	rax, QWORD PTR [rdx+1]
	mov	QWORD PTR [rbx+64], rax
; File D:\dev\francium_network\francium_agent\src\ext\randomx\repo\src\superscalar.cpp
; Line 285
	test	cl, 1
	mov	rbx, QWORD PTR [rsp+48]
	lea	rcx, OFFSET FLAT:?decodeBuffer484@DecoderBuffer@randomx@@0V12@B ; randomx::DecoderBuffer::decodeBuffer484
	lea	rax, OFFSET FLAT:?decodeBuffer493@DecoderBuffer@randomx@@0V12@B ; randomx::DecoderBuffer::decodeBuffer493
	cmovne	rax, rcx
; Line 289
	add	rsp, 56					; 00000038H
	ret	0
$LN5@fetchNext:
; File D:\dev\francium_network\francium_agent\src\ext\randomx\repo\src\blake2_generator.cpp
; Line 57
	cmp	rax, 64					; 00000040H
	jbe	SHORT $LN17@fetchNext
; Line 58
	mov	r9d, 64					; 00000040H
	mov	r8, rbx
	mov	edx, r9d
	mov	rcx, rbx
	call	randomx_blake2b
; Line 59
	xor	edx, edx
	mov	QWORD PTR [rbx+64], rdx
$LN17@fetchNext:
; Line 46
	movzx	ecx, BYTE PTR [rdx+rbx]
	lea	rax, QWORD PTR [rdx+1]
	mov	QWORD PTR [rbx+64], rax
; File D:\dev\francium_network\francium_agent\src\ext\randomx\repo\src\superscalar.cpp
; Line 304
	mov	eax, ecx
	mov	rbx, QWORD PTR [rsp+48]
	lea	rcx, OFFSET FLAT:?decodeBuffers@DecoderBuffer@randomx@@0PAPEBV12@A ; randomx::DecoderBuffer::decodeBuffers
	and	eax, 3
; Line 288
	mov	rax, QWORD PTR [rcx+rax*8]
; Line 289
	add	rsp, 56					; 00000038H
	ret	0
$LN3@fetchNext:
; Line 276
	lea	rax, OFFSET FLAT:?decodeBuffer3310@DecoderBuffer@randomx@@0V12@B ; randomx::DecoderBuffer::decodeBuffer3310
; Line 289
	add	rsp, 56					; 00000038H
	ret	0
?fetchNext@DecoderBuffer@randomx@@QEBAPEBV12@W4SuperscalarInstructionType@2@HHAEAVBlake2Generator@2@@Z ENDP ; randomx::DecoderBuffer::fetchNext
_TEXT	ENDS
; Function compile flags: /Ogtpy
;	COMDAT ??0DecoderBuffer@randomx@@AEAA@XZ
_TEXT	SEGMENT
this$dead$ = 8
??0DecoderBuffer@randomx@@AEAA@XZ PROC			; randomx::DecoderBuffer::DecoderBuffer, COMDAT
; File D:\dev\francium_network\francium_agent\src\ext\randomx\repo\src\superscalar.cpp
; Line 295
	mov	DWORD PTR ?Default@DecoderBuffer@randomx@@2V12@B+8, -1
	lea	rax, OFFSET FLAT:?Default@DecoderBuffer@randomx@@2V12@B ; randomx::DecoderBuffer::Default
	ret	0
??0DecoderBuffer@randomx@@AEAA@XZ ENDP			; randomx::DecoderBuffer::DecoderBuffer
_TEXT	ENDS
; Function compile flags: /Ogtpy
;	COMDAT ?fetchNextDefault@DecoderBuffer@randomx@@AEBAPEBV12@AEAVBlake2Generator@2@@Z
_TEXT	SEGMENT
this$dead$ = 64
gen$ = 72
?fetchNextDefault@DecoderBuffer@randomx@@AEBAPEBV12@AEAVBlake2Generator@2@@Z PROC ; randomx::DecoderBuffer::fetchNextDefault, COMDAT
; File D:\dev\francium_network\francium_agent\src\ext\randomx\repo\src\superscalar.cpp
; Line 303
$LN9:
	push	rbx
	sub	rsp, 48					; 00000030H
	mov	rbx, rdx
; File D:\dev\francium_network\francium_agent\src\ext\randomx\repo\src\blake2_generator.cpp
; Line 57
	mov	rdx, QWORD PTR [rdx+64]
	lea	rax, QWORD PTR [rdx+1]
	cmp	rax, 64					; 00000040H
	jbe	SHORT $LN6@fetchNextD
; Line 58
	mov	r9d, 64					; 00000040H
	mov	r8, rbx
	mov	edx, r9d
	mov	rcx, rbx
	call	randomx_blake2b
; Line 59
	xor	edx, edx
	mov	QWORD PTR [rbx+64], rdx
$LN6@fetchNextD:
; Line 46
	movzx	ecx, BYTE PTR [rdx+rbx]
	lea	rax, QWORD PTR [rdx+1]
	mov	QWORD PTR [rbx+64], rax
; File D:\dev\francium_network\francium_agent\src\ext\randomx\repo\src\superscalar.cpp
; Line 304
	mov	eax, ecx
	and	eax, 3
	lea	rcx, OFFSET FLAT:?decodeBuffers@DecoderBuffer@randomx@@0PAPEBV12@A ; randomx::DecoderBuffer::decodeBuffers
	mov	rax, QWORD PTR [rcx+rax*8]
; Line 305
	add	rsp, 48					; 00000030H
	pop	rbx
	ret	0
?fetchNextDefault@DecoderBuffer@randomx@@AEBAPEBV12@AEAVBlake2Generator@2@@Z ENDP ; randomx::DecoderBuffer::fetchNextDefault
_TEXT	ENDS
; Function compile flags: /Ogtpy
;	COMDAT ?selectRegister@randomx@@YA_NAEAV?$vector@HV?$allocator@H@std@@@std@@AEAVBlake2Generator@1@AEAH@Z
_TEXT	SEGMENT
availableRegisters$ = 64
gen$ = 72
reg$ = 80
?selectRegister@randomx@@YA_NAEAV?$vector@HV?$allocator@H@std@@@std@@AEAVBlake2Generator@1@AEAH@Z PROC ; randomx::selectRegister, COMDAT
; File D:\dev\francium_network\francium_agent\src\ext\randomx\repo\src\superscalar.cpp
; Line 332
	mov	QWORD PTR [rsp+8], rbx
	mov	QWORD PTR [rsp+16], rsi
	push	rdi
	sub	rsp, 48					; 00000030H
; File D:\software\Visual Studio 2022\VC\Tools\MSVC\14.35.32215\include\vector
; Line 1932
	mov	r9, QWORD PTR [rcx]
; File D:\dev\francium_network\francium_agent\src\ext\randomx\repo\src\superscalar.cpp
; Line 332
	mov	rsi, r8
; File D:\software\Visual Studio 2022\VC\Tools\MSVC\14.35.32215\include\vector
; Line 1932
	mov	rax, QWORD PTR [rcx+8]
; File D:\dev\francium_network\francium_agent\src\ext\randomx\repo\src\superscalar.cpp
; Line 332
	mov	rbx, rdx
; File D:\software\Visual Studio 2022\VC\Tools\MSVC\14.35.32215\include\vector
; Line 1932
	sub	rax, r9
; File D:\dev\francium_network\francium_agent\src\ext\randomx\repo\src\superscalar.cpp
; Line 332
	mov	rdi, rcx
; File D:\software\Visual Studio 2022\VC\Tools\MSVC\14.35.32215\include\vector
; Line 1932
	sar	rax, 2
; File D:\dev\francium_network\francium_agent\src\ext\randomx\repo\src\superscalar.cpp
; Line 334
	test	rax, rax
	jne	SHORT $LN2@selectRegi
; Line 345
	mov	rbx, QWORD PTR [rsp+64]
	mov	rsi, QWORD PTR [rsp+72]
	add	rsp, 48					; 00000030H
	pop	rdi
	ret	0
$LN2@selectRegi:
; Line 337
	cmp	rax, 1
	jbe	SHORT $LN3@selectRegi
; File D:\dev\francium_network\francium_agent\src\ext\randomx\repo\src\blake2_generator.cpp
; Line 57
	mov	rcx, QWORD PTR [rdx+64]
	lea	rax, QWORD PTR [rcx+4]
	cmp	rax, 64					; 00000040H
	jbe	SHORT $LN15@selectRegi
; Line 58
	mov	r9d, 64					; 00000040H
	mov	r8, rbx
	mov	edx, r9d
	mov	rcx, rbx
	call	randomx_blake2b
; Line 59
	xor	ecx, ecx
	mov	QWORD PTR [rbx+64], rcx
$LN15@selectRegi:
; Line 51
	mov	edx, DWORD PTR [rcx+rbx]
; Line 52
	lea	rax, QWORD PTR [rcx+4]
	mov	QWORD PTR [rbx+64], rax
; File D:\dev\francium_network\francium_agent\src\ext\randomx\repo\src\superscalar.cpp
; Line 338
	mov	eax, edx
; File D:\software\Visual Studio 2022\VC\Tools\MSVC\14.35.32215\include\vector
; Line 1932
	mov	r9, QWORD PTR [rdi]
; File D:\dev\francium_network\francium_agent\src\ext\randomx\repo\src\superscalar.cpp
; Line 338
	xor	edx, edx
; File D:\software\Visual Studio 2022\VC\Tools\MSVC\14.35.32215\include\vector
; Line 1932
	mov	rcx, QWORD PTR [rdi+8]
	sub	rcx, r9
	sar	rcx, 2
; File D:\dev\francium_network\francium_agent\src\ext\randomx\repo\src\superscalar.cpp
; Line 338
	div	rcx
	mov	rcx, rdx
; Line 339
	jmp	SHORT $LN4@selectRegi
$LN3@selectRegi:
; Line 341
	xor	ecx, ecx
$LN4@selectRegi:
; Line 345
	mov	rbx, QWORD PTR [rsp+64]
	movsxd	rax, ecx
	mov	ecx, DWORD PTR [r9+rax*4]
	mov	al, 1
	mov	DWORD PTR [rsi], ecx
	mov	rsi, QWORD PTR [rsp+72]
	add	rsp, 48					; 00000030H
	pop	rdi
	ret	0
?selectRegister@randomx@@YA_NAEAV?$vector@HV?$allocator@H@std@@@std@@AEAVBlake2Generator@1@AEAH@Z ENDP ; randomx::selectRegister
_TEXT	ENDS
; Function compile flags: /Ogtpy
;	COMDAT ??0RegisterInfo@randomx@@QEAA@XZ
_TEXT	SEGMENT
this$ = 8
??0RegisterInfo@randomx@@QEAA@XZ PROC			; randomx::RegisterInfo::RegisterInfo, COMDAT
; File D:\dev\francium_network\francium_agent\src\ext\randomx\repo\src\superscalar.cpp
; Line 349
	xor	eax, eax
	mov	QWORD PTR [rcx+4], -1
	mov	DWORD PTR [rcx], eax
	mov	DWORD PTR [rcx+12], eax
	mov	rax, rcx
	ret	0
??0RegisterInfo@randomx@@QEAA@XZ ENDP			; randomx::RegisterInfo::RegisterInfo
_TEXT	ENDS
; Function compile flags: /Ogtpy
;	COMDAT ?toInstr@SuperscalarInstruction@randomx@@QEAAXAEAVInstruction@2@@Z
_TEXT	SEGMENT
this$ = 8
instr$ = 16
?toInstr@SuperscalarInstruction@randomx@@QEAAXAEAVInstruction@2@@Z PROC ; randomx::SuperscalarInstruction::toInstr, COMDAT
; File D:\dev\francium_network\francium_agent\src\ext\randomx\repo\src\superscalar.cpp
; Line 360
	mov	rax, QWORD PTR [rcx]
	movzx	r8d, BYTE PTR [rax+8]
	mov	BYTE PTR [rdx], r8b
; Line 361
	movzx	eax, BYTE PTR [rcx+12]
	mov	BYTE PTR [rdx+1], al
; Line 362
	mov	eax, DWORD PTR [rcx+8]
	test	eax, eax
	jns	SHORT $LN4@toInstr
	mov	eax, DWORD PTR [rcx+12]
$LN4@toInstr:
	mov	BYTE PTR [rdx+2], al
; Line 363
	movzx	eax, BYTE PTR [rcx+16]
	mov	BYTE PTR [rdx+3], al
; Line 364
	mov	eax, DWORD PTR [rcx+20]
	mov	DWORD PTR [rdx+4], eax
; Line 365
	ret	0
?toInstr@SuperscalarInstruction@randomx@@QEAAXAEAVInstruction@2@@Z ENDP ; randomx::SuperscalarInstruction::toInstr
_TEXT	ENDS
; Function compile flags: /Ogtpy
;	COMDAT ?createForSlot@SuperscalarInstruction@randomx@@QEAAXAEAVBlake2Generator@2@HH_N1@Z
_TEXT	SEGMENT
this$ = 64
gen$ = 72
slotSize$ = 80
fetchType$ = 88
isLast$ = 96
isFirst$dead$ = 104
?createForSlot@SuperscalarInstruction@randomx@@QEAAXAEAVBlake2Generator@2@HH_N1@Z PROC ; randomx::SuperscalarInstruction::createForSlot, COMDAT
; File D:\dev\francium_network\francium_agent\src\ext\randomx\repo\src\superscalar.cpp
; Line 367
$LN49:
	mov	QWORD PTR [rsp+8], rbx
	mov	QWORD PTR [rsp+16], rsi
	push	rdi
	sub	rsp, 48					; 00000030H
; Line 368
	lea	eax, DWORD PTR [r8-3]
	mov	rdi, rcx
	movsxd	rcx, eax
	lea	rsi, OFFSET FLAT:__ImageBase
	mov	rbx, rdx
	mov	eax, DWORD PTR $LN46@createForS[rsi+rcx*4]
	add	rax, rsi
	jmp	rax
$LN4@createForS:
; Line 372
	cmp	BYTE PTR isLast$[rsp], 0
	mov	r8, QWORD PTR [rdx+64]
	lea	rax, QWORD PTR [r8+1]
	je	SHORT $LN5@createForS
; File D:\dev\francium_network\francium_agent\src\ext\randomx\repo\src\blake2_generator.cpp
; Line 57
	cmp	rax, 64					; 00000040H
	jbe	SHORT $LN39@createForS
; Line 58
	mov	r9d, 64					; 00000040H
	mov	r8, rbx
	mov	edx, r9d
	mov	rcx, rbx
	call	randomx_blake2b
; Line 59
	xor	r8d, r8d
	mov	QWORD PTR [rbx+64], r8
$LN39@createForS:
; Line 46
	movzx	ecx, BYTE PTR [r8+rbx]
	lea	rax, QWORD PTR [r8+1]
	mov	QWORD PTR [rbx+64], rax
; File D:\dev\francium_network\francium_agent\src\ext\randomx\repo\src\superscalar.cpp
; Line 373
	mov	eax, ecx
	and	eax, 3
	mov	rdx, QWORD PTR ?slot_3L@randomx@@3PAPEBVSuperscalarInstructionInfo@1@A[rsi+rax*8]
$LN9@createForS:
; Line 403
	mov	r8, rbx
	mov	rcx, rdi
	mov	rbx, QWORD PTR [rsp+64]
	mov	rsi, QWORD PTR [rsp+72]
	add	rsp, 48					; 00000030H
	pop	rdi
	jmp	?create@SuperscalarInstruction@randomx@@QEAAXPEBVSuperscalarInstructionInfo@2@AEAVBlake2Generator@2@@Z ; randomx::SuperscalarInstruction::create
$LN5@createForS:
; File D:\dev\francium_network\francium_agent\src\ext\randomx\repo\src\blake2_generator.cpp
; Line 57
	cmp	rax, 64					; 00000040H
	jbe	SHORT $LN44@createForS
; Line 58
	mov	r9d, 64					; 00000040H
	mov	r8, rbx
	mov	edx, r9d
	mov	rcx, rbx
	call	randomx_blake2b
; Line 59
	xor	r8d, r8d
	mov	QWORD PTR [rbx+64], r8
$LN44@createForS:
; Line 46
	movzx	ecx, BYTE PTR [r8+rbx]
	lea	rax, QWORD PTR [r8+1]
	mov	QWORD PTR [rbx+64], rax
; File D:\dev\francium_network\francium_agent\src\ext\randomx\repo\src\superscalar.cpp
; Line 376
	mov	eax, ecx
	and	eax, 1
	mov	rdx, QWORD PTR ?slot_3@randomx@@3PAPEBVSuperscalarInstructionInfo@1@A[rsi+rax*8]
; Line 378
	jmp	SHORT $LN9@createForS
$LN7@createForS:
; Line 381
	cmp	r9d, 4
	jne	SHORT $LN8@createForS
	cmp	BYTE PTR isLast$[rsp], 0
	jne	SHORT $LN8@createForS
; Line 382
	lea	rdx, OFFSET FLAT:?IMUL_R@SuperscalarInstructionInfo@randomx@@2V12@B ; randomx::SuperscalarInstructionInfo::IMUL_R
; Line 383
	jmp	SHORT $LN9@createForS
$LN8@createForS:
; File D:\dev\francium_network\francium_agent\src\ext\randomx\repo\src\blake2_generator.cpp
; Line 57
	mov	r8, QWORD PTR [rdx+64]
	lea	rax, QWORD PTR [r8+1]
	cmp	rax, 64					; 00000040H
	jbe	SHORT $LN34@createForS
; Line 58
	mov	r9d, 64					; 00000040H
	mov	r8, rbx
	mov	edx, r9d
	mov	rcx, rbx
	call	randomx_blake2b
; Line 59
	xor	r8d, r8d
	mov	QWORD PTR [rbx+64], r8
$LN34@createForS:
; Line 46
	movzx	edx, BYTE PTR [r8+rbx]
	lea	rax, QWORD PTR [r8+1]
	mov	QWORD PTR [rbx+64], rax
; File D:\dev\francium_network\francium_agent\src\ext\randomx\repo\src\superscalar.cpp
; Line 385
	mov	eax, edx
	and	eax, 1
	mov	rdx, QWORD PTR ?slot_4@randomx@@3PAPEBVSuperscalarInstructionInfo@1@A[rsi+rax*8]
; Line 387
	jmp	$LN9@createForS
$LN10@createForS:
; File D:\dev\francium_network\francium_agent\src\ext\randomx\repo\src\blake2_generator.cpp
; Line 57
	mov	r8, QWORD PTR [rdx+64]
	lea	rax, QWORD PTR [r8+1]
	cmp	rax, 64					; 00000040H
	jbe	SHORT $LN19@createForS
; Line 58
	mov	r9d, 64					; 00000040H
	mov	r8, rbx
	mov	edx, r9d
	mov	rcx, rbx
	call	randomx_blake2b
; Line 59
	xor	r8d, r8d
	mov	QWORD PTR [rbx+64], r8
$LN19@createForS:
; Line 46
	movzx	edx, BYTE PTR [r8+rbx]
	lea	rax, QWORD PTR [r8+1]
; File D:\dev\francium_network\francium_agent\src\ext\randomx\repo\src\superscalar.cpp
; Line 389
	and	edx, 1
; File D:\dev\francium_network\francium_agent\src\ext\randomx\repo\src\blake2_generator.cpp
; Line 46
	mov	QWORD PTR [rbx+64], rax
; File D:\dev\francium_network\francium_agent\src\ext\randomx\repo\src\superscalar.cpp
; Line 389
	mov	rdx, QWORD PTR ?slot_7@randomx@@3PAPEBVSuperscalarInstructionInfo@1@A[rsi+rdx*8]
; Line 390
	jmp	$LN9@createForS
$LN11@createForS:
; File D:\dev\francium_network\francium_agent\src\ext\randomx\repo\src\blake2_generator.cpp
; Line 57
	mov	r8, QWORD PTR [rdx+64]
	lea	rax, QWORD PTR [r8+1]
	cmp	rax, 64					; 00000040H
	jbe	SHORT $LN24@createForS
; Line 58
	mov	r9d, 64					; 00000040H
	mov	r8, rbx
	mov	edx, r9d
	mov	rcx, rbx
	call	randomx_blake2b
; Line 59
	xor	r8d, r8d
	mov	QWORD PTR [rbx+64], r8
$LN24@createForS:
; Line 46
	movzx	edx, BYTE PTR [r8+rbx]
	lea	rax, QWORD PTR [r8+1]
; File D:\dev\francium_network\francium_agent\src\ext\randomx\repo\src\superscalar.cpp
; Line 392
	and	edx, 1
; File D:\dev\francium_network\francium_agent\src\ext\randomx\repo\src\blake2_generator.cpp
; Line 46
	mov	QWORD PTR [rbx+64], rax
; File D:\dev\francium_network\francium_agent\src\ext\randomx\repo\src\superscalar.cpp
; Line 392
	mov	rdx, QWORD PTR ?slot_8@randomx@@3PAPEBVSuperscalarInstructionInfo@1@A[rsi+rdx*8]
; Line 393
	jmp	$LN9@createForS
$LN12@createForS:
; File D:\dev\francium_network\francium_agent\src\ext\randomx\repo\src\blake2_generator.cpp
; Line 57
	mov	r8, QWORD PTR [rdx+64]
	lea	rax, QWORD PTR [r8+1]
	cmp	rax, 64					; 00000040H
	jbe	SHORT $LN29@createForS
; Line 58
	mov	r9d, 64					; 00000040H
	mov	r8, rbx
	mov	edx, r9d
	mov	rcx, rbx
	call	randomx_blake2b
; Line 59
	xor	r8d, r8d
	mov	QWORD PTR [rbx+64], r8
$LN29@createForS:
; Line 46
	movzx	edx, BYTE PTR [r8+rbx]
	lea	rax, QWORD PTR [r8+1]
; File D:\dev\francium_network\francium_agent\src\ext\randomx\repo\src\superscalar.cpp
; Line 395
	and	edx, 1
; File D:\dev\francium_network\francium_agent\src\ext\randomx\repo\src\blake2_generator.cpp
; Line 46
	mov	QWORD PTR [rbx+64], rax
; File D:\dev\francium_network\francium_agent\src\ext\randomx\repo\src\superscalar.cpp
; Line 395
	mov	rdx, QWORD PTR ?slot_9@randomx@@3PAPEBVSuperscalarInstructionInfo@1@A[rsi+rdx*8]
; Line 396
	jmp	$LN9@createForS
$LN13@createForS:
; Line 398
	lea	rdx, OFFSET FLAT:?IMUL_RCP@SuperscalarInstructionInfo@randomx@@2V12@B ; randomx::SuperscalarInstructionInfo::IMUL_RCP
; Line 399
	jmp	$LN9@createForS
$LN14@createForS:
; Line 401
$LN47@createForS:
$LN46@createForS:
; Line 403
	DD	$LN4@createForS
	DD	$LN7@createForS
	DD	0
	DD	0
	DD	$LN10@createForS
	DD	$LN11@createForS
	DD	$LN12@createForS
	DD	$LN13@createForS
?createForSlot@SuperscalarInstruction@randomx@@QEAAXAEAVBlake2Generator@2@HH_N1@Z ENDP ; randomx::SuperscalarInstruction::createForSlot
_TEXT	ENDS
; Function compile flags: /Ogtpy
;	COMDAT ?create@SuperscalarInstruction@randomx@@QEAAXPEBVSuperscalarInstructionInfo@2@AEAVBlake2Generator@2@@Z
_TEXT	SEGMENT
this$ = 64
info$ = 72
gen$ = 80
?create@SuperscalarInstruction@randomx@@QEAAXPEBVSuperscalarInstructionInfo@2@AEAVBlake2Generator@2@@Z PROC ; randomx::SuperscalarInstruction::create, COMDAT
; File D:\dev\francium_network\francium_agent\src\ext\randomx\repo\src\superscalar.cpp
; Line 405
$LN77:
	mov	QWORD PTR [rsp+16], rbx
	push	rdi
	sub	rsp, 48					; 00000030H
; Line 406
	mov	QWORD PTR [rcx], rdx
	mov	rdi, r8
; Line 572
	mov	QWORD PTR [rcx+8], -1
; Line 405
	mov	rbx, rcx
; Line 573
	mov	WORD PTR [rcx+32], 0
; Line 408
	movsxd	rax, DWORD PTR [rdx+8]
	cmp	eax, 13
	ja	$LN24@create
	lea	rdx, OFFSET FLAT:__ImageBase
	mov	QWORD PTR [rsp+64], rsi
	mov	ecx, DWORD PTR $LN71@create[rdx+rax*4]
	add	rcx, rdx
	jmp	rcx
$LN10@create:
; Line 411
	xor	esi, esi
; Line 413
	mov	DWORD PTR [rbx+24], 2
	mov	QWORD PTR [rbx+16], rsi
	mov	rsi, QWORD PTR [rsp+64]
; Line 414
	mov	BYTE PTR [rbx+33], 1
; Line 493
	mov	rbx, QWORD PTR [rsp+72]
	add	rsp, 48					; 00000030H
	pop	rdi
	ret	0
$LN11@create:
; Line 418
	xor	esi, esi
; Line 420
	mov	DWORD PTR [rbx+24], 1
	mov	QWORD PTR [rbx+16], rsi
	mov	rsi, QWORD PTR [rsp+64]
; Line 421
	mov	BYTE PTR [rbx+33], 1
; Line 493
	mov	rbx, QWORD PTR [rsp+72]
	add	rsp, 48					; 00000030H
	pop	rdi
	ret	0
$LN12@create:
; File D:\dev\francium_network\francium_agent\src\ext\randomx\repo\src\blake2_generator.cpp
; Line 57
	mov	rdx, QWORD PTR [r8+64]
	xor	esi, esi
	lea	rax, QWORD PTR [rdx+1]
	cmp	rax, 64					; 00000040H
	jbe	SHORT $LN53@create
; Line 58
	mov	edx, 64					; 00000040H
	mov	rcx, rdi
	mov	r9d, edx
	call	randomx_blake2b
; Line 59
	mov	edx, esi
	mov	QWORD PTR [rdi+64], rsi
$LN53@create:
; Line 46
	movzx	ecx, BYTE PTR [rdx+rdi]
	lea	rax, QWORD PTR [rdx+1]
	mov	QWORD PTR [rdi+64], rax
; File D:\dev\francium_network\francium_agent\src\ext\randomx\repo\src\superscalar.cpp
; Line 426
	mov	DWORD PTR [rbx+20], esi
	mov	rsi, QWORD PTR [rsp+64]
	mov	DWORD PTR [rbx+16], ecx
; Line 427
	mov	DWORD PTR [rbx+24], 2
; Line 428
	mov	BYTE PTR [rbx+33], 1
; Line 493
	mov	rbx, QWORD PTR [rsp+72]
	add	rsp, 48					; 00000030H
	pop	rdi
	ret	0
$LN13@create:
; Line 432
	xor	esi, esi
; Line 434
	mov	DWORD PTR [rbx+24], 3
	mov	QWORD PTR [rbx+16], rsi
	mov	rsi, QWORD PTR [rsp+64]
; Line 435
	mov	BYTE PTR [rbx+33], 1
; Line 493
	mov	rbx, QWORD PTR [rsp+72]
	add	rsp, 48					; 00000030H
	pop	rdi
	ret	0
$LN14@create:
; Line 439
	xor	esi, esi
	mov	DWORD PTR [rbx+16], esi
$LL6@create:
; File D:\dev\francium_network\francium_agent\src\ext\randomx\repo\src\blake2_generator.cpp
; Line 57
	mov	rdx, QWORD PTR [rdi+64]
	lea	rax, QWORD PTR [rdx+1]
	cmp	rax, 64					; 00000040H
	jbe	SHORT $LN31@create
; Line 58
	mov	r9d, 64					; 00000040H
	mov	r8, rdi
	mov	edx, r9d
	mov	rcx, rdi
	call	randomx_blake2b
; Line 59
	mov	rdx, rsi
	mov	QWORD PTR [rdi+64], rsi
$LN31@create:
; Line 46
	movzx	ecx, BYTE PTR [rdx+rdi]
	lea	rax, QWORD PTR [rdx+1]
; File D:\dev\francium_network\francium_agent\src\ext\randomx\repo\src\superscalar.cpp
; Line 441
	and	ecx, 63					; 0000003fH
; File D:\dev\francium_network\francium_agent\src\ext\randomx\repo\src\blake2_generator.cpp
; Line 46
	mov	QWORD PTR [rdi+64], rax
; File D:\dev\francium_network\francium_agent\src\ext\randomx\repo\src\superscalar.cpp
; Line 441
	mov	DWORD PTR [rbx+20], ecx
; Line 442
	je	SHORT $LL6@create
; Line 443
	mov	DWORD PTR [rbx+24], 4
; Line 445
	jmp	$LN73@create
$LN15@create:
; Line 450
	xor	esi, esi
	mov	DWORD PTR [rbx+16], esi
; File D:\dev\francium_network\francium_agent\src\ext\randomx\repo\src\blake2_generator.cpp
; Line 57
	mov	rdx, QWORD PTR [r8+64]
	lea	rax, QWORD PTR [rdx+4]
	cmp	rax, 64					; 00000040H
	jbe	SHORT $LN43@create
; Line 58
	mov	edx, 64					; 00000040H
	mov	rcx, rdi
	mov	r9d, edx
	call	randomx_blake2b
; Line 59
	mov	edx, esi
	mov	QWORD PTR [rdi+64], rsi
$LN43@create:
; Line 51
	mov	ecx, DWORD PTR [rdx+rdi]
; Line 52
	lea	rax, QWORD PTR [rdx+4]
	mov	QWORD PTR [rdi+64], rax
; File D:\dev\francium_network\francium_agent\src\ext\randomx\repo\src\superscalar.cpp
; Line 451
	mov	DWORD PTR [rbx+20], ecx
; Line 452
	mov	DWORD PTR [rbx+24], 5
; Line 454
	jmp	$LN73@create
$LN18@create:
; Line 459
	xor	esi, esi
	mov	DWORD PTR [rbx+16], esi
; File D:\dev\francium_network\francium_agent\src\ext\randomx\repo\src\blake2_generator.cpp
; Line 57
	mov	rdx, QWORD PTR [r8+64]
	lea	rax, QWORD PTR [rdx+4]
	cmp	rax, 64					; 00000040H
	jbe	SHORT $LN48@create
; Line 58
	mov	edx, 64					; 00000040H
	mov	rcx, rdi
	mov	r9d, edx
	call	randomx_blake2b
; Line 59
	mov	edx, esi
	mov	QWORD PTR [rdi+64], rsi
$LN48@create:
; Line 51
	mov	ecx, DWORD PTR [rdx+rdi]
; Line 52
	lea	rax, QWORD PTR [rdx+4]
	mov	QWORD PTR [rdi+64], rax
; File D:\dev\francium_network\francium_agent\src\ext\randomx\repo\src\superscalar.cpp
; Line 460
	mov	DWORD PTR [rbx+20], ecx
; Line 461
	mov	DWORD PTR [rbx+24], 6
; Line 463
	jmp	$LN73@create
$LN21@create:
; Line 469
	mov	DWORD PTR [rbx+24], 11
; Line 471
	jmp	SHORT $LN75@create
$LN22@create:
; Line 477
	mov	DWORD PTR [rbx+24], 12
$LN75@create:
; File D:\dev\francium_network\francium_agent\src\ext\randomx\repo\src\blake2_generator.cpp
; Line 57
	xor	esi, esi
	mov	BYTE PTR [rbx+32], 1
	mov	QWORD PTR [rbx+16], rsi
	mov	rdx, QWORD PTR [r8+64]
	lea	rax, QWORD PTR [rdx+4]
	cmp	rax, 64					; 00000040H
	jbe	SHORT $LN63@create
; Line 58
	mov	edx, 64					; 00000040H
	mov	rcx, rdi
	mov	r9d, edx
	call	randomx_blake2b
; Line 59
	mov	edx, esi
	mov	QWORD PTR [rdi+64], rsi
$LN63@create:
; Line 51
	mov	ecx, DWORD PTR [rdx+rdi]
; Line 52
	lea	rax, QWORD PTR [rdx+4]
	mov	rsi, QWORD PTR [rsp+64]
	mov	QWORD PTR [rdi+64], rax
