; Listing generated by Microsoft (R) Optimizing Compiler Version 19.35.32216.1 

include listing.inc

INCLUDELIB OLDNAMES

PUBLIC	??_C@_0BB@EANJDCJP@OpenProcessToken@		; `string'
PUBLIC	??_C@_0BF@CEKDDBJL@LookupPrivilegeValue@	; `string'
PUBLIC	??_C@_0BG@CGCLCMLG@AdjustTokenPrivileges@	; `string'
PUBLIC	??_C@_0M@JHJNLFGC@CloseHandle@			; `string'
PUBLIC	??_C@_0CA@IJDFKAKK@allocMemoryPages?5?9?5VirtualAlloc@ ; `string'
PUBLIC	??_C@_0P@IGDMCLEE@VirtualProtect@		; `string'
PUBLIC	??_C@_0BG@OCFLNMAB@SeLockMemoryPrivilege@	; `string'
PUBLIC	??_C@_0DG@JMLLHEOG@allocLargePagesMemory?5?9?5Large?5p@ ; `string'
PUBLIC	??_C@_0CF@CIKJHCAI@allocLargePagesMemory?5?9?5Virtual@ ; `string'
PUBLIC	_TI2?AVruntime_error@std@@
PUBLIC	_CTA2?AVruntime_error@std@@
EXTRN	__imp_AdjustTokenPrivileges:PROC
EXTRN	__imp_FormatMessageA:PROC
EXTRN	__imp_LocalFree:PROC
EXTRN	__imp_LookupPrivilegeValueA:PROC
EXTRN	__imp_CloseHandle:PROC
EXTRN	__imp_GetLastError:PROC
EXTRN	__imp_OpenProcessToken:PROC
EXTRN	__imp_GetLargePageMinimum:PROC
EXTRN	__imp_VirtualAlloc:PROC
EXTRN	__imp_VirtualFree:PROC
EXTRN	__imp_VirtualProtect:PROC
;	COMDAT _CTA2?AVruntime_error@std@@
xdata$x	SEGMENT
_CTA2?AVruntime_error@std@@ DD 02H
	DD	imagerel _CT??_R0?AVruntime_error@std@@@8??0runtime_error@std@@QEAA@AEBV01@@Z24
	DD	imagerel _CT??_R0?AVexception@std@@@8??0exception@std@@QEAA@AEBV01@@Z24
xdata$x	ENDS
;	COMDAT _TI2?AVruntime_error@std@@
xdata$x	SEGMENT
_TI2?AVruntime_error@std@@ DD 00H
	DD	imagerel ??1runtime_error@std@@UEAA@XZ
	DD	00H
	DD	imagerel _CTA2?AVruntime_error@std@@
xdata$x	ENDS
;	COMDAT ??_C@_0CF@CIKJHCAI@allocLargePagesMemory?5?9?5Virtual@
CONST	SEGMENT
??_C@_0CF@CIKJHCAI@allocLargePagesMemory?5?9?5Virtual@ DB 'allocLargePage'
	DB	'sMemory - VirtualAlloc', 00H		; `string'
CONST	ENDS
;	COMDAT ??_C@_0DG@JMLLHEOG@allocLargePagesMemory?5?9?5Large?5p@
CONST	SEGMENT
??_C@_0DG@JMLLHEOG@allocLargePagesMemory?5?9?5Large?5p@ DB 'allocLargePag'
	DB	'esMemory - Large pages are not supported', 00H ; `string'
CONST	ENDS
;	COMDAT ??_C@_0BG@OCFLNMAB@SeLockMemoryPrivilege@
CONST	SEGMENT
??_C@_0BG@OCFLNMAB@SeLockMemoryPrivilege@ DB 'SeLockMemoryPrivilege', 00H ; `string'
CONST	ENDS
;	COMDAT ??_C@_0P@IGDMCLEE@VirtualProtect@
CONST	SEGMENT
??_C@_0P@IGDMCLEE@VirtualProtect@ DB 'VirtualProtect', 00H ; `string'
CONST	ENDS
;	COMDAT ??_C@_0CA@IJDFKAKK@allocMemoryPages?5?9?5VirtualAlloc@
CONST	SEGMENT
??_C@_0CA@IJDFKAKK@allocMemoryPages?5?9?5VirtualAlloc@ DB 'allocMemoryPag'
	DB	'es - VirtualAlloc', 00H			; `string'
CONST	ENDS
;	COMDAT ??_C@_0M@JHJNLFGC@CloseHandle@
CONST	SEGMENT
??_C@_0M@JHJNLFGC@CloseHandle@ DB 'CloseHandle', 00H	; `string'
CONST	ENDS
;	COMDAT ??_C@_0BG@CGCLCMLG@AdjustTokenPrivileges@
CONST	SEGMENT
??_C@_0BG@CGCLCMLG@AdjustTokenPrivileges@ DB 'AdjustTokenPrivileges', 00H ; `string'
CONST	ENDS
;	COMDAT ??_C@_0BF@CEKDDBJL@LookupPrivilegeValue@
CONST	SEGMENT
??_C@_0BF@CEKDDBJL@LookupPrivilegeValue@ DB 'LookupPrivilegeValue', 00H ; `string'
CONST	ENDS
;	COMDAT ??_C@_0BB@EANJDCJP@OpenProcessToken@
CONST	SEGMENT
??_C@_0BB@EANJDCJP@OpenProcessToken@ DB 'OpenProcessToken', 00H ; `string'
?_Fake_alloc@std@@3U_Fake_allocator@1@B	ORG $+1		; std::_Fake_alloc
PUBLIC	??$forward@AEAV?$allocator@D@std@@@std@@YAAEAV?$allocator@D@0@AEAV10@@Z ; std::forward<std::allocator<char> &>
PUBLIC	??$_Allocators_equal@V?$allocator@D@std@@@std@@YA_NAEBV?$allocator@D@0@0@Z ; std::_Allocators_equal<std::allocator<char> >
PUBLIC	??$?0AEAV?$allocator@D@std@@$$V@?$_Compressed_pair@V?$allocator@D@std@@V?$_String_val@U?$_Simple_types@D@std@@@2@$00@std@@QEAA@U_One_then_variadic_args_t@1@AEAV?$allocator@D@1@@Z ; std::_Compressed_pair<std::allocator<char>,std::_String_val<std::_Simple_types<char> >,1>::_Compressed_pair<std::allocator<char>,std::_String_val<std::_Simple_types<char> >,1><std::allocator<char> &>
PUBLIC	??0?$basic_string@DU?$char_traits@D@std@@V?$allocator@D@2@@std@@QEAA@U_String_constructor_concat_tag@1@AEAV01@1@Z ; std::basic_string<char,std::char_traits<char>,std::allocator<char> >::basic_string<char,std::char_traits<char>,std::allocator<char> >
PUBLIC	??$?HDU?$char_traits@D@std@@V?$allocator@D@1@@std@@YA?AV?$basic_string@DU?$char_traits@D@std@@V?$allocator@D@2@@0@$$QEAV10@0@Z ; std::operator+<char,std::char_traits<char>,std::allocator<char> >
PUBLIC	??$?HDU?$char_traits@D@std@@V?$allocator@D@1@@std@@YA?AV?$basic_string@DU?$char_traits@D@std@@V?$allocator@D@2@@0@$$QEAV10@AEBV10@@Z ; std::operator+<char,std::char_traits<char>,std::allocator<char> >
PUBLIC	?setPrivilege@@YAXPEBDH@Z			; setPrivilege
PUBLIC	?getErrorMessage@@YA?AV?$basic_string@DU?$char_traits@D@std@@V?$allocator@D@2@@std@@PEBD@Z ; getErrorMessage
PUBLIC	??0runtime_error@std@@QEAA@PEBD@Z		; std::runtime_error::runtime_error
PUBLIC	?alignSize@@YA_K_K0@Z				; alignSize
PUBLIC	?setPagesRWX@@YAXPEAX_K@Z			; setPagesRWX
PUBLIC	?setPagesRX@@YAXPEAX_K@Z			; setPagesRX
PUBLIC	?setPagesRW@@YAXPEAX_K@Z			; setPagesRW
PUBLIC	?allocMemoryPages@@YAPEAX_K@Z			; allocMemoryPages
PUBLIC	?allocLargePagesMemory@@YAPEAX_K@Z		; allocLargePagesMemory
PUBLIC	?freePagedMemory@@YAXPEAX_K@Z			; freePagedMemory
;	COMDAT pdata
pdata	SEGMENT
$pdata$??0?$basic_string@DU?$char_traits@D@std@@V?$allocator@D@2@@std@@QEAA@U_String_constructor_concat_tag@1@AEAV01@1@Z DD imagerel $LN115
	DD	imagerel $LN115+492
	DD	imagerel $unwind$??0?$basic_string@DU?$char_traits@D@std@@V?$allocator@D@2@@std@@QEAA@U_String_constructor_concat_tag@1@AEAV01@1@Z
pdata	ENDS
;	COMDAT pdata
pdata	SEGMENT
$pdata$??$?HDU?$char_traits@D@std@@V?$allocator@D@1@@std@@YA?AV?$basic_string@DU?$char_traits@D@std@@V?$allocator@D@2@@0@$$QEAV10@0@Z DD imagerel $LN7
	DD	imagerel $LN7+29
	DD	imagerel $unwind$??$?HDU?$char_traits@D@std@@V?$allocator@D@1@@std@@YA?AV?$basic_string@DU?$char_traits@D@std@@V?$allocator@D@2@@0@$$QEAV10@0@Z
pdata	ENDS
;	COMDAT pdata
pdata	SEGMENT
$pdata$??$?HDU?$char_traits@D@std@@V?$allocator@D@1@@std@@YA?AV?$basic_string@DU?$char_traits@D@std@@V?$allocator@D@2@@0@$$QEAV10@AEBV10@@Z DD imagerel $LN39
	DD	imagerel $LN39+100
	DD	imagerel $unwind$??$?HDU?$char_traits@D@std@@V?$allocator@D@1@@std@@YA?AV?$basic_string@DU?$char_traits@D@std@@V?$allocator@D@2@@0@$$QEAV10@AEBV10@@Z
pdata	ENDS
;	COMDAT pdata
pdata	SEGMENT
$pdata$?pageProtect@@YAXPEAX_KH@Z DD imagerel ?pageProtect@@YAXPEAX_KH@Z
	DD	imagerel ?pageProtect@@YAXPEAX_KH@Z+106
	DD	imagerel $unwind$?pageProtect@@YAXPEAX_KH@Z
pdata	ENDS
;	COMDAT pdata
pdata	SEGMENT
$pdata$?setPrivilege@@YAXPEBDH@Z DD imagerel $LN32
	DD	imagerel $LN32+393
	DD	imagerel $unwind$?setPrivilege@@YAXPEBDH@Z
pdata	ENDS
;	COMDAT pdata
pdata	SEGMENT
$pdata$?getErrorMessage@@YA?AV?$basic_string@DU?$char_traits@D@std@@V?$allocator@D@2@@std@@PEBD@Z DD imagerel $LN200
	DD	imagerel $LN200+612
	DD	imagerel $unwind$?getErrorMessage@@YA?AV?$basic_string@DU?$char_traits@D@std@@V?$allocator@D@2@@std@@PEBD@Z
pdata	ENDS
;	COMDAT pdata
pdata	SEGMENT
$pdata$??0runtime_error@std@@QEAA@PEBD@Z DD imagerel $LN7
	DD	imagerel $LN7+99
	DD	imagerel $unwind$??0runtime_error@std@@QEAA@PEBD@Z
pdata	ENDS
;	COMDAT pdata
pdata	SEGMENT
$pdata$?setPagesRWX@@YAXPEAX_K@Z DD imagerel $LN15
	DD	imagerel $LN15+112
	DD	imagerel $unwind$?setPagesRWX@@YAXPEAX_K@Z
pdata	ENDS
;	COMDAT pdata
pdata	SEGMENT
$pdata$?setPagesRX@@YAXPEAX_K@Z DD imagerel $LN15
	DD	imagerel $LN15+112
	DD	imagerel $unwind$?setPagesRX@@YAXPEAX_K@Z
pdata	ENDS
;	COMDAT pdata
pdata	SEGMENT
$pdata$?setPagesRW@@YAXPEAX_K@Z DD imagerel $LN15
	DD	imagerel $LN15+112
	DD	imagerel $unwind$?setPagesRW@@YAXPEAX_K@Z
pdata	ENDS
;	COMDAT pdata
pdata	SEGMENT
$pdata$?allocMemoryPages@@YAPEAX_K@Z DD imagerel $LN12
	DD	imagerel $LN12+116
	DD	imagerel $unwind$?allocMemoryPages@@YAPEAX_K@Z
pdata	ENDS
;	COMDAT pdata
pdata	SEGMENT
$pdata$?allocLargePagesMemory@@YAPEAX_K@Z DD imagerel $LN45
	DD	imagerel $LN45+536
	DD	imagerel $unwind$?allocLargePagesMemory@@YAPEAX_K@Z
;	COMDAT xdata
xdata	SEGMENT
$ip2state$?allocLargePagesMemory@@YAPEAX_K@Z DB 016H
	DB	0ddH, 03H
	DB	00H
	DB	'V'
	DB	02H
	DB	':'
	DB	00H
	DB	'"'
	DB	02H
	DB	':'
	DB	00H
	DB	'"'
	DB	02H
	DB	':'
	DB	00H
	DB	'"'
	DB	02H
	DB	':'
	DB	00H
	DB	'"'
	DB	02H
	DB	':'
	DB	00H
xdata	ENDS
;	COMDAT xdata
xdata	SEGMENT
$stateUnwindMap$?allocLargePagesMemory@@YAPEAX_K@Z DB 02H
	DB	0aH
	DD	imagerel ??1?$basic_string@DU?$char_traits@D@std@@V?$allocator@D@2@@std@@QEAA@XZ
	DB	0c0H
xdata	ENDS
;	COMDAT xdata
xdata	SEGMENT
$cppxdata$?allocLargePagesMemory@@YAPEAX_K@Z DB 028H
	DD	imagerel $stateUnwindMap$?allocLargePagesMemory@@YAPEAX_K@Z
	DD	imagerel $ip2state$?allocLargePagesMemory@@YAPEAX_K@Z
xdata	ENDS
;	COMDAT xdata
xdata	SEGMENT
$unwind$?allocLargePagesMemory@@YAPEAX_K@Z DD 072519H
	DD	0167417H
	DD	0153417H
	DD	0120117H
	DD	0500bH
	DD	imagerel __GSHandlerCheck_EH4
	DD	imagerel $cppxdata$?allocLargePagesMemory@@YAPEAX_K@Z
	DD	082H
xdata	ENDS
;	COMDAT xdata
xdata	SEGMENT
$ip2state$?allocMemoryPages@@YAPEAX_K@Z DB 04H
	DB	'r'
	DB	00H
	DB	'8'
	DB	02H
xdata	ENDS
;	COMDAT xdata
xdata	SEGMENT
$stateUnwindMap$?allocMemoryPages@@YAPEAX_K@Z DB 02H
	DB	0aH
	DD	imagerel ??1?$basic_string@DU?$char_traits@D@std@@V?$allocator@D@2@@std@@QEAA@XZ
	DB	070H
xdata	ENDS
;	COMDAT xdata
xdata	SEGMENT
$cppxdata$?allocMemoryPages@@YAPEAX_K@Z DB 028H
	DD	imagerel $stateUnwindMap$?allocMemoryPages@@YAPEAX_K@Z
	DD	imagerel $ip2state$?allocMemoryPages@@YAPEAX_K@Z
xdata	ENDS
;	COMDAT xdata
xdata	SEGMENT
$unwind$?allocMemoryPages@@YAPEAX_K@Z DD 011319H
	DD	0c204H
	DD	imagerel __GSHandlerCheck_EH4
	DD	imagerel $cppxdata$?allocMemoryPages@@YAPEAX_K@Z
	DD	05aH
xdata	ENDS
;	COMDAT xdata
xdata	SEGMENT
$ip2state$?setPagesRW@@YAXPEAX_K@Z DB 04H
	DB	'j'
	DB	00H
	DB	'8'
	DB	02H
xdata	ENDS
;	COMDAT xdata
xdata	SEGMENT
$stateUnwindMap$?setPagesRW@@YAXPEAX_K@Z DB 02H
	DB	0aH
	DD	imagerel ??1?$basic_string@DU?$char_traits@D@std@@V?$allocator@D@2@@std@@QEAA@XZ
	DB	080H
xdata	ENDS
;	COMDAT xdata
xdata	SEGMENT
$cppxdata$?setPagesRW@@YAXPEAX_K@Z DB 028H
	DD	imagerel $stateUnwindMap$?setPagesRW@@YAXPEAX_K@Z
	DD	imagerel $ip2state$?setPagesRW@@YAXPEAX_K@Z
xdata	ENDS
;	COMDAT xdata
xdata	SEGMENT
$unwind$?setPagesRW@@YAXPEAX_K@Z DD 011319H
	DD	0e204H
	DD	imagerel __GSHandlerCheck_EH4
	DD	imagerel $cppxdata$?setPagesRW@@YAXPEAX_K@Z
	DD	062H
xdata	ENDS
;	COMDAT xdata
xdata	SEGMENT
$ip2state$?setPagesRX@@YAXPEAX_K@Z DB 04H
	DB	'j'
	DB	00H
	DB	'8'
	DB	02H
xdata	ENDS
;	COMDAT xdata
xdata	SEGMENT
$stateUnwindMap$?setPagesRX@@YAXPEAX_K@Z DB 02H
	DB	0aH
	DD	imagerel ??1?$basic_string@DU?$char_traits@D@std@@V?$allocator@D@2@@std@@QEAA@XZ
	DB	080H
xdata	ENDS
;	COMDAT xdata
xdata	SEGMENT
$cppxdata$?setPagesRX@@YAXPEAX_K@Z DB 028H
	DD	imagerel $stateUnwindMap$?setPagesRX@@YAXPEAX_K@Z
	DD	imagerel $ip2state$?setPagesRX@@YAXPEAX_K@Z
xdata	ENDS
;	COMDAT xdata
xdata	SEGMENT
$unwind$?setPagesRX@@YAXPEAX_K@Z DD 011319H
	DD	0e204H
	DD	imagerel __GSHandlerCheck_EH4
	DD	imagerel $cppxdata$?setPagesRX@@YAXPEAX_K@Z
	DD	062H
xdata	ENDS
;	COMDAT xdata
xdata	SEGMENT
$ip2state$?setPagesRWX@@YAXPEAX_K@Z DB 04H
	DB	'j'
	DB	00H
	DB	'8'
	DB	02H
xdata	ENDS
;	COMDAT xdata
xdata	SEGMENT
$stateUnwindMap$?setPagesRWX@@YAXPEAX_K@Z DB 02H
	DB	0aH
	DD	imagerel ??1?$basic_string@DU?$char_traits@D@std@@V?$allocator@D@2@@std@@QEAA@XZ
	DB	080H
xdata	ENDS
;	COMDAT xdata
xdata	SEGMENT
$cppxdata$?setPagesRWX@@YAXPEAX_K@Z DB 028H
	DD	imagerel $stateUnwindMap$?setPagesRWX@@YAXPEAX_K@Z
	DD	imagerel $ip2state$?setPagesRWX@@YAXPEAX_K@Z
xdata	ENDS
;	COMDAT xdata
xdata	SEGMENT
$unwind$?setPagesRWX@@YAXPEAX_K@Z DD 011319H
	DD	0e204H
	DD	imagerel __GSHandlerCheck_EH4
	DD	imagerel $cppxdata$?setPagesRWX@@YAXPEAX_K@Z
	DD	062H
xdata	ENDS
;	COMDAT xdata
xdata	SEGMENT
$unwind$??0runtime_error@std@@QEAA@PEBD@Z DD 021519H
	DD	030027206H
	DD	imagerel __GSHandlerCheck
	DD	030H
xdata	ENDS
;	COMDAT xdata
xdata	SEGMENT
$ip2state$?getErrorMessage@@YA?AV?$basic_string@DU?$char_traits@D@std@@V?$allocator@D@2@@std@@PEBD@Z DB 0cH
	DB	0f4H
	DB	00H
	DB	'\'
	DB	02H
	DB	'Z'
	DB	04H
	DB	'$'
	DB	06H
	DB	'8'
	DB	08H
	DB	0c5H, 04H
	DB	00H
xdata	ENDS
;	COMDAT xdata
xdata	SEGMENT
$stateUnwindMap$?getErrorMessage@@YA?AV?$basic_string@DU?$char_traits@D@std@@V?$allocator@D@2@@std@@PEBD@Z DB 08H
	DB	0aH
	DD	imagerel ??1?$basic_string@DU?$char_traits@D@std@@V?$allocator@D@2@@std@@QEAA@XZ
	DB	0a0H
	DB	032H
	DD	imagerel ??1?$basic_string@DU?$char_traits@D@std@@V?$allocator@D@2@@std@@QEAA@XZ
	DB	0c1H
	DB	02H
	DB	03aH
	DD	imagerel ??1?$basic_string@DU?$char_traits@D@std@@V?$allocator@D@2@@std@@QEAA@XZ
	DB	041H
	DB	02H
	DB	03aH
	DD	imagerel ??1?$basic_string@DU?$char_traits@D@std@@V?$allocator@D@2@@std@@QEAA@XZ
	DB	0e0H
xdata	ENDS
;	COMDAT xdata
xdata	SEGMENT
$cppxdata$?getErrorMessage@@YA?AV?$basic_string@DU?$char_traits@D@std@@V?$allocator@D@2@@std@@PEBD@Z DB 028H
	DD	imagerel $stateUnwindMap$?getErrorMessage@@YA?AV?$basic_string@DU?$char_traits@D@std@@V?$allocator@D@2@@std@@PEBD@Z
	DD	imagerel $ip2state$?getErrorMessage@@YA?AV?$basic_string@DU?$char_traits@D@std@@V?$allocator@D@2@@std@@PEBD@Z
xdata	ENDS
;	COMDAT xdata
xdata	SEGMENT
$unwind$?getErrorMessage@@YA?AV?$basic_string@DU?$char_traits@D@std@@V?$allocator@D@2@@std@@PEBD@Z DD 072219H
	DD	0223414H
	DD	01c0114H
	DD	060077008H
	DD	05006H
	DD	imagerel __GSHandlerCheck_EH4
	DD	imagerel $cppxdata$?getErrorMessage@@YA?AV?$basic_string@DU?$char_traits@D@std@@V?$allocator@D@2@@std@@PEBD@Z
	DD	0d2H
xdata	ENDS
;	COMDAT xdata
xdata	SEGMENT
$ip2state$?setPrivilege@@YAXPEBDH@Z DB 010H
	DB	0ddH, 02H
	DB	00H
	DB	'@'
	DB	02H
	DB	'>'
	DB	00H
	DB	'$'
	DB	02H
	DB	'>'
	DB	00H
	DB	'$'
	DB	02H
	DB	'>'
	DB	00H
	DB	'$'
	DB	02H
xdata	ENDS
;	COMDAT xdata
xdata	SEGMENT
$stateUnwindMap$?setPrivilege@@YAXPEBDH@Z DB 02H
	DB	0aH
	DD	imagerel ??1?$basic_string@DU?$char_traits@D@std@@V?$allocator@D@2@@std@@QEAA@XZ
	DB	0c0H
xdata	ENDS
;	COMDAT xdata
xdata	SEGMENT
$cppxdata$?setPrivilege@@YAXPEBDH@Z DB 028H
	DD	imagerel $stateUnwindMap$?setPrivilege@@YAXPEBDH@Z
	DD	imagerel $ip2state$?setPrivilege@@YAXPEBDH@Z
xdata	ENDS
;	COMDAT xdata
xdata	SEGMENT
$unwind$?setPrivilege@@YAXPEBDH@Z DD 031b19H
	DD	0120109H
	DD	03002H
	DD	imagerel __GSHandlerCheck_EH4
	DD	imagerel $cppxdata$?setPrivilege@@YAXPEBDH@Z
	DD	082H
xdata	ENDS
;	COMDAT xdata
xdata	SEGMENT
$ip2state$?pageProtect@@YAXPEAX_KH@Z DB 04H
	DB	'^'
	DB	00H
	DB	'8'
	DB	02H
xdata	ENDS
;	COMDAT xdata
xdata	SEGMENT
$stateUnwindMap$?pageProtect@@YAXPEAX_KH@Z DB 02H
	DB	0aH
	DD	imagerel ??1?$basic_string@DU?$char_traits@D@std@@V?$allocator@D@2@@std@@QEAA@XZ
	DB	080H
xdata	ENDS
;	COMDAT xdata
xdata	SEGMENT
$cppxdata$?pageProtect@@YAXPEAX_KH@Z DB 028H
	DD	imagerel $stateUnwindMap$?pageProtect@@YAXPEAX_KH@Z
	DD	imagerel $ip2state$?pageProtect@@YAXPEAX_KH@Z
xdata	ENDS
;	COMDAT xdata
xdata	SEGMENT
$unwind$?pageProtect@@YAXPEAX_KH@Z DD 011319H
	DD	0e204H
	DD	imagerel __GSHandlerCheck_EH4
	DD	imagerel $cppxdata$?pageProtect@@YAXPEAX_KH@Z
	DD	062H
xdata	ENDS
;	COMDAT xdata
xdata	SEGMENT
$unwind$??$?HDU?$char_traits@D@std@@V?$allocator@D@1@@std@@YA?AV?$basic_string@DU?$char_traits@D@std@@V?$allocator@D@2@@0@$$QEAV10@AEBV10@@Z DD 040a01H
	DD	08340aH
	DD	07006520aH
xdata	ENDS
;	COMDAT xdata
xdata	SEGMENT
$unwind$??$?HDU?$char_traits@D@std@@V?$allocator@D@1@@std@@YA?AV?$basic_string@DU?$char_traits@D@std@@V?$allocator@D@2@@0@$$QEAV10@0@Z DD 020601H
	DD	030025206H
xdata	ENDS
;	COMDAT xdata
xdata	SEGMENT
$unwind$??0?$basic_string@DU?$char_traits@D@std@@V?$allocator@D@2@@std@@QEAA@U_String_constructor_concat_tag@1@AEAV01@1@Z DD 0a1401H
	DD	0d3414H
	DD	0f0103214H
	DD	0d00ce00eH
	DD	07008c00aH
	DD	050066007H
; Function compile flags: /Ogtpy
;	COMDAT ?freePagedMemory@@YAXPEAX_K@Z
_TEXT	SEGMENT
ptr$ = 8
bytes$dead$ = 16
?freePagedMemory@@YAXPEAX_K@Z PROC			; freePagedMemory, COMDAT
; File D:\dev\francium_network\francium_agent\src\ext\randomx\repo\src\virtual_memory.cpp
; Line 185
	xor	edx, edx
	mov	r8d, 32768				; 00008000H
	rex_jmp	QWORD PTR __imp_VirtualFree
?freePagedMemory@@YAXPEAX_K@Z ENDP			; freePagedMemory
_TEXT	ENDS
; Function compile flags: /Ogtpy
;	COMDAT ?allocLargePagesMemory@@YAPEAX_K@Z
_TEXT	SEGMENT
$T8 = 48
$T6 = 48
$T4 = 48
$T2 = 48
$T11 = 48
$T9 = 48
hToken$12 = 72
tp$13 = 80
$T7 = 96
$T5 = 96
$T3 = 96
$T1 = 96
$T10 = 96
__$ArrayPad$ = 128
bytes$ = 160
?allocLargePagesMemory@@YAPEAX_K@Z PROC			; allocLargePagesMemory, COMDAT
; File D:\dev\francium_network\francium_agent\src\ext\randomx\repo\src\virtual_memory.cpp
; Line 156
$LN45:
	mov	QWORD PTR [rsp+16], rbx
	mov	QWORD PTR [rsp+24], rdi
	push	rbp
	lea	rbp, QWORD PTR [rsp-87]
	sub	rsp, 144				; 00000090H
	mov	rax, QWORD PTR __security_cookie
	xor	rax, rsp
	mov	QWORD PTR __$ArrayPad$[rbp-57], rax
	mov	rdi, rcx
; Line 71
	call	QWORD PTR __imp_GetCurrentProcess
	mov	rcx, rax
	lea	r8, QWORD PTR hToken$12[rbp-57]
	mov	edx, 40					; 00000028H
	call	QWORD PTR __imp_OpenProcessToken
	test	eax, eax
	je	$LN40@allocLarge
; Line 74
	lea	r8, QWORD PTR tp$13[rbp-53]
	lea	rdx, OFFSET FLAT:??_C@_0BG@OCFLNMAB@SeLockMemoryPrivilege@
	xor	ecx, ecx
	call	QWORD PTR __imp_LookupPrivilegeValueA
	test	eax, eax
	je	$LN41@allocLarge
; Line 77
	mov	DWORD PTR tp$13[rbp-57], 1
; Line 80
	mov	DWORD PTR tp$13[rbp-45], 2
; Line 84
	xor	eax, eax
	mov	QWORD PTR [rsp+40], rax
	mov	QWORD PTR [rsp+32], rax
	xor	r9d, r9d
	lea	r8, QWORD PTR tp$13[rbp-57]
	xor	edx, edx
	mov	rcx, QWORD PTR hToken$12[rbp-57]
	call	QWORD PTR __imp_AdjustTokenPrivileges
	mov	ebx, eax
; Line 86
	call	QWORD PTR __imp_GetLastError
; Line 87
	test	ebx, ebx
	je	SHORT $LN13@allocLarge
	test	eax, eax
	jne	SHORT $LN13@allocLarge
; Line 90
	mov	rcx, QWORD PTR hToken$12[rbp-57]
	call	QWORD PTR __imp_CloseHandle
	test	eax, eax
	je	$LN42@allocLarge
; Line 160
	call	QWORD PTR __imp_GetLargePageMinimum
	mov	rcx, rax
; Line 161
	test	rax, rax
	je	$LN2@allocLarge
; File D:\dev\francium_network\francium_agent\src\ext\randomx\repo\src\virtual_memory.hpp
; Line 34
	lea	rax, QWORD PTR [rdi-1]
	xor	edx, edx
	div	rcx
	lea	rdx, QWORD PTR [rax+1]
	imul	rdx, rcx
; File D:\dev\francium_network\francium_agent\src\ext\randomx\repo\src\virtual_memory.cpp
; Line 162
	xor	ecx, ecx
	lea	r9d, QWORD PTR [rcx+4]
	mov	r8d, 536883200				; 20003000H
	call	QWORD PTR __imp_VirtualAlloc
; Line 165
	test	rax, rax
	je	$LN43@allocLarge
; Line 181
	mov	rcx, QWORD PTR __$ArrayPad$[rbp-57]
	xor	rcx, rsp
	call	__security_check_cookie
	lea	r11, QWORD PTR [rsp+144]
	mov	rbx, QWORD PTR [r11+24]
	mov	rdi, QWORD PTR [r11+32]
	mov	rsp, r11
	pop	rbp
	ret	0
$LN13@allocLarge:
; Line 88
	lea	rdx, OFFSET FLAT:??_C@_0BG@CGCLCMLG@AdjustTokenPrivileges@
	lea	rcx, QWORD PTR $T5[rbp-57]
	call	?getErrorMessage@@YA?AV?$basic_string@DU?$char_traits@D@std@@V?$allocator@D@2@@std@@PEBD@Z ; getErrorMessage
	npad	1
	mov	rdx, rax
	lea	rcx, QWORD PTR $T6[rbp-57]
	call	??0runtime_error@std@@QEAA@AEBV?$basic_string@DU?$char_traits@D@std@@V?$allocator@D@2@@1@@Z ; std::runtime_error::runtime_error
	lea	rdx, OFFSET FLAT:_TI2?AVruntime_error@std@@
	lea	rcx, QWORD PTR $T6[rbp-57]
	call	_CxxThrowException
	npad	1
$LN40@allocLarge:
; Line 72
	lea	rdx, OFFSET FLAT:??_C@_0BB@EANJDCJP@OpenProcessToken@
	lea	rcx, QWORD PTR $T1[rbp-57]
	call	?getErrorMessage@@YA?AV?$basic_string@DU?$char_traits@D@std@@V?$allocator@D@2@@std@@PEBD@Z ; getErrorMessage
	npad	1
	mov	rdx, rax
	lea	rcx, QWORD PTR $T2[rbp-57]
	call	??0runtime_error@std@@QEAA@AEBV?$basic_string@DU?$char_traits@D@std@@V?$allocator@D@2@@1@@Z ; std::runtime_error::runtime_error
	lea	rdx, OFFSET FLAT:_TI2?AVruntime_error@std@@
	lea	rcx, QWORD PTR $T2[rbp-57]
	call	_CxxThrowException
	npad	1
$LN41@allocLarge:
; Line 75
	lea	rdx, OFFSET FLAT:??_C@_0BF@CEKDDBJL@LookupPrivilegeValue@
	lea	rcx, QWORD PTR $T3[rbp-57]
	call	?getErrorMessage@@YA?AV?$basic_string@DU?$char_traits@D@std@@V?$allocator@D@2@@std@@PEBD@Z ; getErrorMessage
	npad	1
	mov	rdx, rax
	lea	rcx, QWORD PTR $T4[rbp-57]
	call	??0runtime_error@std@@QEAA@AEBV?$basic_string@DU?$char_traits@D@std@@V?$allocator@D@2@@1@@Z ; std::runtime_error::runtime_error
	lea	rdx, OFFSET FLAT:_TI2?AVruntime_error@std@@
	lea	rcx, QWORD PTR $T4[rbp-57]
	call	_CxxThrowException
	npad	1
$LN42@allocLarge:
; Line 91
	lea	rdx, OFFSET FLAT:??_C@_0M@JHJNLFGC@CloseHandle@
	lea	rcx, QWORD PTR $T7[rbp-57]
	call	?getErrorMessage@@YA?AV?$basic_string@DU?$char_traits@D@std@@V?$allocator@D@2@@std@@PEBD@Z ; getErrorMessage
	npad	1
	mov	rdx, rax
	lea	rcx, QWORD PTR $T8[rbp-57]
	call	??0runtime_error@std@@QEAA@AEBV?$basic_string@DU?$char_traits@D@std@@V?$allocator@D@2@@1@@Z ; std::runtime_error::runtime_error
	lea	rdx, OFFSET FLAT:_TI2?AVruntime_error@std@@
	lea	rcx, QWORD PTR $T8[rbp-57]
	call	_CxxThrowException
	npad	1
$LN43@allocLarge:
; Line 166
	lea	rdx, OFFSET FLAT:??_C@_0CF@CIKJHCAI@allocLargePagesMemory?5?9?5Virtual@
	lea	rcx, QWORD PTR $T10[rbp-57]
	call	?getErrorMessage@@YA?AV?$basic_string@DU?$char_traits@D@std@@V?$allocator@D@2@@std@@PEBD@Z ; getErrorMessage
	npad	1
	mov	rdx, rax
	lea	rcx, QWORD PTR $T11[rbp-57]
	call	??0runtime_error@std@@QEAA@AEBV?$basic_string@DU?$char_traits@D@std@@V?$allocator@D@2@@1@@Z ; std::runtime_error::runtime_error
	lea	rdx, OFFSET FLAT:_TI2?AVruntime_error@std@@
	lea	rcx, QWORD PTR $T11[rbp-57]
	call	_CxxThrowException
	npad	1
$LN2@allocLarge:
; Line 164
	lea	rdx, OFFSET FLAT:??_C@_0DG@JMLLHEOG@allocLargePagesMemory?5?9?5Large?5p@
	lea	rcx, QWORD PTR $T9[rbp-57]
	call	??0runtime_error@std@@QEAA@PEBD@Z	; std::runtime_error::runtime_error
	lea	rdx, OFFSET FLAT:_TI2?AVruntime_error@std@@
	lea	rcx, QWORD PTR $T9[rbp-57]
	call	_CxxThrowException
	int	3
$LN38@allocLarge:
?allocLargePagesMemory@@YAPEAX_K@Z ENDP			; allocLargePagesMemory
_TEXT	ENDS
; Function compile flags: /Ogtpy
;	COMDAT text$x
text$x	SEGMENT
$T8 = 48
$T6 = 48
$T4 = 48
$T2 = 48
$T11 = 48
$T9 = 48
hToken$12 = 72
tp$13 = 80
$T7 = 96
$T5 = 96
$T3 = 96
$T1 = 96
$T10 = 96
__$ArrayPad$ = 128
bytes$ = 160
?dtor$1@?0??allocLargePagesMemory@@YAPEAX_K@Z@4HA PROC	; `allocLargePagesMemory'::`1'::dtor$1
	lea	rcx, QWORD PTR $T1[rdx]
	jmp	??1?$basic_string@DU?$char_traits@D@std@@V?$allocator@D@2@@std@@QEAA@XZ ; std::basic_string<char,std::char_traits<char>,std::allocator<char> >::~basic_string<char,std::char_traits<char>,std::allocator<char> >
?dtor$1@?0??allocLargePagesMemory@@YAPEAX_K@Z@4HA ENDP	; `allocLargePagesMemory'::`1'::dtor$1
text$x	ENDS
; Function compile flags: /Ogtpy
;	COMDAT text$x
text$x	SEGMENT
$T8 = 48
$T6 = 48
$T4 = 48
$T2 = 48
$T11 = 48
$T9 = 48
hToken$12 = 72
tp$13 = 80
$T7 = 96
$T5 = 96
$T3 = 96
$T1 = 96
$T10 = 96
__$ArrayPad$ = 128
bytes$ = 160
?dtor$2@?0??allocLargePagesMemory@@YAPEAX_K@Z@4HA PROC	; `allocLargePagesMemory'::`1'::dtor$2
	lea	rcx, QWORD PTR $T3[rdx]
	jmp	??1?$basic_string@DU?$char_traits@D@std@@V?$allocator@D@2@@std@@QEAA@XZ ; std::basic_string<char,std::char_traits<char>,std::allocator<char> >::~basic_string<char,std::char_traits<char>,std::allocator<char> >
?dtor$2@?0??allocLargePagesMemory@@YAPEAX_K@Z@4HA ENDP	; `allocLargePagesMemory'::`1'::dtor$2
text$x	ENDS
; Function compile flags: /Ogtpy
;	COMDAT text$x
text$x	SEGMENT
$T8 = 48
$T6 = 48
$T4 = 48
$T2 = 48
$T11 = 48
$T9 = 48
hToken$12 = 72
tp$13 = 80
$T7 = 96
$T5 = 96
$T3 = 96
$T1 = 96
$T10 = 96
__$ArrayPad$ = 128
bytes$ = 160
?dtor$3@?0??allocLargePagesMemory@@YAPEAX_K@Z@4HA PROC	; `allocLargePagesMemory'::`1'::dtor$3
	lea	rcx, QWORD PTR $T5[rdx]
	jmp	??1?$basic_string@DU?$char_traits@D@std@@V?$allocator@D@2@@std@@QEAA@XZ ; std::basic_string<char,std::char_traits<char>,std::allocator<char> >::~basic_string<char,std::char_traits<char>,std::allocator<char> >
?dtor$3@?0??allocLargePagesMemory@@YAPEAX_K@Z@4HA ENDP	; `allocLargePagesMemory'::`1'::dtor$3
text$x	ENDS
; Function compile flags: /Ogtpy
;	COMDAT text$x
text$x	SEGMENT
$T8 = 48
$T6 = 48
$T4 = 48
$T2 = 48
$T11 = 48
$T9 = 48
hToken$12 = 72
tp$13 = 80
$T7 = 96
$T5 = 96
$T3 = 96
$T1 = 96
$T10 = 96
__$ArrayPad$ = 128
bytes$ = 160
?dtor$4@?0??allocLargePagesMemory@@YAPEAX_K@Z@4HA PROC	; `allocLargePagesMemory'::`1'::dtor$4
	lea	rcx, QWORD PTR $T7[rdx]
	jmp	??1?$basic_string@DU?$char_traits@D@std@@V?$allocator@D@2@@std@@QEAA@XZ ; std::basic_string<char,std::char_traits<char>,std::allocator<char> >::~basic_string<char,std::char_traits<char>,std::allocator<char> >
?dtor$4@?0??allocLargePagesMemory@@YAPEAX_K@Z@4HA ENDP	; `allocLargePagesMemory'::`1'::dtor$4
text$x	ENDS
; Function compile flags: /Ogtpy
;	COMDAT text$x
text$x	SEGMENT
$T8 = 48
$T6 = 48
$T4 = 48
$T2 = 48
$T11 = 48
$T9 = 48
hToken$12 = 72
tp$13 = 80
$T7 = 96
$T5 = 96
$T3 = 96
$T1 = 96
$T10 = 96
__$ArrayPad$ = 128
bytes$ = 160
?dtor$0@?0??allocLargePagesMemory@@YAPEAX_K@Z@4HA PROC	; `allocLargePagesMemory'::`1'::dtor$0
	lea	rcx, QWORD PTR $T10[rdx]
	jmp	??1?$basic_string@DU?$char_traits@D@std@@V?$allocator@D@2@@std@@QEAA@XZ ; std::basic_string<char,std::char_traits<char>,std::allocator<char> >::~basic_string<char,std::char_traits<char>,std::allocator<char> >
?dtor$0@?0??allocLargePagesMemory@@YAPEAX_K@Z@4HA ENDP	; `allocLargePagesMemory'::`1'::dtor$0
text$x	ENDS
; Function compile flags: /Ogtpy
;	COMDAT ?allocMemoryPages@@YAPEAX_K@Z
_TEXT	SEGMENT
$T2 = 32
$T1 = 56
__$ArrayPad$ = 88
bytes$dead$ = 112
?allocMemoryPages@@YAPEAX_K@Z PROC			; allocMemoryPages, COMDAT
; File D:\dev\francium_network\francium_agent\src\ext\randomx\repo\src\virtual_memory.cpp
; Line 95
$LN12:
	sub	rsp, 104				; 00000068H
	mov	rax, QWORD PTR __security_cookie
	xor	rax, rsp
	mov	QWORD PTR __$ArrayPad$[rsp], rax
; Line 98
	mov	edx, 77824				; 00013000H
	mov	r9d, 4
	mov	r8d, 4096				; 00001000H
	xor	ecx, ecx
	call	QWORD PTR __imp_VirtualAlloc
; Line 99
	test	rax, rax
	je	SHORT $LN10@allocMemor
; Line 122
	mov	rcx, QWORD PTR __$ArrayPad$[rsp]
	xor	rcx, rsp
	call	__security_check_cookie
	add	rsp, 104				; 00000068H
	ret	0
$LN10@allocMemor:
; Line 100
	lea	rdx, OFFSET FLAT:??_C@_0CA@IJDFKAKK@allocMemoryPages?5?9?5VirtualAlloc@
	lea	rcx, QWORD PTR $T1[rsp]
	call	?getErrorMessage@@YA?AV?$basic_string@DU?$char_traits@D@std@@V?$allocator@D@2@@std@@PEBD@Z ; getErrorMessage
	npad	1
	mov	rdx, rax
	lea	rcx, QWORD PTR $T2[rsp]
	call	??0runtime_error@std@@QEAA@AEBV?$basic_string@DU?$char_traits@D@std@@V?$allocator@D@2@@1@@Z ; std::runtime_error::runtime_error
	lea	rdx, OFFSET FLAT:_TI2?AVruntime_error@std@@
	lea	rcx, QWORD PTR $T2[rsp]
	call	_CxxThrowException
	int	3
$LN8@allocMemor:
?allocMemoryPages@@YAPEAX_K@Z ENDP			; allocMemoryPages
_TEXT	ENDS
; Function compile flags: /Ogtpy
;	COMDAT text$x
text$x	SEGMENT
$T2 = 32
$T1 = 56
__$ArrayPad$ = 88
bytes$dead$ = 112
?dtor$0@?0??allocMemoryPages@@YAPEAX_K@Z@4HA PROC	; `allocMemoryPages'::`1'::dtor$0
	lea	rcx, QWORD PTR $T1[rdx]
	jmp	??1?$basic_string@DU?$char_traits@D@std@@V?$allocator@D@2@@std@@QEAA@XZ ; std::basic_string<char,std::char_traits<char>,std::allocator<char> >::~basic_string<char,std::char_traits<char>,std::allocator<char> >
?dtor$0@?0??allocMemoryPages@@YAPEAX_K@Z@4HA ENDP	; `allocMemoryPages'::`1'::dtor$0
text$x	ENDS
; Function compile flags: /Ogtpy
;	COMDAT ?setPagesRW@@YAXPEAX_K@Z
_TEXT	SEGMENT
oldp$3 = 32
$T2 = 40
$T1 = 64
__$ArrayPad$ = 96
ptr$ = 128
bytes$dead$ = 136
?setPagesRW@@YAXPEAX_K@Z PROC				; setPagesRW, COMDAT
; File D:\dev\francium_network\francium_agent\src\ext\randomx\repo\src\virtual_memory.cpp
; Line 136
$LN15:
	sub	rsp, 120				; 00000078H
	mov	rax, QWORD PTR __security_cookie
	xor	rax, rsp
	mov	QWORD PTR __$ArrayPad$[rsp], rax
; Line 127
	lea	r9, QWORD PTR oldp$3[rsp]
	mov	edx, 77824				; 00013000H
	mov	r8d, 4
	call	QWORD PTR __imp_VirtualProtect
	test	eax, eax
	je	SHORT $LN13@setPagesRW
; Line 142
	mov	rcx, QWORD PTR __$ArrayPad$[rsp]
	xor	rcx, rsp
	call	__security_check_cookie
	add	rsp, 120				; 00000078H
	ret	0
$LN13@setPagesRW:
; Line 128
	lea	rdx, OFFSET FLAT:??_C@_0P@IGDMCLEE@VirtualProtect@
	lea	rcx, QWORD PTR $T1[rsp]
	call	?getErrorMessage@@YA?AV?$basic_string@DU?$char_traits@D@std@@V?$allocator@D@2@@std@@PEBD@Z ; getErrorMessage
	npad	1
	mov	rdx, rax
	lea	rcx, QWORD PTR $T2[rsp]
	call	??0runtime_error@std@@QEAA@AEBV?$basic_string@DU?$char_traits@D@std@@V?$allocator@D@2@@1@@Z ; std::runtime_error::runtime_error
	lea	rdx, OFFSET FLAT:_TI2?AVruntime_error@std@@
	lea	rcx, QWORD PTR $T2[rsp]
	call	_CxxThrowException
	int	3
$LN11@setPagesRW:
?setPagesRW@@YAXPEAX_K@Z ENDP				; setPagesRW
_TEXT	ENDS
; Function compile flags: /Ogtpy
;	COMDAT text$x
text$x	SEGMENT
oldp$3 = 32
$T2 = 40
$T1 = 64
__$ArrayPad$ = 96
ptr$ = 128
bytes$dead$ = 136
?dtor$0@?0??setPagesRW@@YAXPEAX_K@Z@4HA PROC		; `setPagesRW'::`1'::dtor$0
	lea	rcx, QWORD PTR $T1[rdx]
	jmp	??1?$basic_string@DU?$char_traits@D@std@@V?$allocator@D@2@@std@@QEAA@XZ ; std::basic_string<char,std::char_traits<char>,std::allocator<char> >::~basic_string<char,std::char_traits<char>,std::allocator<char> >
?dtor$0@?0??setPagesRW@@YAXPEAX_K@Z@4HA ENDP		; `setPagesRW'::`1'::dtor$0
text$x	ENDS
; Function compile flags: /Ogtpy
;	COMDAT ?setPagesRX@@YAXPEAX_K@Z
_TEXT	SEGMENT
oldp$3 = 32
$T2 = 40
$T1 = 64
__$ArrayPad$ = 96
ptr$ = 128
bytes$dead$ = 136
?setPagesRX@@YAXPEAX_K@Z PROC				; setPagesRX, COMDAT
; File D:\dev\francium_network\francium_agent\src\ext\randomx\repo\src\virtual_memory.cpp
; Line 144
$LN15:
	sub	rsp, 120				; 00000078H
	mov	rax, QWORD PTR __security_cookie
	xor	rax, rsp
	mov	QWORD PTR __$ArrayPad$[rsp], rax
; Line 127
	lea	r9, QWORD PTR oldp$3[rsp]
	mov	edx, 77824				; 00013000H
	mov	r8d, 32					; 00000020H
	call	QWORD PTR __imp_VirtualProtect
	test	eax, eax
	je	SHORT $LN13@setPagesRX
; Line 150
	mov	rcx, QWORD PTR __$ArrayPad$[rsp]
	xor	rcx, rsp
	call	__security_check_cookie
	add	rsp, 120				; 00000078H
	ret	0
$LN13@setPagesRX:
; Line 128
	lea	rdx, OFFSET FLAT:??_C@_0P@IGDMCLEE@VirtualProtect@
	lea	rcx, QWORD PTR $T1[rsp]
	call	?getErrorMessage@@YA?AV?$basic_string@DU?$char_traits@D@std@@V?$allocator@D@2@@std@@PEBD@Z ; getErrorMessage
	npad	1
	mov	rdx, rax
	lea	rcx, QWORD PTR $T2[rsp]
	call	??0runtime_error@std@@QEAA@AEBV?$basic_string@DU?$char_traits@D@std@@V?$allocator@D@2@@1@@Z ; std::runtime_error::runtime_error
	lea	rdx, OFFSET FLAT:_TI2?AVruntime_error@std@@
	lea	rcx, QWORD PTR $T2[rsp]
	call	_CxxThrowException
	int	3
$LN11@setPagesRX:
?setPagesRX@@YAXPEAX_K@Z ENDP				; setPagesRX
_TEXT	ENDS
; Function compile flags: /Ogtpy
;	COMDAT text$x
text$x	SEGMENT
oldp$3 = 32
$T2 = 40
$T1 = 64
__$ArrayPad$ = 96
ptr$ = 128
bytes$dead$ = 136
?dtor$0@?0??setPagesRX@@YAXPEAX_K@Z@4HA PROC		; `setPagesRX'::`1'::dtor$0
	lea	rcx, QWORD PTR $T1[rdx]
	jmp	??1?$basic_string@DU?$char_traits@D@std@@V?$allocator@D@2@@std@@QEAA@XZ ; std::basic_string<char,std::char_traits<char>,std::allocator<char> >::~basic_string<char,std::char_traits<char>,std::allocator<char> >
?dtor$0@?0??setPagesRX@@YAXPEAX_K@Z@4HA ENDP		; `setPagesRX'::`1'::dtor$0
text$x	ENDS
; Function compile flags: /Ogtpy
;	COMDAT ?setPagesRWX@@YAXPEAX_K@Z
_TEXT	SEGMENT
oldp$3 = 32
$T2 = 40
$T1 = 64
__$ArrayPad$ = 96
ptr$ = 128
bytes$dead$ = 136
?setPagesRWX@@YAXPEAX_K@Z PROC				; setPagesRWX, COMDAT
; File D:\dev\francium_network\francium_agent\src\ext\randomx\repo\src\virtual_memory.cpp
; Line 152
$LN15:
	sub	rsp, 120				; 00000078H
	mov	rax, QWORD PTR __security_cookie
	xor	rax, rsp
	mov	QWORD PTR __$ArrayPad$[rsp], rax
; Line 127
	lea	r9, QWORD PTR oldp$3[rsp]
	mov	edx, 77824				; 00013000H
	mov	r8d, 64					; 00000040H
	call	QWORD PTR __imp_VirtualProtect
	test	eax, eax
	je	SHORT $LN13@setPagesRW
; Line 154
	mov	rcx, QWORD PTR __$ArrayPad$[rsp]
	xor	rcx, rsp
	call	__security_check_cookie
	add	rsp, 120				; 00000078H
	ret	0
$LN13@setPagesRW:
; Line 128
	lea	rdx, OFFSET FLAT:??_C@_0P@IGDMCLEE@VirtualProtect@
	lea	rcx, QWORD PTR $T1[rsp]
	call	?getErrorMessage@@YA?AV?$basic_string@DU?$char_traits@D@std@@V?$allocator@D@2@@std@@PEBD@Z ; getErrorMessage
	npad	1
	mov	rdx, rax
	lea	rcx, QWORD PTR $T2[rsp]
	call	??0runtime_error@std@@QEAA@AEBV?$basic_string@DU?$char_traits@D@std@@V?$allocator@D@2@@1@@Z ; std::runtime_error::runtime_error
	lea	rdx, OFFSET FLAT:_TI2?AVruntime_error@std@@
	lea	rcx, QWORD PTR $T2[rsp]
	call	_CxxThrowException
	int	3
$LN11@setPagesRW:
?setPagesRWX@@YAXPEAX_K@Z ENDP				; setPagesRWX
_TEXT	ENDS
; Function compile flags: /Ogtpy
;	COMDAT text$x
text$x	SEGMENT
oldp$3 = 32
$T2 = 40
$T1 = 64
__$ArrayPad$ = 96
ptr$ = 128
bytes$dead$ = 136
?dtor$0@?0??setPagesRWX@@YAXPEAX_K@Z@4HA PROC		; `setPagesRWX'::`1'::dtor$0
	lea	rcx, QWORD PTR $T1[rdx]
	jmp	??1?$basic_string@DU?$char_traits@D@std@@V?$allocator@D@2@@std@@QEAA@XZ ; std::basic_string<char,std::char_traits<char>,std::allocator<char> >::~basic_string<char,std::char_traits<char>,std::allocator<char> >
?dtor$0@?0??setPagesRWX@@YAXPEAX_K@Z@4HA ENDP		; `setPagesRWX'::`1'::dtor$0
text$x	ENDS
; Function compile flags: /Ogtpy
;	COMDAT ?alignSize@@YA_K_K0@Z
_TEXT	SEGMENT
pos$ = 8
align$ = 16
?alignSize@@YA_K_K0@Z PROC				; alignSize, COMDAT
; File D:\dev\francium_network\francium_agent\src\ext\randomx\repo\src\virtual_memory.hpp
; Line 33
	mov	r8, rdx
; Line 34
	dec	rcx
	mov	rax, rcx
	xor	edx, edx
	div	r8
	sub	rcx, rdx
	lea	rax, QWORD PTR [r8+rcx]
; Line 35
	ret	0
?alignSize@@YA_K_K0@Z ENDP				; alignSize
_TEXT	ENDS
; Function compile flags: /Ogtpy
;	COMDAT ??0runtime_error@std@@QEAA@PEBD@Z
_TEXT	SEGMENT
_InitData$1 = 32
__$ArrayPad$ = 48
this$ = 80
_Message$ = 88
??0runtime_error@std@@QEAA@PEBD@Z PROC			; std::runtime_error::runtime_error, COMDAT
; File D:\software\Visual Studio 2022\VC\Tools\MSVC\14.35.32215\include\stdexcept
; Line 107
$LN7:
	push	rbx
	sub	rsp, 64					; 00000040H
	mov	rax, QWORD PTR __security_cookie
	xor	rax, rsp
	mov	QWORD PTR __$ArrayPad$[rsp], rax
	mov	r8, rdx
; File D:\software\Visual Studio 2022\VC\Tools\MSVC\14.35.32215\include\vcruntime_exception.h
; Line 60
	mov	BYTE PTR _InitData$1[rsp+8], 1
	lea	rdx, QWORD PTR [rcx+8]
	mov	QWORD PTR _InitData$1[rsp], r8
	lea	rax, OFFSET FLAT:??_7exception@std@@6B@
; File D:\software\Visual Studio 2022\VC\Tools\MSVC\14.35.32215\include\stdexcept
; Line 107
	mov	rbx, rcx
; File D:\software\Visual Studio 2022\VC\Tools\MSVC\14.35.32215\include\vcruntime_exception.h
; Line 59
	mov	QWORD PTR [rcx], rax
	xorps	xmm0, xmm0
; Line 61
	lea	rcx, QWORD PTR _InitData$1[rsp]
	movups	XMMWORD PTR [rdx], xmm0
	call	__std_exception_copy
; File D:\software\Visual Studio 2022\VC\Tools\MSVC\14.35.32215\include\stdexcept
; Line 107
	lea	rax, OFFSET FLAT:??_7runtime_error@std@@6B@
	mov	QWORD PTR [rbx], rax
	mov	rax, rbx
	mov	rcx, QWORD PTR __$ArrayPad$[rsp]
	xor	rcx, rsp
	call	__security_check_cookie
	add	rsp, 64					; 00000040H
	pop	rbx
	ret	0
??0runtime_error@std@@QEAA@PEBD@Z ENDP			; std::runtime_error::runtime_error
_TEXT	ENDS
; Function compile flags: /Ogtpy
;	COMDAT ?getErrorMessage@@YA?AV?$basic_string@DU?$char_traits@D@std@@V?$allocator@D@2@@std@@PEBD@Z
_TEXT	SEGMENT
__$ReturnUdt$GSCopy$ = 64
messageBuffer$ = 64
message$ = 80
$T9 = 112
$T5 = 144
$T2 = 176
__$ArrayPad$ = 208
__$ReturnUdt$ = 256
function$ = 264
?getErrorMessage@@YA?AV?$basic_string@DU?$char_traits@D@std@@V?$allocator@D@2@@std@@PEBD@Z PROC ; getErrorMessage, COMDAT
; File D:\dev\francium_network\francium_agent\src\ext\randomx\repo\src\virtual_memory.cpp
; Line 56
$LN200:
	mov	QWORD PTR [rsp+24], rbx
	push	rbp
	push	rsi
	push	rdi
	lea	rbp, QWORD PTR [rsp-71]
	sub	rsp, 224				; 000000e0H
	mov	rax, QWORD PTR __security_cookie
	xor	rax, rsp
	mov	QWORD PTR __$ArrayPad$[rbp-153], rax
	mov	rbx, rdx
	mov	rdi, rcx
	mov	QWORD PTR __$ReturnUdt$GSCopy$[rbp-153], rcx
	xor	esi, esi
; Line 57
	mov	QWORD PTR messageBuffer$[rbp-153], rsi
; Line 58
	call	QWORD PTR __imp_GetLastError
	mov	r8d, eax
	mov	QWORD PTR [rsp+48], rsi
	mov	DWORD PTR [rsp+40], esi
	lea	rax, QWORD PTR messageBuffer$[rbp-153]
	mov	QWORD PTR [rsp+32], rax
	xor	edx, edx
	mov	ecx, 4864				; 00001300H
	mov	r9d, 1024				; 00000400H
	call	QWORD PTR __imp_FormatMessageA
	mov	r8d, eax
	xorps	xmm0, xmm0
; File D:\software\Visual Studio 2022\VC\Tools\MSVC\14.35.32215\include\xstring
; Line 2340
	movups	XMMWORD PTR message$[rbp-153], xmm0
; Line 2348
	mov	QWORD PTR message$[rbp-137], rsi
; Line 2349
	mov	QWORD PTR message$[rbp-129], rsi
; Line 2664
	mov	rdx, QWORD PTR messageBuffer$[rbp-153]
	lea	rcx, QWORD PTR message$[rbp-153]
	call	??$_Construct@$00PEBD@?$basic_string@DU?$char_traits@D@std@@V?$allocator@D@2@@std@@AEAAXQEBD_K@Z ; std::basic_string<char,std::char_traits<char>,std::allocator<char> >::_Construct<1,char const *>
	npad	1
; File D:\dev\francium_network\francium_agent\src\ext\randomx\repo\src\virtual_memory.cpp
; Line 61
	mov	rcx, QWORD PTR messageBuffer$[rbp-153]
	call	QWORD PTR __imp_LocalFree
	xorps	xmm0, xmm0
; File D:\software\Visual Studio 2022\VC\Tools\MSVC\14.35.32215\include\xstring
; Line 2340
	movups	XMMWORD PTR $T2[rbp-153], xmm0
	xorps	xmm1, xmm1
; Line 2348
	movdqu	XMMWORD PTR $T2[rbp-137], xmm1
; Line 2674
	lea	r8d, QWORD PTR [rsi+2]
	lea	rdx, OFFSET FLAT:??_C@_02LMMGGCAJ@?3?5@
	lea	rcx, QWORD PTR $T2[rbp-153]
	call	??$_Construct@$00PEBD@?$basic_string@DU?$char_traits@D@std@@V?$allocator@D@2@@std@@AEAAXQEBD_K@Z ; std::basic_string<char,std::char_traits<char>,std::allocator<char> >::_Construct<1,char const *>
	npad	1
	xorps	xmm0, xmm0
; Line 2340
	movups	XMMWORD PTR $T5[rbp-153], xmm0
	xorps	xmm1, xmm1
; Line 2348
	movdqu	XMMWORD PTR $T5[rbp-137], xmm1
; Line 418
	mov	r8, -1
$LL192@getErrorMe:
	inc	r8
	cmp	BYTE PTR [rbx+r8], 0
	jne	SHORT $LL192@getErrorMe
; Line 2674
	mov	rdx, rbx
	lea	rcx, QWORD PTR $T5[rbp-153]
	call	??$_Construct@$00PEBD@?$basic_string@DU?$char_traits@D@std@@V?$allocator@D@2@@std@@AEAAXQEBD_K@Z ; std::basic_string<char,std::char_traits<char>,std::allocator<char> >::_Construct<1,char const *>
	npad	1
; Line 5161
	lea	r9, QWORD PTR $T2[rbp-153]
	lea	r8, QWORD PTR $T5[rbp-153]
	lea	rcx, QWORD PTR $T9[rbp-153]
	call	??0?$basic_string@DU?$char_traits@D@std@@V?$allocator@D@2@@std@@QEAA@U_String_constructor_concat_tag@1@AEAV01@1@Z ; std::basic_string<char,std::char_traits<char>,std::allocator<char> >::basic_string<char,std::char_traits<char>,std::allocator<char> >
	npad	1
; Line 2291
	lea	rdx, QWORD PTR message$[rbp-153]
; Line 2292
	cmp	QWORD PTR message$[rbp-129], 16
	cmovae	rdx, QWORD PTR message$[rbp-153]
; Line 3394
	mov	r8, QWORD PTR message$[rbp-137]
	lea	rcx, QWORD PTR $T9[rbp-153]
	call	?append@?$basic_string@DU?$char_traits@D@std@@V?$allocator@D@2@@std@@QEAAAEAV12@QEBD_K@Z ; std::basic_string<char,std::char_traits<char>,std::allocator<char> >::append
	xorps	xmm0, xmm0
; Line 2340
	movups	XMMWORD PTR [rdi], xmm0
; Line 2348
	mov	QWORD PTR [rdi+16], rsi
; Line 2349
	mov	QWORD PTR [rdi+24], rsi
; Line 3139
	movups	xmm0, XMMWORD PTR [rax]
	movups	XMMWORD PTR [rdi], xmm0
	movups	xmm1, XMMWORD PTR [rax+16]
	movups	XMMWORD PTR [rdi+16], xmm1
; Line 5001
	mov	QWORD PTR [rax+16], rsi
; Line 5002
	mov	QWORD PTR [rax+24], 15
; Line 5006
	mov	BYTE PTR [rax], 0
; Line 5014
	mov	rdx, QWORD PTR $T9[rbp-129]
	cmp	rdx, 16
	jb	SHORT $LN95@getErrorMe
; Line 5019
	inc	rdx
; File D:\software\Visual Studio 2022\VC\Tools\MSVC\14.35.32215\include\xmemory
; Line 829
	mov	rcx, QWORD PTR $T9[rbp-153]
	mov	rax, rcx
; Line 251
	cmp	rdx, 4096				; 00001000H
	jb	SHORT $LN105@getErrorMe
; Line 147
	add	rdx, 39					; 00000027H
; Line 150
	mov	rcx, QWORD PTR [rcx-8]
	sub	rax, rcx
; Line 164
	add	rax, -8
	cmp	rax, 31
	ja	$LN195@getErrorMe
$LN105@getErrorMe:
; Line 255
	call	??3@YAXPEAX_K@Z				; operator delete
$LN95@getErrorMe:
; File D:\software\Visual Studio 2022\VC\Tools\MSVC\14.35.32215\include\xstring
; Line 5022
	movdqa	xmm0, XMMWORD PTR __xmm@000000000000000f0000000000000000
	movdqu	XMMWORD PTR $T9[rbp-137], xmm0
; Line 5025
	mov	BYTE PTR $T9[rbp-153], 0
; Line 5014
	mov	rdx, QWORD PTR $T5[rbp-129]
	cmp	rdx, 16
	jb	SHORT $LN123@getErrorMe
; Line 5019
	inc	rdx
; File D:\software\Visual Studio 2022\VC\Tools\MSVC\14.35.32215\include\xmemory
; Line 829
	mov	rcx, QWORD PTR $T5[rbp-153]
	mov	rax, rcx
; Line 251
	cmp	rdx, 4096				; 00001000H
	jb	SHORT $LN133@getErrorMe
; Line 147
	add	rdx, 39					; 00000027H
; Line 150
	mov	rcx, QWORD PTR [rcx-8]
	sub	rax, rcx
; Line 164
	add	rax, -8
	cmp	rax, 31
	ja	$LN196@getErrorMe
$LN133@getErrorMe:
; Line 255
	call	??3@YAXPEAX_K@Z				; operator delete
	npad	1
$LN123@getErrorMe:
; File D:\software\Visual Studio 2022\VC\Tools\MSVC\14.35.32215\include\xstring
; Line 5014
	mov	rdx, QWORD PTR $T2[rbp-129]
	cmp	rdx, 16
	jb	SHORT $LN150@getErrorMe
; Line 5019
	inc	rdx
; File D:\software\Visual Studio 2022\VC\Tools\MSVC\14.35.32215\include\xmemory
; Line 829
	mov	rcx, QWORD PTR $T2[rbp-153]
	mov	rax, rcx
; Line 251
	cmp	rdx, 4096				; 00001000H
	jb	SHORT $LN160@getErrorMe
; Line 147
	add	rdx, 39					; 00000027H
; Line 150
	mov	rcx, QWORD PTR [rcx-8]
	sub	rax, rcx
; Line 164
	add	rax, -8
	cmp	rax, 31
	ja	SHORT $LN197@getErrorMe
$LN160@getErrorMe:
; Line 255
	call	??3@YAXPEAX_K@Z				; operator delete
	npad	1
$LN150@getErrorMe:
; File D:\software\Visual Studio 2022\VC\Tools\MSVC\14.35.32215\include\xstring
; Line 2300
	mov	rdx, QWORD PTR message$[rbp-129]
	cmp	rdx, 16
; Line 5014
	jb	SHORT $LN177@getErrorMe
; Line 5019
	inc	rdx
; File D:\software\Visual Studio 2022\VC\Tools\MSVC\14.35.32215\include\xmemory
; Line 829
	mov	rcx, QWORD PTR message$[rbp-153]
	mov	rax, rcx
; Line 251
	cmp	rdx, 4096				; 00001000H
	jb	SHORT $LN187@getErrorMe
; Line 147
	add	rdx, 39					; 00000027H
; Line 150
	mov	rcx, QWORD PTR [rcx-8]
	sub	rax, rcx
; Line 164
	add	rax, -8
	cmp	rax, 31
	ja	SHORT $LN198@getErrorMe
$LN187@getErrorMe:
; Line 255
	call	??3@YAXPEAX_K@Z				; operator delete
$LN177@getErrorMe:
; File D:\dev\francium_network\francium_agent\src\ext\randomx\repo\src\virtual_memory.cpp
; Line 62
	mov	rax, rdi
; Line 63
	mov	rcx, QWORD PTR __$ArrayPad$[rbp-153]
	xor	rcx, rsp
	call	__security_check_cookie
	mov	rbx, QWORD PTR [rsp+272]
	add	rsp, 224				; 000000e0H
	pop	rdi
	pop	rsi
	pop	rbp
	ret	0
$LN198@getErrorMe:
; File D:\software\Visual Studio 2022\VC\Tools\MSVC\14.35.32215\include\xmemory
; Line 164
	call	_invalid_parameter_noinfo_noreturn
	npad	1
$LN195@getErrorMe:
	call	_invalid_parameter_noinfo_noreturn
	npad	1
$LN196@getErrorMe:
	call	_invalid_parameter_noinfo_noreturn
	npad	1
$LN197@getErrorMe:
	call	_invalid_parameter_noinfo_noreturn
	int	3
$LN193@getErrorMe:
?getErrorMessage@@YA?AV?$basic_string@DU?$char_traits@D@std@@V?$allocator@D@2@@std@@PEBD@Z ENDP ; getErrorMessage
_TEXT	ENDS
; Function compile flags: /Ogtpy
;	COMDAT text$x
text$x	SEGMENT
__$ReturnUdt$GSCopy$ = 64
messageBuffer$ = 64
message$ = 80
$T9 = 112
$T5 = 144
$T2 = 176
__$ArrayPad$ = 208
__$ReturnUdt$ = 256
function$ = 264
?dtor$0@?0??getErrorMessage@@YA?AV?$basic_string@DU?$char_traits@D@std@@V?$allocator@D@2@@std@@PEBD@Z@4HA PROC ; `getErrorMessage'::`1'::dtor$0
	lea	rcx, QWORD PTR message$[rdx]
	jmp	??1?$basic_string@DU?$char_traits@D@std@@V?$allocator@D@2@@std@@QEAA@XZ ; std::basic_string<char,std::char_traits<char>,std::allocator<char> >::~basic_string<char,std::char_traits<char>,std::allocator<char> >
?dtor$0@?0??getErrorMessage@@YA?AV?$basic_string@DU?$char_traits@D@std@@V?$allocator@D@2@@std@@PEBD@Z@4HA ENDP ; `getErrorMessage'::`1'::dtor$0
text$x	ENDS
; Function compile flags: /Ogtpy
;	COMDAT text$x
text$x	SEGMENT
__$ReturnUdt$GSCopy$ = 64
messageBuffer$ = 64
message$ = 80
$T9 = 112
$T5 = 144
$T2 = 176
__$ArrayPad$ = 208
__$ReturnUdt$ = 256
function$ = 264
?dtor$1@?0??getErrorMessage@@YA?AV?$basic_string@DU?$char_traits@D@std@@V?$allocator@D@2@@std@@PEBD@Z@4HA PROC ; `getErrorMessage'::`1'::dtor$1
	lea	rcx, QWORD PTR $T2[rdx]
	jmp	??1?$basic_string@DU?$char_traits@D@std@@V?$allocator@D@2@@std@@QEAA@XZ ; std::basic_string<char,std::char_traits<char>,std::allocator<char> >::~basic_string<char,std::char_traits<char>,std::allocator<char> >
?dtor$1@?0??getErrorMessage@@YA?AV?$basic_string@DU?$char_traits@D@std@@V?$allocator@D@2@@std@@PEBD@Z@4HA ENDP ; `getErrorMessage'::`1'::dtor$1
text$x	ENDS
; Function compile flags: /Ogtpy
;	COMDAT text$x
text$x	SEGMENT
__$ReturnUdt$GSCopy$ = 64
messageBuffer$ = 64
message$ = 80
$T9 = 112
$T5 = 144
$T2 = 176
__$ArrayPad$ = 208
__$ReturnUdt$ = 256
function$ = 264
?dtor$2@?0??getErrorMessage@@YA?AV?$basic_string@DU?$char_traits@D@std@@V?$allocator@D@2@@std@@PEBD@Z@4HA PROC ; `getErrorMessage'::`1'::dtor$2
	lea	rcx, QWORD PTR $T5[rdx]
	jmp	??1?$basic_string@DU?$char_traits@D@std@@V?$allocator@D@2@@std@@QEAA@XZ ; std::basic_string<char,std::char_traits<char>,std::allocator<char> >::~basic_string<char,std::char_traits<char>,std::allocator<char> >
?dtor$2@?0??getErrorMessage@@YA?AV?$basic_string@DU?$char_traits@D@std@@V?$allocator@D@2@@std@@PEBD@Z@4HA ENDP ; `getErrorMessage'::`1'::dtor$2
text$x	ENDS
; Function compile flags: /Ogtpy
;	COMDAT text$x
text$x	SEGMENT
__$ReturnUdt$GSCopy$ = 64
messageBuffer$ = 64
message$ = 80
$T9 = 112
$T5 = 144
$T2 = 176
__$ArrayPad$ = 208
__$ReturnUdt$ = 256
function$ = 264
?dtor$3@?0??getErrorMessage@@YA?AV?$basic_string@DU?$char_traits@D@std@@V?$allocator@D@2@@std@@PEBD@Z@4HA PROC ; `getErrorMessage'::`1'::dtor$3
	lea	rcx, QWORD PTR $T9[rdx]
	jmp	??1?$basic_string@DU?$char_traits@D@std@@V?$allocator@D@2@@std@@QEAA@XZ ; std::basic_string<char,std::char_traits<char>,std::allocator<char> >::~basic_string<char,std::char_traits<char>,std::allocator<char> >
?dtor$3@?0??getErrorMessage@@YA?AV?$basic_string@DU?$char_traits@D@std@@V?$allocator@D@2@@std@@PEBD@Z@4HA ENDP ; `getErrorMessage'::`1'::dtor$3
text$x	ENDS
; Function compile flags: /Ogtpy
;	COMDAT ?setPrivilege@@YAXPEBDH@Z
_TEXT	SEGMENT
hToken$ = 48
$T8 = 56
$T6 = 56
$T4 = 56
$T2 = 56
tp$ = 80
$T7 = 96
$T5 = 96
$T3 = 96
$T1 = 96
__$ArrayPad$ = 128
pszPrivilege$dead$ = 160
bEnable$dead$ = 168
?setPrivilege@@YAXPEBDH@Z PROC				; setPrivilege, COMDAT
; File D:\dev\francium_network\francium_agent\src\ext\randomx\repo\src\virtual_memory.cpp
; Line 65
$LN32:
	push	rbx
	sub	rsp, 144				; 00000090H
	mov	rax, QWORD PTR __security_cookie
	xor	rax, rsp
	mov	QWORD PTR __$ArrayPad$[rsp], rax
; Line 71
	call	QWORD PTR __imp_GetCurrentProcess
	mov	rcx, rax
	lea	r8, QWORD PTR hToken$[rsp]
	mov	edx, 40					; 00000028H
	call	QWORD PTR __imp_OpenProcessToken
	test	eax, eax
	je	$LN28@setPrivile
; Line 74
	lea	r8, QWORD PTR tp$[rsp+4]
	lea	rdx, OFFSET FLAT:??_C@_0BG@OCFLNMAB@SeLockMemoryPrivilege@
	xor	ecx, ecx
	call	QWORD PTR __imp_LookupPrivilegeValueA
	test	eax, eax
	je	$LN29@setPrivile
; Line 77
	mov	DWORD PTR tp$[rsp], 1
; Line 80
	mov	DWORD PTR tp$[rsp+12], 2
; Line 84
	xor	eax, eax
	mov	QWORD PTR [rsp+40], rax
	mov	QWORD PTR [rsp+32], rax
	xor	r9d, r9d
	lea	r8, QWORD PTR tp$[rsp]
	xor	edx, edx
	mov	rcx, QWORD PTR hToken$[rsp]
	call	QWORD PTR __imp_AdjustTokenPrivileges
	mov	ebx, eax
; Line 86
	call	QWORD PTR __imp_GetLastError
; Line 87
	test	ebx, ebx
	je	SHORT $LN7@setPrivile
	test	eax, eax
	jne	SHORT $LN7@setPrivile
; Line 90
	mov	rcx, QWORD PTR hToken$[rsp]
	call	QWORD PTR __imp_CloseHandle
	test	eax, eax
	je	$LN30@setPrivile
; Line 92
	mov	rcx, QWORD PTR __$ArrayPad$[rsp]
	xor	rcx, rsp
	call	__security_check_cookie
	add	rsp, 144				; 00000090H
	pop	rbx
	ret	0
$LN7@setPrivile:
; Line 88
	lea	rdx, OFFSET FLAT:??_C@_0BG@CGCLCMLG@AdjustTokenPrivileges@
	lea	rcx, QWORD PTR $T5[rsp]
	call	?getErrorMessage@@YA?AV?$basic_string@DU?$char_traits@D@std@@V?$allocator@D@2@@std@@PEBD@Z ; getErrorMessage
	npad	1
	mov	rdx, rax
	lea	rcx, QWORD PTR $T6[rsp]
	call	??0runtime_error@std@@QEAA@AEBV?$basic_string@DU?$char_traits@D@std@@V?$allocator@D@2@@1@@Z ; std::runtime_error::runtime_error
	lea	rdx, OFFSET FLAT:_TI2?AVruntime_error@std@@
	lea	rcx, QWORD PTR $T6[rsp]
	call	_CxxThrowException
	npad	1
$LN28@setPrivile:
; Line 72
	lea	rdx, OFFSET FLAT:??_C@_0BB@EANJDCJP@OpenProcessToken@
	lea	rcx, QWORD PTR $T1[rsp]
	call	?getErrorMessage@@YA?AV?$basic_string@DU?$char_traits@D@std@@V?$allocator@D@2@@std@@PEBD@Z ; getErrorMessage
	npad	1
	mov	rdx, rax
	lea	rcx, QWORD PTR $T2[rsp]
	call	??0runtime_error@std@@QEAA@AEBV?$basic_string@DU?$char_traits@D@std@@V?$allocator@D@2@@1@@Z ; std::runtime_error::runtime_error
	lea	rdx, OFFSET FLAT:_TI2?AVruntime_error@std@@
	lea	rcx, QWORD PTR $T2[rsp]
	call	_CxxThrowException
	npad	1
$LN29@setPrivile:
; Line 75
	lea	rdx, OFFSET FLAT:??_C@_0BF@CEKDDBJL@LookupPrivilegeValue@
	lea	rcx, QWORD PTR $T3[rsp]
	call	?getErrorMessage@@YA?AV?$basic_string@DU?$char_traits@D@std@@V?$allocator@D@2@@std@@PEBD@Z ; getErrorMessage
	npad	1
	mov	rdx, rax
	lea	rcx, QWORD PTR $T4[rsp]
	call	??0runtime_error@std@@QEAA@AEBV?$basic_string@DU?$char_traits@D@std@@V?$allocator@D@2@@1@@Z ; std::runtime_error::runtime_error
	lea	rdx, OFFSET FLAT:_TI2?AVruntime_error@std@@
	lea	rcx, QWORD PTR $T4[rsp]
	call	_CxxThrowException
	npad	1
$LN30@setPrivile:
; Line 91
	lea	rdx, OFFSET FLAT:??_C@_0M@JHJNLFGC@CloseHandle@
	lea	rcx, QWORD PTR $T7[rsp]
	call	?getErrorMessage@@YA?AV?$basic_string@DU?$char_traits@D@std@@V?$allocator@D@2@@std@@PEBD@Z ; getErrorMessage
	npad	1
	mov	rdx, rax
	lea	rcx, QWORD PTR $T8[rsp]
	call	??0runtime_error@std@@QEAA@AEBV?$basic_string@DU?$char_traits@D@std@@V?$allocator@D@2@@1@@Z ; std::runtime_error::runtime_error
	lea	rdx, OFFSET FLAT:_TI2?AVruntime_error@std@@
	lea	rcx, QWORD PTR $T8[rsp]
	call	_CxxThrowException
	int	3
$LN26@setPrivile:
?setPrivilege@@YAXPEBDH@Z ENDP				; setPrivilege
_TEXT	ENDS
; Function compile flags: /Ogtpy
;	COMDAT text$x
text$x	SEGMENT
hToken$ = 48
$T8 = 56
$T6 = 56
$T4 = 56
$T2 = 56
tp$ = 80
$T7 = 96
$T5 = 96
$T3 = 96
$T1 = 96
__$ArrayPad$ = 128
pszPrivilege$dead$ = 160
bEnable$dead$ = 168
?dtor$0@?0??setPrivilege@@YAXPEBDH@Z@4HA PROC		; `setPrivilege'::`1'::dtor$0
	lea	rcx, QWORD PTR $T1[rdx]
	jmp	??1?$basic_string@DU?$char_traits@D@std@@V?$allocator@D@2@@std@@QEAA@XZ ; std::basic_string<char,std::char_traits<char>,std::allocator<char> >::~basic_string<char,std::char_traits<char>,std::allocator<char> >
?dtor$0@?0??setPrivilege@@YAXPEBDH@Z@4HA ENDP		; `setPrivilege'::`1'::dtor$0
text$x	ENDS
; Function compile flags: /Ogtpy
;	COMDAT text$x
text$x	SEGMENT
hToken$ = 48
$T8 = 56
$T6 = 56
$T4 = 56
$T2 = 56
tp$ = 80
$T7 = 96
$T5 = 96
$T3 = 96
$T1 = 96
__$ArrayPad$ = 128
pszPrivilege$dead$ = 160
bEnable$dead$ = 168
?dtor$1@?0??setPrivilege@@YAXPEBDH@Z@4HA PROC		; `setPrivilege'::`1'::dtor$1
	lea	rcx, QWORD PTR $T3[rdx]
	jmp	??1?$basic_string@DU?$char_traits@D@std@@V?$allocator@D@2@@std@@QEAA@XZ ; std::basic_string<char,std::char_traits<char>,std::allocator<char> >::~basic_string<char,std::char_traits<char>,std::allocator<char> >
?dtor$1@?0??setPrivilege@@YAXPEBDH@Z@4HA ENDP		; `setPrivilege'::`1'::dtor$1
text$x	ENDS
; Function compile flags: /Ogtpy
;	COMDAT text$x
text$x	SEGMENT
hToken$ = 48
$T8 = 56
$T6 = 56
$T4 = 56
$T2 = 56
tp$ = 80
$T7 = 96
$T5 = 96
$T3 = 96
$T1 = 96
__$ArrayPad$ = 128
pszPrivilege$dead$ = 160
bEnable$dead$ = 168
?dtor$2@?0??setPrivilege@@YAXPEBDH@Z@4HA PROC		; `setPrivilege'::`1'::dtor$2
	lea	rcx, QWORD PTR $T5[rdx]
	jmp	??1?$basic_string@DU?$char_traits@D@std@@V?$allocator@D@2@@std@@QEAA@XZ ; std::basic_string<char,std::char_traits<char>,std::allocator<char> >::~basic_string<char,std::char_traits<char>,std::allocator<char> >
?dtor$2@?0??setPrivilege@@YAXPEBDH@Z@4HA ENDP		; `setPrivilege'::`1'::dtor$2
text$x	ENDS
; Function compile flags: /Ogtpy
;	COMDAT text$x
text$x	SEGMENT
hToken$ = 48
$T8 = 56
$T6 = 56
$T4 = 56
$T2 = 56
tp$ = 80
$T7 = 96
$T5 = 96
$T3 = 96
$T1 = 96
__$ArrayPad$ = 128
pszPrivilege$dead$ = 160
bEnable$dead$ = 168
?dtor$3@?0??setPrivilege@@YAXPEBDH@Z@4HA PROC		; `setPrivilege'::`1'::dtor$3
	lea	rcx, QWORD PTR $T7[rdx]
	jmp	??1?$basic_string@DU?$char_traits@D@std@@V?$allocator@D@2@@std@@QEAA@XZ ; std::basic_string<char,std::char_traits<char>,std::allocator<char> >::~basic_string<char,std::char_traits<char>,std::allocator<char> >
?dtor$3@?0??setPrivilege@@YAXPEBDH@Z@4HA ENDP		; `setPrivilege'::`1'::dtor$3
text$x	ENDS
; Function compile flags: /Ogtpy
;	COMDAT ?pageProtect@@YAXPEAX_KH@Z
_TEXT	SEGMENT
oldp$ = 32
$T2 = 40
$T1 = 64
__$ArrayPad$ = 96
ptr$ = 128
bytes$dead$ = 136
rules$ = 144
?pageProtect@@YAXPEAX_KH@Z PROC				; pageProtect, COMDAT
; File D:\dev\francium_network\francium_agent\src\ext\randomx\repo\src\virtual_memory.cpp
; Line 124
	sub	rsp, 120				; 00000078H
	mov	rax, QWORD PTR __security_cookie
	xor	rax, rsp
	mov	QWORD PTR __$ArrayPad$[rsp], rax
; Line 127
	lea	r9, QWORD PTR oldp$[rsp]
	mov	edx, 77824				; 00013000H
	call	QWORD PTR __imp_VirtualProtect
	test	eax, eax
	je	SHORT $LN10@pageProtec
; Line 134
	mov	rcx, QWORD PTR __$ArrayPad$[rsp]
	xor	rcx, rsp
	call	__security_check_cookie
	add	rsp, 120				; 00000078H
	ret	0
$LN10@pageProtec:
; Line 128
	lea	rdx, OFFSET FLAT:??_C@_0P@IGDMCLEE@VirtualProtect@
	lea	rcx, QWORD PTR $T1[rsp]
	call	?getErrorMessage@@YA?AV?$basic_string@DU?$char_traits@D@std@@V?$allocator@D@2@@std@@PEBD@Z ; getErrorMessage
	npad	1
	mov	rdx, rax
	lea	rcx, QWORD PTR $T2[rsp]
	call	??0runtime_error@std@@QEAA@AEBV?$basic_string@DU?$char_traits@D@std@@V?$allocator@D@2@@1@@Z ; std::runtime_error::runtime_error
	lea	rdx, OFFSET FLAT:_TI2?AVruntime_error@std@@
	lea	rcx, QWORD PTR $T2[rsp]
	call	_CxxThrowException
	int	3
$LN8@pageProtec:
?pageProtect@@YAXPEAX_KH@Z ENDP				; pageProtect
_TEXT	ENDS
; Function compile flags: /Ogtpy
;	COMDAT text$x
text$x	SEGMENT
oldp$ = 32
$T2 = 40
$T1 = 64
__$ArrayPad$ = 96
ptr$ = 128
bytes$dead$ = 136
rules$ = 144
?dtor$0@?0??pageProtect@@YAXPEAX_KH@Z@4HA PROC		; `pageProtect'::`1'::dtor$0
	lea	rcx, QWORD PTR $T1[rdx]
	jmp	??1?$basic_string@DU?$char_traits@D@std@@V?$allocator@D@2@@std@@QEAA@XZ ; std::basic_string<char,std::char_traits<char>,std::allocator<char> >::~basic_string<char,std::char_traits<char>,std::allocator<char> >
?dtor$0@?0??pageProtect@@YAXPEAX_KH@Z@4HA ENDP		; `pageProtect'::`1'::dtor$0
text$x	ENDS
; Function compile flags: /Ogtpy
;	COMDAT ??$?HDU?$char_traits@D@std@@V?$allocator@D@1@@std@@YA?AV?$basic_string@DU?$char_traits@D@std@@V?$allocator@D@2@@0@$$QEAV10@AEBV10@@Z
_TEXT	SEGMENT
__$ReturnUdt$ = 64
_Left$ = 72
_Right$ = 80
??$?HDU?$char_traits@D@std@@V?$allocator@D@1@@std@@YA?AV?$basic_string@DU?$char_traits@D@std@@V?$allocator@D@2@@0@$$QEAV10@AEBV10@@Z PROC ; std::operator+<char,std::char_traits<char>,std::allocator<char> >, COMDAT
; File D:\software\Visual Studio 2022\VC\Tools\MSVC\14.35.32215\include\xstring
; Line 5147
$LN39:
	mov	QWORD PTR [rsp+8], rbx
	push	rdi
	sub	rsp, 48					; 00000030H
	xor	edi, edi
	mov	rax, rdx
; Line 2300
	cmp	QWORD PTR [r8+24], 16
; Line 5147
	mov	rbx, rcx
; Line 2291
	mov	rdx, r8
; Line 2292
	jb	SHORT $LN8@operator
; Line 2293
	mov	rdx, QWORD PTR [r8]
$LN8@operator:
; Line 3394
	mov	r8, QWORD PTR [r8+16]
	mov	rcx, rax
	call	?append@?$basic_string@DU?$char_traits@D@std@@V?$allocator@D@2@@std@@QEAAAEAV12@QEBD_K@Z ; std::basic_string<char,std::char_traits<char>,std::allocator<char> >::append
	xorps	xmm0, xmm0
; Line 2340
	movups	XMMWORD PTR [rbx], xmm0
; Line 2348
	mov	QWORD PTR [rbx+16], rdi
; Line 2349
	mov	QWORD PTR [rbx+24], rdi
; Line 3139
	movups	xmm0, XMMWORD PTR [rax]
	movups	XMMWORD PTR [rbx], xmm0
	movups	xmm1, XMMWORD PTR [rax+16]
	movups	XMMWORD PTR [rbx+16], xmm1
; Line 5001
	mov	QWORD PTR [rax+16], rdi
; Line 5002
	mov	QWORD PTR [rax+24], 15
; Line 5006
	mov	BYTE PTR [rax], dil
; Line 5148
	mov	rax, rbx
; Line 5149
	mov	rbx, QWORD PTR [rsp+64]
	add	rsp, 48					; 00000030H
	pop	rdi
	ret	0
??$?HDU?$char_traits@D@std@@V?$allocator@D@1@@std@@YA?AV?$basic_string@DU?$char_traits@D@std@@V?$allocator@D@2@@0@$$QEAV10@AEBV10@@Z ENDP ; std::operator+<char,std::char_traits<char>,std::allocator<char> >
_TEXT	ENDS
; Function compile flags: /Ogtpy
;	COMDAT ??$?HDU?$char_traits@D@std@@V?$allocator@D@1@@std@@YA?AV?$basic_string@DU?$char_traits@D@std@@V?$allocator@D@2@@0@$$QEAV10@0@Z
_TEXT	SEGMENT
__$ReturnUdt$ = 64
_Left$ = 72
_Right$ = 80
??$?HDU?$char_traits@D@std@@V?$allocator@D@1@@std@@YA?AV?$basic_string@DU?$char_traits@D@std@@V?$allocator@D@2@@0@$$QEAV10@0@Z PROC ; std::operator+<char,std::char_traits<char>,std::allocator<char> >, COMDAT
; File D:\software\Visual Studio 2022\VC\Tools\MSVC\14.35.32215\include\xstring
; Line 5153
$LN7:
	push	rbx
	sub	rsp, 48					; 00000030H
; Line 5161
	mov	r9, r8
	mov	rbx, rcx
	mov	r8, rdx
	call	??0?$basic_string@DU?$char_traits@D@std@@V?$allocator@D@2@@std@@QEAA@U_String_constructor_concat_tag@1@AEAV01@1@Z ; std::basic_string<char,std::char_traits<char>,std::allocator<char> >::basic_string<char,std::char_traits<char>,std::allocator<char> >
	mov	rax, rbx
; Line 5162
	add	rsp, 48					; 00000030H
	pop	rbx
	ret	0
??$?HDU?$char_traits@D@std@@V?$allocator@D@1@@std@@YA?AV?$basic_string@DU?$char_traits@D@std@@V?$allocator@D@2@@0@$$QEAV10@0@Z ENDP ; std::operator+<char,std::char_traits<char>,std::allocator<char> >
_TEXT	ENDS
; Function compile flags: /Ogtpy
;	COMDAT ??0?$basic_string@DU?$char_traits@D@std@@V?$allocator@D@2@@std@@QEAA@U_String_constructor_concat_tag@1@AEAV01@1@Z
_TEXT	SEGMENT
this$ = 96
__formal$dead$ = 104
_Left$ = 112
_Right$ = 120
??0?$basic_string@DU?$char_traits@D@std@@V?$allocator@D@2@@std@@QEAA@U_String_constructor_concat_tag@1@AEAV01@1@Z PROC ; std::basic_string<char,std::char_traits<char>,std::allocator<char> >::basic_string<char,std::char_traits<char>,std::allocator<char> >, COMDAT
; File D:\software\Visual Studio 2022\VC\Tools\MSVC\14.35.32215\include\xstring
; Line 2948
$LN115:
	mov	QWORD PTR [rsp+16], rbx
	push	rbp
	push	rsi
	push	rdi
	push	r12
	push	r13
	push	r14
	push	r15
	sub	rsp, 32					; 00000020H
; Line 2348
	xor	r14d, r14d
	xorps	xmm0, xmm0
; Line 2340
	movups	XMMWORD PTR [rcx], xmm0
; Line 2348
	mov	QWORD PTR [rcx+16], r14
; Line 2948
	mov	rbx, rcx
; Line 2349
	mov	QWORD PTR [rcx+24], r14
; Line 2948
	mov	rsi, r9
; Line 2954
	mov	r15, QWORD PTR [r8+16]
	mov	rdi, r8
; Line 2955
	mov	r12, QWORD PTR [r9+16]
; Line 2957
	mov	rdx, QWORD PTR [r8+24]
; Line 2958
	mov	rcx, QWORD PTR [r9+24]
; Line 2961
	mov	rax, rdx
	sub	rax, r15
	lea	r13, QWORD PTR [r12+r15]
	cmp	r12, rax
; Line 2962
	ja	SHORT $LN108@basic_stri
	cmp	rcx, rdx
	ja	SHORT $LN108@basic_stri
; Line 3139
	movups	xmm0, XMMWORD PTR [r8]
; Line 2282
	mov	rax, rbx
; Line 3139
	movups	XMMWORD PTR [rbx], xmm0
	movups	xmm1, XMMWORD PTR [r8+16]
	movups	XMMWORD PTR [rbx+16], xmm1
; Line 5001
	mov	QWORD PTR [r8+16], r14
; Line 5002
	mov	QWORD PTR [r8+24], 15
; Line 5006
	mov	BYTE PTR [r8], r14b
; Line 2300
	cmp	QWORD PTR [rbx+24], 16
; Line 2283
	jb	SHORT $LN73@basic_stri
; Line 2284
	mov	rax, QWORD PTR [rbx]
$LN73@basic_stri:
; Line 2300
	cmp	QWORD PTR [r9+24], 16
; Line 2283
	jb	SHORT $LN78@basic_stri
; Line 2284
	mov	rsi, QWORD PTR [r9]
$LN78@basic_stri:
; Line 2968
	lea	r8, QWORD PTR [r12+1]
; Line 64
	mov	rdx, rsi
; Line 2968
	lea	rcx, QWORD PTR [rax+r15]
; Line 64
	call	memcpy
; Line 2969
	mov	QWORD PTR [rbx+16], r13
; Line 2970
	jmp	$LN57@basic_stri
$LN108@basic_stri:
; Line 2973
	sub	rcx, r12
	cmp	r15, rcx
; Line 2974
	ja	SHORT $LN3@basic_stri
; Line 3139
	movups	xmm0, XMMWORD PTR [r9]
; Line 2989
	lea	r8, QWORD PTR [r12+1]
; Line 3139
	movups	XMMWORD PTR [rbx], xmm0
	movups	xmm1, XMMWORD PTR [r9+16]
	movups	XMMWORD PTR [rbx+16], xmm1
; Line 5001
	mov	QWORD PTR [r9+16], r14
; Line 5002
	mov	QWORD PTR [r9+24], 15
; Line 5006
	mov	BYTE PTR [r9], r14b
; Line 2987
	mov	rsi, QWORD PTR [rbx]
; Line 117
	mov	rdx, rsi
; Line 2989
	lea	rcx, QWORD PTR [rsi+r15]
; Line 117
	call	memmove
; Line 2300
	cmp	QWORD PTR [rdi+24], 16
; Line 2283
	jb	SHORT $LN101@basic_stri
; Line 2284
	mov	rdi, QWORD PTR [rdi]
$LN101@basic_stri:
; Line 64
	mov	r8, r15
	mov	rdx, rdi
	mov	rcx, rsi
	call	memcpy
; Line 2991
	mov	QWORD PTR [rbx+16], r13
; Line 2992
	jmp	$LN57@basic_stri
$LN3@basic_stri:
; Line 2997
	mov	rbp, 9223372036854775807		; 7fffffffffffffffH
	mov	rax, rbp
	sub	rax, r15
	cmp	rax, r12
	jb	$LN112@basic_stri
; Line 4886
	mov	rax, r13
	or	rax, 15
	cmp	rax, rbp
; Line 4887
	jbe	SHORT $LN15@basic_stri
; Line 4888
	mov	rax, -9223372036854775808		; 8000000000000000H
	add	rax, 39					; 00000027H
$LN33@basic_stri:
; File D:\software\Visual Studio 2022\VC\Tools\MSVC\14.35.32215\include\xmemory
; Line 77
	mov	rcx, rax
	call	??2@YAPEAX_K@Z				; operator new
; Line 135
	test	rax, rax
	je	$LN32@basic_stri
; Line 136
	lea	r14, QWORD PTR [rax+39]
	and	r14, -32				; ffffffffffffffe0H
; Line 137
	mov	QWORD PTR [r14-8], rax
; Line 229
	jmp	SHORT $LN24@basic_stri
$LN15@basic_stri:
; File D:\software\Visual Studio 2022\VC\Tools\MSVC\14.35.32215\include\utility
; Line 43
	mov	ecx, 22
	mov	rbp, rax
	cmp	rax, rcx
	cmovb	rbp, rcx
; File D:\software\Visual Studio 2022\VC\Tools\MSVC\14.35.32215\include\xstring
; Line 3004
	lea	rcx, QWORD PTR [rbp+1]
; File D:\software\Visual Studio 2022\VC\Tools\MSVC\14.35.32215\include\xmemory
; Line 228
	cmp	rcx, 4096				; 00001000H
	jb	SHORT $LN23@basic_stri
; Line 129
	lea	rax, QWORD PTR [rcx+39]
; Line 130
	cmp	rax, rcx
	jbe	SHORT $LN113@basic_stri
	jmp	SHORT $LN33@basic_stri
$LN23@basic_stri:
; Line 234
	test	rcx, rcx
	je	SHORT $LN24@basic_stri
; Line 77
	call	??2@YAPEAX_K@Z				; operator new
	mov	r14, rax
$LN24@basic_stri:
; File D:\software\Visual Studio 2022\VC\Tools\MSVC\14.35.32215\include\xstring
; Line 3011
	mov	QWORD PTR [rbx], r14
; Line 3012
	mov	QWORD PTR [rbx+16], r13
; Line 3013
	mov	QWORD PTR [rbx+24], rbp
; Line 2300
	cmp	QWORD PTR [rdi+24], 16
; Line 2283
	jb	SHORT $LN45@basic_stri
; Line 2284
	mov	rdi, QWORD PTR [rdi]
$LN45@basic_stri:
; Line 64
	mov	r8, r15
	mov	rdx, rdi
	mov	rcx, r14
	call	memcpy
; Line 2300
	cmp	QWORD PTR [rsi+24], 16
; Line 2283
	jb	SHORT $LN52@basic_stri
; Line 2284
	mov	rsi, QWORD PTR [rsi]
$LN52@basic_stri:
; Line 3016
	lea	r8, QWORD PTR [r12+1]
; Line 64
	mov	rdx, rsi
; Line 3016
	lea	rcx, QWORD PTR [r14+r15]
; Line 64
	call	memcpy
$LN57@basic_stri:
; Line 3019
	mov	rax, rbx
	mov	rbx, QWORD PTR [rsp+104]
	add	rsp, 32					; 00000020H
	pop	r15
	pop	r14
	pop	r13
	pop	r12
	pop	rdi
	pop	rsi
	pop	rbp
	ret	0
$LN32@basic_stri:
; File D:\software\Visual Studio 2022\VC\Tools\MSVC\14.35.32215\include\xmemory
; Line 135
	call	_invalid_parameter_noinfo_noreturn
	int	3
$LN113@basic_stri:
; Line 131
	call	?_Throw_bad_array_new_length@std@@YAXXZ	; std::_Throw_bad_array_new_length
	int	3
$LN112@basic_stri:
; File D:\software\Visual Studio 2022\VC\Tools\MSVC\14.35.32215\include\xstring
; Line 2998
	call	?_Xlen_string@std@@YAXXZ		; std::_Xlen_string
	int	3
$LN110@basic_stri:
??0?$basic_string@DU?$char_traits@D@std@@V?$allocator@D@2@@std@@QEAA@U_String_constructor_concat_tag@1@AEAV01@1@Z ENDP ; std::basic_string<char,std::char_traits<char>,std::allocator<char> >::basic_string<char,std::char_traits<char>,std::allocator<char> >
_TEXT	ENDS
; Function compile flags: /Ogtpy
;	COMDAT ??$?0AEAV?$allocator@D@std@@$$V@?$_Compressed_pair@V?$allocator@D@std@@V?$_String_val@U?$_Simple_types@D@std@@@2@$00@std@@QEAA@U_One_then_variadic_args_t@1@AEAV?$allocator@D@1@@Z
_TEXT	SEGMENT
this$ = 8
__formal$dead$ = 16
_Val1$dead$ = 24
??$?0AEAV?$allocator@D@std@@$$V@?$_Compressed_pair@V?$allocator@D@std@@V?$_String_val@U?$_Simple_types@D@std@@@2@$00@std@@QEAA@U_One_then_variadic_args_t@1@AEAV?$allocator@D@1@@Z PROC ; std::_Compressed_pair<std::allocator<char>,std::_String_val<std::_Simple_types<char> >,1>::_Compressed_pair<std::allocator<char>,std::_String_val<std::_Simple_types<char> >,1><std::allocator<char> &>, COMDAT
; File D:\software\Visual Studio 2022\VC\Tools\MSVC\14.35.32215\include\xmemory
; File D:\software\Visual Studio 2022\VC\Tools\MSVC\14.35.32215\include\xstring
; Line 2348
	xor	eax, eax
	xorps	xmm0, xmm0
; Line 2340
	movups	XMMWORD PTR [rcx], xmm0
; Line 2348
	mov	QWORD PTR [rcx+16], rax
; Line 2349
	mov	QWORD PTR [rcx+24], rax
; File D:\software\Visual Studio 2022\VC\Tools\MSVC\14.35.32215\include\xmemory
; Line 1380
	mov	rax, rcx
	ret	0
??$?0AEAV?$allocator@D@std@@$$V@?$_Compressed_pair@V?$allocator@D@std@@V?$_String_val@U?$_Simple_types@D@std@@@2@$00@std@@QEAA@U_One_then_variadic_args_t@1@AEAV?$allocator@D@1@@Z ENDP ; std::_Compressed_pair<std::allocator<char>,std::_String_val<std::_Simple_types<char> >,1>::_Compressed_pair<std::allocator<char>,std::_String_val<std::_Simple_types<char> >,1><std::allocator<char> &>
_TEXT	ENDS
; Function compile flags: /Ogtpy
;	COMDAT ??$_Allocators_equal@V?$allocator@D@std@@@std@@YA_NAEBV?$allocator@D@0@0@Z
_TEXT	SEGMENT
_Lhs$dead$ = 8
_Rhs$dead$ = 16
??$_Allocators_equal@V?$allocator@D@std@@@std@@YA_NAEBV?$allocator@D@0@0@Z PROC ; std::_Allocators_equal<std::allocator<char> >, COMDAT
; File D:\software\Visual Studio 2022\VC\Tools\MSVC\14.35.32215\include\xmemory
; Line 2034
	mov	al, 1
; Line 2038
	ret	0
??$_Allocators_equal@V?$allocator@D@std@@@std@@YA_NAEBV?$allocator@D@0@0@Z ENDP ; std::_Allocators_equal<std::allocator<char> >
_TEXT	ENDS
; Function compile flags: /Ogtpy
;	COMDAT ??$forward@AEAV?$allocator@D@std@@@std@@YAAEAV?$allocator@D@0@AEAV10@@Z
_TEXT	SEGMENT
_Arg$ = 8
??$forward@AEAV?$allocator@D@std@@@std@@YAAEAV?$allocator@D@0@AEAV10@@Z PROC ; std::forward<std::allocator<char> &>, COMDAT
; File D:\software\Visual Studio 2022\VC\Tools\MSVC\14.35.32215\include\type_traits
; Line 1427
	mov	rax, rcx
; Line 1428
	ret	0
??$forward@AEAV?$allocator@D@std@@@std@@YAAEAV?$allocator@D@0@AEAV10@@Z ENDP ; std::forward<std::allocator<char> &>
_TEXT	ENDS
END
