; Listing generated by Microsoft (R) Optimizing Compiler Version 19.35.32216.1 

include listing.inc

INCLUDELIB OLDNAMES

PUBLIC	??_C@_0BG@OKIDDIAI@Cache?1Dataset?5not?5set@	; `string'
PUBLIC	??_R1A@?0A@EA@logic_error@std@@8		; std::logic_error::`RTTI Base Class Descriptor at (0,-1,0,64)'
PUBLIC	_CTA3?AVinvalid_argument@std@@
PUBLIC	??_R3invalid_argument@std@@8			; std::invalid_argument::`RTTI Class Hierarchy Descriptor'
PUBLIC	??_R2invalid_argument@std@@8			; std::invalid_argument::`RTTI Base Class Array'
PUBLIC	_CT??_R0?AVlogic_error@std@@@8??0logic_error@std@@QEAA@AEBV01@@Z24
PUBLIC	??_R2logic_error@std@@8				; std::logic_error::`RTTI Base Class Array'
PUBLIC	??_R0?AVlogic_error@std@@@8			; std::logic_error `RTTI Type Descriptor'
PUBLIC	??_R4invalid_argument@std@@6B@			; std::invalid_argument::`RTTI Complete Object Locator'
PUBLIC	??_7logic_error@std@@6B@			; std::logic_error::`vftable'
PUBLIC	??_R1A@?0A@EA@invalid_argument@std@@8		; std::invalid_argument::`RTTI Base Class Descriptor at (0,-1,0,64)'
PUBLIC	_CT??_R0?AVinvalid_argument@std@@@8??0invalid_argument@std@@QEAA@AEBV01@@Z24
PUBLIC	_TI3?AVinvalid_argument@std@@
PUBLIC	??_7invalid_argument@std@@6B@			; std::invalid_argument::`vftable'
PUBLIC	??_R3logic_error@std@@8				; std::logic_error::`RTTI Class Hierarchy Descriptor'
PUBLIC	??_R4logic_error@std@@6B@			; std::logic_error::`RTTI Complete Object Locator'
PUBLIC	??_R0?AVinvalid_argument@std@@@8		; std::invalid_argument `RTTI Type Descriptor'
;	COMDAT ??_R0?AVinvalid_argument@std@@@8
data$r	SEGMENT
??_R0?AVinvalid_argument@std@@@8 DQ FLAT:??_7type_info@@6B@ ; std::invalid_argument `RTTI Type Descriptor'
	DQ	0000000000000000H
	DB	'.?AVinvalid_argument@std@@', 00H
data$r	ENDS
;	COMDAT ??_R4logic_error@std@@6B@
rdata$r	SEGMENT
??_R4logic_error@std@@6B@ DD 01H			; std::logic_error::`RTTI Complete Object Locator'
	DD	00H
	DD	00H
	DD	imagerel ??_R0?AVlogic_error@std@@@8
	DD	imagerel ??_R3logic_error@std@@8
	DD	imagerel ??_R4logic_error@std@@6B@
rdata$r	ENDS
;	COMDAT ??_R3logic_error@std@@8
rdata$r	SEGMENT
??_R3logic_error@std@@8 DD 00H				; std::logic_error::`RTTI Class Hierarchy Descriptor'
	DD	00H
	DD	02H
	DD	imagerel ??_R2logic_error@std@@8
rdata$r	ENDS
;	COMDAT ??_7invalid_argument@std@@6B@
CONST	SEGMENT
??_7invalid_argument@std@@6B@ DQ FLAT:??_R4invalid_argument@std@@6B@ ; std::invalid_argument::`vftable'
	DQ	FLAT:??_Einvalid_argument@std@@UEAAPEAXI@Z
	DQ	FLAT:?what@exception@std@@UEBAPEBDXZ
CONST	ENDS
;	COMDAT _TI3?AVinvalid_argument@std@@
xdata$x	SEGMENT
_TI3?AVinvalid_argument@std@@ DD 00H
	DD	imagerel ??1invalid_argument@std@@UEAA@XZ
	DD	00H
	DD	imagerel _CTA3?AVinvalid_argument@std@@
xdata$x	ENDS
;	COMDAT _CT??_R0?AVinvalid_argument@std@@@8??0invalid_argument@std@@QEAA@AEBV01@@Z24
xdata$x	SEGMENT
_CT??_R0?AVinvalid_argument@std@@@8??0invalid_argument@std@@QEAA@AEBV01@@Z24 DD 00H
	DD	imagerel ??_R0?AVinvalid_argument@std@@@8
	DD	00H
	DD	0ffffffffH
	ORG $+4
	DD	018H
	DD	imagerel ??0invalid_argument@std@@QEAA@AEBV01@@Z
xdata$x	ENDS
;	COMDAT ??_R1A@?0A@EA@invalid_argument@std@@8
rdata$r	SEGMENT
??_R1A@?0A@EA@invalid_argument@std@@8 DD imagerel ??_R0?AVinvalid_argument@std@@@8 ; std::invalid_argument::`RTTI Base Class Descriptor at (0,-1,0,64)'
	DD	02H
	DD	00H
	DD	0ffffffffH
	DD	00H
	DD	040H
	DD	imagerel ??_R3invalid_argument@std@@8
rdata$r	ENDS
;	COMDAT ??_7logic_error@std@@6B@
CONST	SEGMENT
??_7logic_error@std@@6B@ DQ FLAT:??_R4logic_error@std@@6B@ ; std::logic_error::`vftable'
	DQ	FLAT:??_Elogic_error@std@@UEAAPEAXI@Z
	DQ	FLAT:?what@exception@std@@UEBAPEBDXZ
CONST	ENDS
;	COMDAT ??_R4invalid_argument@std@@6B@
rdata$r	SEGMENT
??_R4invalid_argument@std@@6B@ DD 01H			; std::invalid_argument::`RTTI Complete Object Locator'
	DD	00H
	DD	00H
	DD	imagerel ??_R0?AVinvalid_argument@std@@@8
	DD	imagerel ??_R3invalid_argument@std@@8
	DD	imagerel ??_R4invalid_argument@std@@6B@
rdata$r	ENDS
;	COMDAT ??_R0?AVlogic_error@std@@@8
data$r	SEGMENT
??_R0?AVlogic_error@std@@@8 DQ FLAT:??_7type_info@@6B@	; std::logic_error `RTTI Type Descriptor'
	DQ	0000000000000000H
	DB	'.?AVlogic_error@std@@', 00H
data$r	ENDS
;	COMDAT ??_R2logic_error@std@@8
rdata$r	SEGMENT
??_R2logic_error@std@@8 DD imagerel ??_R1A@?0A@EA@logic_error@std@@8 ; std::logic_error::`RTTI Base Class Array'
	DD	imagerel ??_R1A@?0A@EA@exception@std@@8
	ORG $+3
rdata$r	ENDS
;	COMDAT _CT??_R0?AVlogic_error@std@@@8??0logic_error@std@@QEAA@AEBV01@@Z24
xdata$x	SEGMENT
_CT??_R0?AVlogic_error@std@@@8??0logic_error@std@@QEAA@AEBV01@@Z24 DD 00H
	DD	imagerel ??_R0?AVlogic_error@std@@@8
	DD	00H
	DD	0ffffffffH
	ORG $+4
	DD	018H
	DD	imagerel ??0logic_error@std@@QEAA@AEBV01@@Z
xdata$x	ENDS
;	COMDAT ??_R2invalid_argument@std@@8
rdata$r	SEGMENT
??_R2invalid_argument@std@@8 DD imagerel ??_R1A@?0A@EA@invalid_argument@std@@8 ; std::invalid_argument::`RTTI Base Class Array'
	DD	imagerel ??_R1A@?0A@EA@logic_error@std@@8
	DD	imagerel ??_R1A@?0A@EA@exception@std@@8
	ORG $+3
rdata$r	ENDS
;	COMDAT ??_R3invalid_argument@std@@8
rdata$r	SEGMENT
??_R3invalid_argument@std@@8 DD 00H			; std::invalid_argument::`RTTI Class Hierarchy Descriptor'
	DD	00H
	DD	03H
	DD	imagerel ??_R2invalid_argument@std@@8
rdata$r	ENDS
;	COMDAT _CTA3?AVinvalid_argument@std@@
xdata$x	SEGMENT
_CTA3?AVinvalid_argument@std@@ DD 03H
	DD	imagerel _CT??_R0?AVinvalid_argument@std@@@8??0invalid_argument@std@@QEAA@AEBV01@@Z24
	DD	imagerel _CT??_R0?AVlogic_error@std@@@8??0logic_error@std@@QEAA@AEBV01@@Z24
	DD	imagerel _CT??_R0?AVexception@std@@@8??0exception@std@@QEAA@AEBV01@@Z24
xdata$x	ENDS
;	COMDAT ??_R1A@?0A@EA@logic_error@std@@8
rdata$r	SEGMENT
??_R1A@?0A@EA@logic_error@std@@8 DD imagerel ??_R0?AVlogic_error@std@@@8 ; std::logic_error::`RTTI Base Class Descriptor at (0,-1,0,64)'
	DD	01H
	DD	00H
	DD	0ffffffffH
	DD	00H
	DD	040H
	DD	imagerel ??_R3logic_error@std@@8
rdata$r	ENDS
;	COMDAT ??_C@_0BG@OKIDDIAI@Cache?1Dataset?5not?5set@
CONST	SEGMENT
??_C@_0BG@OKIDDIAI@Cache?1Dataset?5not?5set@ DB 'Cache/Dataset not set', 00H ; `string'
?_Fake_alloc@std@@3U_Fake_allocator@1@B	ORG $+1		; std::_Fake_alloc
PUBLIC	??0logic_error@std@@QEAA@AEBV01@@Z		; std::logic_error::logic_error
PUBLIC	??0invalid_argument@std@@QEAA@AEBV01@@Z		; std::invalid_argument::invalid_argument
PUBLIC	?rx_reset_float_state@@YAXXZ			; rx_reset_float_state
PUBLIC	?getScratchpad@randomx_vm@@QEAAPEBXXZ		; randomx_vm::getScratchpad
PUBLIC	?getEntropy@Program@randomx@@QEAA_KH@Z		; randomx::Program::getEntropy
PUBLIC	??1invalid_argument@std@@UEAA@XZ		; std::invalid_argument::~invalid_argument
PUBLIC	??_Ginvalid_argument@std@@UEAAPEAXI@Z		; std::invalid_argument::`scalar deleting destructor'
PUBLIC	??0invalid_argument@std@@QEAA@PEBD@Z		; std::invalid_argument::invalid_argument
PUBLIC	??1logic_error@std@@UEAA@XZ			; std::logic_error::~logic_error
PUBLIC	??_Glogic_error@std@@UEAAPEAXI@Z		; std::logic_error::`scalar deleting destructor'
PUBLIC	??0logic_error@std@@QEAA@PEBD@Z			; std::logic_error::logic_error
PUBLIC	?generateProgram@?$VmBase@ULargePageAllocator@randomx@@$0A@@randomx@@IEAAXPEAX@Z ; randomx::VmBase<randomx::LargePageAllocator,0>::generateProgram
PUBLIC	?generateProgram@?$VmBase@U?$AlignedAllocator@$0EA@@randomx@@$0A@@randomx@@IEAAXPEAX@Z ; randomx::VmBase<randomx::AlignedAllocator<64>,0>::generateProgram
PUBLIC	?generateProgram@?$VmBase@U?$AlignedAllocator@$0EA@@randomx@@$00@randomx@@IEAAXPEAX@Z ; randomx::VmBase<randomx::AlignedAllocator<64>,1>::generateProgram
PUBLIC	?generateProgram@?$VmBase@ULargePageAllocator@randomx@@$00@randomx@@IEAAXPEAX@Z ; randomx::VmBase<randomx::LargePageAllocator,1>::generateProgram
PUBLIC	?initialize@randomx_vm@@IEAAXXZ			; randomx_vm::initialize
PUBLIC	?hashAndFill@?$VmBase@ULargePageAllocator@randomx@@$0A@@randomx@@UEAAXPEAX_KPEA_K@Z ; randomx::VmBase<randomx::LargePageAllocator,0>::hashAndFill
PUBLIC	?getFinalResult@?$VmBase@ULargePageAllocator@randomx@@$0A@@randomx@@UEAAXPEAX_K@Z ; randomx::VmBase<randomx::LargePageAllocator,0>::getFinalResult
PUBLIC	?initScratchpad@?$VmBase@ULargePageAllocator@randomx@@$0A@@randomx@@UEAAXPEAX@Z ; randomx::VmBase<randomx::LargePageAllocator,0>::initScratchpad
PUBLIC	?allocate@?$VmBase@ULargePageAllocator@randomx@@$0A@@randomx@@UEAAXXZ ; randomx::VmBase<randomx::LargePageAllocator,0>::allocate
PUBLIC	??1?$VmBase@ULargePageAllocator@randomx@@$0A@@randomx@@UEAA@XZ ; randomx::VmBase<randomx::LargePageAllocator,0>::~VmBase<randomx::LargePageAllocator,0>
PUBLIC	?hashAndFill@?$VmBase@U?$AlignedAllocator@$0EA@@randomx@@$0A@@randomx@@UEAAXPEAX_KPEA_K@Z ; randomx::VmBase<randomx::AlignedAllocator<64>,0>::hashAndFill
PUBLIC	?getFinalResult@?$VmBase@U?$AlignedAllocator@$0EA@@randomx@@$0A@@randomx@@UEAAXPEAX_K@Z ; randomx::VmBase<randomx::AlignedAllocator<64>,0>::getFinalResult
PUBLIC	?initScratchpad@?$VmBase@U?$AlignedAllocator@$0EA@@randomx@@$0A@@randomx@@UEAAXPEAX@Z ; randomx::VmBase<randomx::AlignedAllocator<64>,0>::initScratchpad
PUBLIC	?allocate@?$VmBase@U?$AlignedAllocator@$0EA@@randomx@@$0A@@randomx@@UEAAXXZ ; randomx::VmBase<randomx::AlignedAllocator<64>,0>::allocate
PUBLIC	??1?$VmBase@U?$AlignedAllocator@$0EA@@randomx@@$0A@@randomx@@UEAA@XZ ; randomx::VmBase<randomx::AlignedAllocator<64>,0>::~VmBase<randomx::AlignedAllocator<64>,0>
PUBLIC	?hashAndFill@?$VmBase@U?$AlignedAllocator@$0EA@@randomx@@$00@randomx@@UEAAXPEAX_KPEA_K@Z ; randomx::VmBase<randomx::AlignedAllocator<64>,1>::hashAndFill
PUBLIC	?getFinalResult@?$VmBase@U?$AlignedAllocator@$0EA@@randomx@@$00@randomx@@UEAAXPEAX_K@Z ; randomx::VmBase<randomx::AlignedAllocator<64>,1>::getFinalResult
PUBLIC	?initScratchpad@?$VmBase@U?$AlignedAllocator@$0EA@@randomx@@$00@randomx@@UEAAXPEAX@Z ; randomx::VmBase<randomx::AlignedAllocator<64>,1>::initScratchpad
PUBLIC	?allocate@?$VmBase@U?$AlignedAllocator@$0EA@@randomx@@$00@randomx@@UEAAXXZ ; randomx::VmBase<randomx::AlignedAllocator<64>,1>::allocate
PUBLIC	??1?$VmBase@U?$AlignedAllocator@$0EA@@randomx@@$00@randomx@@UEAA@XZ ; randomx::VmBase<randomx::AlignedAllocator<64>,1>::~VmBase<randomx::AlignedAllocator<64>,1>
PUBLIC	?hashAndFill@?$VmBase@ULargePageAllocator@randomx@@$00@randomx@@UEAAXPEAX_KPEA_K@Z ; randomx::VmBase<randomx::LargePageAllocator,1>::hashAndFill
PUBLIC	?getFinalResult@?$VmBase@ULargePageAllocator@randomx@@$00@randomx@@UEAAXPEAX_K@Z ; randomx::VmBase<randomx::LargePageAllocator,1>::getFinalResult
PUBLIC	?initScratchpad@?$VmBase@ULargePageAllocator@randomx@@$00@randomx@@UEAAXPEAX@Z ; randomx::VmBase<randomx::LargePageAllocator,1>::initScratchpad
PUBLIC	?allocate@?$VmBase@ULargePageAllocator@randomx@@$00@randomx@@UEAAXXZ ; randomx::VmBase<randomx::LargePageAllocator,1>::allocate
PUBLIC	??1?$VmBase@ULargePageAllocator@randomx@@$00@randomx@@UEAA@XZ ; randomx::VmBase<randomx::LargePageAllocator,1>::~VmBase<randomx::LargePageAllocator,1>
PUBLIC	?resetRoundingMode@randomx_vm@@QEAAXXZ		; randomx_vm::resetRoundingMode
PUBLIC	??1randomx_vm@@UEAA@XZ				; randomx_vm::~randomx_vm
EXTRN	??_Elogic_error@std@@UEAAPEAXI@Z:PROC		; std::logic_error::`vector deleting destructor'
EXTRN	??_Einvalid_argument@std@@UEAAPEAXI@Z:PROC	; std::invalid_argument::`vector deleting destructor'
?aesDummy@randomx@@3T__m128i@@C DB 010H DUP (?)		; randomx::aesDummy
_BSS	ENDS
;	COMDAT pdata
pdata	SEGMENT
$pdata$??0logic_error@std@@QEAA@AEBV01@@Z DD imagerel $LN7
	DD	imagerel $LN7+60
	DD	imagerel $unwind$??0logic_error@std@@QEAA@AEBV01@@Z
pdata	ENDS
;	COMDAT pdata
pdata	SEGMENT
$pdata$??0invalid_argument@std@@QEAA@AEBV01@@Z DD imagerel $LN10
	DD	imagerel $LN10+60
	DD	imagerel $unwind$??0invalid_argument@std@@QEAA@AEBV01@@Z
pdata	ENDS
;	COMDAT pdata
pdata	SEGMENT
$pdata$??_Ginvalid_argument@std@@UEAAPEAXI@Z DD imagerel $LN15
	DD	imagerel $LN15+66
	DD	imagerel $unwind$??_Ginvalid_argument@std@@UEAAPEAXI@Z
pdata	ENDS
;	COMDAT pdata
pdata	SEGMENT
$pdata$??0invalid_argument@std@@QEAA@PEBD@Z DD imagerel $LN9
	DD	imagerel $LN9+99
	DD	imagerel $unwind$??0invalid_argument@std@@QEAA@PEBD@Z
pdata	ENDS
;	COMDAT pdata
pdata	SEGMENT
$pdata$??_Glogic_error@std@@UEAAPEAXI@Z DD imagerel $LN12
	DD	imagerel $LN12+66
	DD	imagerel $unwind$??_Glogic_error@std@@UEAAPEAXI@Z
pdata	ENDS
;	COMDAT pdata
pdata	SEGMENT
$pdata$??0logic_error@std@@QEAA@PEBD@Z DD imagerel $LN7
	DD	imagerel $LN7+99
	DD	imagerel $unwind$??0logic_error@std@@QEAA@PEBD@Z
pdata	ENDS
;	COMDAT pdata
pdata	SEGMENT
$pdata$?hashAndFill@?$VmBase@ULargePageAllocator@randomx@@$0A@@randomx@@UEAAXPEAX_KPEA_K@Z DD imagerel $LN4
	DD	imagerel $LN4+83
	DD	imagerel $unwind$?hashAndFill@?$VmBase@ULargePageAllocator@randomx@@$0A@@randomx@@UEAAXPEAX_KPEA_K@Z
pdata	ENDS
;	COMDAT pdata
pdata	SEGMENT
$pdata$?getFinalResult@?$VmBase@ULargePageAllocator@randomx@@$0A@@randomx@@UEAAXPEAX_K@Z DD imagerel $LN4
	DD	imagerel $LN4+61
	DD	imagerel $unwind$?getFinalResult@?$VmBase@ULargePageAllocator@randomx@@$0A@@randomx@@UEAAXPEAX_K@Z
pdata	ENDS
;	COMDAT pdata
pdata	SEGMENT
$pdata$?allocate@?$VmBase@ULargePageAllocator@randomx@@$0A@@randomx@@UEAAXXZ DD imagerel $LN10
	DD	imagerel $LN10+98
	DD	imagerel $unwind$?allocate@?$VmBase@ULargePageAllocator@randomx@@$0A@@randomx@@UEAAXXZ
pdata	ENDS
;	COMDAT pdata
pdata	SEGMENT
$pdata$??1?$VmBase@ULargePageAllocator@randomx@@$0A@@randomx@@UEAA@XZ DD imagerel $LN9
	DD	imagerel $LN9+53
	DD	imagerel $unwind$??1?$VmBase@ULargePageAllocator@randomx@@$0A@@randomx@@UEAA@XZ
pdata	ENDS
;	COMDAT pdata
pdata	SEGMENT
$pdata$?hashAndFill@?$VmBase@U?$AlignedAllocator@$0EA@@randomx@@$0A@@randomx@@UEAAXPEAX_KPEA_K@Z DD imagerel $LN4
	DD	imagerel $LN4+83
	DD	imagerel $unwind$?hashAndFill@?$VmBase@U?$AlignedAllocator@$0EA@@randomx@@$0A@@randomx@@UEAAXPEAX_KPEA_K@Z
pdata	ENDS
;	COMDAT pdata
pdata	SEGMENT
$pdata$?getFinalResult@?$VmBase@U?$AlignedAllocator@$0EA@@randomx@@$0A@@randomx@@UEAAXPEAX_K@Z DD imagerel $LN4
	DD	imagerel $LN4+61
	DD	imagerel $unwind$?getFinalResult@?$VmBase@U?$AlignedAllocator@$0EA@@randomx@@$0A@@randomx@@UEAAXPEAX_K@Z
pdata	ENDS
;	COMDAT pdata
pdata	SEGMENT
$pdata$?allocate@?$VmBase@U?$AlignedAllocator@$0EA@@randomx@@$0A@@randomx@@UEAAXXZ DD imagerel $LN13
	DD	imagerel $LN13+136
	DD	imagerel $unwind$?allocate@?$VmBase@U?$AlignedAllocator@$0EA@@randomx@@$0A@@randomx@@UEAAXXZ
pdata	ENDS
;	COMDAT pdata
pdata	SEGMENT
$pdata$??1?$VmBase@U?$AlignedAllocator@$0EA@@randomx@@$0A@@randomx@@UEAA@XZ DD imagerel $LN7
	DD	imagerel $LN7+44
	DD	imagerel $unwind$??1?$VmBase@U?$AlignedAllocator@$0EA@@randomx@@$0A@@randomx@@UEAA@XZ
pdata	ENDS
;	COMDAT pdata
pdata	SEGMENT
$pdata$?hashAndFill@?$VmBase@U?$AlignedAllocator@$0EA@@randomx@@$00@randomx@@UEAAXPEAX_KPEA_K@Z DD imagerel $LN4
	DD	imagerel $LN4+83
	DD	imagerel $unwind$?hashAndFill@?$VmBase@U?$AlignedAllocator@$0EA@@randomx@@$00@randomx@@UEAAXPEAX_KPEA_K@Z
pdata	ENDS
;	COMDAT pdata
pdata	SEGMENT
$pdata$?getFinalResult@?$VmBase@U?$AlignedAllocator@$0EA@@randomx@@$00@randomx@@UEAAXPEAX_K@Z DD imagerel $LN4
	DD	imagerel $LN4+83
	DD	imagerel $unwind$?getFinalResult@?$VmBase@U?$AlignedAllocator@$0EA@@randomx@@$00@randomx@@UEAAXPEAX_K@Z
pdata	ENDS
;	COMDAT pdata
pdata	SEGMENT
$pdata$?allocate@?$VmBase@U?$AlignedAllocator@$0EA@@randomx@@$00@randomx@@UEAAXXZ DD imagerel $LN13
	DD	imagerel $LN13+115
	DD	imagerel $unwind$?allocate@?$VmBase@U?$AlignedAllocator@$0EA@@randomx@@$00@randomx@@UEAAXXZ
pdata	ENDS
;	COMDAT pdata
pdata	SEGMENT
$pdata$??1?$VmBase@U?$AlignedAllocator@$0EA@@randomx@@$00@randomx@@UEAA@XZ DD imagerel $LN7
	DD	imagerel $LN7+44
	DD	imagerel $unwind$??1?$VmBase@U?$AlignedAllocator@$0EA@@randomx@@$00@randomx@@UEAA@XZ
pdata	ENDS
;	COMDAT pdata
pdata	SEGMENT
$pdata$?hashAndFill@?$VmBase@ULargePageAllocator@randomx@@$00@randomx@@UEAAXPEAX_KPEA_K@Z DD imagerel $LN4
	DD	imagerel $LN4+83
	DD	imagerel $unwind$?hashAndFill@?$VmBase@ULargePageAllocator@randomx@@$00@randomx@@UEAAXPEAX_KPEA_K@Z
pdata	ENDS
;	COMDAT pdata
pdata	SEGMENT
$pdata$?getFinalResult@?$VmBase@ULargePageAllocator@randomx@@$00@randomx@@UEAAXPEAX_K@Z DD imagerel $LN4
	DD	imagerel $LN4+83
	DD	imagerel $unwind$?getFinalResult@?$VmBase@ULargePageAllocator@randomx@@$00@randomx@@UEAAXPEAX_K@Z
pdata	ENDS
;	COMDAT pdata
pdata	SEGMENT
$pdata$?allocate@?$VmBase@ULargePageAllocator@randomx@@$00@randomx@@UEAAXXZ DD imagerel $LN10
	DD	imagerel $LN10+77
	DD	imagerel $unwind$?allocate@?$VmBase@ULargePageAllocator@randomx@@$00@randomx@@UEAAXXZ
pdata	ENDS
;	COMDAT pdata
pdata	SEGMENT
$pdata$??1?$VmBase@ULargePageAllocator@randomx@@$00@randomx@@UEAA@XZ DD imagerel $LN9
	DD	imagerel $LN9+53
	DD	imagerel $unwind$??1?$VmBase@ULargePageAllocator@randomx@@$00@randomx@@UEAA@XZ
pdata	ENDS
;	COMDAT pdata
pdata	SEGMENT
$pdata$??1randomx_vm@@UEAA@XZ DD imagerel $LN34
	DD	imagerel $LN34+121
	DD	imagerel $unwind$??1randomx_vm@@UEAA@XZ
;	COMDAT xdata
xdata	SEGMENT
$unwind$??1randomx_vm@@UEAA@XZ DD 020601H
	DD	030023206H
xdata	ENDS
;	COMDAT xdata
xdata	SEGMENT
$unwind$??1?$VmBase@ULargePageAllocator@randomx@@$00@randomx@@UEAA@XZ DD 020601H
	DD	030023206H
xdata	ENDS
;	COMDAT xdata
xdata	SEGMENT
$unwind$?allocate@?$VmBase@ULargePageAllocator@randomx@@$00@randomx@@UEAAXXZ DD 020601H
	DD	030027206H
xdata	ENDS
;	COMDAT xdata
xdata	SEGMENT
$unwind$?getFinalResult@?$VmBase@ULargePageAllocator@randomx@@$00@randomx@@UEAAXPEAX_K@Z DD 060f01H
	DD	09640fH
	DD	08340fH
	DD	0700b520fH
xdata	ENDS
;	COMDAT xdata
xdata	SEGMENT
$unwind$?hashAndFill@?$VmBase@ULargePageAllocator@randomx@@$00@randomx@@UEAAXPEAX_KPEA_K@Z DD 060f01H
	DD	09640fH
	DD	08340fH
	DD	0700b520fH
xdata	ENDS
;	COMDAT xdata
xdata	SEGMENT
$unwind$??1?$VmBase@U?$AlignedAllocator@$0EA@@randomx@@$00@randomx@@UEAA@XZ DD 020601H
	DD	030023206H
xdata	ENDS
;	COMDAT xdata
xdata	SEGMENT
$unwind$?allocate@?$VmBase@U?$AlignedAllocator@$0EA@@randomx@@$00@randomx@@UEAAXXZ DD 020601H
	DD	030027206H
xdata	ENDS
;	COMDAT xdata
xdata	SEGMENT
$unwind$?getFinalResult@?$VmBase@U?$AlignedAllocator@$0EA@@randomx@@$00@randomx@@UEAAXPEAX_K@Z DD 060f01H
	DD	09640fH
	DD	08340fH
	DD	0700b520fH
xdata	ENDS
;	COMDAT xdata
xdata	SEGMENT
$unwind$?hashAndFill@?$VmBase@U?$AlignedAllocator@$0EA@@randomx@@$00@randomx@@UEAAXPEAX_KPEA_K@Z DD 060f01H
	DD	09640fH
	DD	08340fH
	DD	0700b520fH
xdata	ENDS
;	COMDAT xdata
xdata	SEGMENT
$unwind$??1?$VmBase@U?$AlignedAllocator@$0EA@@randomx@@$0A@@randomx@@UEAA@XZ DD 020601H
	DD	030023206H
xdata	ENDS
;	COMDAT xdata
xdata	SEGMENT
$unwind$?allocate@?$VmBase@U?$AlignedAllocator@$0EA@@randomx@@$0A@@randomx@@UEAAXXZ DD 020601H
	DD	030027206H
xdata	ENDS
;	COMDAT xdata
xdata	SEGMENT
$unwind$?getFinalResult@?$VmBase@U?$AlignedAllocator@$0EA@@randomx@@$0A@@randomx@@UEAAXPEAX_K@Z DD 010401H
	DD	06204H
xdata	ENDS
;	COMDAT xdata
xdata	SEGMENT
$unwind$?hashAndFill@?$VmBase@U?$AlignedAllocator@$0EA@@randomx@@$0A@@randomx@@UEAAXPEAX_KPEA_K@Z DD 060f01H
	DD	09640fH
	DD	08340fH
	DD	0700b520fH
xdata	ENDS
;	COMDAT xdata
xdata	SEGMENT
$unwind$??1?$VmBase@ULargePageAllocator@randomx@@$0A@@randomx@@UEAA@XZ DD 020601H
	DD	030023206H
xdata	ENDS
;	COMDAT xdata
xdata	SEGMENT
$unwind$?allocate@?$VmBase@ULargePageAllocator@randomx@@$0A@@randomx@@UEAAXXZ DD 020601H
	DD	030027206H
xdata	ENDS
;	COMDAT xdata
xdata	SEGMENT
$unwind$?getFinalResult@?$VmBase@ULargePageAllocator@randomx@@$0A@@randomx@@UEAAXPEAX_K@Z DD 010401H
	DD	06204H
xdata	ENDS
;	COMDAT xdata
xdata	SEGMENT
$unwind$?hashAndFill@?$VmBase@ULargePageAllocator@randomx@@$0A@@randomx@@UEAAXPEAX_KPEA_K@Z DD 060f01H
	DD	09640fH
	DD	08340fH
	DD	0700b520fH
xdata	ENDS
;	COMDAT xdata
xdata	SEGMENT
$unwind$??0logic_error@std@@QEAA@PEBD@Z DD 021519H
	DD	030027206H
	DD	imagerel __GSHandlerCheck
	DD	030H
xdata	ENDS
;	COMDAT xdata
xdata	SEGMENT
$unwind$??_Glogic_error@std@@UEAAPEAXI@Z DD 040a01H
	DD	06340aH
	DD	07006320aH
xdata	ENDS
;	COMDAT xdata
xdata	SEGMENT
$unwind$??0invalid_argument@std@@QEAA@PEBD@Z DD 021519H
	DD	030027206H
	DD	imagerel __GSHandlerCheck
	DD	030H
xdata	ENDS
;	COMDAT xdata
xdata	SEGMENT
$unwind$??_Ginvalid_argument@std@@UEAAPEAXI@Z DD 040a01H
	DD	06340aH
	DD	07006320aH
xdata	ENDS
;	COMDAT xdata
xdata	SEGMENT
$unwind$??0invalid_argument@std@@QEAA@AEBV01@@Z DD 020601H
	DD	030023206H
xdata	ENDS
;	COMDAT xdata
xdata	SEGMENT
$unwind$??0logic_error@std@@QEAA@AEBV01@@Z DD 020601H
	DD	030023206H
; Function compile flags: /Ogtpy
;	COMDAT ??1randomx_vm@@UEAA@XZ
_TEXT	SEGMENT
this$ = 48
??1randomx_vm@@UEAA@XZ PROC				; randomx_vm::~randomx_vm, COMDAT
; File D:\dev\francium_network\francium_agent\src\ext\randomx\repo\src\virtual_machine.cpp
; Line 39
$LN34:
	push	rbx
	sub	rsp, 32					; 00000020H
	lea	rax, OFFSET FLAT:??_7randomx_vm@@6B@
	mov	rbx, rcx
	mov	QWORD PTR [rcx], rax
; File D:\software\Visual Studio 2022\VC\Tools\MSVC\14.35.32215\include\xstring
; Line 2300
	mov	rdx, QWORD PTR [rcx+2592]
	cmp	rdx, 16
; Line 5014
	jb	SHORT $LN15@randomx_vm
; File D:\software\Visual Studio 2022\VC\Tools\MSVC\14.35.32215\include\xmemory
; Line 829
	mov	rcx, QWORD PTR [rcx+2568]
; File D:\software\Visual Studio 2022\VC\Tools\MSVC\14.35.32215\include\xstring
; Line 5019
	inc	rdx
; File D:\software\Visual Studio 2022\VC\Tools\MSVC\14.35.32215\include\xmemory
; Line 251
	cmp	rdx, 4096				; 00001000H
	jb	SHORT $LN25@randomx_vm
; Line 150
	mov	r8, QWORD PTR [rcx-8]
	add	rdx, 39					; 00000027H
; Line 163
	sub	rcx, r8
; Line 164
	lea	rax, QWORD PTR [rcx-8]
	cmp	rax, 31
	ja	SHORT $LN22@randomx_vm
; Line 165
	mov	rcx, r8
$LN25@randomx_vm:
; Line 255
	call	??3@YAXPEAX_K@Z				; operator delete
$LN15@randomx_vm:
; File D:\software\Visual Studio 2022\VC\Tools\MSVC\14.35.32215\include\xstring
; Line 5022
	mov	QWORD PTR [rbx+2584], 0
; Line 5023
	mov	QWORD PTR [rbx+2592], 15
; Line 5025
	mov	BYTE PTR [rbx+2568], 0
; File D:\dev\francium_network\francium_agent\src\ext\randomx\repo\src\virtual_machine.cpp
; Line 41
	add	rsp, 32					; 00000020H
	pop	rbx
	ret	0
$LN22@randomx_vm:
; File D:\software\Visual Studio 2022\VC\Tools\MSVC\14.35.32215\include\xmemory
; Line 164
	call	_invalid_parameter_noinfo_noreturn
	int	3
$LN31@randomx_vm:
??1randomx_vm@@UEAA@XZ ENDP				; randomx_vm::~randomx_vm
_TEXT	ENDS
; Function compile flags: /Ogtpy
;	COMDAT ?resetRoundingMode@randomx_vm@@QEAAXXZ
_TEXT	SEGMENT
tv65 = 8
this$dead$ = 8
?resetRoundingMode@randomx_vm@@QEAAXXZ PROC		; randomx_vm::resetRoundingMode, COMDAT
; File D:\dev\francium_network\francium_agent\src\ext\randomx\repo\src\virtual_machine.cpp
; Line 43
	mov	QWORD PTR [rsp+8], rcx
; File D:\dev\francium_network\francium_agent\src\ext\randomx\repo\src\intrin_portable.h
; Line 169
	mov	DWORD PTR tv65[rsp], 40896		; 00009fc0H
	ldmxcsr	DWORD PTR tv65[rsp]
; File D:\dev\francium_network\francium_agent\src\ext\randomx\repo\src\virtual_machine.cpp
; Line 45
	ret	0
?resetRoundingMode@randomx_vm@@QEAAXXZ ENDP		; randomx_vm::resetRoundingMode
_TEXT	ENDS
; Function compile flags: /Ogtpy
;	COMDAT ??1?$VmBase@ULargePageAllocator@randomx@@$00@randomx@@UEAA@XZ
_TEXT	SEGMENT
this$ = 48
??1?$VmBase@ULargePageAllocator@randomx@@$00@randomx@@UEAA@XZ PROC ; randomx::VmBase<randomx::LargePageAllocator,1>::~VmBase<randomx::LargePageAllocator,1>, COMDAT
; File D:\dev\francium_network\francium_agent\src\ext\randomx\repo\src\virtual_machine.cpp
; Line 101
$LN9:
	push	rbx
	sub	rsp, 32					; 00000020H
	lea	rax, OFFSET FLAT:??_7?$VmBase@ULargePageAllocator@randomx@@$00@randomx@@6B@
	mov	rbx, rcx
	mov	QWORD PTR [rcx], rax
; File D:\dev\francium_network\francium_agent\src\ext\randomx\repo\src\virtual_memory.cpp
; Line 185
	xor	edx, edx
	mov	rcx, QWORD PTR [rcx+2544]
	mov	r8d, 32768				; 00008000H
	call	QWORD PTR __imp_VirtualFree
; File D:\dev\francium_network\francium_agent\src\ext\randomx\repo\src\virtual_machine.cpp
; Line 103
	mov	rcx, rbx
	add	rsp, 32					; 00000020H
	pop	rbx
	jmp	??1randomx_vm@@UEAA@XZ			; randomx_vm::~randomx_vm
??1?$VmBase@ULargePageAllocator@randomx@@$00@randomx@@UEAA@XZ ENDP ; randomx::VmBase<randomx::LargePageAllocator,1>::~VmBase<randomx::LargePageAllocator,1>
_TEXT	ENDS
; Function compile flags: /Ogtpy
;	COMDAT ?allocate@?$VmBase@ULargePageAllocator@randomx@@$00@randomx@@UEAAXXZ
_TEXT	SEGMENT
$T1 = 32
this$ = 80
?allocate@?$VmBase@ULargePageAllocator@randomx@@$00@randomx@@UEAAXXZ PROC ; randomx::VmBase<randomx::LargePageAllocator,1>::allocate, COMDAT
; File D:\dev\francium_network\francium_agent\src\ext\randomx\repo\src\virtual_machine.cpp
; Line 106
$LN10:
	push	rbx
	sub	rsp, 64					; 00000040H
; Line 107
	cmp	QWORD PTR [rcx+2552], 0
	mov	rbx, rcx
	je	SHORT $LN9@allocate
; File D:\dev\francium_network\francium_agent\src\ext\randomx\repo\src\allocator.cpp
; Line 53
	mov	ecx, 2097152				; 00200000H
	call	?allocLargePagesMemory@@YAPEAX_K@Z	; allocLargePagesMemory
; File D:\dev\francium_network\francium_agent\src\ext\randomx\repo\src\virtual_machine.cpp
; Line 114
	mov	QWORD PTR [rbx+2544], rax
; Line 115
	add	rsp, 64					; 00000040H
	pop	rbx
	ret	0
$LN9@allocate:
; Line 108
	lea	rdx, OFFSET FLAT:??_C@_0BG@OKIDDIAI@Cache?1Dataset?5not?5set@
	lea	rcx, QWORD PTR $T1[rsp]
	call	??0invalid_argument@std@@QEAA@PEBD@Z	; std::invalid_argument::invalid_argument
	lea	rdx, OFFSET FLAT:_TI3?AVinvalid_argument@std@@
	lea	rcx, QWORD PTR $T1[rsp]
	call	_CxxThrowException
	int	3
$LN7@allocate:
?allocate@?$VmBase@ULargePageAllocator@randomx@@$00@randomx@@UEAAXXZ ENDP ; randomx::VmBase<randomx::LargePageAllocator,1>::allocate
_TEXT	ENDS
; Function compile flags: /Ogtpy
;	COMDAT ?initScratchpad@?$VmBase@ULargePageAllocator@randomx@@$00@randomx@@UEAAXPEAX@Z
_TEXT	SEGMENT
this$ = 8
seed$ = 16
?initScratchpad@?$VmBase@ULargePageAllocator@randomx@@$00@randomx@@UEAAXPEAX@Z PROC ; randomx::VmBase<randomx::LargePageAllocator,1>::initScratchpad, COMDAT
; File D:\dev\francium_network\francium_agent\src\ext\randomx\repo\src\virtual_machine.cpp
; Line 131
	mov	r8, QWORD PTR [rcx+2544]
	mov	rcx, rdx
	jmp	??$fillAes1Rx4@$00@@YAXPEAX_K0@Z	; fillAes1Rx4<1>
?initScratchpad@?$VmBase@ULargePageAllocator@randomx@@$00@randomx@@UEAAXPEAX@Z ENDP ; randomx::VmBase<randomx::LargePageAllocator,1>::initScratchpad
_TEXT	ENDS
; Function compile flags: /Ogtpy
;	COMDAT ?getFinalResult@?$VmBase@ULargePageAllocator@randomx@@$00@randomx@@UEAAXPEAX_K@Z
_TEXT	SEGMENT
this$ = 64
out$ = 72
outSize$ = 80
?getFinalResult@?$VmBase@ULargePageAllocator@randomx@@$00@randomx@@UEAAXPEAX_K@Z PROC ; randomx::VmBase<randomx::LargePageAllocator,1>::getFinalResult, COMDAT
; File D:\dev\francium_network\francium_agent\src\ext\randomx\repo\src\virtual_machine.cpp
; Line 118
$LN4:
	mov	QWORD PTR [rsp+8], rbx
	mov	QWORD PTR [rsp+16], rsi
	push	rdi
	sub	rsp, 48					; 00000030H
	mov	rdi, r8
	mov	rbx, rcx
; Line 119
	lea	r8, QWORD PTR [rcx+2432]
	mov	rsi, rdx
	mov	rcx, QWORD PTR [rcx+2544]
	call	??$hashAes1Rx4@$00@@YAXPEBX_KPEAX@Z	; hashAes1Rx4<1>
; Line 120
	lea	r8, QWORD PTR [rbx+2240]
	mov	r9d, 256				; 00000100H
	mov	rdx, rdi
	mov	rcx, rsi
	call	randomx_blake2b
; Line 121
	mov	rbx, QWORD PTR [rsp+64]
	mov	rsi, QWORD PTR [rsp+72]
	add	rsp, 48					; 00000030H
	pop	rdi
	ret	0
?getFinalResult@?$VmBase@ULargePageAllocator@randomx@@$00@randomx@@UEAAXPEAX_K@Z ENDP ; randomx::VmBase<randomx::LargePageAllocator,1>::getFinalResult
_TEXT	ENDS
; Function compile flags: /Ogtpy
;	COMDAT ?hashAndFill@?$VmBase@ULargePageAllocator@randomx@@$00@randomx@@UEAAXPEAX_KPEA_K@Z
_TEXT	SEGMENT
this$ = 64
out$ = 72
outSize$ = 80
fill_state$ = 88
?hashAndFill@?$VmBase@ULargePageAllocator@randomx@@$00@randomx@@UEAAXPEAX_KPEA_K@Z PROC ; randomx::VmBase<randomx::LargePageAllocator,1>::hashAndFill, COMDAT
; File D:\dev\francium_network\francium_agent\src\ext\randomx\repo\src\virtual_machine.cpp
; Line 124
$LN4:
	mov	QWORD PTR [rsp+8], rbx
	mov	QWORD PTR [rsp+16], rsi
	push	rdi
	sub	rsp, 48					; 00000030H
	mov	rdi, r8
	mov	rbx, rcx
; Line 125
	lea	r8, QWORD PTR [rcx+2432]
	mov	rsi, rdx
	mov	rcx, QWORD PTR [rcx+2544]
	call	??$hashAndFillAes1Rx4@$00@@YAXPEAX_K00@Z ; hashAndFillAes1Rx4<1>
; Line 126
	lea	r8, QWORD PTR [rbx+2240]
	mov	r9d, 256				; 00000100H
	mov	rdx, rdi
	mov	rcx, rsi
	call	randomx_blake2b
; Line 127
	mov	rbx, QWORD PTR [rsp+64]
	mov	rsi, QWORD PTR [rsp+72]
	add	rsp, 48					; 00000030H
	pop	rdi
	ret	0
?hashAndFill@?$VmBase@ULargePageAllocator@randomx@@$00@randomx@@UEAAXPEAX_KPEA_K@Z ENDP ; randomx::VmBase<randomx::LargePageAllocator,1>::hashAndFill
_TEXT	ENDS
; Function compile flags: /Ogtpy
;	COMDAT ??1?$VmBase@U?$AlignedAllocator@$0EA@@randomx@@$00@randomx@@UEAA@XZ
_TEXT	SEGMENT
this$ = 48
??1?$VmBase@U?$AlignedAllocator@$0EA@@randomx@@$00@randomx@@UEAA@XZ PROC ; randomx::VmBase<randomx::AlignedAllocator<64>,1>::~VmBase<randomx::AlignedAllocator<64>,1>, COMDAT
; File D:\dev\francium_network\francium_agent\src\ext\randomx\repo\src\virtual_machine.cpp
; Line 101
$LN7:
	push	rbx
	sub	rsp, 32					; 00000020H
	lea	rax, OFFSET FLAT:??_7?$VmBase@U?$AlignedAllocator@$0EA@@randomx@@$00@randomx@@6B@
	mov	rbx, rcx
	mov	QWORD PTR [rcx], rax
; File D:\dev\francium_network\francium_agent\src\ext\randomx\repo\src\allocator.cpp
; Line 47
	mov	rcx, QWORD PTR [rcx+2544]
	call	_aligned_free
; File D:\dev\francium_network\francium_agent\src\ext\randomx\repo\src\virtual_machine.cpp
; Line 103
	mov	rcx, rbx
	add	rsp, 32					; 00000020H
	pop	rbx
	jmp	??1randomx_vm@@UEAA@XZ			; randomx_vm::~randomx_vm
??1?$VmBase@U?$AlignedAllocator@$0EA@@randomx@@$00@randomx@@UEAA@XZ ENDP ; randomx::VmBase<randomx::AlignedAllocator<64>,1>::~VmBase<randomx::AlignedAllocator<64>,1>
_TEXT	ENDS
; Function compile flags: /Ogtpy
;	COMDAT ?allocate@?$VmBase@U?$AlignedAllocator@$0EA@@randomx@@$00@randomx@@UEAAXXZ
_TEXT	SEGMENT
$T4 = 32
$T1 = 32
this$ = 80
?allocate@?$VmBase@U?$AlignedAllocator@$0EA@@randomx@@$00@randomx@@UEAAXXZ PROC ; randomx::VmBase<randomx::AlignedAllocator<64>,1>::allocate, COMDAT
; File D:\dev\francium_network\francium_agent\src\ext\randomx\repo\src\virtual_machine.cpp
; Line 106
$LN13:
	push	rbx
	sub	rsp, 64					; 00000040H
; Line 107
	cmp	QWORD PTR [rcx+2552], 0
	mov	rbx, rcx
	je	SHORT $LN11@allocate
; File D:\dev\francium_network\francium_agent\src\ext\randomx\repo\src\allocator.cpp
; Line 39
	mov	edx, 64					; 00000040H
	mov	ecx, 2097152				; 00200000H
	call	_aligned_malloc
; Line 40
	test	rax, rax
	je	SHORT $LN12@allocate
; File D:\dev\francium_network\francium_agent\src\ext\randomx\repo\src\virtual_machine.cpp
; Line 114
	mov	QWORD PTR [rbx+2544], rax
; Line 115
	add	rsp, 64					; 00000040H
	pop	rbx
	ret	0
$LN11@allocate:
; Line 108
	lea	rdx, OFFSET FLAT:??_C@_0BG@OKIDDIAI@Cache?1Dataset?5not?5set@
	lea	rcx, QWORD PTR $T1[rsp]
	call	??0invalid_argument@std@@QEAA@PEBD@Z	; std::invalid_argument::invalid_argument
	lea	rdx, OFFSET FLAT:_TI3?AVinvalid_argument@std@@
	lea	rcx, QWORD PTR $T1[rsp]
	call	_CxxThrowException
	int	3
$LN12@allocate:
; File D:\dev\francium_network\francium_agent\src\ext\randomx\repo\src\allocator.cpp
; Line 41
	lea	rcx, QWORD PTR $T4[rsp]
	call	??0bad_alloc@std@@QEAA@XZ		; std::bad_alloc::bad_alloc
	lea	rdx, OFFSET FLAT:_TI2?AVbad_alloc@std@@
	lea	rcx, QWORD PTR $T4[rsp]
	call	_CxxThrowException
	int	3
$LN9@allocate:
?allocate@?$VmBase@U?$AlignedAllocator@$0EA@@randomx@@$00@randomx@@UEAAXXZ ENDP ; randomx::VmBase<randomx::AlignedAllocator<64>,1>::allocate
_TEXT	ENDS
; Function compile flags: /Ogtpy
;	COMDAT ?initScratchpad@?$VmBase@U?$AlignedAllocator@$0EA@@randomx@@$00@randomx@@UEAAXPEAX@Z
_TEXT	SEGMENT
this$ = 8
seed$ = 16
?initScratchpad@?$VmBase@U?$AlignedAllocator@$0EA@@randomx@@$00@randomx@@UEAAXPEAX@Z PROC ; randomx::VmBase<randomx::AlignedAllocator<64>,1>::initScratchpad, COMDAT
; File D:\dev\francium_network\francium_agent\src\ext\randomx\repo\src\virtual_machine.cpp
; Line 131
	mov	r8, QWORD PTR [rcx+2544]
	mov	rcx, rdx
	jmp	??$fillAes1Rx4@$00@@YAXPEAX_K0@Z	; fillAes1Rx4<1>
?initScratchpad@?$VmBase@U?$AlignedAllocator@$0EA@@randomx@@$00@randomx@@UEAAXPEAX@Z ENDP ; randomx::VmBase<randomx::AlignedAllocator<64>,1>::initScratchpad
_TEXT	ENDS
; Function compile flags: /Ogtpy
;	COMDAT ?getFinalResult@?$VmBase@U?$AlignedAllocator@$0EA@@randomx@@$00@randomx@@UEAAXPEAX_K@Z
_TEXT	SEGMENT
this$ = 64
out$ = 72
outSize$ = 80
?getFinalResult@?$VmBase@U?$AlignedAllocator@$0EA@@randomx@@$00@randomx@@UEAAXPEAX_K@Z PROC ; randomx::VmBase<randomx::AlignedAllocator<64>,1>::getFinalResult, COMDAT
; File D:\dev\francium_network\francium_agent\src\ext\randomx\repo\src\virtual_machine.cpp
; Line 118
$LN4:
	mov	QWORD PTR [rsp+8], rbx
	mov	QWORD PTR [rsp+16], rsi
	push	rdi
	sub	rsp, 48					; 00000030H
	mov	rdi, r8
	mov	rbx, rcx
; Line 119
	lea	r8, QWORD PTR [rcx+2432]
	mov	rsi, rdx
	mov	rcx, QWORD PTR [rcx+2544]
	call	??$hashAes1Rx4@$00@@YAXPEBX_KPEAX@Z	; hashAes1Rx4<1>
; Line 120
	lea	r8, QWORD PTR [rbx+2240]
	mov	r9d, 256				; 00000100H
	mov	rdx, rdi
	mov	rcx, rsi
	call	randomx_blake2b
; Line 121
	mov	rbx, QWORD PTR [rsp+64]
	mov	rsi, QWORD PTR [rsp+72]
	add	rsp, 48					; 00000030H
	pop	rdi
	ret	0
?getFinalResult@?$VmBase@U?$AlignedAllocator@$0EA@@randomx@@$00@randomx@@UEAAXPEAX_K@Z ENDP ; randomx::VmBase<randomx::AlignedAllocator<64>,1>::getFinalResult
_TEXT	ENDS
; Function compile flags: /Ogtpy
;	COMDAT ?hashAndFill@?$VmBase@U?$AlignedAllocator@$0EA@@randomx@@$00@randomx@@UEAAXPEAX_KPEA_K@Z
_TEXT	SEGMENT
this$ = 64
out$ = 72
outSize$ = 80
fill_state$ = 88
?hashAndFill@?$VmBase@U?$AlignedAllocator@$0EA@@randomx@@$00@randomx@@UEAAXPEAX_KPEA_K@Z PROC ; randomx::VmBase<randomx::AlignedAllocator<64>,1>::hashAndFill, COMDAT
; File D:\dev\francium_network\francium_agent\src\ext\randomx\repo\src\virtual_machine.cpp
; Line 124
$LN4:
	mov	QWORD PTR [rsp+8], rbx
	mov	QWORD PTR [rsp+16], rsi
	push	rdi
	sub	rsp, 48					; 00000030H
	mov	rdi, r8
	mov	rbx, rcx
; Line 125
	lea	r8, QWORD PTR [rcx+2432]
	mov	rsi, rdx
	mov	rcx, QWORD PTR [rcx+2544]
	call	??$hashAndFillAes1Rx4@$00@@YAXPEAX_K00@Z ; hashAndFillAes1Rx4<1>
; Line 126
	lea	r8, QWORD PTR [rbx+2240]
	mov	r9d, 256				; 00000100H
	mov	rdx, rdi
	mov	rcx, rsi
	call	randomx_blake2b
; Line 127
	mov	rbx, QWORD PTR [rsp+64]
	mov	rsi, QWORD PTR [rsp+72]
	add	rsp, 48					; 00000030H
	pop	rdi
	ret	0
?hashAndFill@?$VmBase@U?$AlignedAllocator@$0EA@@randomx@@$00@randomx@@UEAAXPEAX_KPEA_K@Z ENDP ; randomx::VmBase<randomx::AlignedAllocator<64>,1>::hashAndFill
_TEXT	ENDS
; Function compile flags: /Ogtpy
;	COMDAT ??1?$VmBase@U?$AlignedAllocator@$0EA@@randomx@@$0A@@randomx@@UEAA@XZ
_TEXT	SEGMENT
this$ = 48
??1?$VmBase@U?$AlignedAllocator@$0EA@@randomx@@$0A@@randomx@@UEAA@XZ PROC ; randomx::VmBase<randomx::AlignedAllocator<64>,0>::~VmBase<randomx::AlignedAllocator<64>,0>, COMDAT
; File D:\dev\francium_network\francium_agent\src\ext\randomx\repo\src\virtual_machine.cpp
; Line 101
$LN7:
	push	rbx
	sub	rsp, 32					; 00000020H
	lea	rax, OFFSET FLAT:??_7?$VmBase@U?$AlignedAllocator@$0EA@@randomx@@$0A@@randomx@@6B@
	mov	rbx, rcx
	mov	QWORD PTR [rcx], rax
; File D:\dev\francium_network\francium_agent\src\ext\randomx\repo\src\allocator.cpp
; Line 47
	mov	rcx, QWORD PTR [rcx+2544]
	call	_aligned_free
; File D:\dev\francium_network\francium_agent\src\ext\randomx\repo\src\virtual_machine.cpp
; Line 103
	mov	rcx, rbx
	add	rsp, 32					; 00000020H
	pop	rbx
	jmp	??1randomx_vm@@UEAA@XZ			; randomx_vm::~randomx_vm
??1?$VmBase@U?$AlignedAllocator@$0EA@@randomx@@$0A@@randomx@@UEAA@XZ ENDP ; randomx::VmBase<randomx::AlignedAllocator<64>,0>::~VmBase<randomx::AlignedAllocator<64>,0>
_TEXT	ENDS
; Function compile flags: /Ogtpy
;	COMDAT ?allocate@?$VmBase@U?$AlignedAllocator@$0EA@@randomx@@$0A@@randomx@@UEAAXXZ
_TEXT	SEGMENT
$T4 = 32
$T1 = 32
this$ = 80
?allocate@?$VmBase@U?$AlignedAllocator@$0EA@@randomx@@$0A@@randomx@@UEAAXXZ PROC ; randomx::VmBase<randomx::AlignedAllocator<64>,0>::allocate, COMDAT
; File D:\dev\francium_network\francium_agent\src\ext\randomx\repo\src\virtual_machine.cpp
; Line 106
$LN13:
	push	rbx
	sub	rsp, 64					; 00000040H
; Line 107
	cmp	QWORD PTR [rcx+2552], 0
	mov	rbx, rcx
	je	SHORT $LN11@allocate
; Line 111
	movdqa	xmm0, XMMWORD PTR ?aesDummy@randomx@@3T__m128i@@C
; File D:\dev\francium_network\francium_agent\src\ext\randomx\repo\src\allocator.cpp
; Line 39
	mov	edx, 64					; 00000040H
; File D:\dev\francium_network\francium_agent\src\ext\randomx\repo\src\virtual_machine.cpp
; Line 111
	aesenc	xmm0, xmm0
; File D:\dev\francium_network\francium_agent\src\ext\randomx\repo\src\allocator.cpp
; Line 39
	mov	ecx, 2097152				; 00200000H
; File D:\dev\francium_network\francium_agent\src\ext\randomx\repo\src\virtual_machine.cpp
; Line 112
	movdqa	XMMWORD PTR ?aesDummy@randomx@@3T__m128i@@C, xmm0
; File D:\dev\francium_network\francium_agent\src\ext\randomx\repo\src\allocator.cpp
; Line 39
	call	_aligned_malloc
; Line 40
	test	rax, rax
	je	SHORT $LN12@allocate
; File D:\dev\francium_network\francium_agent\src\ext\randomx\repo\src\virtual_machine.cpp
; Line 114
	mov	QWORD PTR [rbx+2544], rax
; Line 115
	add	rsp, 64					; 00000040H
	pop	rbx
	ret	0
$LN11@allocate:
; Line 108
	lea	rdx, OFFSET FLAT:??_C@_0BG@OKIDDIAI@Cache?1Dataset?5not?5set@
	lea	rcx, QWORD PTR $T1[rsp]
	call	??0invalid_argument@std@@QEAA@PEBD@Z	; std::invalid_argument::invalid_argument
	lea	rdx, OFFSET FLAT:_TI3?AVinvalid_argument@std@@
	lea	rcx, QWORD PTR $T1[rsp]
	call	_CxxThrowException
	int	3
$LN12@allocate:
; File D:\dev\francium_network\francium_agent\src\ext\randomx\repo\src\allocator.cpp
; Line 41
	lea	rcx, QWORD PTR $T4[rsp]
	call	??0bad_alloc@std@@QEAA@XZ		; std::bad_alloc::bad_alloc
	lea	rdx, OFFSET FLAT:_TI2?AVbad_alloc@std@@
	lea	rcx, QWORD PTR $T4[rsp]
	call	_CxxThrowException
	int	3
$LN9@allocate:
?allocate@?$VmBase@U?$AlignedAllocator@$0EA@@randomx@@$0A@@randomx@@UEAAXXZ ENDP ; randomx::VmBase<randomx::AlignedAllocator<64>,0>::allocate
_TEXT	ENDS
; Function compile flags: /Ogtpy
;	COMDAT ?initScratchpad@?$VmBase@U?$AlignedAllocator@$0EA@@randomx@@$0A@@randomx@@UEAAXPEAX@Z
_TEXT	SEGMENT
this$ = 8
seed$ = 16
?initScratchpad@?$VmBase@U?$AlignedAllocator@$0EA@@randomx@@$0A@@randomx@@UEAAXPEAX@Z PROC ; randomx::VmBase<randomx::AlignedAllocator<64>,0>::initScratchpad, COMDAT
; File D:\dev\francium_network\francium_agent\src\ext\randomx\repo\src\virtual_machine.cpp
; Line 131
	mov	r8, QWORD PTR [rcx+2544]
	mov	rcx, rdx
	jmp	??$fillAes1Rx4@$0A@@@YAXPEAX_K0@Z	; fillAes1Rx4<0>
?initScratchpad@?$VmBase@U?$AlignedAllocator@$0EA@@randomx@@$0A@@randomx@@UEAAXPEAX@Z ENDP ; randomx::VmBase<randomx::AlignedAllocator<64>,0>::initScratchpad
_TEXT	ENDS
; Function compile flags: /Ogtpy
;	COMDAT ?getFinalResult@?$VmBase@U?$AlignedAllocator@$0EA@@randomx@@$0A@@randomx@@UEAAXPEAX_K@Z
_TEXT	SEGMENT
this$ = 64
out$ = 72
outSize$ = 80
?getFinalResult@?$VmBase@U?$AlignedAllocator@$0EA@@randomx@@$0A@@randomx@@UEAAXPEAX_K@Z PROC ; randomx::VmBase<randomx::AlignedAllocator<64>,0>::getFinalResult, COMDAT
; File D:\dev\francium_network\francium_agent\src\ext\randomx\repo\src\virtual_machine.cpp
; Line 118
$LN4:
	sub	rsp, 56					; 00000038H
	mov	r9, rcx
	mov	r10, r8
; Line 119
	lea	r8, QWORD PTR [rcx+2432]
	mov	r11, rdx
	mov	rcx, QWORD PTR [rcx+2544]
	call	??$hashAes1Rx4@$0A@@@YAXPEBX_KPEAX@Z	; hashAes1Rx4<0>
; Line 120
	lea	r8, QWORD PTR [r9+2240]
	mov	rdx, r10
	mov	r9d, 256				; 00000100H
	mov	rcx, r11
	call	randomx_blake2b
; Line 121
	add	rsp, 56					; 00000038H
	ret	0
?getFinalResult@?$VmBase@U?$AlignedAllocator@$0EA@@randomx@@$0A@@randomx@@UEAAXPEAX_K@Z ENDP ; randomx::VmBase<randomx::AlignedAllocator<64>,0>::getFinalResult
_TEXT	ENDS
; Function compile flags: /Ogtpy
;	COMDAT ?hashAndFill@?$VmBase@U?$AlignedAllocator@$0EA@@randomx@@$0A@@randomx@@UEAAXPEAX_KPEA_K@Z
_TEXT	SEGMENT
this$ = 64
out$ = 72
outSize$ = 80
fill_state$ = 88
?hashAndFill@?$VmBase@U?$AlignedAllocator@$0EA@@randomx@@$0A@@randomx@@UEAAXPEAX_KPEA_K@Z PROC ; randomx::VmBase<randomx::AlignedAllocator<64>,0>::hashAndFill, COMDAT
; File D:\dev\francium_network\francium_agent\src\ext\randomx\repo\src\virtual_machine.cpp
; Line 124
$LN4:
	mov	QWORD PTR [rsp+8], rbx
	mov	QWORD PTR [rsp+16], rsi
	push	rdi
	sub	rsp, 48					; 00000030H
	mov	rdi, r8
	mov	rbx, rcx
; Line 125
	lea	r8, QWORD PTR [rcx+2432]
	mov	rsi, rdx
	mov	rcx, QWORD PTR [rcx+2544]
	call	??$hashAndFillAes1Rx4@$0A@@@YAXPEAX_K00@Z ; hashAndFillAes1Rx4<0>
; Line 126
	lea	r8, QWORD PTR [rbx+2240]
	mov	rdx, rdi
	mov	rcx, rsi
	mov	r9d, 256				; 00000100H
	call	randomx_blake2b
; Line 127
	mov	rbx, QWORD PTR [rsp+64]
	mov	rsi, QWORD PTR [rsp+72]
	add	rsp, 48					; 00000030H
	pop	rdi
	ret	0
?hashAndFill@?$VmBase@U?$AlignedAllocator@$0EA@@randomx@@$0A@@randomx@@UEAAXPEAX_KPEA_K@Z ENDP ; randomx::VmBase<randomx::AlignedAllocator<64>,0>::hashAndFill
_TEXT	ENDS
; Function compile flags: /Ogtpy
;	COMDAT ??1?$VmBase@ULargePageAllocator@randomx@@$0A@@randomx@@UEAA@XZ
_TEXT	SEGMENT
this$ = 48
??1?$VmBase@ULargePageAllocator@randomx@@$0A@@randomx@@UEAA@XZ PROC ; randomx::VmBase<randomx::LargePageAllocator,0>::~VmBase<randomx::LargePageAllocator,0>, COMDAT
; File D:\dev\francium_network\francium_agent\src\ext\randomx\repo\src\virtual_machine.cpp
; Line 101
$LN9:
	push	rbx
	sub	rsp, 32					; 00000020H
	lea	rax, OFFSET FLAT:??_7?$VmBase@ULargePageAllocator@randomx@@$0A@@randomx@@6B@
	mov	rbx, rcx
	mov	QWORD PTR [rcx], rax
; File D:\dev\francium_network\francium_agent\src\ext\randomx\repo\src\virtual_memory.cpp
; Line 185
	xor	edx, edx
	mov	rcx, QWORD PTR [rcx+2544]
	mov	r8d, 32768				; 00008000H
	call	QWORD PTR __imp_VirtualFree
; File D:\dev\francium_network\francium_agent\src\ext\randomx\repo\src\virtual_machine.cpp
; Line 103
	mov	rcx, rbx
	add	rsp, 32					; 00000020H
	pop	rbx
	jmp	??1randomx_vm@@UEAA@XZ			; randomx_vm::~randomx_vm
??1?$VmBase@ULargePageAllocator@randomx@@$0A@@randomx@@UEAA@XZ ENDP ; randomx::VmBase<randomx::LargePageAllocator,0>::~VmBase<randomx::LargePageAllocator,0>
_TEXT	ENDS
; Function compile flags: /Ogtpy
;	COMDAT ?allocate@?$VmBase@ULargePageAllocator@randomx@@$0A@@randomx@@UEAAXXZ
_TEXT	SEGMENT
$T1 = 32
this$ = 80
?allocate@?$VmBase@ULargePageAllocator@randomx@@$0A@@randomx@@UEAAXXZ PROC ; randomx::VmBase<randomx::LargePageAllocator,0>::allocate, COMDAT
; File D:\dev\francium_network\francium_agent\src\ext\randomx\repo\src\virtual_machine.cpp
; Line 106
$LN10:
	push	rbx
	sub	rsp, 64					; 00000040H
; Line 107
	cmp	QWORD PTR [rcx+2552], 0
	mov	rbx, rcx
	je	SHORT $LN9@allocate
; Line 111
	movdqa	xmm0, XMMWORD PTR ?aesDummy@randomx@@3T__m128i@@C
; File D:\dev\francium_network\francium_agent\src\ext\randomx\repo\src\allocator.cpp
; Line 53
	mov	ecx, 2097152				; 00200000H
; File D:\dev\francium_network\francium_agent\src\ext\randomx\repo\src\virtual_machine.cpp
; Line 111
	aesenc	xmm0, xmm0
; Line 112
	movdqa	XMMWORD PTR ?aesDummy@randomx@@3T__m128i@@C, xmm0
; File D:\dev\francium_network\francium_agent\src\ext\randomx\repo\src\allocator.cpp
; Line 53
	call	?allocLargePagesMemory@@YAPEAX_K@Z	; allocLargePagesMemory
; File D:\dev\francium_network\francium_agent\src\ext\randomx\repo\src\virtual_machine.cpp
; Line 114
	mov	QWORD PTR [rbx+2544], rax
; Line 115
	add	rsp, 64					; 00000040H
	pop	rbx
	ret	0
$LN9@allocate:
; Line 108
	lea	rdx, OFFSET FLAT:??_C@_0BG@OKIDDIAI@Cache?1Dataset?5not?5set@
	lea	rcx, QWORD PTR $T1[rsp]
	call	??0invalid_argument@std@@QEAA@PEBD@Z	; std::invalid_argument::invalid_argument
	lea	rdx, OFFSET FLAT:_TI3?AVinvalid_argument@std@@
	lea	rcx, QWORD PTR $T1[rsp]
	call	_CxxThrowException
	int	3
$LN7@allocate:
?allocate@?$VmBase@ULargePageAllocator@randomx@@$0A@@randomx@@UEAAXXZ ENDP ; randomx::VmBase<randomx::LargePageAllocator,0>::allocate
_TEXT	ENDS
; Function compile flags: /Ogtpy
;	COMDAT ?initScratchpad@?$VmBase@ULargePageAllocator@randomx@@$0A@@randomx@@UEAAXPEAX@Z
_TEXT	SEGMENT
this$ = 8
seed$ = 16
?initScratchpad@?$VmBase@ULargePageAllocator@randomx@@$0A@@randomx@@UEAAXPEAX@Z PROC ; randomx::VmBase<randomx::LargePageAllocator,0>::initScratchpad, COMDAT
; File D:\dev\francium_network\francium_agent\src\ext\randomx\repo\src\virtual_machine.cpp
; Line 131
	mov	r8, QWORD PTR [rcx+2544]
	mov	rcx, rdx
	jmp	??$fillAes1Rx4@$0A@@@YAXPEAX_K0@Z	; fillAes1Rx4<0>
?initScratchpad@?$VmBase@ULargePageAllocator@randomx@@$0A@@randomx@@UEAAXPEAX@Z ENDP ; randomx::VmBase<randomx::LargePageAllocator,0>::initScratchpad
_TEXT	ENDS
; Function compile flags: /Ogtpy
;	COMDAT ?getFinalResult@?$VmBase@ULargePageAllocator@randomx@@$0A@@randomx@@UEAAXPEAX_K@Z
_TEXT	SEGMENT
this$ = 64
out$ = 72
outSize$ = 80
?getFinalResult@?$VmBase@ULargePageAllocator@randomx@@$0A@@randomx@@UEAAXPEAX_K@Z PROC ; randomx::VmBase<randomx::LargePageAllocator,0>::getFinalResult, COMDAT
; File D:\dev\francium_network\francium_agent\src\ext\randomx\repo\src\virtual_machine.cpp
; Line 118
$LN4:
	sub	rsp, 56					; 00000038H
	mov	r9, rcx
	mov	r10, r8
; Line 119
	lea	r8, QWORD PTR [rcx+2432]
	mov	r11, rdx
	mov	rcx, QWORD PTR [rcx+2544]
	call	??$hashAes1Rx4@$0A@@@YAXPEBX_KPEAX@Z	; hashAes1Rx4<0>
; Line 120
	lea	r8, QWORD PTR [r9+2240]
	mov	rdx, r10
	mov	r9d, 256				; 00000100H
	mov	rcx, r11
	call	randomx_blake2b
; Line 121
	add	rsp, 56					; 00000038H
	ret	0
?getFinalResult@?$VmBase@ULargePageAllocator@randomx@@$0A@@randomx@@UEAAXPEAX_K@Z ENDP ; randomx::VmBase<randomx::LargePageAllocator,0>::getFinalResult
_TEXT	ENDS
; Function compile flags: /Ogtpy
;	COMDAT ?hashAndFill@?$VmBase@ULargePageAllocator@randomx@@$0A@@randomx@@UEAAXPEAX_KPEA_K@Z
_TEXT	SEGMENT
this$ = 64
out$ = 72
outSize$ = 80
fill_state$ = 88
?hashAndFill@?$VmBase@ULargePageAllocator@randomx@@$0A@@randomx@@UEAAXPEAX_KPEA_K@Z PROC ; randomx::VmBase<randomx::LargePageAllocator,0>::hashAndFill, COMDAT
; File D:\dev\francium_network\francium_agent\src\ext\randomx\repo\src\virtual_machine.cpp
; Line 124
$LN4:
	mov	QWORD PTR [rsp+8], rbx
	mov	QWORD PTR [rsp+16], rsi
	push	rdi
	sub	rsp, 48					; 00000030H
	mov	rdi, r8
	mov	rbx, rcx
; Line 125
	lea	r8, QWORD PTR [rcx+2432]
	mov	rsi, rdx
	mov	rcx, QWORD PTR [rcx+2544]
	call	??$hashAndFillAes1Rx4@$0A@@@YAXPEAX_K00@Z ; hashAndFillAes1Rx4<0>
; Line 126
	lea	r8, QWORD PTR [rbx+2240]
	mov	rdx, rdi
	mov	rcx, rsi
	mov	r9d, 256				; 00000100H
	call	randomx_blake2b
; Line 127
	mov	rbx, QWORD PTR [rsp+64]
	mov	rsi, QWORD PTR [rsp+72]
	add	rsp, 48					; 00000030H
	pop	rdi
	ret	0
?hashAndFill@?$VmBase@ULargePageAllocator@randomx@@$0A@@randomx@@UEAAXPEAX_KPEA_K@Z ENDP ; randomx::VmBase<randomx::LargePageAllocator,0>::hashAndFill
_TEXT	ENDS
; Function compile flags: /Ogtpy
;	COMDAT ?initialize@randomx_vm@@IEAAXXZ
_TEXT	SEGMENT
this$ = 8
?initialize@randomx_vm@@IEAAXXZ PROC			; randomx_vm::initialize, COMDAT
; File D:\dev\francium_network\francium_agent\src\ext\randomx\repo\src\virtual_machine.cpp
; Line 73
	mov	rax, QWORD PTR [rcx+64]
	mov	r8, rcx
; Line 51
	mov	rdx, rax
	mov	r11, 4607182418800017408		; 3ff0000000000000H
; Line 54
	mov	r10, 9218868437227405312		; 7ff0000000000000H
	shr	rdx, 7
	mov	r9, 4503599627370495			; 000fffffffffffffH
	add	rdx, r11
	and	rax, r9
	and	rdx, r10
; Line 55
	or	rdx, rax
; Line 73
	mov	QWORD PTR [rcx+2432], rdx
; Line 74
	mov	rax, QWORD PTR [rcx+72]
; Line 51
	mov	rcx, rax
	and	rax, r9
	shr	rcx, 7
	add	rcx, r11
; Line 54
	and	rcx, r10
; Line 55
	or	rcx, rax
; Line 74
	mov	QWORD PTR [r8+2440], rcx
; Line 75
	mov	rax, QWORD PTR [r8+80]
; Line 51
	mov	rcx, rax
	and	rax, r9
	shr	rcx, 7
	add	rcx, r11
; Line 54
	and	rcx, r10
; Line 55
	or	rcx, rax
; Line 75
	mov	QWORD PTR [r8+2448], rcx
; Line 76
	mov	rax, QWORD PTR [r8+88]
; Line 51
	mov	rcx, rax
	and	rax, r9
	shr	rcx, 7
	add	rcx, r11
; Line 54
	and	rcx, r10
; Line 55
	or	rcx, rax
; Line 76
	mov	QWORD PTR [r8+2456], rcx
; Line 77
	mov	rax, QWORD PTR [r8+96]
; Line 51
	mov	rcx, rax
	and	rax, r9
	shr	rcx, 7
	add	rcx, r11
; Line 54
	and	rcx, r10
; Line 55
	or	rcx, rax
; Line 77
	mov	QWORD PTR [r8+2464], rcx
; Line 78
	mov	rax, QWORD PTR [r8+104]
; Line 51
	mov	rcx, rax
	and	rax, r9
	shr	rcx, 7
	add	rcx, r11
; Line 54
	and	rcx, r10
; Line 55
	or	rcx, rax
; Line 78
	mov	QWORD PTR [r8+2472], rcx
; Line 79
	mov	rax, QWORD PTR [r8+112]
; Line 51
	mov	rcx, rax
	and	rax, r9
	shr	rcx, 7
	add	rcx, r11
; Line 54
	and	rcx, r10
; Line 55
	or	rcx, rax
; Line 79
	mov	QWORD PTR [r8+2480], rcx
; Line 80
	mov	rax, QWORD PTR [r8+120]
; Line 51
	mov	rcx, rax
	and	rax, r9
	shr	rcx, 7
	add	rcx, r11
; Line 54
	and	rcx, r10
; Line 55
	or	rcx, rax
; Line 80
	mov	QWORD PTR [r8+2488], rcx
; Line 83
	mov	rcx, QWORD PTR [r8+160]
	mov	eax, DWORD PTR [r8+128]
	and	eax, 2147483584				; 7fffffc0H
	mov	DWORD PTR [r8+2532], eax
	mov	eax, DWORD PTR [r8+144]
	mov	DWORD PTR [r8+2528], eax
; Line 84
	mov	eax, ecx
	and	eax, 1
; Line 85
	shr	rcx, 1
	mov	DWORD PTR [r8+2512], eax
; Line 86
	mov	eax, ecx
	and	eax, 1
	add	eax, 2
; Line 87
	shr	rcx, 1
; Line 67
	mov	r9, 1080863910568919040			; 0f00000000000000H
; Line 86
	mov	DWORD PTR [r8+2516], eax
; Line 67
	mov	rdx, 3458764513820540928		; 3000000000000000H
; Line 88
	mov	eax, ecx
; Line 89
	shr	rcx, 1
; Line 90
	and	ecx, 1
	and	eax, 1
	add	ecx, 6
	add	eax, 4
	mov	DWORD PTR [r8+2524], ecx
	mov	DWORD PTR [r8+2520], eax
; Line 91
	mov	eax, DWORD PTR [r8+168]
	and	eax, 524287				; 0007ffffH
	shl	rax, 6
	mov	QWORD PTR [r8+2560], rax
; Line 92
	mov	rax, QWORD PTR [r8+176]
; Line 67
	mov	rcx, rax
	and	eax, 4194303				; 003fffffH
	shr	rcx, 4
	and	rcx, r9
	or	rcx, rax
	or	rcx, rdx
; Line 92
	mov	QWORD PTR [r8+2496], rcx
; Line 93
	mov	rax, QWORD PTR [r8+184]
; Line 67
	mov	rcx, rax
	and	eax, 4194303				; 003fffffH
	shr	rcx, 4
	and	rcx, r9
	or	rcx, rax
	or	rcx, rdx
; Line 93
	mov	QWORD PTR [r8+2504], rcx
; Line 94
	ret	0
?initialize@randomx_vm@@IEAAXXZ ENDP			; randomx_vm::initialize
_TEXT	ENDS
; Function compile flags: /Ogtpy
;	COMDAT ?generateProgram@?$VmBase@ULargePageAllocator@randomx@@$00@randomx@@IEAAXPEAX@Z
_TEXT	SEGMENT
this$ = 8
seed$ = 16
?generateProgram@?$VmBase@ULargePageAllocator@randomx@@$00@randomx@@IEAAXPEAX@Z PROC ; randomx::VmBase<randomx::LargePageAllocator,1>::generateProgram, COMDAT
; File D:\dev\francium_network\francium_agent\src\ext\randomx\repo\src\virtual_machine.cpp
; Line 136
	lea	r8, QWORD PTR [rcx+64]
	mov	rcx, rdx
	jmp	??$fillAes4Rx4@$00@@YAXPEAX_K0@Z	; fillAes4Rx4<1>
?generateProgram@?$VmBase@ULargePageAllocator@randomx@@$00@randomx@@IEAAXPEAX@Z ENDP ; randomx::VmBase<randomx::LargePageAllocator,1>::generateProgram
_TEXT	ENDS
; Function compile flags: /Ogtpy
;	COMDAT ?generateProgram@?$VmBase@U?$AlignedAllocator@$0EA@@randomx@@$00@randomx@@IEAAXPEAX@Z
_TEXT	SEGMENT
this$ = 8
seed$ = 16
?generateProgram@?$VmBase@U?$AlignedAllocator@$0EA@@randomx@@$00@randomx@@IEAAXPEAX@Z PROC ; randomx::VmBase<randomx::AlignedAllocator<64>,1>::generateProgram, COMDAT
; File D:\dev\francium_network\francium_agent\src\ext\randomx\repo\src\virtual_machine.cpp
; Line 136
	lea	r8, QWORD PTR [rcx+64]
	mov	rcx, rdx
	jmp	??$fillAes4Rx4@$00@@YAXPEAX_K0@Z	; fillAes4Rx4<1>
?generateProgram@?$VmBase@U?$AlignedAllocator@$0EA@@randomx@@$00@randomx@@IEAAXPEAX@Z ENDP ; randomx::VmBase<randomx::AlignedAllocator<64>,1>::generateProgram
_TEXT	ENDS
; Function compile flags: /Ogtpy
;	COMDAT ?generateProgram@?$VmBase@U?$AlignedAllocator@$0EA@@randomx@@$0A@@randomx@@IEAAXPEAX@Z
_TEXT	SEGMENT
this$ = 8
seed$ = 16
?generateProgram@?$VmBase@U?$AlignedAllocator@$0EA@@randomx@@$0A@@randomx@@IEAAXPEAX@Z PROC ; randomx::VmBase<randomx::AlignedAllocator<64>,0>::generateProgram, COMDAT
; File D:\dev\francium_network\francium_agent\src\ext\randomx\repo\src\virtual_machine.cpp
; Line 136
	lea	r8, QWORD PTR [rcx+64]
	mov	rcx, rdx
	jmp	??$fillAes4Rx4@$0A@@@YAXPEAX_K0@Z	; fillAes4Rx4<0>
?generateProgram@?$VmBase@U?$AlignedAllocator@$0EA@@randomx@@$0A@@randomx@@IEAAXPEAX@Z ENDP ; randomx::VmBase<randomx::AlignedAllocator<64>,0>::generateProgram
_TEXT	ENDS
; Function compile flags: /Ogtpy
;	COMDAT ?generateProgram@?$VmBase@ULargePageAllocator@randomx@@$0A@@randomx@@IEAAXPEAX@Z
_TEXT	SEGMENT
this$ = 8
seed$ = 16
?generateProgram@?$VmBase@ULargePageAllocator@randomx@@$0A@@randomx@@IEAAXPEAX@Z PROC ; randomx::VmBase<randomx::LargePageAllocator,0>::generateProgram, COMDAT
; File D:\dev\francium_network\francium_agent\src\ext\randomx\repo\src\virtual_machine.cpp
; Line 136
	lea	r8, QWORD PTR [rcx+64]
	mov	rcx, rdx
	jmp	??$fillAes4Rx4@$0A@@@YAXPEAX_K0@Z	; fillAes4Rx4<0>
?generateProgram@?$VmBase@ULargePageAllocator@randomx@@$0A@@randomx@@IEAAXPEAX@Z ENDP ; randomx::VmBase<randomx::LargePageAllocator,0>::generateProgram
_TEXT	ENDS
; Function compile flags: /Ogtpy
;	COMDAT ??0logic_error@std@@QEAA@PEBD@Z
_TEXT	SEGMENT
_InitData$1 = 32
__$ArrayPad$ = 48
this$ = 80
_Message$ = 88
??0logic_error@std@@QEAA@PEBD@Z PROC			; std::logic_error::logic_error, COMDAT
; File D:\software\Visual Studio 2022\VC\Tools\MSVC\14.35.32215\include\stdexcept
; Line 27
$LN7:
	push	rbx
	sub	rsp, 64					; 00000040H
	mov	rax, QWORD PTR __security_cookie
	xor	rax, rsp
	mov	QWORD PTR __$ArrayPad$[rsp], rax
	mov	r8, rdx
; File D:\software\Visual Studio 2022\VC\Tools\MSVC\14.35.32215\include\vcruntime_exception.h
; Line 60
	mov	BYTE PTR _InitData$1[rsp+8], 1
	lea	rdx, QWORD PTR [rcx+8]
	mov	QWORD PTR _InitData$1[rsp], r8
	lea	rax, OFFSET FLAT:??_7exception@std@@6B@
; File D:\software\Visual Studio 2022\VC\Tools\MSVC\14.35.32215\include\stdexcept
; Line 27
	mov	rbx, rcx
; File D:\software\Visual Studio 2022\VC\Tools\MSVC\14.35.32215\include\vcruntime_exception.h
; Line 59
	mov	QWORD PTR [rcx], rax
	xorps	xmm0, xmm0
; Line 61
	lea	rcx, QWORD PTR _InitData$1[rsp]
	movups	XMMWORD PTR [rdx], xmm0
	call	__std_exception_copy
; File D:\software\Visual Studio 2022\VC\Tools\MSVC\14.35.32215\include\stdexcept
; Line 27
	lea	rax, OFFSET FLAT:??_7logic_error@std@@6B@
	mov	QWORD PTR [rbx], rax
	mov	rax, rbx
	mov	rcx, QWORD PTR __$ArrayPad$[rsp]
	xor	rcx, rsp
	call	__security_check_cookie
	add	rsp, 64					; 00000040H
	pop	rbx
	ret	0
??0logic_error@std@@QEAA@PEBD@Z ENDP			; std::logic_error::logic_error
_TEXT	ENDS
; Function compile flags: /Ogtpy
;	COMDAT ??_Glogic_error@std@@UEAAPEAXI@Z
_TEXT	SEGMENT
this$ = 48
__flags$ = 56
??_Glogic_error@std@@UEAAPEAXI@Z PROC			; std::logic_error::`scalar deleting destructor', COMDAT
$LN12:
	mov	QWORD PTR [rsp+8], rbx
	push	rdi
	sub	rsp, 32					; 00000020H
; File D:\software\Visual Studio 2022\VC\Tools\MSVC\14.35.32215\include\vcruntime_exception.h
; Line 89
	lea	rax, OFFSET FLAT:??_7exception@std@@6B@
	mov	rdi, rcx
	mov	QWORD PTR [rcx], rax
	mov	ebx, edx
; Line 90
	add	rcx, 8
	call	__std_exception_destroy
	test	bl, 1
	je	SHORT $LN9@scalar
	mov	edx, 24
	mov	rcx, rdi
	call	??3@YAXPEAX_K@Z				; operator delete
$LN9@scalar:
	mov	rbx, QWORD PTR [rsp+48]
	mov	rax, rdi
	add	rsp, 32					; 00000020H
	pop	rdi
	ret	0
??_Glogic_error@std@@UEAAPEAXI@Z ENDP			; std::logic_error::`scalar deleting destructor'
_TEXT	ENDS
; Function compile flags: /Ogtpy
;	COMDAT ??1logic_error@std@@UEAA@XZ
_TEXT	SEGMENT
this$ = 8
??1logic_error@std@@UEAA@XZ PROC			; std::logic_error::~logic_error, COMDAT
; File D:\software\Visual Studio 2022\VC\Tools\MSVC\14.35.32215\include\vcruntime_exception.h
; Line 89
	lea	rax, OFFSET FLAT:??_7exception@std@@6B@
	mov	QWORD PTR [rcx], rax
; Line 90
	add	rcx, 8
	jmp	__std_exception_destroy
??1logic_error@std@@UEAA@XZ ENDP			; std::logic_error::~logic_error
_TEXT	ENDS
; Function compile flags: /Ogtpy
;	COMDAT ??0invalid_argument@std@@QEAA@PEBD@Z
_TEXT	SEGMENT
_InitData$1 = 32
__$ArrayPad$ = 48
this$ = 80
_Message$ = 88
??0invalid_argument@std@@QEAA@PEBD@Z PROC		; std::invalid_argument::invalid_argument, COMDAT
; File D:\software\Visual Studio 2022\VC\Tools\MSVC\14.35.32215\include\stdexcept
; Line 59
$LN9:
	push	rbx
	sub	rsp, 64					; 00000040H
	mov	rax, QWORD PTR __security_cookie
	xor	rax, rsp
	mov	QWORD PTR __$ArrayPad$[rsp], rax
	mov	r8, rdx
; File D:\software\Visual Studio 2022\VC\Tools\MSVC\14.35.32215\include\vcruntime_exception.h
; Line 60
	mov	BYTE PTR _InitData$1[rsp+8], 1
	lea	rdx, QWORD PTR [rcx+8]
	mov	QWORD PTR _InitData$1[rsp], r8
	lea	rax, OFFSET FLAT:??_7exception@std@@6B@
; File D:\software\Visual Studio 2022\VC\Tools\MSVC\14.35.32215\include\stdexcept
; Line 59
	mov	rbx, rcx
; File D:\software\Visual Studio 2022\VC\Tools\MSVC\14.35.32215\include\vcruntime_exception.h
; Line 59
	mov	QWORD PTR [rcx], rax
	xorps	xmm0, xmm0
; Line 61
	lea	rcx, QWORD PTR _InitData$1[rsp]
	movups	XMMWORD PTR [rdx], xmm0
	call	__std_exception_copy
; File D:\software\Visual Studio 2022\VC\Tools\MSVC\14.35.32215\include\stdexcept
; Line 59
	lea	rax, OFFSET FLAT:??_7invalid_argument@std@@6B@
	mov	QWORD PTR [rbx], rax
	mov	rax, rbx
	mov	rcx, QWORD PTR __$ArrayPad$[rsp]
	xor	rcx, rsp
	call	__security_check_cookie
	add	rsp, 64					; 00000040H
	pop	rbx
	ret	0
??0invalid_argument@std@@QEAA@PEBD@Z ENDP		; std::invalid_argument::invalid_argument
_TEXT	ENDS
; Function compile flags: /Ogtpy
;	COMDAT ??_Ginvalid_argument@std@@UEAAPEAXI@Z
_TEXT	SEGMENT
this$ = 48
__flags$ = 56
??_Ginvalid_argument@std@@UEAAPEAXI@Z PROC		; std::invalid_argument::`scalar deleting destructor', COMDAT
$LN15:
	mov	QWORD PTR [rsp+8], rbx
	push	rdi
	sub	rsp, 32					; 00000020H
; File D:\software\Visual Studio 2022\VC\Tools\MSVC\14.35.32215\include\vcruntime_exception.h
; Line 89
	lea	rax, OFFSET FLAT:??_7exception@std@@6B@
	mov	rdi, rcx
	mov	QWORD PTR [rcx], rax
	mov	ebx, edx
; Line 90
	add	rcx, 8
	call	__std_exception_destroy
	test	bl, 1
	je	SHORT $LN12@scalar
	mov	edx, 24
	mov	rcx, rdi
	call	??3@YAXPEAX_K@Z				; operator delete
$LN12@scalar:
	mov	rbx, QWORD PTR [rsp+48]
	mov	rax, rdi
	add	rsp, 32					; 00000020H
	pop	rdi
	ret	0
??_Ginvalid_argument@std@@UEAAPEAXI@Z ENDP		; std::invalid_argument::`scalar deleting destructor'
_TEXT	ENDS
; Function compile flags: /Ogtpy
;	COMDAT ??1invalid_argument@std@@UEAA@XZ
_TEXT	SEGMENT
this$ = 8
??1invalid_argument@std@@UEAA@XZ PROC			; std::invalid_argument::~invalid_argument, COMDAT
; File D:\software\Visual Studio 2022\VC\Tools\MSVC\14.35.32215\include\vcruntime_exception.h
; Line 89
	lea	rax, OFFSET FLAT:??_7exception@std@@6B@
	mov	QWORD PTR [rcx], rax
; Line 90
	add	rcx, 8
	jmp	__std_exception_destroy
??1invalid_argument@std@@UEAA@XZ ENDP			; std::invalid_argument::~invalid_argument
_TEXT	ENDS
; Function compile flags: /Ogtpy
;	COMDAT ?load64_native@@YA_KPEBX@Z
_TEXT	SEGMENT
src$ = 8
?load64_native@@YA_KPEBX@Z PROC				; load64_native, COMDAT
; File D:\dev\francium_network\francium_agent\src\ext\randomx\repo\src\blake2\endian.h
; Line 47
	mov	rax, QWORD PTR [rcx]
; Line 48
	ret	0
?load64_native@@YA_KPEBX@Z ENDP				; load64_native
_TEXT	ENDS
; Function compile flags: /Ogtpy
;	COMDAT ?load64@@YA_KPEBX@Z
_TEXT	SEGMENT
src$ = 8
?load64@@YA_KPEBX@Z PROC				; load64, COMDAT
; File D:\dev\francium_network\francium_agent\src\ext\randomx\repo\src\blake2\endian.h
; Line 52
	mov	rax, QWORD PTR [rcx]
; Line 65
	ret	0
?load64@@YA_KPEBX@Z ENDP				; load64
_TEXT	ENDS
; Function compile flags: /Ogtpy
;	COMDAT ?store64_native@@YAXPEAX_K@Z
_TEXT	SEGMENT
dst$ = 8
w$ = 16
?store64_native@@YAXPEAX_K@Z PROC			; store64_native, COMDAT
; File D:\dev\francium_network\francium_agent\src\ext\randomx\repo\src\blake2\endian.h
; Line 83
	mov	QWORD PTR [rcx], rdx
; Line 84
	ret	0
?store64_native@@YAXPEAX_K@Z ENDP			; store64_native
_TEXT	ENDS
; Function compile flags: /Ogtpy
;	COMDAT ?store64@@YAXPEAX_K@Z
_TEXT	SEGMENT
dst$ = 8
w$ = 16
?store64@@YAXPEAX_K@Z PROC				; store64, COMDAT
; File D:\dev\francium_network\francium_agent\src\ext\randomx\repo\src\blake2\endian.h
; Line 88
	mov	QWORD PTR [rcx], rdx
; Line 107
	ret	0
?store64@@YAXPEAX_K@Z ENDP				; store64
_TEXT	ENDS
; Function compile flags: /Ogtpy
;	COMDAT ?getEntropy@Program@randomx@@QEAA_KH@Z
_TEXT	SEGMENT
this$ = 8
i$ = 16
?getEntropy@Program@randomx@@QEAA_KH@Z PROC		; randomx::Program::getEntropy, COMDAT
; File D:\dev\francium_network\francium_agent\src\ext\randomx\repo\src\program.hpp
; Line 54
	movsxd	rax, edx
	mov	rax, QWORD PTR [rcx+rax*8]
; Line 55
	ret	0
?getEntropy@Program@randomx@@QEAA_KH@Z ENDP		; randomx::Program::getEntropy
_TEXT	ENDS
; Function compile flags: /Ogtpy
;	COMDAT ?getScratchpad@randomx_vm@@QEAAPEBXXZ
_TEXT	SEGMENT
this$ = 8
?getScratchpad@randomx_vm@@QEAAPEBXXZ PROC		; randomx_vm::getScratchpad, COMDAT
; File D:\dev\francium_network\francium_agent\src\ext\randomx\repo\src\virtual_machine.hpp
; Line 51
	mov	rax, QWORD PTR [rcx+2544]
; Line 52
	ret	0
?getScratchpad@randomx_vm@@QEAAPEBXXZ ENDP		; randomx_vm::getScratchpad
_TEXT	ENDS
; Function compile flags: /Ogtpy
;	COMDAT ?rx_reset_float_state@@YAXXZ
_TEXT	SEGMENT
tv65 = 8
?rx_reset_float_state@@YAXXZ PROC			; rx_reset_float_state, COMDAT
; File D:\dev\francium_network\francium_agent\src\ext\randomx\repo\src\intrin_portable.h
; Line 169
	mov	DWORD PTR tv65[rsp], 40896		; 00009fc0H
	ldmxcsr	DWORD PTR tv65[rsp]
; Line 170
	ret	0
?rx_reset_float_state@@YAXXZ ENDP			; rx_reset_float_state
_TEXT	ENDS
; Function compile flags: /Ogtpy
;	COMDAT ?getSmallPositiveFloatBits@randomx@@YA_K_K@Z
_TEXT	SEGMENT
entropy$ = 8
?getSmallPositiveFloatBits@randomx@@YA_K_K@Z PROC	; randomx::getSmallPositiveFloatBits, COMDAT
; File D:\dev\francium_network\francium_agent\src\ext\randomx\repo\src\virtual_machine.cpp
; Line 51
	mov	rax, rcx
	mov	rdx, 4607182418800017408		; 3ff0000000000000H
	shr	rax, 7
	add	rax, rdx
; Line 54
	mov	rdx, 9218868437227405312		; 7ff0000000000000H
	and	rax, rdx
	mov	rdx, 4503599627370495			; 000fffffffffffffH
	and	rcx, rdx
; Line 55
	or	rax, rcx
; Line 56
	ret	0
?getSmallPositiveFloatBits@randomx@@YA_K_K@Z ENDP	; randomx::getSmallPositiveFloatBits
_TEXT	ENDS
; Function compile flags: /Ogtpy
;	COMDAT ?getStaticExponent@randomx@@YA_K_K@Z
_TEXT	SEGMENT
entropy$ = 8
?getStaticExponent@randomx@@YA_K_K@Z PROC		; randomx::getStaticExponent, COMDAT
; File D:\dev\francium_network\francium_agent\src\ext\randomx\repo\src\virtual_machine.cpp
; Line 60
	mov	rax, 1080863910568919040		; 0f00000000000000H
	shr	rcx, 4
	and	rcx, rax
; Line 61
	mov	rax, 3458764513820540928		; 3000000000000000H
	or	rax, rcx
; Line 63
	ret	0
?getStaticExponent@randomx@@YA_K_K@Z ENDP		; randomx::getStaticExponent
_TEXT	ENDS
; Function compile flags: /Ogtpy
;	COMDAT ?getFloatMask@randomx@@YA_K_K@Z
_TEXT	SEGMENT
entropy$ = 8
?getFloatMask@randomx@@YA_K_K@Z PROC			; randomx::getFloatMask, COMDAT
; File D:\dev\francium_network\francium_agent\src\ext\randomx\repo\src\virtual_machine.cpp
; Line 67
	mov	rax, rcx
	mov	rdx, 1080863910568919040		; 0f00000000000000H
	shr	rax, 4
	and	ecx, 4194303				; 003fffffH
	and	rax, rdx
	or	rax, rcx
	mov	rcx, 3458764513820540928		; 3000000000000000H
	or	rax, rcx
; Line 68
	ret	0
?getFloatMask@randomx@@YA_K_K@Z ENDP			; randomx::getFloatMask
_TEXT	ENDS
; Function compile flags: /Ogtpy
;	COMDAT ??0invalid_argument@std@@QEAA@AEBV01@@Z
_TEXT	SEGMENT
this$ = 48
__that$ = 56
??0invalid_argument@std@@QEAA@AEBV01@@Z PROC		; std::invalid_argument::invalid_argument, COMDAT
$LN10:
	push	rbx
	sub	rsp, 32					; 00000020H
	mov	rbx, rcx
	mov	rax, rdx
; File D:\software\Visual Studio 2022\VC\Tools\MSVC\14.35.32215\include\vcruntime_exception.h
; Line 72
	lea	rcx, OFFSET FLAT:??_7exception@std@@6B@
	xorps	xmm0, xmm0
; Line 71
	lea	rdx, QWORD PTR [rbx+8]
; Line 72
	mov	QWORD PTR [rbx], rcx
; Line 73
	lea	rcx, QWORD PTR [rax+8]
	movups	XMMWORD PTR [rdx], xmm0
	call	__std_exception_copy
	lea	rax, OFFSET FLAT:??_7invalid_argument@std@@6B@
	mov	QWORD PTR [rbx], rax
	mov	rax, rbx
	add	rsp, 32					; 00000020H
	pop	rbx
	ret	0
??0invalid_argument@std@@QEAA@AEBV01@@Z ENDP		; std::invalid_argument::invalid_argument
_TEXT	ENDS
; Function compile flags: /Ogtpy
;	COMDAT ??0logic_error@std@@QEAA@AEBV01@@Z
_TEXT	SEGMENT
this$ = 48
__that$ = 56
??0logic_error@std@@QEAA@AEBV01@@Z PROC			; std::logic_error::logic_error, COMDAT
$LN7:
	push	rbx
	sub	rsp, 32					; 00000020H
	mov	rbx, rcx
	mov	rax, rdx
; File D:\software\Visual Studio 2022\VC\Tools\MSVC\14.35.32215\include\vcruntime_exception.h
; Line 72
	lea	rcx, OFFSET FLAT:??_7exception@std@@6B@
	xorps	xmm0, xmm0
; Line 71
	lea	rdx, QWORD PTR [rbx+8]
; Line 72
	mov	QWORD PTR [rbx], rcx
; Line 73
	lea	rcx, QWORD PTR [rax+8]
	movups	XMMWORD PTR [rdx], xmm0
	call	__std_exception_copy
	lea	rax, OFFSET FLAT:??_7logic_error@std@@6B@
	mov	QWORD PTR [rbx], rax
	mov	rax, rbx
	add	rsp, 32					; 00000020H
	pop	rbx
	ret	0
??0logic_error@std@@QEAA@AEBV01@@Z ENDP			; std::logic_error::logic_error
_TEXT	ENDS
END
