; Listing generated by Microsoft (R) Optimizing Compiler Version 19.35.32216.1 

include listing.inc

INCLUDELIB OLDNAMES

?_Fake_alloc@std@@3U_Fake_allocator@1@B	ORG $+1		; std::_Fake_alloc
PUBLIC	?run@?$CompiledLightVm@ULargePageAllocator@randomx@@$0A@$00@randomx@@UEAAXPEAX@Z ; randomx::CompiledLightVm<randomx::LargePageAllocator,0,1>::run
PUBLIC	?setCache@?$CompiledLightVm@ULargePageAllocator@randomx@@$0A@$00@randomx@@UEAAXPEAUrandomx_cache@@@Z ; randomx::CompiledLightVm<randomx::LargePageAllocator,0,1>::setCache
PUBLIC	?run@?$CompiledLightVm@ULargePageAllocator@randomx@@$00$0A@@randomx@@UEAAXPEAX@Z ; randomx::CompiledLightVm<randomx::LargePageAllocator,1,0>::run
PUBLIC	?setCache@?$CompiledLightVm@ULargePageAllocator@randomx@@$00$0A@@randomx@@UEAAXPEAUrandomx_cache@@@Z ; randomx::CompiledLightVm<randomx::LargePageAllocator,1,0>::setCache
PUBLIC	?run@?$CompiledLightVm@U?$AlignedAllocator@$0EA@@randomx@@$0A@$00@randomx@@UEAAXPEAX@Z ; randomx::CompiledLightVm<randomx::AlignedAllocator<64>,0,1>::run
PUBLIC	?setCache@?$CompiledLightVm@U?$AlignedAllocator@$0EA@@randomx@@$0A@$00@randomx@@UEAAXPEAUrandomx_cache@@@Z ; randomx::CompiledLightVm<randomx::AlignedAllocator<64>,0,1>::setCache
PUBLIC	?run@?$CompiledLightVm@ULargePageAllocator@randomx@@$00$00@randomx@@UEAAXPEAX@Z ; randomx::CompiledLightVm<randomx::LargePageAllocator,1,1>::run
PUBLIC	?setCache@?$CompiledLightVm@ULargePageAllocator@randomx@@$00$00@randomx@@UEAAXPEAUrandomx_cache@@@Z ; randomx::CompiledLightVm<randomx::LargePageAllocator,1,1>::setCache
PUBLIC	?run@?$CompiledLightVm@U?$AlignedAllocator@$0EA@@randomx@@$00$00@randomx@@UEAAXPEAX@Z ; randomx::CompiledLightVm<randomx::AlignedAllocator<64>,1,1>::run
PUBLIC	?setCache@?$CompiledLightVm@U?$AlignedAllocator@$0EA@@randomx@@$00$00@randomx@@UEAAXPEAUrandomx_cache@@@Z ; randomx::CompiledLightVm<randomx::AlignedAllocator<64>,1,1>::setCache
PUBLIC	?run@?$CompiledLightVm@U?$AlignedAllocator@$0EA@@randomx@@$00$0A@@randomx@@UEAAXPEAX@Z ; randomx::CompiledLightVm<randomx::AlignedAllocator<64>,1,0>::run
PUBLIC	?setCache@?$CompiledLightVm@U?$AlignedAllocator@$0EA@@randomx@@$00$0A@@randomx@@UEAAXPEAUrandomx_cache@@@Z ; randomx::CompiledLightVm<randomx::AlignedAllocator<64>,1,0>::setCache
PUBLIC	?run@?$CompiledLightVm@ULargePageAllocator@randomx@@$0A@$0A@@randomx@@UEAAXPEAX@Z ; randomx::CompiledLightVm<randomx::LargePageAllocator,0,0>::run
PUBLIC	?setCache@?$CompiledLightVm@ULargePageAllocator@randomx@@$0A@$0A@@randomx@@UEAAXPEAUrandomx_cache@@@Z ; randomx::CompiledLightVm<randomx::LargePageAllocator,0,0>::setCache
PUBLIC	?run@?$CompiledLightVm@U?$AlignedAllocator@$0EA@@randomx@@$0A@$0A@@randomx@@UEAAXPEAX@Z ; randomx::CompiledLightVm<randomx::AlignedAllocator<64>,0,0>::run
PUBLIC	?setCache@?$CompiledLightVm@U?$AlignedAllocator@$0EA@@randomx@@$0A@$0A@@randomx@@UEAAXPEAUrandomx_cache@@@Z ; randomx::CompiledLightVm<randomx::AlignedAllocator<64>,0,0>::setCache
;	COMDAT pdata
pdata	SEGMENT
$pdata$?run@?$CompiledLightVm@ULargePageAllocator@randomx@@$0A@$00@randomx@@UEAAXPEAX@Z DD imagerel $LN10
	DD	imagerel $LN10+144
	DD	imagerel $unwind$?run@?$CompiledLightVm@ULargePageAllocator@randomx@@$0A@$00@randomx@@UEAAXPEAX@Z
pdata	ENDS
;	COMDAT pdata
pdata	SEGMENT
$pdata$?setCache@?$CompiledLightVm@ULargePageAllocator@randomx@@$0A@$00@randomx@@UEAAXPEAUrandomx_cache@@@Z DD imagerel $LN6
	DD	imagerel $LN6+82
	DD	imagerel $unwind$?setCache@?$CompiledLightVm@ULargePageAllocator@randomx@@$0A@$00@randomx@@UEAAXPEAUrandomx_cache@@@Z
pdata	ENDS
;	COMDAT pdata
pdata	SEGMENT
$pdata$?run@?$CompiledLightVm@ULargePageAllocator@randomx@@$00$0A@@randomx@@UEAAXPEAX@Z DD imagerel $LN10
	DD	imagerel $LN10+110
	DD	imagerel $unwind$?run@?$CompiledLightVm@ULargePageAllocator@randomx@@$00$0A@@randomx@@UEAAXPEAX@Z
pdata	ENDS
;	COMDAT pdata
pdata	SEGMENT
$pdata$?run@?$CompiledLightVm@U?$AlignedAllocator@$0EA@@randomx@@$0A@$00@randomx@@UEAAXPEAX@Z DD imagerel $LN10
	DD	imagerel $LN10+144
	DD	imagerel $unwind$?run@?$CompiledLightVm@U?$AlignedAllocator@$0EA@@randomx@@$0A@$00@randomx@@UEAAXPEAX@Z
pdata	ENDS
;	COMDAT pdata
pdata	SEGMENT
$pdata$?setCache@?$CompiledLightVm@U?$AlignedAllocator@$0EA@@randomx@@$0A@$00@randomx@@UEAAXPEAUrandomx_cache@@@Z DD imagerel $LN6
	DD	imagerel $LN6+82
	DD	imagerel $unwind$?setCache@?$CompiledLightVm@U?$AlignedAllocator@$0EA@@randomx@@$0A@$00@randomx@@UEAAXPEAUrandomx_cache@@@Z
pdata	ENDS
;	COMDAT pdata
pdata	SEGMENT
$pdata$?run@?$CompiledLightVm@ULargePageAllocator@randomx@@$00$00@randomx@@UEAAXPEAX@Z DD imagerel $LN10
	DD	imagerel $LN10+144
	DD	imagerel $unwind$?run@?$CompiledLightVm@ULargePageAllocator@randomx@@$00$00@randomx@@UEAAXPEAX@Z
pdata	ENDS
;	COMDAT pdata
pdata	SEGMENT
$pdata$?setCache@?$CompiledLightVm@ULargePageAllocator@randomx@@$00$00@randomx@@UEAAXPEAUrandomx_cache@@@Z DD imagerel $LN6
	DD	imagerel $LN6+82
	DD	imagerel $unwind$?setCache@?$CompiledLightVm@ULargePageAllocator@randomx@@$00$00@randomx@@UEAAXPEAUrandomx_cache@@@Z
pdata	ENDS
;	COMDAT pdata
pdata	SEGMENT
$pdata$?run@?$CompiledLightVm@U?$AlignedAllocator@$0EA@@randomx@@$00$00@randomx@@UEAAXPEAX@Z DD imagerel $LN10
	DD	imagerel $LN10+144
	DD	imagerel $unwind$?run@?$CompiledLightVm@U?$AlignedAllocator@$0EA@@randomx@@$00$00@randomx@@UEAAXPEAX@Z
pdata	ENDS
;	COMDAT pdata
pdata	SEGMENT
$pdata$?setCache@?$CompiledLightVm@U?$AlignedAllocator@$0EA@@randomx@@$00$00@randomx@@UEAAXPEAUrandomx_cache@@@Z DD imagerel $LN6
	DD	imagerel $LN6+82
	DD	imagerel $unwind$?setCache@?$CompiledLightVm@U?$AlignedAllocator@$0EA@@randomx@@$00$00@randomx@@UEAAXPEAUrandomx_cache@@@Z
pdata	ENDS
;	COMDAT pdata
pdata	SEGMENT
$pdata$?run@?$CompiledLightVm@U?$AlignedAllocator@$0EA@@randomx@@$00$0A@@randomx@@UEAAXPEAX@Z DD imagerel $LN10
	DD	imagerel $LN10+110
	DD	imagerel $unwind$?run@?$CompiledLightVm@U?$AlignedAllocator@$0EA@@randomx@@$00$0A@@randomx@@UEAAXPEAX@Z
pdata	ENDS
;	COMDAT pdata
pdata	SEGMENT
$pdata$?run@?$CompiledLightVm@ULargePageAllocator@randomx@@$0A@$0A@@randomx@@UEAAXPEAX@Z DD imagerel $LN10
	DD	imagerel $LN10+110
	DD	imagerel $unwind$?run@?$CompiledLightVm@ULargePageAllocator@randomx@@$0A@$0A@@randomx@@UEAAXPEAX@Z
pdata	ENDS
;	COMDAT pdata
pdata	SEGMENT
$pdata$?run@?$CompiledLightVm@U?$AlignedAllocator@$0EA@@randomx@@$0A@$0A@@randomx@@UEAAXPEAX@Z DD imagerel $LN10
	DD	imagerel $LN10+110
	DD	imagerel $unwind$?run@?$CompiledLightVm@U?$AlignedAllocator@$0EA@@randomx@@$0A@$0A@@randomx@@UEAAXPEAX@Z
;	COMDAT xdata
xdata	SEGMENT
$unwind$?run@?$CompiledLightVm@U?$AlignedAllocator@$0EA@@randomx@@$0A@$0A@@randomx@@UEAAXPEAX@Z DD 040a01H
	DD	06340aH
	DD	07006320aH
xdata	ENDS
;	COMDAT xdata
xdata	SEGMENT
$unwind$?run@?$CompiledLightVm@ULargePageAllocator@randomx@@$0A@$0A@@randomx@@UEAAXPEAX@Z DD 040a01H
	DD	06340aH
	DD	07006320aH
xdata	ENDS
;	COMDAT xdata
xdata	SEGMENT
$unwind$?run@?$CompiledLightVm@U?$AlignedAllocator@$0EA@@randomx@@$00$0A@@randomx@@UEAAXPEAX@Z DD 040a01H
	DD	06340aH
	DD	07006320aH
xdata	ENDS
;	COMDAT xdata
xdata	SEGMENT
$unwind$?setCache@?$CompiledLightVm@U?$AlignedAllocator@$0EA@@randomx@@$00$00@randomx@@UEAAXPEAUrandomx_cache@@@Z DD 040a01H
	DD	06340aH
	DD	07006320aH
xdata	ENDS
;	COMDAT xdata
xdata	SEGMENT
$unwind$?run@?$CompiledLightVm@U?$AlignedAllocator@$0EA@@randomx@@$00$00@randomx@@UEAAXPEAX@Z DD 060f01H
	DD	07640fH
	DD	06340fH
	DD	0700b320fH
xdata	ENDS
;	COMDAT xdata
xdata	SEGMENT
$unwind$?setCache@?$CompiledLightVm@ULargePageAllocator@randomx@@$00$00@randomx@@UEAAXPEAUrandomx_cache@@@Z DD 040a01H
	DD	06340aH
	DD	07006320aH
xdata	ENDS
;	COMDAT xdata
xdata	SEGMENT
$unwind$?run@?$CompiledLightVm@ULargePageAllocator@randomx@@$00$00@randomx@@UEAAXPEAX@Z DD 060f01H
	DD	07640fH
	DD	06340fH
	DD	0700b320fH
xdata	ENDS
;	COMDAT xdata
xdata	SEGMENT
$unwind$?setCache@?$CompiledLightVm@U?$AlignedAllocator@$0EA@@randomx@@$0A@$00@randomx@@UEAAXPEAUrandomx_cache@@@Z DD 040a01H
	DD	06340aH
	DD	07006320aH
xdata	ENDS
;	COMDAT xdata
xdata	SEGMENT
$unwind$?run@?$CompiledLightVm@U?$AlignedAllocator@$0EA@@randomx@@$0A@$00@randomx@@UEAAXPEAX@Z DD 060f01H
	DD	07640fH
	DD	06340fH
	DD	0700b320fH
xdata	ENDS
;	COMDAT xdata
xdata	SEGMENT
$unwind$?run@?$CompiledLightVm@ULargePageAllocator@randomx@@$00$0A@@randomx@@UEAAXPEAX@Z DD 040a01H
	DD	06340aH
	DD	07006320aH
xdata	ENDS
;	COMDAT xdata
xdata	SEGMENT
$unwind$?setCache@?$CompiledLightVm@ULargePageAllocator@randomx@@$0A@$00@randomx@@UEAAXPEAUrandomx_cache@@@Z DD 040a01H
	DD	06340aH
	DD	07006320aH
xdata	ENDS
;	COMDAT xdata
xdata	SEGMENT
$unwind$?run@?$CompiledLightVm@ULargePageAllocator@randomx@@$0A@$00@randomx@@UEAAXPEAX@Z DD 060f01H
	DD	07640fH
	DD	06340fH
	DD	0700b320fH
; Function compile flags: /Ogtpy
;	COMDAT ?setCache@?$CompiledLightVm@U?$AlignedAllocator@$0EA@@randomx@@$0A@$0A@@randomx@@UEAAXPEAUrandomx_cache@@@Z
_TEXT	SEGMENT
this$ = 8
cache$ = 16
?setCache@?$CompiledLightVm@U?$AlignedAllocator@$0EA@@randomx@@$0A@$0A@@randomx@@UEAAXPEAUrandomx_cache@@@Z PROC ; randomx::CompiledLightVm<randomx::AlignedAllocator<64>,0,0>::setCache, COMDAT
; File D:\dev\francium_network\francium_agent\src\ext\randomx\repo\src\vm_compiled_light.cpp
; Line 37
	mov	QWORD PTR [rcx+2552], rdx
; Line 42
	lea	r8, QWORD PTR [rdx+33640]
	mov	rax, QWORD PTR [rdx]
	add	rdx, 40					; 00000028H
	mov	QWORD PTR [rcx+2536], rax
	add	rcx, 2688				; 00000a80H
	jmp	??$generateSuperscalarHash@$07@JitCompilerX86@randomx@@QEAAXAEAY07VSuperscalarProgram@1@AEAV?$vector@_KV?$allocator@_K@std@@@std@@@Z ; randomx::JitCompilerX86::generateSuperscalarHash<8>
?setCache@?$CompiledLightVm@U?$AlignedAllocator@$0EA@@randomx@@$0A@$0A@@randomx@@UEAAXPEAUrandomx_cache@@@Z ENDP ; randomx::CompiledLightVm<randomx::AlignedAllocator<64>,0,0>::setCache
_TEXT	ENDS
; Function compile flags: /Ogtpy
;	COMDAT ?run@?$CompiledLightVm@U?$AlignedAllocator@$0EA@@randomx@@$0A@$0A@@randomx@@UEAAXPEAX@Z
_TEXT	SEGMENT
this$ = 48
seed$ = 56
?run@?$CompiledLightVm@U?$AlignedAllocator@$0EA@@randomx@@$0A@$0A@@randomx@@UEAAXPEAX@Z PROC ; randomx::CompiledLightVm<randomx::AlignedAllocator<64>,0,0>::run, COMDAT
; File D:\dev\francium_network\francium_agent\src\ext\randomx\repo\src\vm_compiled_light.cpp
; Line 49
$LN10:
	mov	QWORD PTR [rsp+8], rbx
	push	rdi
	sub	rsp, 32					; 00000020H
	mov	rdi, rcx
; File D:\dev\francium_network\francium_agent\src\ext\randomx\repo\src\virtual_machine.cpp
; Line 136
	lea	r8, QWORD PTR [rcx+64]
	mov	rcx, rdx
	call	??$fillAes4Rx4@$0A@@@YAXPEAX_K0@Z	; fillAes4Rx4<0>
; File D:\dev\francium_network\francium_agent\src\ext\randomx\repo\src\vm_compiled_light.cpp
; Line 51
	mov	rcx, rdi
	call	?initialize@randomx_vm@@IEAAXXZ		; randomx_vm::initialize
; Line 55
	mov	r9d, DWORD PTR [rdi+2560]
	lea	r8, QWORD PTR [rdi+2496]
	lea	rcx, QWORD PTR [rdi+2688]
	lea	rdx, QWORD PTR [rdi+64]
	call	?generateProgramLight@JitCompilerX86@randomx@@QEAAXAEAVProgram@2@AEAUProgramConfiguration@2@I@Z ; randomx::JitCompilerX86::generateProgramLight
; File D:\dev\francium_network\francium_agent\src\ext\randomx\repo\src\vm_compiled.cpp
; Line 69
	mov	r8, QWORD PTR [rdi+2544]
	lea	rdx, QWORD PTR [rdi+2528]
	lea	rcx, QWORD PTR [rdi+2240]
	mov	r9d, 2048				; 00000800H
	mov	rax, QWORD PTR [rdi+2744]
; File D:\dev\francium_network\francium_agent\src\ext\randomx\repo\src\vm_compiled_light.cpp
; Line 60
	mov	rbx, QWORD PTR [rsp+48]
	add	rsp, 32					; 00000020H
	pop	rdi
; File D:\dev\francium_network\francium_agent\src\ext\randomx\repo\src\vm_compiled.cpp
; Line 69
	rex_jmp	rax
?run@?$CompiledLightVm@U?$AlignedAllocator@$0EA@@randomx@@$0A@$0A@@randomx@@UEAAXPEAX@Z ENDP ; randomx::CompiledLightVm<randomx::AlignedAllocator<64>,0,0>::run
_TEXT	ENDS
; Function compile flags: /Ogtpy
;	COMDAT ?setCache@?$CompiledLightVm@ULargePageAllocator@randomx@@$0A@$0A@@randomx@@UEAAXPEAUrandomx_cache@@@Z
_TEXT	SEGMENT
this$ = 8
cache$ = 16
?setCache@?$CompiledLightVm@ULargePageAllocator@randomx@@$0A@$0A@@randomx@@UEAAXPEAUrandomx_cache@@@Z PROC ; randomx::CompiledLightVm<randomx::LargePageAllocator,0,0>::setCache, COMDAT
; File D:\dev\francium_network\francium_agent\src\ext\randomx\repo\src\vm_compiled_light.cpp
; Line 37
	mov	QWORD PTR [rcx+2552], rdx
; Line 42
	lea	r8, QWORD PTR [rdx+33640]
	mov	rax, QWORD PTR [rdx]
	add	rdx, 40					; 00000028H
	mov	QWORD PTR [rcx+2536], rax
	add	rcx, 2688				; 00000a80H
	jmp	??$generateSuperscalarHash@$07@JitCompilerX86@randomx@@QEAAXAEAY07VSuperscalarProgram@1@AEAV?$vector@_KV?$allocator@_K@std@@@std@@@Z ; randomx::JitCompilerX86::generateSuperscalarHash<8>
?setCache@?$CompiledLightVm@ULargePageAllocator@randomx@@$0A@$0A@@randomx@@UEAAXPEAUrandomx_cache@@@Z ENDP ; randomx::CompiledLightVm<randomx::LargePageAllocator,0,0>::setCache
_TEXT	ENDS
; Function compile flags: /Ogtpy
;	COMDAT ?run@?$CompiledLightVm@ULargePageAllocator@randomx@@$0A@$0A@@randomx@@UEAAXPEAX@Z
_TEXT	SEGMENT
this$ = 48
seed$ = 56
?run@?$CompiledLightVm@ULargePageAllocator@randomx@@$0A@$0A@@randomx@@UEAAXPEAX@Z PROC ; randomx::CompiledLightVm<randomx::LargePageAllocator,0,0>::run, COMDAT
; File D:\dev\francium_network\francium_agent\src\ext\randomx\repo\src\vm_compiled_light.cpp
; Line 49
$LN10:
	mov	QWORD PTR [rsp+8], rbx
	push	rdi
	sub	rsp, 32					; 00000020H
	mov	rdi, rcx
; File D:\dev\francium_network\francium_agent\src\ext\randomx\repo\src\virtual_machine.cpp
; Line 136
	lea	r8, QWORD PTR [rcx+64]
	mov	rcx, rdx
	call	??$fillAes4Rx4@$0A@@@YAXPEAX_K0@Z	; fillAes4Rx4<0>
; File D:\dev\francium_network\francium_agent\src\ext\randomx\repo\src\vm_compiled_light.cpp
; Line 51
	mov	rcx, rdi
	call	?initialize@randomx_vm@@IEAAXXZ		; randomx_vm::initialize
; Line 55
	mov	r9d, DWORD PTR [rdi+2560]
	lea	r8, QWORD PTR [rdi+2496]
	lea	rcx, QWORD PTR [rdi+2688]
	lea	rdx, QWORD PTR [rdi+64]
	call	?generateProgramLight@JitCompilerX86@randomx@@QEAAXAEAVProgram@2@AEAUProgramConfiguration@2@I@Z ; randomx::JitCompilerX86::generateProgramLight
; File D:\dev\francium_network\francium_agent\src\ext\randomx\repo\src\vm_compiled.cpp
; Line 69
	mov	r8, QWORD PTR [rdi+2544]
	lea	rdx, QWORD PTR [rdi+2528]
	lea	rcx, QWORD PTR [rdi+2240]
	mov	r9d, 2048				; 00000800H
	mov	rax, QWORD PTR [rdi+2744]
; File D:\dev\francium_network\francium_agent\src\ext\randomx\repo\src\vm_compiled_light.cpp
; Line 60
	mov	rbx, QWORD PTR [rsp+48]
	add	rsp, 32					; 00000020H
	pop	rdi
; File D:\dev\francium_network\francium_agent\src\ext\randomx\repo\src\vm_compiled.cpp
; Line 69
	rex_jmp	rax
?run@?$CompiledLightVm@ULargePageAllocator@randomx@@$0A@$0A@@randomx@@UEAAXPEAX@Z ENDP ; randomx::CompiledLightVm<randomx::LargePageAllocator,0,0>::run
_TEXT	ENDS
; Function compile flags: /Ogtpy
;	COMDAT ?setCache@?$CompiledLightVm@U?$AlignedAllocator@$0EA@@randomx@@$00$0A@@randomx@@UEAAXPEAUrandomx_cache@@@Z
_TEXT	SEGMENT
this$ = 8
cache$ = 16
?setCache@?$CompiledLightVm@U?$AlignedAllocator@$0EA@@randomx@@$00$0A@@randomx@@UEAAXPEAUrandomx_cache@@@Z PROC ; randomx::CompiledLightVm<randomx::AlignedAllocator<64>,1,0>::setCache, COMDAT
; File D:\dev\francium_network\francium_agent\src\ext\randomx\repo\src\vm_compiled_light.cpp
; Line 37
	mov	QWORD PTR [rcx+2552], rdx
; Line 42
	lea	r8, QWORD PTR [rdx+33640]
	mov	rax, QWORD PTR [rdx]
	add	rdx, 40					; 00000028H
	mov	QWORD PTR [rcx+2536], rax
	add	rcx, 2688				; 00000a80H
	jmp	??$generateSuperscalarHash@$07@JitCompilerX86@randomx@@QEAAXAEAY07VSuperscalarProgram@1@AEAV?$vector@_KV?$allocator@_K@std@@@std@@@Z ; randomx::JitCompilerX86::generateSuperscalarHash<8>
?setCache@?$CompiledLightVm@U?$AlignedAllocator@$0EA@@randomx@@$00$0A@@randomx@@UEAAXPEAUrandomx_cache@@@Z ENDP ; randomx::CompiledLightVm<randomx::AlignedAllocator<64>,1,0>::setCache
_TEXT	ENDS
; Function compile flags: /Ogtpy
;	COMDAT ?run@?$CompiledLightVm@U?$AlignedAllocator@$0EA@@randomx@@$00$0A@@randomx@@UEAAXPEAX@Z
_TEXT	SEGMENT
this$ = 48
seed$ = 56
?run@?$CompiledLightVm@U?$AlignedAllocator@$0EA@@randomx@@$00$0A@@randomx@@UEAAXPEAX@Z PROC ; randomx::CompiledLightVm<randomx::AlignedAllocator<64>,1,0>::run, COMDAT
; File D:\dev\francium_network\francium_agent\src\ext\randomx\repo\src\vm_compiled_light.cpp
; Line 49
$LN10:
	mov	QWORD PTR [rsp+8], rbx
	push	rdi
	sub	rsp, 32					; 00000020H
	mov	rdi, rcx
; File D:\dev\francium_network\francium_agent\src\ext\randomx\repo\src\virtual_machine.cpp
; Line 136
	lea	r8, QWORD PTR [rcx+64]
	mov	rcx, rdx
	call	??$fillAes4Rx4@$00@@YAXPEAX_K0@Z	; fillAes4Rx4<1>
; File D:\dev\francium_network\francium_agent\src\ext\randomx\repo\src\vm_compiled_light.cpp
; Line 51
	mov	rcx, rdi
	call	?initialize@randomx_vm@@IEAAXXZ		; randomx_vm::initialize
; Line 55
	mov	r9d, DWORD PTR [rdi+2560]
	lea	r8, QWORD PTR [rdi+2496]
	lea	rcx, QWORD PTR [rdi+2688]
	lea	rdx, QWORD PTR [rdi+64]
	call	?generateProgramLight@JitCompilerX86@randomx@@QEAAXAEAVProgram@2@AEAUProgramConfiguration@2@I@Z ; randomx::JitCompilerX86::generateProgramLight
; File D:\dev\francium_network\francium_agent\src\ext\randomx\repo\src\vm_compiled.cpp
; Line 69
	mov	r8, QWORD PTR [rdi+2544]
	lea	rdx, QWORD PTR [rdi+2528]
	lea	rcx, QWORD PTR [rdi+2240]
	mov	r9d, 2048				; 00000800H
	mov	rax, QWORD PTR [rdi+2744]
; File D:\dev\francium_network\francium_agent\src\ext\randomx\repo\src\vm_compiled_light.cpp
; Line 60
	mov	rbx, QWORD PTR [rsp+48]
	add	rsp, 32					; 00000020H
	pop	rdi
; File D:\dev\francium_network\francium_agent\src\ext\randomx\repo\src\vm_compiled.cpp
; Line 69
	rex_jmp	rax
?run@?$CompiledLightVm@U?$AlignedAllocator@$0EA@@randomx@@$00$0A@@randomx@@UEAAXPEAX@Z ENDP ; randomx::CompiledLightVm<randomx::AlignedAllocator<64>,1,0>::run
_TEXT	ENDS
; Function compile flags: /Ogtpy
;	COMDAT ?setCache@?$CompiledLightVm@U?$AlignedAllocator@$0EA@@randomx@@$00$00@randomx@@UEAAXPEAUrandomx_cache@@@Z
_TEXT	SEGMENT
this$ = 48
cache$ = 56
?setCache@?$CompiledLightVm@U?$AlignedAllocator@$0EA@@randomx@@$00$00@randomx@@UEAAXPEAUrandomx_cache@@@Z PROC ; randomx::CompiledLightVm<randomx::AlignedAllocator<64>,1,1>::setCache, COMDAT
; File D:\dev\francium_network\francium_agent\src\ext\randomx\repo\src\vm_compiled_light.cpp
; Line 36
$LN6:
	mov	QWORD PTR [rsp+8], rbx
	push	rdi
	sub	rsp, 32					; 00000020H
; Line 37
	mov	QWORD PTR [rcx+2552], rdx
; Line 40
	lea	rbx, QWORD PTR [rcx+2688]
	mov	rax, QWORD PTR [rdx]
	mov	rdi, rdx
	mov	QWORD PTR [rcx+2536], rax
	mov	rcx, rbx
	call	?enableWriting@JitCompilerX86@randomx@@QEAAXXZ ; randomx::JitCompilerX86::enableWriting
; Line 42
	lea	r8, QWORD PTR [rdi+33640]
	mov	rcx, rbx
	lea	rdx, QWORD PTR [rdi+40]
	call	??$generateSuperscalarHash@$07@JitCompilerX86@randomx@@QEAAXAEAY07VSuperscalarProgram@1@AEAV?$vector@_KV?$allocator@_K@std@@@std@@@Z ; randomx::JitCompilerX86::generateSuperscalarHash<8>
; Line 44
	mov	rcx, rbx
; Line 46
	mov	rbx, QWORD PTR [rsp+48]
	add	rsp, 32					; 00000020H
	pop	rdi
; Line 44
	jmp	?enableExecution@JitCompilerX86@randomx@@QEAAXXZ ; randomx::JitCompilerX86::enableExecution
?setCache@?$CompiledLightVm@U?$AlignedAllocator@$0EA@@randomx@@$00$00@randomx@@UEAAXPEAUrandomx_cache@@@Z ENDP ; randomx::CompiledLightVm<randomx::AlignedAllocator<64>,1,1>::setCache
_TEXT	ENDS
; Function compile flags: /Ogtpy
;	COMDAT ?run@?$CompiledLightVm@U?$AlignedAllocator@$0EA@@randomx@@$00$00@randomx@@UEAAXPEAX@Z
_TEXT	SEGMENT
this$ = 48
seed$ = 56
?run@?$CompiledLightVm@U?$AlignedAllocator@$0EA@@randomx@@$00$00@randomx@@UEAAXPEAX@Z PROC ; randomx::CompiledLightVm<randomx::AlignedAllocator<64>,1,1>::run, COMDAT
; File D:\dev\francium_network\francium_agent\src\ext\randomx\repo\src\vm_compiled_light.cpp
; Line 49
$LN10:
	mov	QWORD PTR [rsp+8], rbx
	mov	QWORD PTR [rsp+16], rsi
	push	rdi
	sub	rsp, 32					; 00000020H
	mov	rsi, rcx
; File D:\dev\francium_network\francium_agent\src\ext\randomx\repo\src\virtual_machine.cpp
; Line 136
	lea	r8, QWORD PTR [rcx+64]
	mov	rcx, rdx
	call	??$fillAes4Rx4@$00@@YAXPEAX_K0@Z	; fillAes4Rx4<1>
; File D:\dev\francium_network\francium_agent\src\ext\randomx\repo\src\vm_compiled_light.cpp
; Line 51
	mov	rcx, rsi
	call	?initialize@randomx_vm@@IEAAXXZ		; randomx_vm::initialize
; Line 53
	lea	rcx, QWORD PTR [rsi+2688]
	call	?enableWriting@JitCompilerX86@randomx@@QEAAXXZ ; randomx::JitCompilerX86::enableWriting
; Line 55
	mov	r9d, DWORD PTR [rsi+2560]
	lea	r8, QWORD PTR [rsi+2496]
	lea	rdx, QWORD PTR [rsi+64]
	lea	rcx, QWORD PTR [rsi+2688]
	call	?generateProgramLight@JitCompilerX86@randomx@@QEAAXAEAVProgram@2@AEAUProgramConfiguration@2@I@Z ; randomx::JitCompilerX86::generateProgramLight
; Line 57
	lea	rcx, QWORD PTR [rsi+2688]
	call	?enableExecution@JitCompilerX86@randomx@@QEAAXXZ ; randomx::JitCompilerX86::enableExecution
; File D:\dev\francium_network\francium_agent\src\ext\randomx\repo\src\vm_compiled.cpp
; Line 69
	mov	r8, QWORD PTR [rsi+2544]
	lea	rdx, QWORD PTR [rsi+2528]
	lea	rcx, QWORD PTR [rsi+2240]
	mov	r9d, 2048				; 00000800H
	mov	rax, QWORD PTR [rsi+2744]
; File D:\dev\francium_network\francium_agent\src\ext\randomx\repo\src\vm_compiled_light.cpp
; Line 60
	mov	rbx, QWORD PTR [rsp+48]
	mov	rsi, QWORD PTR [rsp+56]
	add	rsp, 32					; 00000020H
	pop	rdi
; File D:\dev\francium_network\francium_agent\src\ext\randomx\repo\src\vm_compiled.cpp
; Line 69
	rex_jmp	rax
?run@?$CompiledLightVm@U?$AlignedAllocator@$0EA@@randomx@@$00$00@randomx@@UEAAXPEAX@Z ENDP ; randomx::CompiledLightVm<randomx::AlignedAllocator<64>,1,1>::run
_TEXT	ENDS
; Function compile flags: /Ogtpy
;	COMDAT ?setCache@?$CompiledLightVm@ULargePageAllocator@randomx@@$00$00@randomx@@UEAAXPEAUrandomx_cache@@@Z
_TEXT	SEGMENT
this$ = 48
cache$ = 56
?setCache@?$CompiledLightVm@ULargePageAllocator@randomx@@$00$00@randomx@@UEAAXPEAUrandomx_cache@@@Z PROC ; randomx::CompiledLightVm<randomx::LargePageAllocator,1,1>::setCache, COMDAT
; File D:\dev\francium_network\francium_agent\src\ext\randomx\repo\src\vm_compiled_light.cpp
; Line 36
$LN6:
	mov	QWORD PTR [rsp+8], rbx
	push	rdi
	sub	rsp, 32					; 00000020H
; Line 37
	mov	QWORD PTR [rcx+2552], rdx
; Line 40
	lea	rbx, QWORD PTR [rcx+2688]
	mov	rax, QWORD PTR [rdx]
	mov	rdi, rdx
	mov	QWORD PTR [rcx+2536], rax
	mov	rcx, rbx
	call	?enableWriting@JitCompilerX86@randomx@@QEAAXXZ ; randomx::JitCompilerX86::enableWriting
; Line 42
	lea	r8, QWORD PTR [rdi+33640]
	mov	rcx, rbx
	lea	rdx, QWORD PTR [rdi+40]
	call	??$generateSuperscalarHash@$07@JitCompilerX86@randomx@@QEAAXAEAY07VSuperscalarProgram@1@AEAV?$vector@_KV?$allocator@_K@std@@@std@@@Z ; randomx::JitCompilerX86::generateSuperscalarHash<8>
; Line 44
	mov	rcx, rbx
; Line 46
	mov	rbx, QWORD PTR [rsp+48]
	add	rsp, 32					; 00000020H
	pop	rdi
; Line 44
	jmp	?enableExecution@JitCompilerX86@randomx@@QEAAXXZ ; randomx::JitCompilerX86::enableExecution
?setCache@?$CompiledLightVm@ULargePageAllocator@randomx@@$00$00@randomx@@UEAAXPEAUrandomx_cache@@@Z ENDP ; randomx::CompiledLightVm<randomx::LargePageAllocator,1,1>::setCache
_TEXT	ENDS
; Function compile flags: /Ogtpy
;	COMDAT ?run@?$CompiledLightVm@ULargePageAllocator@randomx@@$00$00@randomx@@UEAAXPEAX@Z
_TEXT	SEGMENT
this$ = 48
seed$ = 56
?run@?$CompiledLightVm@ULargePageAllocator@randomx@@$00$00@randomx@@UEAAXPEAX@Z PROC ; randomx::CompiledLightVm<randomx::LargePageAllocator,1,1>::run, COMDAT
; File D:\dev\francium_network\francium_agent\src\ext\randomx\repo\src\vm_compiled_light.cpp
; Line 49
$LN10:
	mov	QWORD PTR [rsp+8], rbx
	mov	QWORD PTR [rsp+16], rsi
	push	rdi
	sub	rsp, 32					; 00000020H
	mov	rsi, rcx
; File D:\dev\francium_network\francium_agent\src\ext\randomx\repo\src\virtual_machine.cpp
; Line 136
	lea	r8, QWORD PTR [rcx+64]
	mov	rcx, rdx
	call	??$fillAes4Rx4@$00@@YAXPEAX_K0@Z	; fillAes4Rx4<1>
; File D:\dev\francium_network\francium_agent\src\ext\randomx\repo\src\vm_compiled_light.cpp
; Line 51
	mov	rcx, rsi
	call	?initialize@randomx_vm@@IEAAXXZ		; randomx_vm::initialize
; Line 53
	lea	rcx, QWORD PTR [rsi+2688]
	call	?enableWriting@JitCompilerX86@randomx@@QEAAXXZ ; randomx::JitCompilerX86::enableWriting
; Line 55
	mov	r9d, DWORD PTR [rsi+2560]
	lea	r8, QWORD PTR [rsi+2496]
	lea	rdx, QWORD PTR [rsi+64]
	lea	rcx, QWORD PTR [rsi+2688]
	call	?generateProgramLight@JitCompilerX86@randomx@@QEAAXAEAVProgram@2@AEAUProgramConfiguration@2@I@Z ; randomx::JitCompilerX86::generateProgramLight
; Line 57
	lea	rcx, QWORD PTR [rsi+2688]
	call	?enableExecution@JitCompilerX86@randomx@@QEAAXXZ ; randomx::JitCompilerX86::enableExecution
; File D:\dev\francium_network\francium_agent\src\ext\randomx\repo\src\vm_compiled.cpp
; Line 69
	mov	r8, QWORD PTR [rsi+2544]
	lea	rdx, QWORD PTR [rsi+2528]
	lea	rcx, QWORD PTR [rsi+2240]
	mov	r9d, 2048				; 00000800H
	mov	rax, QWORD PTR [rsi+2744]
; File D:\dev\francium_network\francium_agent\src\ext\randomx\repo\src\vm_compiled_light.cpp
; Line 60
	mov	rbx, QWORD PTR [rsp+48]
	mov	rsi, QWORD PTR [rsp+56]
	add	rsp, 32					; 00000020H
	pop	rdi
; File D:\dev\francium_network\francium_agent\src\ext\randomx\repo\src\vm_compiled.cpp
; Line 69
	rex_jmp	rax
?run@?$CompiledLightVm@ULargePageAllocator@randomx@@$00$00@randomx@@UEAAXPEAX@Z ENDP ; randomx::CompiledLightVm<randomx::LargePageAllocator,1,1>::run
_TEXT	ENDS
; Function compile flags: /Ogtpy
;	COMDAT ?setCache@?$CompiledLightVm@U?$AlignedAllocator@$0EA@@randomx@@$0A@$00@randomx@@UEAAXPEAUrandomx_cache@@@Z
_TEXT	SEGMENT
this$ = 48
cache$ = 56
?setCache@?$CompiledLightVm@U?$AlignedAllocator@$0EA@@randomx@@$0A@$00@randomx@@UEAAXPEAUrandomx_cache@@@Z PROC ; randomx::CompiledLightVm<randomx::AlignedAllocator<64>,0,1>::setCache, COMDAT
; File D:\dev\francium_network\francium_agent\src\ext\randomx\repo\src\vm_compiled_light.cpp
; Line 36
$LN6:
	mov	QWORD PTR [rsp+8], rbx
	push	rdi
	sub	rsp, 32					; 00000020H
; Line 37
	mov	QWORD PTR [rcx+2552], rdx
; Line 40
	lea	rbx, QWORD PTR [rcx+2688]
	mov	rax, QWORD PTR [rdx]
	mov	rdi, rdx
	mov	QWORD PTR [rcx+2536], rax
	mov	rcx, rbx
	call	?enableWriting@JitCompilerX86@randomx@@QEAAXXZ ; randomx::JitCompilerX86::enableWriting
; Line 42
	lea	r8, QWORD PTR [rdi+33640]
	mov	rcx, rbx
	lea	rdx, QWORD PTR [rdi+40]
	call	??$generateSuperscalarHash@$07@JitCompilerX86@randomx@@QEAAXAEAY07VSuperscalarProgram@1@AEAV?$vector@_KV?$allocator@_K@std@@@std@@@Z ; randomx::JitCompilerX86::generateSuperscalarHash<8>
; Line 44
	mov	rcx, rbx
; Line 46
	mov	rbx, QWORD PTR [rsp+48]
	add	rsp, 32					; 00000020H
	pop	rdi
; Line 44
	jmp	?enableExecution@JitCompilerX86@randomx@@QEAAXXZ ; randomx::JitCompilerX86::enableExecution
?setCache@?$CompiledLightVm@U?$AlignedAllocator@$0EA@@randomx@@$0A@$00@randomx@@UEAAXPEAUrandomx_cache@@@Z ENDP ; randomx::CompiledLightVm<randomx::AlignedAllocator<64>,0,1>::setCache
_TEXT	ENDS
; Function compile flags: /Ogtpy
;	COMDAT ?run@?$CompiledLightVm@U?$AlignedAllocator@$0EA@@randomx@@$0A@$00@randomx@@UEAAXPEAX@Z
_TEXT	SEGMENT
this$ = 48
seed$ = 56
?run@?$CompiledLightVm@U?$AlignedAllocator@$0EA@@randomx@@$0A@$00@randomx@@UEAAXPEAX@Z PROC ; randomx::CompiledLightVm<randomx::AlignedAllocator<64>,0,1>::run, COMDAT
; File D:\dev\francium_network\francium_agent\src\ext\randomx\repo\src\vm_compiled_light.cpp
; Line 49
$LN10:
	mov	QWORD PTR [rsp+8], rbx
	mov	QWORD PTR [rsp+16], rsi
	push	rdi
	sub	rsp, 32					; 00000020H
	mov	rsi, rcx
; File D:\dev\francium_network\francium_agent\src\ext\randomx\repo\src\virtual_machine.cpp
; Line 136
	lea	r8, QWORD PTR [rcx+64]
	mov	rcx, rdx
	call	??$fillAes4Rx4@$0A@@@YAXPEAX_K0@Z	; fillAes4Rx4<0>
; File D:\dev\francium_network\francium_agent\src\ext\randomx\repo\src\vm_compiled_light.cpp
; Line 51
	mov	rcx, rsi
	call	?initialize@randomx_vm@@IEAAXXZ		; randomx_vm::initialize
; Line 53
	lea	rcx, QWORD PTR [rsi+2688]
	call	?enableWriting@JitCompilerX86@randomx@@QEAAXXZ ; randomx::JitCompilerX86::enableWriting
; Line 55
	mov	r9d, DWORD PTR [rsi+2560]
	lea	r8, QWORD PTR [rsi+2496]
	lea	rdx, QWORD PTR [rsi+64]
	lea	rcx, QWORD PTR [rsi+2688]
	call	?generateProgramLight@JitCompilerX86@randomx@@QEAAXAEAVProgram@2@AEAUProgramConfiguration@2@I@Z ; randomx::JitCompilerX86::generateProgramLight
; Line 57
	lea	rcx, QWORD PTR [rsi+2688]
	call	?enableExecution@JitCompilerX86@randomx@@QEAAXXZ ; randomx::JitCompilerX86::enableExecution
; File D:\dev\francium_network\francium_agent\src\ext\randomx\repo\src\vm_compiled.cpp
; Line 69
	mov	r8, QWORD PTR [rsi+2544]
	lea	rdx, QWORD PTR [rsi+2528]
	lea	rcx, QWORD PTR [rsi+2240]
	mov	r9d, 2048				; 00000800H
	mov	rax, QWORD PTR [rsi+2744]
; File D:\dev\francium_network\francium_agent\src\ext\randomx\repo\src\vm_compiled_light.cpp
; Line 60
	mov	rbx, QWORD PTR [rsp+48]
	mov	rsi, QWORD PTR [rsp+56]
	add	rsp, 32					; 00000020H
	pop	rdi
; File D:\dev\francium_network\francium_agent\src\ext\randomx\repo\src\vm_compiled.cpp
; Line 69
	rex_jmp	rax
?run@?$CompiledLightVm@U?$AlignedAllocator@$0EA@@randomx@@$0A@$00@randomx@@UEAAXPEAX@Z ENDP ; randomx::CompiledLightVm<randomx::AlignedAllocator<64>,0,1>::run
_TEXT	ENDS
; Function compile flags: /Ogtpy
;	COMDAT ?setCache@?$CompiledLightVm@ULargePageAllocator@randomx@@$00$0A@@randomx@@UEAAXPEAUrandomx_cache@@@Z
_TEXT	SEGMENT
this$ = 8
cache$ = 16
?setCache@?$CompiledLightVm@ULargePageAllocator@randomx@@$00$0A@@randomx@@UEAAXPEAUrandomx_cache@@@Z PROC ; randomx::CompiledLightVm<randomx::LargePageAllocator,1,0>::setCache, COMDAT
; File D:\dev\francium_network\francium_agent\src\ext\randomx\repo\src\vm_compiled_light.cpp
; Line 37
	mov	QWORD PTR [rcx+2552], rdx
; Line 42
	lea	r8, QWORD PTR [rdx+33640]
	mov	rax, QWORD PTR [rdx]
	add	rdx, 40					; 00000028H
	mov	QWORD PTR [rcx+2536], rax
	add	rcx, 2688				; 00000a80H
	jmp	??$generateSuperscalarHash@$07@JitCompilerX86@randomx@@QEAAXAEAY07VSuperscalarProgram@1@AEAV?$vector@_KV?$allocator@_K@std@@@std@@@Z ; randomx::JitCompilerX86::generateSuperscalarHash<8>
?setCache@?$CompiledLightVm@ULargePageAllocator@randomx@@$00$0A@@randomx@@UEAAXPEAUrandomx_cache@@@Z ENDP ; randomx::CompiledLightVm<randomx::LargePageAllocator,1,0>::setCache
_TEXT	ENDS
; Function compile flags: /Ogtpy
;	COMDAT ?run@?$CompiledLightVm@ULargePageAllocator@randomx@@$00$0A@@randomx@@UEAAXPEAX@Z
_TEXT	SEGMENT
this$ = 48
seed$ = 56
?run@?$CompiledLightVm@ULargePageAllocator@randomx@@$00$0A@@randomx@@UEAAXPEAX@Z PROC ; randomx::CompiledLightVm<randomx::LargePageAllocator,1,0>::run, COMDAT
; File D:\dev\francium_network\francium_agent\src\ext\randomx\repo\src\vm_compiled_light.cpp
; Line 49
$LN10:
	mov	QWORD PTR [rsp+8], rbx
	push	rdi
	sub	rsp, 32					; 00000020H
	mov	rdi, rcx
; File D:\dev\francium_network\francium_agent\src\ext\randomx\repo\src\virtual_machine.cpp
; Line 136
	lea	r8, QWORD PTR [rcx+64]
	mov	rcx, rdx
	call	??$fillAes4Rx4@$00@@YAXPEAX_K0@Z	; fillAes4Rx4<1>
; File D:\dev\francium_network\francium_agent\src\ext\randomx\repo\src\vm_compiled_light.cpp
; Line 51
	mov	rcx, rdi
	call	?initialize@randomx_vm@@IEAAXXZ		; randomx_vm::initialize
; Line 55
	mov	r9d, DWORD PTR [rdi+2560]
	lea	r8, QWORD PTR [rdi+2496]
	lea	rcx, QWORD PTR [rdi+2688]
	lea	rdx, QWORD PTR [rdi+64]
	call	?generateProgramLight@JitCompilerX86@randomx@@QEAAXAEAVProgram@2@AEAUProgramConfiguration@2@I@Z ; randomx::JitCompilerX86::generateProgramLight
; File D:\dev\francium_network\francium_agent\src\ext\randomx\repo\src\vm_compiled.cpp
; Line 69
	mov	r8, QWORD PTR [rdi+2544]
	lea	rdx, QWORD PTR [rdi+2528]
	lea	rcx, QWORD PTR [rdi+2240]
	mov	r9d, 2048				; 00000800H
	mov	rax, QWORD PTR [rdi+2744]
; File D:\dev\francium_network\francium_agent\src\ext\randomx\repo\src\vm_compiled_light.cpp
; Line 60
	mov	rbx, QWORD PTR [rsp+48]
	add	rsp, 32					; 00000020H
	pop	rdi
; File D:\dev\francium_network\francium_agent\src\ext\randomx\repo\src\vm_compiled.cpp
; Line 69
	rex_jmp	rax
?run@?$CompiledLightVm@ULargePageAllocator@randomx@@$00$0A@@randomx@@UEAAXPEAX@Z ENDP ; randomx::CompiledLightVm<randomx::LargePageAllocator,1,0>::run
_TEXT	ENDS
; Function compile flags: /Ogtpy
;	COMDAT ?setCache@?$CompiledLightVm@ULargePageAllocator@randomx@@$0A@$00@randomx@@UEAAXPEAUrandomx_cache@@@Z
_TEXT	SEGMENT
this$ = 48
cache$ = 56
?setCache@?$CompiledLightVm@ULargePageAllocator@randomx@@$0A@$00@randomx@@UEAAXPEAUrandomx_cache@@@Z PROC ; randomx::CompiledLightVm<randomx::LargePageAllocator,0,1>::setCache, COMDAT
; File D:\dev\francium_network\francium_agent\src\ext\randomx\repo\src\vm_compiled_light.cpp
; Line 36
$LN6:
	mov	QWORD PTR [rsp+8], rbx
	push	rdi
	sub	rsp, 32					; 00000020H
; Line 37
	mov	QWORD PTR [rcx+2552], rdx
; Line 40
	lea	rbx, QWORD PTR [rcx+2688]
	mov	rax, QWORD PTR [rdx]
	mov	rdi, rdx
	mov	QWORD PTR [rcx+2536], rax
	mov	rcx, rbx
	call	?enableWriting@JitCompilerX86@randomx@@QEAAXXZ ; randomx::JitCompilerX86::enableWriting
; Line 42
	lea	r8, QWORD PTR [rdi+33640]
	mov	rcx, rbx
	lea	rdx, QWORD PTR [rdi+40]
	call	??$generateSuperscalarHash@$07@JitCompilerX86@randomx@@QEAAXAEAY07VSuperscalarProgram@1@AEAV?$vector@_KV?$allocator@_K@std@@@std@@@Z ; randomx::JitCompilerX86::generateSuperscalarHash<8>
; Line 44
	mov	rcx, rbx
; Line 46
	mov	rbx, QWORD PTR [rsp+48]
	add	rsp, 32					; 00000020H
	pop	rdi
; Line 44
	jmp	?enableExecution@JitCompilerX86@randomx@@QEAAXXZ ; randomx::JitCompilerX86::enableExecution
?setCache@?$CompiledLightVm@ULargePageAllocator@randomx@@$0A@$00@randomx@@UEAAXPEAUrandomx_cache@@@Z ENDP ; randomx::CompiledLightVm<randomx::LargePageAllocator,0,1>::setCache
_TEXT	ENDS
; Function compile flags: /Ogtpy
;	COMDAT ?run@?$CompiledLightVm@ULargePageAllocator@randomx@@$0A@$00@randomx@@UEAAXPEAX@Z
_TEXT	SEGMENT
this$ = 48
seed$ = 56
?run@?$CompiledLightVm@ULargePageAllocator@randomx@@$0A@$00@randomx@@UEAAXPEAX@Z PROC ; randomx::CompiledLightVm<randomx::LargePageAllocator,0,1>::run, COMDAT
; File D:\dev\francium_network\francium_agent\src\ext\randomx\repo\src\vm_compiled_light.cpp
; Line 49
$LN10:
	mov	QWORD PTR [rsp+8], rbx
	mov	QWORD PTR [rsp+16], rsi
	push	rdi
	sub	rsp, 32					; 00000020H
	mov	rsi, rcx
; File D:\dev\francium_network\francium_agent\src\ext\randomx\repo\src\virtual_machine.cpp
; Line 136
	lea	r8, QWORD PTR [rcx+64]
	mov	rcx, rdx
	call	??$fillAes4Rx4@$0A@@@YAXPEAX_K0@Z	; fillAes4Rx4<0>
; File D:\dev\francium_network\francium_agent\src\ext\randomx\repo\src\vm_compiled_light.cpp
; Line 51
	mov	rcx, rsi
	call	?initialize@randomx_vm@@IEAAXXZ		; randomx_vm::initialize
; Line 53
	lea	rcx, QWORD PTR [rsi+2688]
	call	?enableWriting@JitCompilerX86@randomx@@QEAAXXZ ; randomx::JitCompilerX86::enableWriting
; Line 55
	mov	r9d, DWORD PTR [rsi+2560]
	lea	r8, QWORD PTR [rsi+2496]
	lea	rdx, QWORD PTR [rsi+64]
	lea	rcx, QWORD PTR [rsi+2688]
	call	?generateProgramLight@JitCompilerX86@randomx@@QEAAXAEAVProgram@2@AEAUProgramConfiguration@2@I@Z ; randomx::JitCompilerX86::generateProgramLight
; Line 57
	lea	rcx, QWORD PTR [rsi+2688]
	call	?enableExecution@JitCompilerX86@randomx@@QEAAXXZ ; randomx::JitCompilerX86::enableExecution
; File D:\dev\francium_network\francium_agent\src\ext\randomx\repo\src\vm_compiled.cpp
; Line 69
	mov	r8, QWORD PTR [rsi+2544]
	lea	rdx, QWORD PTR [rsi+2528]
	lea	rcx, QWORD PTR [rsi+2240]
	mov	r9d, 2048				; 00000800H
	mov	rax, QWORD PTR [rsi+2744]
; File D:\dev\francium_network\francium_agent\src\ext\randomx\repo\src\vm_compiled_light.cpp
; Line 60
	mov	rbx, QWORD PTR [rsp+48]
	mov	rsi, QWORD PTR [rsp+56]
	add	rsp, 32					; 00000020H
	pop	rdi
; File D:\dev\francium_network\francium_agent\src\ext\randomx\repo\src\vm_compiled.cpp
; Line 69
	rex_jmp	rax
?run@?$CompiledLightVm@ULargePageAllocator@randomx@@$0A@$00@randomx@@UEAAXPEAX@Z ENDP ; randomx::CompiledLightVm<randomx::LargePageAllocator,0,1>::run
_TEXT	ENDS
END
