; Listing generated by Microsoft (R) Optimizing Compiler Version 19.35.32216.1 

include listing.inc

INCLUDELIB OLDNAMES

PUBLIC	??_7?$CompiledVm@ULargePageAllocator@randomx@@$0A@$0A@@randomx@@6B@ ; randomx::CompiledVm<randomx::LargePageAllocator,0,0>::`vftable'
PUBLIC	??_R4?$CompiledVm@ULargePageAllocator@randomx@@$0A@$0A@@randomx@@6B@ ; randomx::CompiledVm<randomx::LargePageAllocator,0,0>::`RTTI Complete Object Locator'
PUBLIC	??_R4?$CompiledVm@ULargePageAllocator@randomx@@$0A@$00@randomx@@6B@ ; randomx::CompiledVm<randomx::LargePageAllocator,0,1>::`RTTI Complete Object Locator'
PUBLIC	??_R4?$CompiledVm@U?$AlignedAllocator@$0EA@@randomx@@$0A@$0A@@randomx@@6B@ ; randomx::CompiledVm<randomx::AlignedAllocator<64>,0,0>::`RTTI Complete Object Locator'
PUBLIC	??_7?$CompiledVm@U?$AlignedAllocator@$0EA@@randomx@@$0A@$00@randomx@@6B@ ; randomx::CompiledVm<randomx::AlignedAllocator<64>,0,1>::`vftable'
PUBLIC	??_7?$CompiledVm@U?$AlignedAllocator@$0EA@@randomx@@$0A@$0A@@randomx@@6B@ ; randomx::CompiledVm<randomx::AlignedAllocator<64>,0,0>::`vftable'
PUBLIC	??_7?$CompiledVm@U?$AlignedAllocator@$0EA@@randomx@@$00$0A@@randomx@@6B@ ; randomx::CompiledVm<randomx::AlignedAllocator<64>,1,0>::`vftable'
PUBLIC	??_7?$CompiledVm@U?$AlignedAllocator@$0EA@@randomx@@$00$00@randomx@@6B@ ; randomx::CompiledVm<randomx::AlignedAllocator<64>,1,1>::`vftable'
PUBLIC	??_R4?$CompiledVm@ULargePageAllocator@randomx@@$00$0A@@randomx@@6B@ ; randomx::CompiledVm<randomx::LargePageAllocator,1,0>::`RTTI Complete Object Locator'
PUBLIC	??_7?$CompiledVm@ULargePageAllocator@randomx@@$00$00@randomx@@6B@ ; randomx::CompiledVm<randomx::LargePageAllocator,1,1>::`vftable'
PUBLIC	??_R4?$CompiledVm@U?$AlignedAllocator@$0EA@@randomx@@$00$00@randomx@@6B@ ; randomx::CompiledVm<randomx::AlignedAllocator<64>,1,1>::`RTTI Complete Object Locator'
PUBLIC	??_7?$CompiledVm@ULargePageAllocator@randomx@@$0A@$00@randomx@@6B@ ; randomx::CompiledVm<randomx::LargePageAllocator,0,1>::`vftable'
PUBLIC	??_7?$CompiledVm@ULargePageAllocator@randomx@@$00$0A@@randomx@@6B@ ; randomx::CompiledVm<randomx::LargePageAllocator,1,0>::`vftable'
PUBLIC	??_R4?$CompiledVm@U?$AlignedAllocator@$0EA@@randomx@@$00$0A@@randomx@@6B@ ; randomx::CompiledVm<randomx::AlignedAllocator<64>,1,0>::`RTTI Complete Object Locator'
PUBLIC	??_R4?$CompiledVm@U?$AlignedAllocator@$0EA@@randomx@@$0A@$00@randomx@@6B@ ; randomx::CompiledVm<randomx::AlignedAllocator<64>,0,1>::`RTTI Complete Object Locator'
PUBLIC	??_R4?$CompiledVm@ULargePageAllocator@randomx@@$00$00@randomx@@6B@ ; randomx::CompiledVm<randomx::LargePageAllocator,1,1>::`RTTI Complete Object Locator'
;	COMDAT ??_R4?$CompiledVm@ULargePageAllocator@randomx@@$00$00@randomx@@6B@
rdata$r	SEGMENT
??_R4?$CompiledVm@ULargePageAllocator@randomx@@$00$00@randomx@@6B@ DD 01H ; randomx::CompiledVm<randomx::LargePageAllocator,1,1>::`RTTI Complete Object Locator'
	DD	00H
	DD	00H
	DD	imagerel ??_R0?AV?$CompiledVm@ULargePageAllocator@randomx@@$00$00@randomx@@@8
	DD	imagerel ??_R3?$CompiledVm@ULargePageAllocator@randomx@@$00$00@randomx@@8
	DD	imagerel ??_R4?$CompiledVm@ULargePageAllocator@randomx@@$00$00@randomx@@6B@
rdata$r	ENDS
;	COMDAT ??_R4?$CompiledVm@U?$AlignedAllocator@$0EA@@randomx@@$0A@$00@randomx@@6B@
rdata$r	SEGMENT
??_R4?$CompiledVm@U?$AlignedAllocator@$0EA@@randomx@@$0A@$00@randomx@@6B@ DD 01H ; randomx::CompiledVm<randomx::AlignedAllocator<64>,0,1>::`RTTI Complete Object Locator'
	DD	00H
	DD	00H
	DD	imagerel ??_R0?AV?$CompiledVm@U?$AlignedAllocator@$0EA@@randomx@@$0A@$00@randomx@@@8
	DD	imagerel ??_R3?$CompiledVm@U?$AlignedAllocator@$0EA@@randomx@@$0A@$00@randomx@@8
	DD	imagerel ??_R4?$CompiledVm@U?$AlignedAllocator@$0EA@@randomx@@$0A@$00@randomx@@6B@
rdata$r	ENDS
;	COMDAT ??_R4?$CompiledVm@U?$AlignedAllocator@$0EA@@randomx@@$00$0A@@randomx@@6B@
rdata$r	SEGMENT
??_R4?$CompiledVm@U?$AlignedAllocator@$0EA@@randomx@@$00$0A@@randomx@@6B@ DD 01H ; randomx::CompiledVm<randomx::AlignedAllocator<64>,1,0>::`RTTI Complete Object Locator'
	DD	00H
	DD	00H
	DD	imagerel ??_R0?AV?$CompiledVm@U?$AlignedAllocator@$0EA@@randomx@@$00$0A@@randomx@@@8
	DD	imagerel ??_R3?$CompiledVm@U?$AlignedAllocator@$0EA@@randomx@@$00$0A@@randomx@@8
	DD	imagerel ??_R4?$CompiledVm@U?$AlignedAllocator@$0EA@@randomx@@$00$0A@@randomx@@6B@
rdata$r	ENDS
;	COMDAT ??_7?$CompiledVm@ULargePageAllocator@randomx@@$00$0A@@randomx@@6B@
CONST	SEGMENT
??_7?$CompiledVm@ULargePageAllocator@randomx@@$00$0A@@randomx@@6B@ DQ FLAT:??_R4?$CompiledVm@ULargePageAllocator@randomx@@$00$0A@@randomx@@6B@ ; randomx::CompiledVm<randomx::LargePageAllocator,1,0>::`vftable'
	DQ	FLAT:??_E?$CompiledVm@ULargePageAllocator@randomx@@$00$0A@@randomx@@UEAAPEAXI@Z
	DQ	FLAT:?allocate@?$VmBase@ULargePageAllocator@randomx@@$00@randomx@@UEAAXXZ
	DQ	FLAT:?getFinalResult@?$VmBase@ULargePageAllocator@randomx@@$00@randomx@@UEAAXPEAX_K@Z
	DQ	FLAT:?hashAndFill@?$VmBase@ULargePageAllocator@randomx@@$00@randomx@@UEAAXPEAX_KPEA_K@Z
	DQ	FLAT:?setDataset@?$CompiledVm@ULargePageAllocator@randomx@@$00$0A@@randomx@@UEAAXPEAUrandomx_dataset@@@Z
	DQ	FLAT:?setCache@randomx_vm@@UEAAXPEAUrandomx_cache@@@Z
	DQ	FLAT:?initScratchpad@?$VmBase@ULargePageAllocator@randomx@@$00@randomx@@UEAAXPEAX@Z
	DQ	FLAT:?run@?$CompiledVm@ULargePageAllocator@randomx@@$00$0A@@randomx@@UEAAXPEAX@Z
CONST	ENDS
;	COMDAT ??_7?$CompiledVm@ULargePageAllocator@randomx@@$0A@$00@randomx@@6B@
CONST	SEGMENT
??_7?$CompiledVm@ULargePageAllocator@randomx@@$0A@$00@randomx@@6B@ DQ FLAT:??_R4?$CompiledVm@ULargePageAllocator@randomx@@$0A@$00@randomx@@6B@ ; randomx::CompiledVm<randomx::LargePageAllocator,0,1>::`vftable'
	DQ	FLAT:??_E?$CompiledVm@ULargePageAllocator@randomx@@$0A@$00@randomx@@UEAAPEAXI@Z
	DQ	FLAT:?allocate@?$VmBase@ULargePageAllocator@randomx@@$0A@@randomx@@UEAAXXZ
	DQ	FLAT:?getFinalResult@?$VmBase@ULargePageAllocator@randomx@@$0A@@randomx@@UEAAXPEAX_K@Z
	DQ	FLAT:?hashAndFill@?$VmBase@ULargePageAllocator@randomx@@$0A@@randomx@@UEAAXPEAX_KPEA_K@Z
	DQ	FLAT:?setDataset@?$CompiledVm@ULargePageAllocator@randomx@@$0A@$00@randomx@@UEAAXPEAUrandomx_dataset@@@Z
	DQ	FLAT:?setCache@randomx_vm@@UEAAXPEAUrandomx_cache@@@Z
	DQ	FLAT:?initScratchpad@?$VmBase@ULargePageAllocator@randomx@@$0A@@randomx@@UEAAXPEAX@Z
	DQ	FLAT:?run@?$CompiledVm@ULargePageAllocator@randomx@@$0A@$00@randomx@@UEAAXPEAX@Z
CONST	ENDS
;	COMDAT ??_R4?$CompiledVm@U?$AlignedAllocator@$0EA@@randomx@@$00$00@randomx@@6B@
rdata$r	SEGMENT
??_R4?$CompiledVm@U?$AlignedAllocator@$0EA@@randomx@@$00$00@randomx@@6B@ DD 01H ; randomx::CompiledVm<randomx::AlignedAllocator<64>,1,1>::`RTTI Complete Object Locator'
	DD	00H
	DD	00H
	DD	imagerel ??_R0?AV?$CompiledVm@U?$AlignedAllocator@$0EA@@randomx@@$00$00@randomx@@@8
	DD	imagerel ??_R3?$CompiledVm@U?$AlignedAllocator@$0EA@@randomx@@$00$00@randomx@@8
	DD	imagerel ??_R4?$CompiledVm@U?$AlignedAllocator@$0EA@@randomx@@$00$00@randomx@@6B@
rdata$r	ENDS
;	COMDAT ??_7?$CompiledVm@ULargePageAllocator@randomx@@$00$00@randomx@@6B@
CONST	SEGMENT
??_7?$CompiledVm@ULargePageAllocator@randomx@@$00$00@randomx@@6B@ DQ FLAT:??_R4?$CompiledVm@ULargePageAllocator@randomx@@$00$00@randomx@@6B@ ; randomx::CompiledVm<randomx::LargePageAllocator,1,1>::`vftable'
	DQ	FLAT:??_E?$CompiledVm@ULargePageAllocator@randomx@@$00$00@randomx@@UEAAPEAXI@Z
	DQ	FLAT:?allocate@?$VmBase@ULargePageAllocator@randomx@@$00@randomx@@UEAAXXZ
	DQ	FLAT:?getFinalResult@?$VmBase@ULargePageAllocator@randomx@@$00@randomx@@UEAAXPEAX_K@Z
	DQ	FLAT:?hashAndFill@?$VmBase@ULargePageAllocator@randomx@@$00@randomx@@UEAAXPEAX_KPEA_K@Z
	DQ	FLAT:?setDataset@?$CompiledVm@ULargePageAllocator@randomx@@$00$00@randomx@@UEAAXPEAUrandomx_dataset@@@Z
	DQ	FLAT:?setCache@randomx_vm@@UEAAXPEAUrandomx_cache@@@Z
	DQ	FLAT:?initScratchpad@?$VmBase@ULargePageAllocator@randomx@@$00@randomx@@UEAAXPEAX@Z
	DQ	FLAT:?run@?$CompiledVm@ULargePageAllocator@randomx@@$00$00@randomx@@UEAAXPEAX@Z
CONST	ENDS
;	COMDAT ??_R4?$CompiledVm@ULargePageAllocator@randomx@@$00$0A@@randomx@@6B@
rdata$r	SEGMENT
??_R4?$CompiledVm@ULargePageAllocator@randomx@@$00$0A@@randomx@@6B@ DD 01H ; randomx::CompiledVm<randomx::LargePageAllocator,1,0>::`RTTI Complete Object Locator'
	DD	00H
	DD	00H
	DD	imagerel ??_R0?AV?$CompiledVm@ULargePageAllocator@randomx@@$00$0A@@randomx@@@8
	DD	imagerel ??_R3?$CompiledVm@ULargePageAllocator@randomx@@$00$0A@@randomx@@8
	DD	imagerel ??_R4?$CompiledVm@ULargePageAllocator@randomx@@$00$0A@@randomx@@6B@
rdata$r	ENDS
;	COMDAT ??_7?$CompiledVm@U?$AlignedAllocator@$0EA@@randomx@@$00$00@randomx@@6B@
CONST	SEGMENT
??_7?$CompiledVm@U?$AlignedAllocator@$0EA@@randomx@@$00$00@randomx@@6B@ DQ FLAT:??_R4?$CompiledVm@U?$AlignedAllocator@$0EA@@randomx@@$00$00@randomx@@6B@ ; randomx::CompiledVm<randomx::AlignedAllocator<64>,1,1>::`vftable'
	DQ	FLAT:??_E?$CompiledVm@U?$AlignedAllocator@$0EA@@randomx@@$00$00@randomx@@UEAAPEAXI@Z
	DQ	FLAT:?allocate@?$VmBase@U?$AlignedAllocator@$0EA@@randomx@@$00@randomx@@UEAAXXZ
	DQ	FLAT:?getFinalResult@?$VmBase@U?$AlignedAllocator@$0EA@@randomx@@$00@randomx@@UEAAXPEAX_K@Z
	DQ	FLAT:?hashAndFill@?$VmBase@U?$AlignedAllocator@$0EA@@randomx@@$00@randomx@@UEAAXPEAX_KPEA_K@Z
	DQ	FLAT:?setDataset@?$CompiledVm@U?$AlignedAllocator@$0EA@@randomx@@$00$00@randomx@@UEAAXPEAUrandomx_dataset@@@Z
	DQ	FLAT:?setCache@randomx_vm@@UEAAXPEAUrandomx_cache@@@Z
	DQ	FLAT:?initScratchpad@?$VmBase@U?$AlignedAllocator@$0EA@@randomx@@$00@randomx@@UEAAXPEAX@Z
	DQ	FLAT:?run@?$CompiledVm@U?$AlignedAllocator@$0EA@@randomx@@$00$00@randomx@@UEAAXPEAX@Z
CONST	ENDS
;	COMDAT ??_7?$CompiledVm@U?$AlignedAllocator@$0EA@@randomx@@$00$0A@@randomx@@6B@
CONST	SEGMENT
??_7?$CompiledVm@U?$AlignedAllocator@$0EA@@randomx@@$00$0A@@randomx@@6B@ DQ FLAT:??_R4?$CompiledVm@U?$AlignedAllocator@$0EA@@randomx@@$00$0A@@randomx@@6B@ ; randomx::CompiledVm<randomx::AlignedAllocator<64>,1,0>::`vftable'
	DQ	FLAT:??_E?$CompiledVm@U?$AlignedAllocator@$0EA@@randomx@@$00$0A@@randomx@@UEAAPEAXI@Z
	DQ	FLAT:?allocate@?$VmBase@U?$AlignedAllocator@$0EA@@randomx@@$00@randomx@@UEAAXXZ
	DQ	FLAT:?getFinalResult@?$VmBase@U?$AlignedAllocator@$0EA@@randomx@@$00@randomx@@UEAAXPEAX_K@Z
	DQ	FLAT:?hashAndFill@?$VmBase@U?$AlignedAllocator@$0EA@@randomx@@$00@randomx@@UEAAXPEAX_KPEA_K@Z
	DQ	FLAT:?setDataset@?$CompiledVm@U?$AlignedAllocator@$0EA@@randomx@@$00$0A@@randomx@@UEAAXPEAUrandomx_dataset@@@Z
	DQ	FLAT:?setCache@randomx_vm@@UEAAXPEAUrandomx_cache@@@Z
	DQ	FLAT:?initScratchpad@?$VmBase@U?$AlignedAllocator@$0EA@@randomx@@$00@randomx@@UEAAXPEAX@Z
	DQ	FLAT:?run@?$CompiledVm@U?$AlignedAllocator@$0EA@@randomx@@$00$0A@@randomx@@UEAAXPEAX@Z
CONST	ENDS
;	COMDAT ??_7?$CompiledVm@U?$AlignedAllocator@$0EA@@randomx@@$0A@$0A@@randomx@@6B@
CONST	SEGMENT
??_7?$CompiledVm@U?$AlignedAllocator@$0EA@@randomx@@$0A@$0A@@randomx@@6B@ DQ FLAT:??_R4?$CompiledVm@U?$AlignedAllocator@$0EA@@randomx@@$0A@$0A@@randomx@@6B@ ; randomx::CompiledVm<randomx::AlignedAllocator<64>,0,0>::`vftable'
	DQ	FLAT:??_E?$CompiledVm@U?$AlignedAllocator@$0EA@@randomx@@$0A@$0A@@randomx@@UEAAPEAXI@Z
	DQ	FLAT:?allocate@?$VmBase@U?$AlignedAllocator@$0EA@@randomx@@$0A@@randomx@@UEAAXXZ
	DQ	FLAT:?getFinalResult@?$VmBase@U?$AlignedAllocator@$0EA@@randomx@@$0A@@randomx@@UEAAXPEAX_K@Z
	DQ	FLAT:?hashAndFill@?$VmBase@U?$AlignedAllocator@$0EA@@randomx@@$0A@@randomx@@UEAAXPEAX_KPEA_K@Z
	DQ	FLAT:?setDataset@?$CompiledVm@U?$AlignedAllocator@$0EA@@randomx@@$0A@$0A@@randomx@@UEAAXPEAUrandomx_dataset@@@Z
	DQ	FLAT:?setCache@randomx_vm@@UEAAXPEAUrandomx_cache@@@Z
	DQ	FLAT:?initScratchpad@?$VmBase@U?$AlignedAllocator@$0EA@@randomx@@$0A@@randomx@@UEAAXPEAX@Z
	DQ	FLAT:?run@?$CompiledVm@U?$AlignedAllocator@$0EA@@randomx@@$0A@$0A@@randomx@@UEAAXPEAX@Z
CONST	ENDS
;	COMDAT ??_7?$CompiledVm@U?$AlignedAllocator@$0EA@@randomx@@$0A@$00@randomx@@6B@
CONST	SEGMENT
??_7?$CompiledVm@U?$AlignedAllocator@$0EA@@randomx@@$0A@$00@randomx@@6B@ DQ FLAT:??_R4?$CompiledVm@U?$AlignedAllocator@$0EA@@randomx@@$0A@$00@randomx@@6B@ ; randomx::CompiledVm<randomx::AlignedAllocator<64>,0,1>::`vftable'
	DQ	FLAT:??_E?$CompiledVm@U?$AlignedAllocator@$0EA@@randomx@@$0A@$00@randomx@@UEAAPEAXI@Z
	DQ	FLAT:?allocate@?$VmBase@U?$AlignedAllocator@$0EA@@randomx@@$0A@@randomx@@UEAAXXZ
	DQ	FLAT:?getFinalResult@?$VmBase@U?$AlignedAllocator@$0EA@@randomx@@$0A@@randomx@@UEAAXPEAX_K@Z
	DQ	FLAT:?hashAndFill@?$VmBase@U?$AlignedAllocator@$0EA@@randomx@@$0A@@randomx@@UEAAXPEAX_KPEA_K@Z
	DQ	FLAT:?setDataset@?$CompiledVm@U?$AlignedAllocator@$0EA@@randomx@@$0A@$00@randomx@@UEAAXPEAUrandomx_dataset@@@Z
	DQ	FLAT:?setCache@randomx_vm@@UEAAXPEAUrandomx_cache@@@Z
	DQ	FLAT:?initScratchpad@?$VmBase@U?$AlignedAllocator@$0EA@@randomx@@$0A@@randomx@@UEAAXPEAX@Z
	DQ	FLAT:?run@?$CompiledVm@U?$AlignedAllocator@$0EA@@randomx@@$0A@$00@randomx@@UEAAXPEAX@Z
CONST	ENDS
;	COMDAT ??_R4?$CompiledVm@U?$AlignedAllocator@$0EA@@randomx@@$0A@$0A@@randomx@@6B@
rdata$r	SEGMENT
??_R4?$CompiledVm@U?$AlignedAllocator@$0EA@@randomx@@$0A@$0A@@randomx@@6B@ DD 01H ; randomx::CompiledVm<randomx::AlignedAllocator<64>,0,0>::`RTTI Complete Object Locator'
	DD	00H
	DD	00H
	DD	imagerel ??_R0?AV?$CompiledVm@U?$AlignedAllocator@$0EA@@randomx@@$0A@$0A@@randomx@@@8
	DD	imagerel ??_R3?$CompiledVm@U?$AlignedAllocator@$0EA@@randomx@@$0A@$0A@@randomx@@8
	DD	imagerel ??_R4?$CompiledVm@U?$AlignedAllocator@$0EA@@randomx@@$0A@$0A@@randomx@@6B@
rdata$r	ENDS
;	COMDAT ??_R4?$CompiledVm@ULargePageAllocator@randomx@@$0A@$00@randomx@@6B@
rdata$r	SEGMENT
??_R4?$CompiledVm@ULargePageAllocator@randomx@@$0A@$00@randomx@@6B@ DD 01H ; randomx::CompiledVm<randomx::LargePageAllocator,0,1>::`RTTI Complete Object Locator'
	DD	00H
	DD	00H
	DD	imagerel ??_R0?AV?$CompiledVm@ULargePageAllocator@randomx@@$0A@$00@randomx@@@8
	DD	imagerel ??_R3?$CompiledVm@ULargePageAllocator@randomx@@$0A@$00@randomx@@8
	DD	imagerel ??_R4?$CompiledVm@ULargePageAllocator@randomx@@$0A@$00@randomx@@6B@
rdata$r	ENDS
;	COMDAT ??_R4?$CompiledVm@ULargePageAllocator@randomx@@$0A@$0A@@randomx@@6B@
rdata$r	SEGMENT
??_R4?$CompiledVm@ULargePageAllocator@randomx@@$0A@$0A@@randomx@@6B@ DD 01H ; randomx::CompiledVm<randomx::LargePageAllocator,0,0>::`RTTI Complete Object Locator'
	DD	00H
	DD	00H
	DD	imagerel ??_R0?AV?$CompiledVm@ULargePageAllocator@randomx@@$0A@$0A@@randomx@@@8
	DD	imagerel ??_R3?$CompiledVm@ULargePageAllocator@randomx@@$0A@$0A@@randomx@@8
	DD	imagerel ??_R4?$CompiledVm@ULargePageAllocator@randomx@@$0A@$0A@@randomx@@6B@
rdata$r	ENDS
;	COMDAT ??_7?$CompiledVm@ULargePageAllocator@randomx@@$0A@$0A@@randomx@@6B@
CONST	SEGMENT
??_7?$CompiledVm@ULargePageAllocator@randomx@@$0A@$0A@@randomx@@6B@ DQ FLAT:??_R4?$CompiledVm@ULargePageAllocator@randomx@@$0A@$0A@@randomx@@6B@ ; randomx::CompiledVm<randomx::LargePageAllocator,0,0>::`vftable'
	DQ	FLAT:??_E?$CompiledVm@ULargePageAllocator@randomx@@$0A@$0A@@randomx@@UEAAPEAXI@Z
	DQ	FLAT:?allocate@?$VmBase@ULargePageAllocator@randomx@@$0A@@randomx@@UEAAXXZ
	DQ	FLAT:?getFinalResult@?$VmBase@ULargePageAllocator@randomx@@$0A@@randomx@@UEAAXPEAX_K@Z
	DQ	FLAT:?hashAndFill@?$VmBase@ULargePageAllocator@randomx@@$0A@@randomx@@UEAAXPEAX_KPEA_K@Z
	DQ	FLAT:?setDataset@?$CompiledVm@ULargePageAllocator@randomx@@$0A@$0A@@randomx@@UEAAXPEAUrandomx_dataset@@@Z
	DQ	FLAT:?setCache@randomx_vm@@UEAAXPEAUrandomx_cache@@@Z
	DQ	FLAT:?initScratchpad@?$VmBase@ULargePageAllocator@randomx@@$0A@@randomx@@UEAAXPEAX@Z
	DQ	FLAT:?run@?$CompiledVm@ULargePageAllocator@randomx@@$0A@$0A@@randomx@@UEAAXPEAX@Z
?_Fake_alloc@std@@3U_Fake_allocator@1@B	ORG $+1		; std::_Fake_alloc
PUBLIC	??_G?$CompiledVm@ULargePageAllocator@randomx@@$0A@$00@randomx@@UEAAPEAXI@Z ; randomx::CompiledVm<randomx::LargePageAllocator,0,1>::`scalar deleting destructor'
PUBLIC	??_G?$CompiledVm@ULargePageAllocator@randomx@@$00$00@randomx@@UEAAPEAXI@Z ; randomx::CompiledVm<randomx::LargePageAllocator,1,1>::`scalar deleting destructor'
PUBLIC	??_G?$CompiledVm@U?$AlignedAllocator@$0EA@@randomx@@$0A@$00@randomx@@UEAAPEAXI@Z ; randomx::CompiledVm<randomx::AlignedAllocator<64>,0,1>::`scalar deleting destructor'
PUBLIC	??_G?$CompiledVm@U?$AlignedAllocator@$0EA@@randomx@@$00$00@randomx@@UEAAPEAXI@Z ; randomx::CompiledVm<randomx::AlignedAllocator<64>,1,1>::`scalar deleting destructor'
PUBLIC	??_G?$CompiledVm@ULargePageAllocator@randomx@@$0A@$0A@@randomx@@UEAAPEAXI@Z ; randomx::CompiledVm<randomx::LargePageAllocator,0,0>::`scalar deleting destructor'
PUBLIC	??_G?$CompiledVm@ULargePageAllocator@randomx@@$00$0A@@randomx@@UEAAPEAXI@Z ; randomx::CompiledVm<randomx::LargePageAllocator,1,0>::`scalar deleting destructor'
PUBLIC	??_G?$CompiledVm@U?$AlignedAllocator@$0EA@@randomx@@$0A@$0A@@randomx@@UEAAPEAXI@Z ; randomx::CompiledVm<randomx::AlignedAllocator<64>,0,0>::`scalar deleting destructor'
PUBLIC	??_G?$CompiledVm@U?$AlignedAllocator@$0EA@@randomx@@$00$0A@@randomx@@UEAAPEAXI@Z ; randomx::CompiledVm<randomx::AlignedAllocator<64>,1,0>::`scalar deleting destructor'
PUBLIC	?run@?$CompiledVm@ULargePageAllocator@randomx@@$0A@$00@randomx@@UEAAXPEAX@Z ; randomx::CompiledVm<randomx::LargePageAllocator,0,1>::run
PUBLIC	?setDataset@?$CompiledVm@ULargePageAllocator@randomx@@$0A@$00@randomx@@UEAAXPEAUrandomx_dataset@@@Z ; randomx::CompiledVm<randomx::LargePageAllocator,0,1>::setDataset
PUBLIC	?run@?$CompiledVm@ULargePageAllocator@randomx@@$00$00@randomx@@UEAAXPEAX@Z ; randomx::CompiledVm<randomx::LargePageAllocator,1,1>::run
PUBLIC	?setDataset@?$CompiledVm@ULargePageAllocator@randomx@@$00$00@randomx@@UEAAXPEAUrandomx_dataset@@@Z ; randomx::CompiledVm<randomx::LargePageAllocator,1,1>::setDataset
PUBLIC	?run@?$CompiledVm@U?$AlignedAllocator@$0EA@@randomx@@$0A@$00@randomx@@UEAAXPEAX@Z ; randomx::CompiledVm<randomx::AlignedAllocator<64>,0,1>::run
PUBLIC	?setDataset@?$CompiledVm@U?$AlignedAllocator@$0EA@@randomx@@$0A@$00@randomx@@UEAAXPEAUrandomx_dataset@@@Z ; randomx::CompiledVm<randomx::AlignedAllocator<64>,0,1>::setDataset
PUBLIC	?run@?$CompiledVm@U?$AlignedAllocator@$0EA@@randomx@@$00$00@randomx@@UEAAXPEAX@Z ; randomx::CompiledVm<randomx::AlignedAllocator<64>,1,1>::run
PUBLIC	?setDataset@?$CompiledVm@U?$AlignedAllocator@$0EA@@randomx@@$00$00@randomx@@UEAAXPEAUrandomx_dataset@@@Z ; randomx::CompiledVm<randomx::AlignedAllocator<64>,1,1>::setDataset
PUBLIC	?run@?$CompiledVm@ULargePageAllocator@randomx@@$0A@$0A@@randomx@@UEAAXPEAX@Z ; randomx::CompiledVm<randomx::LargePageAllocator,0,0>::run
PUBLIC	?setDataset@?$CompiledVm@ULargePageAllocator@randomx@@$0A@$0A@@randomx@@UEAAXPEAUrandomx_dataset@@@Z ; randomx::CompiledVm<randomx::LargePageAllocator,0,0>::setDataset
PUBLIC	?run@?$CompiledVm@ULargePageAllocator@randomx@@$00$0A@@randomx@@UEAAXPEAX@Z ; randomx::CompiledVm<randomx::LargePageAllocator,1,0>::run
PUBLIC	?setDataset@?$CompiledVm@ULargePageAllocator@randomx@@$00$0A@@randomx@@UEAAXPEAUrandomx_dataset@@@Z ; randomx::CompiledVm<randomx::LargePageAllocator,1,0>::setDataset
PUBLIC	?run@?$CompiledVm@U?$AlignedAllocator@$0EA@@randomx@@$0A@$0A@@randomx@@UEAAXPEAX@Z ; randomx::CompiledVm<randomx::AlignedAllocator<64>,0,0>::run
PUBLIC	?setDataset@?$CompiledVm@U?$AlignedAllocator@$0EA@@randomx@@$0A@$0A@@randomx@@UEAAXPEAUrandomx_dataset@@@Z ; randomx::CompiledVm<randomx::AlignedAllocator<64>,0,0>::setDataset
PUBLIC	?run@?$CompiledVm@U?$AlignedAllocator@$0EA@@randomx@@$00$0A@@randomx@@UEAAXPEAX@Z ; randomx::CompiledVm<randomx::AlignedAllocator<64>,1,0>::run
PUBLIC	?setDataset@?$CompiledVm@U?$AlignedAllocator@$0EA@@randomx@@$00$0A@@randomx@@UEAAXPEAUrandomx_dataset@@@Z ; randomx::CompiledVm<randomx::AlignedAllocator<64>,1,0>::setDataset
PUBLIC	?getProgramFunc@JitCompilerX86@randomx@@QEAAP6AXAEAURegisterFile@2@AEAUMemoryRegisters@2@PEAE_K@ZXZ ; randomx::JitCompilerX86::getProgramFunc
PUBLIC	?execute@?$CompiledVm@U?$AlignedAllocator@$0EA@@randomx@@$0A@$00@randomx@@IEAAXXZ ; randomx::CompiledVm<randomx::AlignedAllocator<64>,0,1>::execute
PUBLIC	?execute@?$CompiledVm@U?$AlignedAllocator@$0EA@@randomx@@$00$0A@@randomx@@IEAAXXZ ; randomx::CompiledVm<randomx::AlignedAllocator<64>,1,0>::execute
PUBLIC	?execute@?$CompiledVm@ULargePageAllocator@randomx@@$0A@$00@randomx@@IEAAXXZ ; randomx::CompiledVm<randomx::LargePageAllocator,0,1>::execute
PUBLIC	?execute@?$CompiledVm@U?$AlignedAllocator@$0EA@@randomx@@$0A@$0A@@randomx@@IEAAXXZ ; randomx::CompiledVm<randomx::AlignedAllocator<64>,0,0>::execute
PUBLIC	?execute@?$CompiledVm@U?$AlignedAllocator@$0EA@@randomx@@$00$00@randomx@@IEAAXXZ ; randomx::CompiledVm<randomx::AlignedAllocator<64>,1,1>::execute
PUBLIC	?execute@?$CompiledVm@ULargePageAllocator@randomx@@$0A@$0A@@randomx@@IEAAXXZ ; randomx::CompiledVm<randomx::LargePageAllocator,0,0>::execute
PUBLIC	?execute@?$CompiledVm@ULargePageAllocator@randomx@@$00$0A@@randomx@@IEAAXXZ ; randomx::CompiledVm<randomx::LargePageAllocator,1,0>::execute
PUBLIC	?execute@?$CompiledVm@ULargePageAllocator@randomx@@$00$00@randomx@@IEAAXXZ ; randomx::CompiledVm<randomx::LargePageAllocator,1,1>::execute
PUBLIC	??0?$CompiledVm@U?$AlignedAllocator@$0EA@@randomx@@$0A@$00@randomx@@QEAA@XZ ; randomx::CompiledVm<randomx::AlignedAllocator<64>,0,1>::CompiledVm<randomx::AlignedAllocator<64>,0,1>
PUBLIC	??0?$CompiledVm@U?$AlignedAllocator@$0EA@@randomx@@$00$0A@@randomx@@QEAA@XZ ; randomx::CompiledVm<randomx::AlignedAllocator<64>,1,0>::CompiledVm<randomx::AlignedAllocator<64>,1,0>
PUBLIC	??0?$CompiledVm@ULargePageAllocator@randomx@@$0A@$00@randomx@@QEAA@XZ ; randomx::CompiledVm<randomx::LargePageAllocator,0,1>::CompiledVm<randomx::LargePageAllocator,0,1>
PUBLIC	??0?$CompiledVm@U?$AlignedAllocator@$0EA@@randomx@@$0A@$0A@@randomx@@QEAA@XZ ; randomx::CompiledVm<randomx::AlignedAllocator<64>,0,0>::CompiledVm<randomx::AlignedAllocator<64>,0,0>
PUBLIC	??0?$CompiledVm@U?$AlignedAllocator@$0EA@@randomx@@$00$00@randomx@@QEAA@XZ ; randomx::CompiledVm<randomx::AlignedAllocator<64>,1,1>::CompiledVm<randomx::AlignedAllocator<64>,1,1>
PUBLIC	??0?$CompiledVm@ULargePageAllocator@randomx@@$0A@$0A@@randomx@@QEAA@XZ ; randomx::CompiledVm<randomx::LargePageAllocator,0,0>::CompiledVm<randomx::LargePageAllocator,0,0>
PUBLIC	??0?$CompiledVm@ULargePageAllocator@randomx@@$00$0A@@randomx@@QEAA@XZ ; randomx::CompiledVm<randomx::LargePageAllocator,1,0>::CompiledVm<randomx::LargePageAllocator,1,0>
PUBLIC	??0?$CompiledVm@ULargePageAllocator@randomx@@$00$00@randomx@@QEAA@XZ ; randomx::CompiledVm<randomx::LargePageAllocator,1,1>::CompiledVm<randomx::LargePageAllocator,1,1>
EXTRN	??_E?$CompiledVm@U?$AlignedAllocator@$0EA@@randomx@@$0A@$00@randomx@@UEAAPEAXI@Z:PROC ; randomx::CompiledVm<randomx::AlignedAllocator<64>,0,1>::`vector deleting destructor'
EXTRN	??_E?$CompiledVm@U?$AlignedAllocator@$0EA@@randomx@@$00$0A@@randomx@@UEAAPEAXI@Z:PROC ; randomx::CompiledVm<randomx::AlignedAllocator<64>,1,0>::`vector deleting destructor'
EXTRN	??_E?$CompiledVm@ULargePageAllocator@randomx@@$0A@$00@randomx@@UEAAPEAXI@Z:PROC ; randomx::CompiledVm<randomx::LargePageAllocator,0,1>::`vector deleting destructor'
EXTRN	??_E?$CompiledVm@U?$AlignedAllocator@$0EA@@randomx@@$0A@$0A@@randomx@@UEAAPEAXI@Z:PROC ; randomx::CompiledVm<randomx::AlignedAllocator<64>,0,0>::`vector deleting destructor'
EXTRN	??_E?$CompiledVm@U?$AlignedAllocator@$0EA@@randomx@@$00$00@randomx@@UEAAPEAXI@Z:PROC ; randomx::CompiledVm<randomx::AlignedAllocator<64>,1,1>::`vector deleting destructor'
EXTRN	??_E?$CompiledVm@ULargePageAllocator@randomx@@$0A@$0A@@randomx@@UEAAPEAXI@Z:PROC ; randomx::CompiledVm<randomx::LargePageAllocator,0,0>::`vector deleting destructor'
EXTRN	??_E?$CompiledVm@ULargePageAllocator@randomx@@$00$0A@@randomx@@UEAAPEAXI@Z:PROC ; randomx::CompiledVm<randomx::LargePageAllocator,1,0>::`vector deleting destructor'
EXTRN	??_E?$CompiledVm@ULargePageAllocator@randomx@@$00$00@randomx@@UEAAPEAXI@Z:PROC ; randomx::CompiledVm<randomx::LargePageAllocator,1,1>::`vector deleting destructor'
;	COMDAT pdata
pdata	SEGMENT
$pdata$??_G?$CompiledVm@ULargePageAllocator@randomx@@$0A@$00@randomx@@UEAAPEAXI@Z DD imagerel $LN24
	DD	imagerel $LN24+124
	DD	imagerel $unwind$??_G?$CompiledVm@ULargePageAllocator@randomx@@$0A@$00@randomx@@UEAAPEAXI@Z
pdata	ENDS
;	COMDAT pdata
pdata	SEGMENT
$pdata$??_G?$CompiledVm@ULargePageAllocator@randomx@@$00$00@randomx@@UEAAPEAXI@Z DD imagerel $LN24
	DD	imagerel $LN24+124
	DD	imagerel $unwind$??_G?$CompiledVm@ULargePageAllocator@randomx@@$00$00@randomx@@UEAAPEAXI@Z
pdata	ENDS
;	COMDAT pdata
pdata	SEGMENT
$pdata$??_G?$CompiledVm@U?$AlignedAllocator@$0EA@@randomx@@$0A@$00@randomx@@UEAAPEAXI@Z DD imagerel $LN22
	DD	imagerel $LN22+115
	DD	imagerel $unwind$??_G?$CompiledVm@U?$AlignedAllocator@$0EA@@randomx@@$0A@$00@randomx@@UEAAPEAXI@Z
pdata	ENDS
;	COMDAT pdata
pdata	SEGMENT
$pdata$??_G?$CompiledVm@U?$AlignedAllocator@$0EA@@randomx@@$00$00@randomx@@UEAAPEAXI@Z DD imagerel $LN22
	DD	imagerel $LN22+115
	DD	imagerel $unwind$??_G?$CompiledVm@U?$AlignedAllocator@$0EA@@randomx@@$00$00@randomx@@UEAAPEAXI@Z
pdata	ENDS
;	COMDAT pdata
pdata	SEGMENT
$pdata$??_G?$CompiledVm@ULargePageAllocator@randomx@@$0A@$0A@@randomx@@UEAAPEAXI@Z DD imagerel $LN24
	DD	imagerel $LN24+124
	DD	imagerel $unwind$??_G?$CompiledVm@ULargePageAllocator@randomx@@$0A@$0A@@randomx@@UEAAPEAXI@Z
pdata	ENDS
;	COMDAT pdata
pdata	SEGMENT
$pdata$??_G?$CompiledVm@ULargePageAllocator@randomx@@$00$0A@@randomx@@UEAAPEAXI@Z DD imagerel $LN24
	DD	imagerel $LN24+124
	DD	imagerel $unwind$??_G?$CompiledVm@ULargePageAllocator@randomx@@$00$0A@@randomx@@UEAAPEAXI@Z
pdata	ENDS
;	COMDAT pdata
pdata	SEGMENT
$pdata$??_G?$CompiledVm@U?$AlignedAllocator@$0EA@@randomx@@$0A@$0A@@randomx@@UEAAPEAXI@Z DD imagerel $LN22
	DD	imagerel $LN22+115
	DD	imagerel $unwind$??_G?$CompiledVm@U?$AlignedAllocator@$0EA@@randomx@@$0A@$0A@@randomx@@UEAAPEAXI@Z
pdata	ENDS
;	COMDAT pdata
pdata	SEGMENT
$pdata$??_G?$CompiledVm@U?$AlignedAllocator@$0EA@@randomx@@$00$0A@@randomx@@UEAAPEAXI@Z DD imagerel $LN22
	DD	imagerel $LN22+115
	DD	imagerel $unwind$??_G?$CompiledVm@U?$AlignedAllocator@$0EA@@randomx@@$00$0A@@randomx@@UEAAPEAXI@Z
pdata	ENDS
;	COMDAT pdata
pdata	SEGMENT
$pdata$?run@?$CompiledVm@ULargePageAllocator@randomx@@$0A@$00@randomx@@UEAAXPEAX@Z DD imagerel $LN12
	DD	imagerel $LN12+214
	DD	imagerel $unwind$?run@?$CompiledVm@ULargePageAllocator@randomx@@$0A@$00@randomx@@UEAAXPEAX@Z
pdata	ENDS
;	COMDAT pdata
pdata	SEGMENT
$pdata$?run@?$CompiledVm@ULargePageAllocator@randomx@@$00$00@randomx@@UEAAXPEAX@Z DD imagerel $LN12
	DD	imagerel $LN12+214
	DD	imagerel $unwind$?run@?$CompiledVm@ULargePageAllocator@randomx@@$00$00@randomx@@UEAAXPEAX@Z
pdata	ENDS
;	COMDAT pdata
pdata	SEGMENT
$pdata$?run@?$CompiledVm@U?$AlignedAllocator@$0EA@@randomx@@$0A@$00@randomx@@UEAAXPEAX@Z DD imagerel $LN12
	DD	imagerel $LN12+214
	DD	imagerel $unwind$?run@?$CompiledVm@U?$AlignedAllocator@$0EA@@randomx@@$0A@$00@randomx@@UEAAXPEAX@Z
pdata	ENDS
;	COMDAT pdata
pdata	SEGMENT
$pdata$?run@?$CompiledVm@U?$AlignedAllocator@$0EA@@randomx@@$00$00@randomx@@UEAAXPEAX@Z DD imagerel $LN12
	DD	imagerel $LN12+214
	DD	imagerel $unwind$?run@?$CompiledVm@U?$AlignedAllocator@$0EA@@randomx@@$00$00@randomx@@UEAAXPEAX@Z
pdata	ENDS
;	COMDAT pdata
pdata	SEGMENT
$pdata$?run@?$CompiledVm@ULargePageAllocator@randomx@@$0A@$0A@@randomx@@UEAAXPEAX@Z DD imagerel $LN12
	DD	imagerel $LN12+198
	DD	imagerel $unwind$?run@?$CompiledVm@ULargePageAllocator@randomx@@$0A@$0A@@randomx@@UEAAXPEAX@Z
pdata	ENDS
;	COMDAT pdata
pdata	SEGMENT
$pdata$?run@?$CompiledVm@ULargePageAllocator@randomx@@$00$0A@@randomx@@UEAAXPEAX@Z DD imagerel $LN12
	DD	imagerel $LN12+198
	DD	imagerel $unwind$?run@?$CompiledVm@ULargePageAllocator@randomx@@$00$0A@@randomx@@UEAAXPEAX@Z
pdata	ENDS
;	COMDAT pdata
pdata	SEGMENT
$pdata$?run@?$CompiledVm@U?$AlignedAllocator@$0EA@@randomx@@$0A@$0A@@randomx@@UEAAXPEAX@Z DD imagerel $LN12
	DD	imagerel $LN12+198
	DD	imagerel $unwind$?run@?$CompiledVm@U?$AlignedAllocator@$0EA@@randomx@@$0A@$0A@@randomx@@UEAAXPEAX@Z
pdata	ENDS
;	COMDAT pdata
pdata	SEGMENT
$pdata$?run@?$CompiledVm@U?$AlignedAllocator@$0EA@@randomx@@$00$0A@@randomx@@UEAAXPEAX@Z DD imagerel $LN12
	DD	imagerel $LN12+198
	DD	imagerel $unwind$?run@?$CompiledVm@U?$AlignedAllocator@$0EA@@randomx@@$00$0A@@randomx@@UEAAXPEAX@Z
pdata	ENDS
;	COMDAT pdata
pdata	SEGMENT
$pdata$??0?$CompiledVm@U?$AlignedAllocator@$0EA@@randomx@@$0A@$00@randomx@@QEAA@XZ DD imagerel $LN43
	DD	imagerel $LN43+103
	DD	imagerel $unwind$??0?$CompiledVm@U?$AlignedAllocator@$0EA@@randomx@@$0A@$00@randomx@@QEAA@XZ
pdata	ENDS
;	COMDAT pdata
pdata	SEGMENT
$pdata$??0?$CompiledVm@U?$AlignedAllocator@$0EA@@randomx@@$00$0A@@randomx@@QEAA@XZ DD imagerel $LN45
	DD	imagerel $LN45+213
	DD	imagerel $unwind$??0?$CompiledVm@U?$AlignedAllocator@$0EA@@randomx@@$00$0A@@randomx@@QEAA@XZ
pdata	ENDS
;	COMDAT pdata
pdata	SEGMENT
$pdata$??0?$CompiledVm@ULargePageAllocator@randomx@@$0A@$00@randomx@@QEAA@XZ DD imagerel $LN43
	DD	imagerel $LN43+103
	DD	imagerel $unwind$??0?$CompiledVm@ULargePageAllocator@randomx@@$0A@$00@randomx@@QEAA@XZ
pdata	ENDS
;	COMDAT pdata
pdata	SEGMENT
$pdata$??0?$CompiledVm@U?$AlignedAllocator@$0EA@@randomx@@$0A@$0A@@randomx@@QEAA@XZ DD imagerel $LN45
	DD	imagerel $LN45+213
	DD	imagerel $unwind$??0?$CompiledVm@U?$AlignedAllocator@$0EA@@randomx@@$0A@$0A@@randomx@@QEAA@XZ
pdata	ENDS
;	COMDAT pdata
pdata	SEGMENT
$pdata$??0?$CompiledVm@U?$AlignedAllocator@$0EA@@randomx@@$00$00@randomx@@QEAA@XZ DD imagerel $LN43
	DD	imagerel $LN43+103
	DD	imagerel $unwind$??0?$CompiledVm@U?$AlignedAllocator@$0EA@@randomx@@$00$00@randomx@@QEAA@XZ
pdata	ENDS
;	COMDAT pdata
pdata	SEGMENT
$pdata$??0?$CompiledVm@ULargePageAllocator@randomx@@$0A@$0A@@randomx@@QEAA@XZ DD imagerel $LN45
	DD	imagerel $LN45+213
	DD	imagerel $unwind$??0?$CompiledVm@ULargePageAllocator@randomx@@$0A@$0A@@randomx@@QEAA@XZ
pdata	ENDS
;	COMDAT pdata
pdata	SEGMENT
$pdata$??0?$CompiledVm@ULargePageAllocator@randomx@@$00$0A@@randomx@@QEAA@XZ DD imagerel $LN45
	DD	imagerel $LN45+213
	DD	imagerel $unwind$??0?$CompiledVm@ULargePageAllocator@randomx@@$00$0A@@randomx@@QEAA@XZ
pdata	ENDS
;	COMDAT pdata
pdata	SEGMENT
$pdata$??0?$CompiledVm@ULargePageAllocator@randomx@@$00$00@randomx@@QEAA@XZ DD imagerel $LN43
	DD	imagerel $LN43+103
	DD	imagerel $unwind$??0?$CompiledVm@ULargePageAllocator@randomx@@$00$00@randomx@@QEAA@XZ
;	COMDAT xdata
xdata	SEGMENT
$ip2state$??0?$CompiledVm@ULargePageAllocator@randomx@@$00$00@randomx@@QEAA@XZ DB 02H
	DB	0b0H
	DB	02H
xdata	ENDS
;	COMDAT xdata
xdata	SEGMENT
$stateUnwindMap$??0?$CompiledVm@ULargePageAllocator@randomx@@$00$00@randomx@@QEAA@XZ DB 06H
	DB	0cH
	DD	imagerel ??1?$VmBase@ULargePageAllocator@randomx@@$00@randomx@@UEAA@XZ
	DB	040H
	DB	036H
	DD	imagerel ?dtor$1@?0???0?$CompiledVm@ULargePageAllocator@randomx@@$00$00@randomx@@QEAA@XZ@4HA
	DB	028H
xdata	ENDS
;	COMDAT xdata
xdata	SEGMENT
$cppxdata$??0?$CompiledVm@ULargePageAllocator@randomx@@$00$00@randomx@@QEAA@XZ DB 028H
	DD	imagerel $stateUnwindMap$??0?$CompiledVm@ULargePageAllocator@randomx@@$00$00@randomx@@QEAA@XZ
	DD	imagerel $ip2state$??0?$CompiledVm@ULargePageAllocator@randomx@@$00$00@randomx@@QEAA@XZ
xdata	ENDS
;	COMDAT xdata
xdata	SEGMENT
$unwind$??0?$CompiledVm@ULargePageAllocator@randomx@@$00$00@randomx@@QEAA@XZ DD 020611H
	DD	030025206H
	DD	imagerel __CxxFrameHandler4
	DD	imagerel $cppxdata$??0?$CompiledVm@ULargePageAllocator@randomx@@$00$00@randomx@@QEAA@XZ
xdata	ENDS
;	COMDAT xdata
xdata	SEGMENT
$ip2state$??0?$CompiledVm@ULargePageAllocator@randomx@@$00$0A@@randomx@@QEAA@XZ DB 08H
	DB	0ceH
	DB	02H
	DB	'd'
	DB	00H
	DB	'.'
	DB	04H
	DB	'>'
	DB	06H
xdata	ENDS
;	COMDAT xdata
xdata	SEGMENT
$stateUnwindMap$??0?$CompiledVm@ULargePageAllocator@randomx@@$00$0A@@randomx@@QEAA@XZ DB 06H
	DB	0cH
	DD	imagerel ??1?$VmBase@ULargePageAllocator@randomx@@$00@randomx@@UEAA@XZ
	DB	050H
	DB	036H
	DD	imagerel ?dtor$1@?0???0?$CompiledVm@ULargePageAllocator@randomx@@$00$0A@@randomx@@QEAA@XZ@4HA
	DB	02aH
	DD	imagerel ??1?$basic_string@DU?$char_traits@D@std@@V?$allocator@D@2@@std@@QEAA@XZ
	DB	090H
xdata	ENDS
;	COMDAT xdata
xdata	SEGMENT
$cppxdata$??0?$CompiledVm@ULargePageAllocator@randomx@@$00$0A@@randomx@@QEAA@XZ DB 028H
	DD	imagerel $stateUnwindMap$??0?$CompiledVm@ULargePageAllocator@randomx@@$00$0A@@randomx@@QEAA@XZ
	DD	imagerel $ip2state$??0?$CompiledVm@ULargePageAllocator@randomx@@$00$0A@@randomx@@QEAA@XZ
xdata	ENDS
;	COMDAT xdata
xdata	SEGMENT
$unwind$??0?$CompiledVm@ULargePageAllocator@randomx@@$00$0A@@randomx@@QEAA@XZ DD 021519H
	DD	03002d206H
	DD	imagerel __GSHandlerCheck_EH4
	DD	imagerel $cppxdata$??0?$CompiledVm@ULargePageAllocator@randomx@@$00$0A@@randomx@@QEAA@XZ
	DD	06aH
xdata	ENDS
;	COMDAT xdata
xdata	SEGMENT
$ip2state$??0?$CompiledVm@ULargePageAllocator@randomx@@$0A@$0A@@randomx@@QEAA@XZ DB 08H
	DB	0ceH
	DB	02H
	DB	'd'
	DB	00H
	DB	'.'
	DB	04H
	DB	'>'
	DB	06H
xdata	ENDS
;	COMDAT xdata
xdata	SEGMENT
$stateUnwindMap$??0?$CompiledVm@ULargePageAllocator@randomx@@$0A@$0A@@randomx@@QEAA@XZ DB 06H
	DB	0cH
	DD	imagerel ??1?$VmBase@ULargePageAllocator@randomx@@$0A@@randomx@@UEAA@XZ
	DB	050H
	DB	036H
	DD	imagerel ?dtor$1@?0???0?$CompiledVm@ULargePageAllocator@randomx@@$0A@$0A@@randomx@@QEAA@XZ@4HA
	DB	02aH
	DD	imagerel ??1?$basic_string@DU?$char_traits@D@std@@V?$allocator@D@2@@std@@QEAA@XZ
	DB	090H
xdata	ENDS
;	COMDAT xdata
xdata	SEGMENT
$cppxdata$??0?$CompiledVm@ULargePageAllocator@randomx@@$0A@$0A@@randomx@@QEAA@XZ DB 028H
	DD	imagerel $stateUnwindMap$??0?$CompiledVm@ULargePageAllocator@randomx@@$0A@$0A@@randomx@@QEAA@XZ
	DD	imagerel $ip2state$??0?$CompiledVm@ULargePageAllocator@randomx@@$0A@$0A@@randomx@@QEAA@XZ
xdata	ENDS
;	COMDAT xdata
xdata	SEGMENT
$unwind$??0?$CompiledVm@ULargePageAllocator@randomx@@$0A@$0A@@randomx@@QEAA@XZ DD 021519H
	DD	03002d206H
	DD	imagerel __GSHandlerCheck_EH4
	DD	imagerel $cppxdata$??0?$CompiledVm@ULargePageAllocator@randomx@@$0A@$0A@@randomx@@QEAA@XZ
	DD	06aH
xdata	ENDS
;	COMDAT xdata
xdata	SEGMENT
$ip2state$??0?$CompiledVm@U?$AlignedAllocator@$0EA@@randomx@@$00$00@randomx@@QEAA@XZ DB 02H
	DB	0b0H
	DB	02H
xdata	ENDS
;	COMDAT xdata
xdata	SEGMENT
$stateUnwindMap$??0?$CompiledVm@U?$AlignedAllocator@$0EA@@randomx@@$00$00@randomx@@QEAA@XZ DB 06H
	DB	0cH
	DD	imagerel ??1?$VmBase@U?$AlignedAllocator@$0EA@@randomx@@$00@randomx@@UEAA@XZ
	DB	040H
	DB	036H
	DD	imagerel ?dtor$1@?0???0?$CompiledVm@U?$AlignedAllocator@$0EA@@randomx@@$00$00@randomx@@QEAA@XZ@4HA
	DB	028H
xdata	ENDS
;	COMDAT xdata
xdata	SEGMENT
$cppxdata$??0?$CompiledVm@U?$AlignedAllocator@$0EA@@randomx@@$00$00@randomx@@QEAA@XZ DB 028H
	DD	imagerel $stateUnwindMap$??0?$CompiledVm@U?$AlignedAllocator@$0EA@@randomx@@$00$00@randomx@@QEAA@XZ
	DD	imagerel $ip2state$??0?$CompiledVm@U?$AlignedAllocator@$0EA@@randomx@@$00$00@randomx@@QEAA@XZ
xdata	ENDS
;	COMDAT xdata
xdata	SEGMENT
$unwind$??0?$CompiledVm@U?$AlignedAllocator@$0EA@@randomx@@$00$00@randomx@@QEAA@XZ DD 020611H
	DD	030025206H
	DD	imagerel __CxxFrameHandler4
	DD	imagerel $cppxdata$??0?$CompiledVm@U?$AlignedAllocator@$0EA@@randomx@@$00$00@randomx@@QEAA@XZ
xdata	ENDS
;	COMDAT xdata
xdata	SEGMENT
$ip2state$??0?$CompiledVm@U?$AlignedAllocator@$0EA@@randomx@@$0A@$0A@@randomx@@QEAA@XZ DB 08H
	DB	0ceH
	DB	02H
	DB	'd'
	DB	00H
	DB	'.'
	DB	04H
	DB	'>'
	DB	06H
xdata	ENDS
;	COMDAT xdata
xdata	SEGMENT
$stateUnwindMap$??0?$CompiledVm@U?$AlignedAllocator@$0EA@@randomx@@$0A@$0A@@randomx@@QEAA@XZ DB 06H
	DB	0cH
	DD	imagerel ??1?$VmBase@U?$AlignedAllocator@$0EA@@randomx@@$0A@@randomx@@UEAA@XZ
	DB	050H
	DB	036H
	DD	imagerel ?dtor$1@?0???0?$CompiledVm@U?$AlignedAllocator@$0EA@@randomx@@$0A@$0A@@randomx@@QEAA@XZ@4HA
	DB	02aH
	DD	imagerel ??1?$basic_string@DU?$char_traits@D@std@@V?$allocator@D@2@@std@@QEAA@XZ
	DB	090H
xdata	ENDS
;	COMDAT xdata
xdata	SEGMENT
$cppxdata$??0?$CompiledVm@U?$AlignedAllocator@$0EA@@randomx@@$0A@$0A@@randomx@@QEAA@XZ DB 028H
	DD	imagerel $stateUnwindMap$??0?$CompiledVm@U?$AlignedAllocator@$0EA@@randomx@@$0A@$0A@@randomx@@QEAA@XZ
	DD	imagerel $ip2state$??0?$CompiledVm@U?$AlignedAllocator@$0EA@@randomx@@$0A@$0A@@randomx@@QEAA@XZ
xdata	ENDS
;	COMDAT xdata
xdata	SEGMENT
$unwind$??0?$CompiledVm@U?$AlignedAllocator@$0EA@@randomx@@$0A@$0A@@randomx@@QEAA@XZ DD 021519H
	DD	03002d206H
	DD	imagerel __GSHandlerCheck_EH4
	DD	imagerel $cppxdata$??0?$CompiledVm@U?$AlignedAllocator@$0EA@@randomx@@$0A@$0A@@randomx@@QEAA@XZ
	DD	06aH
xdata	ENDS
;	COMDAT xdata
xdata	SEGMENT
$ip2state$??0?$CompiledVm@ULargePageAllocator@randomx@@$0A@$00@randomx@@QEAA@XZ DB 02H
	DB	0b0H
	DB	02H
xdata	ENDS
;	COMDAT xdata
xdata	SEGMENT
$stateUnwindMap$??0?$CompiledVm@ULargePageAllocator@randomx@@$0A@$00@randomx@@QEAA@XZ DB 06H
	DB	0cH
	DD	imagerel ??1?$VmBase@ULargePageAllocator@randomx@@$0A@@randomx@@UEAA@XZ
	DB	040H
	DB	036H
	DD	imagerel ?dtor$1@?0???0?$CompiledVm@ULargePageAllocator@randomx@@$0A@$00@randomx@@QEAA@XZ@4HA
	DB	028H
xdata	ENDS
;	COMDAT xdata
xdata	SEGMENT
$cppxdata$??0?$CompiledVm@ULargePageAllocator@randomx@@$0A@$00@randomx@@QEAA@XZ DB 028H
	DD	imagerel $stateUnwindMap$??0?$CompiledVm@ULargePageAllocator@randomx@@$0A@$00@randomx@@QEAA@XZ
	DD	imagerel $ip2state$??0?$CompiledVm@ULargePageAllocator@randomx@@$0A@$00@randomx@@QEAA@XZ
xdata	ENDS
;	COMDAT xdata
xdata	SEGMENT
$unwind$??0?$CompiledVm@ULargePageAllocator@randomx@@$0A@$00@randomx@@QEAA@XZ DD 020611H
	DD	030025206H
	DD	imagerel __CxxFrameHandler4
	DD	imagerel $cppxdata$??0?$CompiledVm@ULargePageAllocator@randomx@@$0A@$00@randomx@@QEAA@XZ
xdata	ENDS
;	COMDAT xdata
xdata	SEGMENT
$ip2state$??0?$CompiledVm@U?$AlignedAllocator@$0EA@@randomx@@$00$0A@@randomx@@QEAA@XZ DB 08H
	DB	0ceH
	DB	02H
	DB	'd'
	DB	00H
	DB	'.'
	DB	04H
	DB	'>'
	DB	06H
xdata	ENDS
;	COMDAT xdata
xdata	SEGMENT
$stateUnwindMap$??0?$CompiledVm@U?$AlignedAllocator@$0EA@@randomx@@$00$0A@@randomx@@QEAA@XZ DB 06H
	DB	0cH
	DD	imagerel ??1?$VmBase@U?$AlignedAllocator@$0EA@@randomx@@$00@randomx@@UEAA@XZ
	DB	050H
	DB	036H
	DD	imagerel ?dtor$1@?0???0?$CompiledVm@U?$AlignedAllocator@$0EA@@randomx@@$00$0A@@randomx@@QEAA@XZ@4HA
	DB	02aH
	DD	imagerel ??1?$basic_string@DU?$char_traits@D@std@@V?$allocator@D@2@@std@@QEAA@XZ
	DB	090H
xdata	ENDS
;	COMDAT xdata
xdata	SEGMENT
$cppxdata$??0?$CompiledVm@U?$AlignedAllocator@$0EA@@randomx@@$00$0A@@randomx@@QEAA@XZ DB 028H
	DD	imagerel $stateUnwindMap$??0?$CompiledVm@U?$AlignedAllocator@$0EA@@randomx@@$00$0A@@randomx@@QEAA@XZ
	DD	imagerel $ip2state$??0?$CompiledVm@U?$AlignedAllocator@$0EA@@randomx@@$00$0A@@randomx@@QEAA@XZ
xdata	ENDS
;	COMDAT xdata
xdata	SEGMENT
$unwind$??0?$CompiledVm@U?$AlignedAllocator@$0EA@@randomx@@$00$0A@@randomx@@QEAA@XZ DD 021519H
	DD	03002d206H
	DD	imagerel __GSHandlerCheck_EH4
	DD	imagerel $cppxdata$??0?$CompiledVm@U?$AlignedAllocator@$0EA@@randomx@@$00$0A@@randomx@@QEAA@XZ
	DD	06aH
xdata	ENDS
;	COMDAT xdata
xdata	SEGMENT
$ip2state$??0?$CompiledVm@U?$AlignedAllocator@$0EA@@randomx@@$0A@$00@randomx@@QEAA@XZ DB 02H
	DB	0b0H
	DB	02H
xdata	ENDS
;	COMDAT xdata
xdata	SEGMENT
$stateUnwindMap$??0?$CompiledVm@U?$AlignedAllocator@$0EA@@randomx@@$0A@$00@randomx@@QEAA@XZ DB 06H
	DB	0cH
	DD	imagerel ??1?$VmBase@U?$AlignedAllocator@$0EA@@randomx@@$0A@@randomx@@UEAA@XZ
	DB	040H
	DB	036H
	DD	imagerel ?dtor$1@?0???0?$CompiledVm@U?$AlignedAllocator@$0EA@@randomx@@$0A@$00@randomx@@QEAA@XZ@4HA
	DB	028H
xdata	ENDS
;	COMDAT xdata
xdata	SEGMENT
$cppxdata$??0?$CompiledVm@U?$AlignedAllocator@$0EA@@randomx@@$0A@$00@randomx@@QEAA@XZ DB 028H
	DD	imagerel $stateUnwindMap$??0?$CompiledVm@U?$AlignedAllocator@$0EA@@randomx@@$0A@$00@randomx@@QEAA@XZ
	DD	imagerel $ip2state$??0?$CompiledVm@U?$AlignedAllocator@$0EA@@randomx@@$0A@$00@randomx@@QEAA@XZ
xdata	ENDS
;	COMDAT xdata
xdata	SEGMENT
$unwind$??0?$CompiledVm@U?$AlignedAllocator@$0EA@@randomx@@$0A@$00@randomx@@QEAA@XZ DD 020611H
	DD	030025206H
	DD	imagerel __CxxFrameHandler4
	DD	imagerel $cppxdata$??0?$CompiledVm@U?$AlignedAllocator@$0EA@@randomx@@$0A@$00@randomx@@QEAA@XZ
xdata	ENDS
;	COMDAT xdata
xdata	SEGMENT
$unwind$?run@?$CompiledVm@U?$AlignedAllocator@$0EA@@randomx@@$00$0A@@randomx@@UEAAXPEAX@Z DD 081401H
	DD	086414H
	DD	075414H
	DD	063414H
	DD	070103214H
xdata	ENDS
;	COMDAT xdata
xdata	SEGMENT
$unwind$?run@?$CompiledVm@U?$AlignedAllocator@$0EA@@randomx@@$0A@$0A@@randomx@@UEAAXPEAX@Z DD 081401H
	DD	086414H
	DD	075414H
	DD	063414H
	DD	070103214H
xdata	ENDS
;	COMDAT xdata
xdata	SEGMENT
$unwind$?run@?$CompiledVm@ULargePageAllocator@randomx@@$00$0A@@randomx@@UEAAXPEAX@Z DD 081401H
	DD	086414H
	DD	075414H
	DD	063414H
	DD	070103214H
xdata	ENDS
;	COMDAT xdata
xdata	SEGMENT
$unwind$?run@?$CompiledVm@ULargePageAllocator@randomx@@$0A@$0A@@randomx@@UEAAXPEAX@Z DD 081401H
	DD	086414H
	DD	075414H
	DD	063414H
	DD	070103214H
xdata	ENDS
;	COMDAT xdata
xdata	SEGMENT
$unwind$?run@?$CompiledVm@U?$AlignedAllocator@$0EA@@randomx@@$00$00@randomx@@UEAAXPEAX@Z DD 081401H
	DD	086414H
	DD	075414H
	DD	063414H
	DD	070103214H
xdata	ENDS
;	COMDAT xdata
xdata	SEGMENT
$unwind$?run@?$CompiledVm@U?$AlignedAllocator@$0EA@@randomx@@$0A@$00@randomx@@UEAAXPEAX@Z DD 081401H
	DD	086414H
	DD	075414H
	DD	063414H
	DD	070103214H
xdata	ENDS
;	COMDAT xdata
xdata	SEGMENT
$unwind$?run@?$CompiledVm@ULargePageAllocator@randomx@@$00$00@randomx@@UEAAXPEAX@Z DD 081401H
	DD	086414H
	DD	075414H
	DD	063414H
	DD	070103214H
xdata	ENDS
;	COMDAT xdata
xdata	SEGMENT
$unwind$?run@?$CompiledVm@ULargePageAllocator@randomx@@$0A@$00@randomx@@UEAAXPEAX@Z DD 081401H
	DD	086414H
	DD	075414H
	DD	063414H
	DD	070103214H
xdata	ENDS
;	COMDAT xdata
xdata	SEGMENT
$unwind$??_G?$CompiledVm@U?$AlignedAllocator@$0EA@@randomx@@$00$0A@@randomx@@UEAAPEAXI@Z DD 040a01H
	DD	06340aH
	DD	07006320aH
xdata	ENDS
;	COMDAT xdata
xdata	SEGMENT
$unwind$??_G?$CompiledVm@U?$AlignedAllocator@$0EA@@randomx@@$0A@$0A@@randomx@@UEAAPEAXI@Z DD 040a01H
	DD	06340aH
	DD	07006320aH
xdata	ENDS
;	COMDAT xdata
xdata	SEGMENT
$unwind$??_G?$CompiledVm@ULargePageAllocator@randomx@@$00$0A@@randomx@@UEAAPEAXI@Z DD 040a01H
	DD	06340aH
	DD	07006320aH
xdata	ENDS
;	COMDAT xdata
xdata	SEGMENT
$unwind$??_G?$CompiledVm@ULargePageAllocator@randomx@@$0A@$0A@@randomx@@UEAAPEAXI@Z DD 040a01H
	DD	06340aH
	DD	07006320aH
xdata	ENDS
;	COMDAT xdata
xdata	SEGMENT
$unwind$??_G?$CompiledVm@U?$AlignedAllocator@$0EA@@randomx@@$00$00@randomx@@UEAAPEAXI@Z DD 040a01H
	DD	06340aH
	DD	07006320aH
xdata	ENDS
;	COMDAT xdata
xdata	SEGMENT
$unwind$??_G?$CompiledVm@U?$AlignedAllocator@$0EA@@randomx@@$0A@$00@randomx@@UEAAPEAXI@Z DD 040a01H
	DD	06340aH
	DD	07006320aH
xdata	ENDS
;	COMDAT xdata
xdata	SEGMENT
$unwind$??_G?$CompiledVm@ULargePageAllocator@randomx@@$00$00@randomx@@UEAAPEAXI@Z DD 040a01H
	DD	06340aH
	DD	07006320aH
xdata	ENDS
;	COMDAT xdata
xdata	SEGMENT
$unwind$??_G?$CompiledVm@ULargePageAllocator@randomx@@$0A@$00@randomx@@UEAAPEAXI@Z DD 040a01H
	DD	06340aH
	DD	07006320aH
; Function compile flags: /Ogtpy
;	COMDAT ??0?$CompiledVm@ULargePageAllocator@randomx@@$00$00@randomx@@QEAA@XZ
_TEXT	SEGMENT
this$GSCopy$ = 32
this$ = 64
??0?$CompiledVm@ULargePageAllocator@randomx@@$00$00@randomx@@QEAA@XZ PROC ; randomx::CompiledVm<randomx::LargePageAllocator,1,1>::CompiledVm<randomx::LargePageAllocator,1,1>, COMDAT
; File D:\dev\francium_network\francium_agent\src\ext\randomx\repo\src\vm_compiled.cpp
; Line 38
$LN43:
	push	rbx
	sub	rsp, 48					; 00000030H
	mov	rbx, rcx
	mov	QWORD PTR this$GSCopy$[rsp], rcx
	xor	eax, eax
	mov	QWORD PTR [rcx+2536], rax
	mov	QWORD PTR [rcx+2544], rax
	mov	QWORD PTR [rcx+2552], rax
	xorps	xmm0, xmm0
; File D:\software\Visual Studio 2022\VC\Tools\MSVC\14.35.32215\include\xstring
; Line 2340
	movups	XMMWORD PTR [rcx+2568], xmm0
; Line 5001
	mov	QWORD PTR [rcx+2584], rax
; Line 5002
	mov	QWORD PTR [rcx+2592], 15
; Line 5006
	mov	BYTE PTR [rcx+2568], al
; File D:\dev\francium_network\francium_agent\src\ext\randomx\repo\src\vm_compiled.cpp
; Line 38
	lea	rax, OFFSET FLAT:??_7?$CompiledVm@ULargePageAllocator@randomx@@$00$00@randomx@@6B@
	mov	QWORD PTR [rcx], rax
	add	rcx, 2688				; 00000a80H
	call	??0JitCompilerX86@randomx@@QEAA@XZ	; randomx::JitCompilerX86::JitCompilerX86
	npad	1
; Line 42
	mov	rax, rbx
	add	rsp, 48					; 00000030H
	pop	rbx
	ret	0
??0?$CompiledVm@ULargePageAllocator@randomx@@$00$00@randomx@@QEAA@XZ ENDP ; randomx::CompiledVm<randomx::LargePageAllocator,1,1>::CompiledVm<randomx::LargePageAllocator,1,1>
_TEXT	ENDS
; Function compile flags: /Ogtpy
;	COMDAT text$x
text$x	SEGMENT
this$GSCopy$ = 32
this$ = 64
?dtor$0@?0???0?$CompiledVm@ULargePageAllocator@randomx@@$00$00@randomx@@QEAA@XZ@4HA PROC ; `randomx::CompiledVm<randomx::LargePageAllocator,1,1>::CompiledVm<randomx::LargePageAllocator,1,1>'::`1'::dtor$0
	mov	rcx, QWORD PTR this$GSCopy$[rdx]
	jmp	??1?$VmBase@ULargePageAllocator@randomx@@$00@randomx@@UEAA@XZ ; randomx::VmBase<randomx::LargePageAllocator,1>::~VmBase<randomx::LargePageAllocator,1>
?dtor$0@?0???0?$CompiledVm@ULargePageAllocator@randomx@@$00$00@randomx@@QEAA@XZ@4HA ENDP ; `randomx::CompiledVm<randomx::LargePageAllocator,1,1>::CompiledVm<randomx::LargePageAllocator,1,1>'::`1'::dtor$0
text$x	ENDS
; Function compile flags: /Ogtpy
;	COMDAT text$x
text$x	SEGMENT
this$GSCopy$ = 32
this$ = 64
?dtor$1@?0???0?$CompiledVm@ULargePageAllocator@randomx@@$00$00@randomx@@QEAA@XZ@4HA PROC ; `randomx::CompiledVm<randomx::LargePageAllocator,1,1>::CompiledVm<randomx::LargePageAllocator,1,1>'::`1'::dtor$1
	mov	rcx, QWORD PTR this$GSCopy$[rdx]
	add	rcx, 2688				; 00000a80H
	jmp	??1JitCompilerX86@randomx@@QEAA@XZ	; randomx::JitCompilerX86::~JitCompilerX86
?dtor$1@?0???0?$CompiledVm@ULargePageAllocator@randomx@@$00$00@randomx@@QEAA@XZ@4HA ENDP ; `randomx::CompiledVm<randomx::LargePageAllocator,1,1>::CompiledVm<randomx::LargePageAllocator,1,1>'::`1'::dtor$1
text$x	ENDS
; Function compile flags: /Ogtpy
;	COMDAT ??0?$CompiledVm@ULargePageAllocator@randomx@@$00$0A@@randomx@@QEAA@XZ
_TEXT	SEGMENT
oldp$4 = 32
this$GSCopy$ = 40
$T3 = 48
$T2 = 72
__$ArrayPad$ = 104
this$ = 128
??0?$CompiledVm@ULargePageAllocator@randomx@@$00$0A@@randomx@@QEAA@XZ PROC ; randomx::CompiledVm<randomx::LargePageAllocator,1,0>::CompiledVm<randomx::LargePageAllocator,1,0>, COMDAT
; File D:\dev\francium_network\francium_agent\src\ext\randomx\repo\src\vm_compiled.cpp
; Line 38
$LN45:
	push	rbx
	sub	rsp, 112				; 00000070H
	mov	rax, QWORD PTR __security_cookie
	xor	rax, rsp
	mov	QWORD PTR __$ArrayPad$[rsp], rax
	mov	rbx, rcx
	mov	QWORD PTR this$GSCopy$[rsp], rcx
	xor	eax, eax
	mov	QWORD PTR [rcx+2536], rax
	mov	QWORD PTR [rcx+2544], rax
	mov	QWORD PTR [rcx+2552], rax
	xorps	xmm0, xmm0
; File D:\software\Visual Studio 2022\VC\Tools\MSVC\14.35.32215\include\xstring
; Line 2340
	movups	XMMWORD PTR [rcx+2568], xmm0
; Line 5001
	mov	QWORD PTR [rcx+2584], rax
; Line 5002
	mov	QWORD PTR [rcx+2592], 15
; Line 5006
	mov	BYTE PTR [rcx+2568], al
; File D:\dev\francium_network\francium_agent\src\ext\randomx\repo\src\vm_compiled.cpp
; Line 38
	lea	rax, OFFSET FLAT:??_7?$CompiledVm@ULargePageAllocator@randomx@@$00$0A@@randomx@@6B@
	mov	QWORD PTR [rcx], rax
	add	rcx, 2688				; 00000a80H
	call	??0JitCompilerX86@randomx@@QEAA@XZ	; randomx::JitCompilerX86::JitCompilerX86
	npad	1
; File D:\dev\francium_network\francium_agent\src\ext\randomx\repo\src\virtual_memory.cpp
; Line 127
	lea	r9, QWORD PTR oldp$4[rsp]
	mov	edx, 77824				; 00013000H
	mov	r8d, 64					; 00000040H
	mov	rcx, QWORD PTR [rbx+2744]
	call	QWORD PTR __imp_VirtualProtect
	test	eax, eax
	je	SHORT $LN43@CompiledVm
; File D:\dev\francium_network\francium_agent\src\ext\randomx\repo\src\vm_compiled.cpp
; Line 42
	mov	rax, rbx
	mov	rcx, QWORD PTR __$ArrayPad$[rsp]
	xor	rcx, rsp
	call	__security_check_cookie
	add	rsp, 112				; 00000070H
	pop	rbx
	ret	0
$LN43@CompiledVm:
; File D:\dev\francium_network\francium_agent\src\ext\randomx\repo\src\virtual_memory.cpp
; Line 128
	lea	rdx, OFFSET FLAT:??_C@_0P@IGDMCLEE@VirtualProtect@
	lea	rcx, QWORD PTR $T2[rsp]
	call	?getErrorMessage@@YA?AV?$basic_string@DU?$char_traits@D@std@@V?$allocator@D@2@@std@@PEBD@Z ; getErrorMessage
	npad	1
	mov	rdx, rax
	lea	rcx, QWORD PTR $T3[rsp]
	call	??0runtime_error@std@@QEAA@AEBV?$basic_string@DU?$char_traits@D@std@@V?$allocator@D@2@@1@@Z ; std::runtime_error::runtime_error
	lea	rdx, OFFSET FLAT:_TI2?AVruntime_error@std@@
	lea	rcx, QWORD PTR $T3[rsp]
	call	_CxxThrowException
	int	3
$LN41@CompiledVm:
??0?$CompiledVm@ULargePageAllocator@randomx@@$00$0A@@randomx@@QEAA@XZ ENDP ; randomx::CompiledVm<randomx::LargePageAllocator,1,0>::CompiledVm<randomx::LargePageAllocator,1,0>
_TEXT	ENDS
; Function compile flags: /Ogtpy
;	COMDAT text$x
text$x	SEGMENT
oldp$4 = 32
this$GSCopy$ = 40
$T3 = 48
$T2 = 72
__$ArrayPad$ = 104
this$ = 128
?dtor$0@?0???0?$CompiledVm@ULargePageAllocator@randomx@@$00$0A@@randomx@@QEAA@XZ@4HA PROC ; `randomx::CompiledVm<randomx::LargePageAllocator,1,0>::CompiledVm<randomx::LargePageAllocator,1,0>'::`1'::dtor$0
	mov	rcx, QWORD PTR this$GSCopy$[rdx]
	jmp	??1?$VmBase@ULargePageAllocator@randomx@@$00@randomx@@UEAA@XZ ; randomx::VmBase<randomx::LargePageAllocator,1>::~VmBase<randomx::LargePageAllocator,1>
?dtor$0@?0???0?$CompiledVm@ULargePageAllocator@randomx@@$00$0A@@randomx@@QEAA@XZ@4HA ENDP ; `randomx::CompiledVm<randomx::LargePageAllocator,1,0>::CompiledVm<randomx::LargePageAllocator,1,0>'::`1'::dtor$0
text$x	ENDS
; Function compile flags: /Ogtpy
;	COMDAT text$x
text$x	SEGMENT
oldp$4 = 32
this$GSCopy$ = 40
$T3 = 48
$T2 = 72
__$ArrayPad$ = 104
this$ = 128
?dtor$1@?0???0?$CompiledVm@ULargePageAllocator@randomx@@$00$0A@@randomx@@QEAA@XZ@4HA PROC ; `randomx::CompiledVm<randomx::LargePageAllocator,1,0>::CompiledVm<randomx::LargePageAllocator,1,0>'::`1'::dtor$1
	mov	rcx, QWORD PTR this$GSCopy$[rdx]
	add	rcx, 2688				; 00000a80H
	jmp	??1JitCompilerX86@randomx@@QEAA@XZ	; randomx::JitCompilerX86::~JitCompilerX86
?dtor$1@?0???0?$CompiledVm@ULargePageAllocator@randomx@@$00$0A@@randomx@@QEAA@XZ@4HA ENDP ; `randomx::CompiledVm<randomx::LargePageAllocator,1,0>::CompiledVm<randomx::LargePageAllocator,1,0>'::`1'::dtor$1
text$x	ENDS
; Function compile flags: /Ogtpy
;	COMDAT text$x
text$x	SEGMENT
oldp$4 = 32
this$GSCopy$ = 40
$T3 = 48
$T2 = 72
__$ArrayPad$ = 104
this$ = 128
?dtor$7@?0???0?$CompiledVm@ULargePageAllocator@randomx@@$00$0A@@randomx@@QEAA@XZ@4HA PROC ; `randomx::CompiledVm<randomx::LargePageAllocator,1,0>::CompiledVm<randomx::LargePageAllocator,1,0>'::`1'::dtor$7
	lea	rcx, QWORD PTR $T2[rdx]
	jmp	??1?$basic_string@DU?$char_traits@D@std@@V?$allocator@D@2@@std@@QEAA@XZ ; std::basic_string<char,std::char_traits<char>,std::allocator<char> >::~basic_string<char,std::char_traits<char>,std::allocator<char> >
?dtor$7@?0???0?$CompiledVm@ULargePageAllocator@randomx@@$00$0A@@randomx@@QEAA@XZ@4HA ENDP ; `randomx::CompiledVm<randomx::LargePageAllocator,1,0>::CompiledVm<randomx::LargePageAllocator,1,0>'::`1'::dtor$7
text$x	ENDS
; Function compile flags: /Ogtpy
;	COMDAT ??0?$CompiledVm@ULargePageAllocator@randomx@@$0A@$0A@@randomx@@QEAA@XZ
_TEXT	SEGMENT
oldp$4 = 32
this$GSCopy$ = 40
$T3 = 48
$T2 = 72
__$ArrayPad$ = 104
this$ = 128
??0?$CompiledVm@ULargePageAllocator@randomx@@$0A@$0A@@randomx@@QEAA@XZ PROC ; randomx::CompiledVm<randomx::LargePageAllocator,0,0>::CompiledVm<randomx::LargePageAllocator,0,0>, COMDAT
; File D:\dev\francium_network\francium_agent\src\ext\randomx\repo\src\vm_compiled.cpp
; Line 38
$LN45:
	push	rbx
	sub	rsp, 112				; 00000070H
	mov	rax, QWORD PTR __security_cookie
	xor	rax, rsp
	mov	QWORD PTR __$ArrayPad$[rsp], rax
	mov	rbx, rcx
	mov	QWORD PTR this$GSCopy$[rsp], rcx
	xor	eax, eax
	mov	QWORD PTR [rcx+2536], rax
	mov	QWORD PTR [rcx+2544], rax
	mov	QWORD PTR [rcx+2552], rax
	xorps	xmm0, xmm0
; File D:\software\Visual Studio 2022\VC\Tools\MSVC\14.35.32215\include\xstring
; Line 2340
	movups	XMMWORD PTR [rcx+2568], xmm0
; Line 5001
	mov	QWORD PTR [rcx+2584], rax
; Line 5002
	mov	QWORD PTR [rcx+2592], 15
; Line 5006
	mov	BYTE PTR [rcx+2568], al
; File D:\dev\francium_network\francium_agent\src\ext\randomx\repo\src\vm_compiled.cpp
; Line 38
	lea	rax, OFFSET FLAT:??_7?$CompiledVm@ULargePageAllocator@randomx@@$0A@$0A@@randomx@@6B@
	mov	QWORD PTR [rcx], rax
	add	rcx, 2688				; 00000a80H
	call	??0JitCompilerX86@randomx@@QEAA@XZ	; randomx::JitCompilerX86::JitCompilerX86
	npad	1
; File D:\dev\francium_network\francium_agent\src\ext\randomx\repo\src\virtual_memory.cpp
; Line 127
	lea	r9, QWORD PTR oldp$4[rsp]
	mov	edx, 77824				; 00013000H
	mov	r8d, 64					; 00000040H
	mov	rcx, QWORD PTR [rbx+2744]
	call	QWORD PTR __imp_VirtualProtect
	test	eax, eax
	je	SHORT $LN43@CompiledVm
; File D:\dev\francium_network\francium_agent\src\ext\randomx\repo\src\vm_compiled.cpp
; Line 42
	mov	rax, rbx
	mov	rcx, QWORD PTR __$ArrayPad$[rsp]
	xor	rcx, rsp
	call	__security_check_cookie
	add	rsp, 112				; 00000070H
	pop	rbx
	ret	0
$LN43@CompiledVm:
; File D:\dev\francium_network\francium_agent\src\ext\randomx\repo\src\virtual_memory.cpp
; Line 128
	lea	rdx, OFFSET FLAT:??_C@_0P@IGDMCLEE@VirtualProtect@
	lea	rcx, QWORD PTR $T2[rsp]
	call	?getErrorMessage@@YA?AV?$basic_string@DU?$char_traits@D@std@@V?$allocator@D@2@@std@@PEBD@Z ; getErrorMessage
	npad	1
	mov	rdx, rax
	lea	rcx, QWORD PTR $T3[rsp]
	call	??0runtime_error@std@@QEAA@AEBV?$basic_string@DU?$char_traits@D@std@@V?$allocator@D@2@@1@@Z ; std::runtime_error::runtime_error
	lea	rdx, OFFSET FLAT:_TI2?AVruntime_error@std@@
	lea	rcx, QWORD PTR $T3[rsp]
	call	_CxxThrowException
	int	3
$LN41@CompiledVm:
??0?$CompiledVm@ULargePageAllocator@randomx@@$0A@$0A@@randomx@@QEAA@XZ ENDP ; randomx::CompiledVm<randomx::LargePageAllocator,0,0>::CompiledVm<randomx::LargePageAllocator,0,0>
_TEXT	ENDS
; Function compile flags: /Ogtpy
;	COMDAT text$x
text$x	SEGMENT
oldp$4 = 32
this$GSCopy$ = 40
$T3 = 48
$T2 = 72
__$ArrayPad$ = 104
this$ = 128
?dtor$0@?0???0?$CompiledVm@ULargePageAllocator@randomx@@$0A@$0A@@randomx@@QEAA@XZ@4HA PROC ; `randomx::CompiledVm<randomx::LargePageAllocator,0,0>::CompiledVm<randomx::LargePageAllocator,0,0>'::`1'::dtor$0
	mov	rcx, QWORD PTR this$GSCopy$[rdx]
	jmp	??1?$VmBase@ULargePageAllocator@randomx@@$0A@@randomx@@UEAA@XZ ; randomx::VmBase<randomx::LargePageAllocator,0>::~VmBase<randomx::LargePageAllocator,0>
?dtor$0@?0???0?$CompiledVm@ULargePageAllocator@randomx@@$0A@$0A@@randomx@@QEAA@XZ@4HA ENDP ; `randomx::CompiledVm<randomx::LargePageAllocator,0,0>::CompiledVm<randomx::LargePageAllocator,0,0>'::`1'::dtor$0
text$x	ENDS
; Function compile flags: /Ogtpy
;	COMDAT text$x
text$x	SEGMENT
oldp$4 = 32
this$GSCopy$ = 40
$T3 = 48
$T2 = 72
__$ArrayPad$ = 104
this$ = 128
?dtor$1@?0???0?$CompiledVm@ULargePageAllocator@randomx@@$0A@$0A@@randomx@@QEAA@XZ@4HA PROC ; `randomx::CompiledVm<randomx::LargePageAllocator,0,0>::CompiledVm<randomx::LargePageAllocator,0,0>'::`1'::dtor$1
	mov	rcx, QWORD PTR this$GSCopy$[rdx]
	add	rcx, 2688				; 00000a80H
	jmp	??1JitCompilerX86@randomx@@QEAA@XZ	; randomx::JitCompilerX86::~JitCompilerX86
?dtor$1@?0???0?$CompiledVm@ULargePageAllocator@randomx@@$0A@$0A@@randomx@@QEAA@XZ@4HA ENDP ; `randomx::CompiledVm<randomx::LargePageAllocator,0,0>::CompiledVm<randomx::LargePageAllocator,0,0>'::`1'::dtor$1
text$x	ENDS
; Function compile flags: /Ogtpy
;	COMDAT text$x
text$x	SEGMENT
oldp$4 = 32
this$GSCopy$ = 40
$T3 = 48
$T2 = 72
__$ArrayPad$ = 104
this$ = 128
?dtor$7@?0???0?$CompiledVm@ULargePageAllocator@randomx@@$0A@$0A@@randomx@@QEAA@XZ@4HA PROC ; `randomx::CompiledVm<randomx::LargePageAllocator,0,0>::CompiledVm<randomx::LargePageAllocator,0,0>'::`1'::dtor$7
	lea	rcx, QWORD PTR $T2[rdx]
	jmp	??1?$basic_string@DU?$char_traits@D@std@@V?$allocator@D@2@@std@@QEAA@XZ ; std::basic_string<char,std::char_traits<char>,std::allocator<char> >::~basic_string<char,std::char_traits<char>,std::allocator<char> >
?dtor$7@?0???0?$CompiledVm@ULargePageAllocator@randomx@@$0A@$0A@@randomx@@QEAA@XZ@4HA ENDP ; `randomx::CompiledVm<randomx::LargePageAllocator,0,0>::CompiledVm<randomx::LargePageAllocator,0,0>'::`1'::dtor$7
text$x	ENDS
; Function compile flags: /Ogtpy
;	COMDAT ??0?$CompiledVm@U?$AlignedAllocator@$0EA@@randomx@@$00$00@randomx@@QEAA@XZ
_TEXT	SEGMENT
this$GSCopy$ = 32
this$ = 64
??0?$CompiledVm@U?$AlignedAllocator@$0EA@@randomx@@$00$00@randomx@@QEAA@XZ PROC ; randomx::CompiledVm<randomx::AlignedAllocator<64>,1,1>::CompiledVm<randomx::AlignedAllocator<64>,1,1>, COMDAT
; File D:\dev\francium_network\francium_agent\src\ext\randomx\repo\src\vm_compiled.cpp
; Line 38
$LN43:
	push	rbx
	sub	rsp, 48					; 00000030H
	mov	rbx, rcx
	mov	QWORD PTR this$GSCopy$[rsp], rcx
	xor	eax, eax
	mov	QWORD PTR [rcx+2536], rax
	mov	QWORD PTR [rcx+2544], rax
	mov	QWORD PTR [rcx+2552], rax
	xorps	xmm0, xmm0
; File D:\software\Visual Studio 2022\VC\Tools\MSVC\14.35.32215\include\xstring
; Line 2340
	movups	XMMWORD PTR [rcx+2568], xmm0
; Line 5001
	mov	QWORD PTR [rcx+2584], rax
; Line 5002
	mov	QWORD PTR [rcx+2592], 15
; Line 5006
	mov	BYTE PTR [rcx+2568], al
; File D:\dev\francium_network\francium_agent\src\ext\randomx\repo\src\vm_compiled.cpp
; Line 38
	lea	rax, OFFSET FLAT:??_7?$CompiledVm@U?$AlignedAllocator@$0EA@@randomx@@$00$00@randomx@@6B@
	mov	QWORD PTR [rcx], rax
	add	rcx, 2688				; 00000a80H
	call	??0JitCompilerX86@randomx@@QEAA@XZ	; randomx::JitCompilerX86::JitCompilerX86
	npad	1
; Line 42
	mov	rax, rbx
	add	rsp, 48					; 00000030H
	pop	rbx
	ret	0
??0?$CompiledVm@U?$AlignedAllocator@$0EA@@randomx@@$00$00@randomx@@QEAA@XZ ENDP ; randomx::CompiledVm<randomx::AlignedAllocator<64>,1,1>::CompiledVm<randomx::AlignedAllocator<64>,1,1>
_TEXT	ENDS
; Function compile flags: /Ogtpy
;	COMDAT text$x
text$x	SEGMENT
this$GSCopy$ = 32
this$ = 64
?dtor$0@?0???0?$CompiledVm@U?$AlignedAllocator@$0EA@@randomx@@$00$00@randomx@@QEAA@XZ@4HA PROC ; `randomx::CompiledVm<randomx::AlignedAllocator<64>,1,1>::CompiledVm<randomx::AlignedAllocator<64>,1,1>'::`1'::dtor$0
	mov	rcx, QWORD PTR this$GSCopy$[rdx]
	jmp	??1?$VmBase@U?$AlignedAllocator@$0EA@@randomx@@$00@randomx@@UEAA@XZ ; randomx::VmBase<randomx::AlignedAllocator<64>,1>::~VmBase<randomx::AlignedAllocator<64>,1>
?dtor$0@?0???0?$CompiledVm@U?$AlignedAllocator@$0EA@@randomx@@$00$00@randomx@@QEAA@XZ@4HA ENDP ; `randomx::CompiledVm<randomx::AlignedAllocator<64>,1,1>::CompiledVm<randomx::AlignedAllocator<64>,1,1>'::`1'::dtor$0
text$x	ENDS
; Function compile flags: /Ogtpy
;	COMDAT text$x
text$x	SEGMENT
this$GSCopy$ = 32
this$ = 64
?dtor$1@?0???0?$CompiledVm@U?$AlignedAllocator@$0EA@@randomx@@$00$00@randomx@@QEAA@XZ@4HA PROC ; `randomx::CompiledVm<randomx::AlignedAllocator<64>,1,1>::CompiledVm<randomx::AlignedAllocator<64>,1,1>'::`1'::dtor$1
	mov	rcx, QWORD PTR this$GSCopy$[rdx]
	add	rcx, 2688				; 00000a80H
	jmp	??1JitCompilerX86@randomx@@QEAA@XZ	; randomx::JitCompilerX86::~JitCompilerX86
?dtor$1@?0???0?$CompiledVm@U?$AlignedAllocator@$0EA@@randomx@@$00$00@randomx@@QEAA@XZ@4HA ENDP ; `randomx::CompiledVm<randomx::AlignedAllocator<64>,1,1>::CompiledVm<randomx::AlignedAllocator<64>,1,1>'::`1'::dtor$1
text$x	ENDS
; Function compile flags: /Ogtpy
;	COMDAT ??0?$CompiledVm@U?$AlignedAllocator@$0EA@@randomx@@$0A@$0A@@randomx@@QEAA@XZ
_TEXT	SEGMENT
oldp$4 = 32
this$GSCopy$ = 40
$T3 = 48
$T2 = 72
__$ArrayPad$ = 104
this$ = 128
??0?$CompiledVm@U?$AlignedAllocator@$0EA@@randomx@@$0A@$0A@@randomx@@QEAA@XZ PROC ; randomx::CompiledVm<randomx::AlignedAllocator<64>,0,0>::CompiledVm<randomx::AlignedAllocator<64>,0,0>, COMDAT
; File D:\dev\francium_network\francium_agent\src\ext\randomx\repo\src\vm_compiled.cpp
; Line 38
$LN45:
	push	rbx
	sub	rsp, 112				; 00000070H
	mov	rax, QWORD PTR __security_cookie
	xor	rax, rsp
	mov	QWORD PTR __$ArrayPad$[rsp], rax
	mov	rbx, rcx
	mov	QWORD PTR this$GSCopy$[rsp], rcx
	xor	eax, eax
	mov	QWORD PTR [rcx+2536], rax
	mov	QWORD PTR [rcx+2544], rax
	mov	QWORD PTR [rcx+2552], rax
	xorps	xmm0, xmm0
; File D:\software\Visual Studio 2022\VC\Tools\MSVC\14.35.32215\include\xstring
; Line 2340
	movups	XMMWORD PTR [rcx+2568], xmm0
; Line 5001
	mov	QWORD PTR [rcx+2584], rax
; Line 5002
	mov	QWORD PTR [rcx+2592], 15
; Line 5006
	mov	BYTE PTR [rcx+2568], al
; File D:\dev\francium_network\francium_agent\src\ext\randomx\repo\src\vm_compiled.cpp
; Line 38
	lea	rax, OFFSET FLAT:??_7?$CompiledVm@U?$AlignedAllocator@$0EA@@randomx@@$0A@$0A@@randomx@@6B@
	mov	QWORD PTR [rcx], rax
	add	rcx, 2688				; 00000a80H
	call	??0JitCompilerX86@randomx@@QEAA@XZ	; randomx::JitCompilerX86::JitCompilerX86
	npad	1
; File D:\dev\francium_network\francium_agent\src\ext\randomx\repo\src\virtual_memory.cpp
; Line 127
	lea	r9, QWORD PTR oldp$4[rsp]
	mov	edx, 77824				; 00013000H
	mov	r8d, 64					; 00000040H
	mov	rcx, QWORD PTR [rbx+2744]
	call	QWORD PTR __imp_VirtualProtect
	test	eax, eax
	je	SHORT $LN43@CompiledVm
; File D:\dev\francium_network\francium_agent\src\ext\randomx\repo\src\vm_compiled.cpp
; Line 42
	mov	rax, rbx
	mov	rcx, QWORD PTR __$ArrayPad$[rsp]
	xor	rcx, rsp
	call	__security_check_cookie
	add	rsp, 112				; 00000070H
	pop	rbx
	ret	0
$LN43@CompiledVm:
; File D:\dev\francium_network\francium_agent\src\ext\randomx\repo\src\virtual_memory.cpp
; Line 128
	lea	rdx, OFFSET FLAT:??_C@_0P@IGDMCLEE@VirtualProtect@
	lea	rcx, QWORD PTR $T2[rsp]
	call	?getErrorMessage@@YA?AV?$basic_string@DU?$char_traits@D@std@@V?$allocator@D@2@@std@@PEBD@Z ; getErrorMessage
	npad	1
	mov	rdx, rax
	lea	rcx, QWORD PTR $T3[rsp]
	call	??0runtime_error@std@@QEAA@AEBV?$basic_string@DU?$char_traits@D@std@@V?$allocator@D@2@@1@@Z ; std::runtime_error::runtime_error
	lea	rdx, OFFSET FLAT:_TI2?AVruntime_error@std@@
	lea	rcx, QWORD PTR $T3[rsp]
	call	_CxxThrowException
	int	3
$LN41@CompiledVm:
??0?$CompiledVm@U?$AlignedAllocator@$0EA@@randomx@@$0A@$0A@@randomx@@QEAA@XZ ENDP ; randomx::CompiledVm<randomx::AlignedAllocator<64>,0,0>::CompiledVm<randomx::AlignedAllocator<64>,0,0>
_TEXT	ENDS
; Function compile flags: /Ogtpy
;	COMDAT text$x
text$x	SEGMENT
oldp$4 = 32
this$GSCopy$ = 40
$T3 = 48
$T2 = 72
__$ArrayPad$ = 104
this$ = 128
?dtor$0@?0???0?$CompiledVm@U?$AlignedAllocator@$0EA@@randomx@@$0A@$0A@@randomx@@QEAA@XZ@4HA PROC ; `randomx::CompiledVm<randomx::AlignedAllocator<64>,0,0>::CompiledVm<randomx::AlignedAllocator<64>,0,0>'::`1'::dtor$0
	mov	rcx, QWORD PTR this$GSCopy$[rdx]
	jmp	??1?$VmBase@U?$AlignedAllocator@$0EA@@randomx@@$0A@@randomx@@UEAA@XZ ; randomx::VmBase<randomx::AlignedAllocator<64>,0>::~VmBase<randomx::AlignedAllocator<64>,0>
?dtor$0@?0???0?$CompiledVm@U?$AlignedAllocator@$0EA@@randomx@@$0A@$0A@@randomx@@QEAA@XZ@4HA ENDP ; `randomx::CompiledVm<randomx::AlignedAllocator<64>,0,0>::CompiledVm<randomx::AlignedAllocator<64>,0,0>'::`1'::dtor$0
text$x	ENDS
; Function compile flags: /Ogtpy
;	COMDAT text$x
text$x	SEGMENT
oldp$4 = 32
this$GSCopy$ = 40
$T3 = 48
$T2 = 72
__$ArrayPad$ = 104
this$ = 128
?dtor$1@?0???0?$CompiledVm@U?$AlignedAllocator@$0EA@@randomx@@$0A@$0A@@randomx@@QEAA@XZ@4HA PROC ; `randomx::CompiledVm<randomx::AlignedAllocator<64>,0,0>::CompiledVm<randomx::AlignedAllocator<64>,0,0>'::`1'::dtor$1
	mov	rcx, QWORD PTR this$GSCopy$[rdx]
	add	rcx, 2688				; 00000a80H
	jmp	??1JitCompilerX86@randomx@@QEAA@XZ	; randomx::JitCompilerX86::~JitCompilerX86
?dtor$1@?0???0?$CompiledVm@U?$AlignedAllocator@$0EA@@randomx@@$0A@$0A@@randomx@@QEAA@XZ@4HA ENDP ; `randomx::CompiledVm<randomx::AlignedAllocator<64>,0,0>::CompiledVm<randomx::AlignedAllocator<64>,0,0>'::`1'::dtor$1
text$x	ENDS
; Function compile flags: /Ogtpy
;	COMDAT text$x
text$x	SEGMENT
oldp$4 = 32
this$GSCopy$ = 40
$T3 = 48
$T2 = 72
__$ArrayPad$ = 104
this$ = 128
?dtor$7@?0???0?$CompiledVm@U?$AlignedAllocator@$0EA@@randomx@@$0A@$0A@@randomx@@QEAA@XZ@4HA PROC ; `randomx::CompiledVm<randomx::AlignedAllocator<64>,0,0>::CompiledVm<randomx::AlignedAllocator<64>,0,0>'::`1'::dtor$7
	lea	rcx, QWORD PTR $T2[rdx]
	jmp	??1?$basic_string@DU?$char_traits@D@std@@V?$allocator@D@2@@std@@QEAA@XZ ; std::basic_string<char,std::char_traits<char>,std::allocator<char> >::~basic_string<char,std::char_traits<char>,std::allocator<char> >
?dtor$7@?0???0?$CompiledVm@U?$AlignedAllocator@$0EA@@randomx@@$0A@$0A@@randomx@@QEAA@XZ@4HA ENDP ; `randomx::CompiledVm<randomx::AlignedAllocator<64>,0,0>::CompiledVm<randomx::AlignedAllocator<64>,0,0>'::`1'::dtor$7
text$x	ENDS
; Function compile flags: /Ogtpy
;	COMDAT ??0?$CompiledVm@ULargePageAllocator@randomx@@$0A@$00@randomx@@QEAA@XZ
_TEXT	SEGMENT
this$GSCopy$ = 32
this$ = 64
??0?$CompiledVm@ULargePageAllocator@randomx@@$0A@$00@randomx@@QEAA@XZ PROC ; randomx::CompiledVm<randomx::LargePageAllocator,0,1>::CompiledVm<randomx::LargePageAllocator,0,1>, COMDAT
; File D:\dev\francium_network\francium_agent\src\ext\randomx\repo\src\vm_compiled.cpp
; Line 38
$LN43:
	push	rbx
	sub	rsp, 48					; 00000030H
	mov	rbx, rcx
	mov	QWORD PTR this$GSCopy$[rsp], rcx
	xor	eax, eax
	mov	QWORD PTR [rcx+2536], rax
	mov	QWORD PTR [rcx+2544], rax
	mov	QWORD PTR [rcx+2552], rax
	xorps	xmm0, xmm0
; File D:\software\Visual Studio 2022\VC\Tools\MSVC\14.35.32215\include\xstring
; Line 2340
	movups	XMMWORD PTR [rcx+2568], xmm0
; Line 5001
	mov	QWORD PTR [rcx+2584], rax
; Line 5002
	mov	QWORD PTR [rcx+2592], 15
; Line 5006
	mov	BYTE PTR [rcx+2568], al
; File D:\dev\francium_network\francium_agent\src\ext\randomx\repo\src\vm_compiled.cpp
; Line 38
	lea	rax, OFFSET FLAT:??_7?$CompiledVm@ULargePageAllocator@randomx@@$0A@$00@randomx@@6B@
	mov	QWORD PTR [rcx], rax
	add	rcx, 2688				; 00000a80H
	call	??0JitCompilerX86@randomx@@QEAA@XZ	; randomx::JitCompilerX86::JitCompilerX86
	npad	1
; Line 42
	mov	rax, rbx
	add	rsp, 48					; 00000030H
	pop	rbx
	ret	0
??0?$CompiledVm@ULargePageAllocator@randomx@@$0A@$00@randomx@@QEAA@XZ ENDP ; randomx::CompiledVm<randomx::LargePageAllocator,0,1>::CompiledVm<randomx::LargePageAllocator,0,1>
_TEXT	ENDS
; Function compile flags: /Ogtpy
;	COMDAT text$x
text$x	SEGMENT
this$GSCopy$ = 32
this$ = 64
?dtor$0@?0???0?$CompiledVm@ULargePageAllocator@randomx@@$0A@$00@randomx@@QEAA@XZ@4HA PROC ; `randomx::CompiledVm<randomx::LargePageAllocator,0,1>::CompiledVm<randomx::LargePageAllocator,0,1>'::`1'::dtor$0
	mov	rcx, QWORD PTR this$GSCopy$[rdx]
	jmp	??1?$VmBase@ULargePageAllocator@randomx@@$0A@@randomx@@UEAA@XZ ; randomx::VmBase<randomx::LargePageAllocator,0>::~VmBase<randomx::LargePageAllocator,0>
?dtor$0@?0???0?$CompiledVm@ULargePageAllocator@randomx@@$0A@$00@randomx@@QEAA@XZ@4HA ENDP ; `randomx::CompiledVm<randomx::LargePageAllocator,0,1>::CompiledVm<randomx::LargePageAllocator,0,1>'::`1'::dtor$0
text$x	ENDS
; Function compile flags: /Ogtpy
;	COMDAT text$x
text$x	SEGMENT
this$GSCopy$ = 32
this$ = 64
?dtor$1@?0???0?$CompiledVm@ULargePageAllocator@randomx@@$0A@$00@randomx@@QEAA@XZ@4HA PROC ; `randomx::CompiledVm<randomx::LargePageAllocator,0,1>::CompiledVm<randomx::LargePageAllocator,0,1>'::`1'::dtor$1
	mov	rcx, QWORD PTR this$GSCopy$[rdx]
	add	rcx, 2688				; 00000a80H
	jmp	??1JitCompilerX86@randomx@@QEAA@XZ	; randomx::JitCompilerX86::~JitCompilerX86
?dtor$1@?0???0?$CompiledVm@ULargePageAllocator@randomx@@$0A@$00@randomx@@QEAA@XZ@4HA ENDP ; `randomx::CompiledVm<randomx::LargePageAllocator,0,1>::CompiledVm<randomx::LargePageAllocator,0,1>'::`1'::dtor$1
text$x	ENDS
; Function compile flags: /Ogtpy
;	COMDAT ??0?$CompiledVm@U?$AlignedAllocator@$0EA@@randomx@@$00$0A@@randomx@@QEAA@XZ
_TEXT	SEGMENT
oldp$4 = 32
this$GSCopy$ = 40
$T3 = 48
$T2 = 72
__$ArrayPad$ = 104
this$ = 128
??0?$CompiledVm@U?$AlignedAllocator@$0EA@@randomx@@$00$0A@@randomx@@QEAA@XZ PROC ; randomx::CompiledVm<randomx::AlignedAllocator<64>,1,0>::CompiledVm<randomx::AlignedAllocator<64>,1,0>, COMDAT
; File D:\dev\francium_network\francium_agent\src\ext\randomx\repo\src\vm_compiled.cpp
; Line 38
$LN45:
	push	rbx
	sub	rsp, 112				; 00000070H
	mov	rax, QWORD PTR __security_cookie
	xor	rax, rsp
	mov	QWORD PTR __$ArrayPad$[rsp], rax
	mov	rbx, rcx
	mov	QWORD PTR this$GSCopy$[rsp], rcx
	xor	eax, eax
	mov	QWORD PTR [rcx+2536], rax
	mov	QWORD PTR [rcx+2544], rax
	mov	QWORD PTR [rcx+2552], rax
	xorps	xmm0, xmm0
; File D:\software\Visual Studio 2022\VC\Tools\MSVC\14.35.32215\include\xstring
; Line 2340
	movups	XMMWORD PTR [rcx+2568], xmm0
; Line 5001
	mov	QWORD PTR [rcx+2584], rax
; Line 5002
	mov	QWORD PTR [rcx+2592], 15
; Line 5006
	mov	BYTE PTR [rcx+2568], al
; File D:\dev\francium_network\francium_agent\src\ext\randomx\repo\src\vm_compiled.cpp
; Line 38
	lea	rax, OFFSET FLAT:??_7?$CompiledVm@U?$AlignedAllocator@$0EA@@randomx@@$00$0A@@randomx@@6B@
	mov	QWORD PTR [rcx], rax
	add	rcx, 2688				; 00000a80H
	call	??0JitCompilerX86@randomx@@QEAA@XZ	; randomx::JitCompilerX86::JitCompilerX86
	npad	1
; File D:\dev\francium_network\francium_agent\src\ext\randomx\repo\src\virtual_memory.cpp
; Line 127
	lea	r9, QWORD PTR oldp$4[rsp]
	mov	edx, 77824				; 00013000H
	mov	r8d, 64					; 00000040H
	mov	rcx, QWORD PTR [rbx+2744]
	call	QWORD PTR __imp_VirtualProtect
	test	eax, eax
	je	SHORT $LN43@CompiledVm
; File D:\dev\francium_network\francium_agent\src\ext\randomx\repo\src\vm_compiled.cpp
; Line 42
	mov	rax, rbx
	mov	rcx, QWORD PTR __$ArrayPad$[rsp]
	xor	rcx, rsp
	call	__security_check_cookie
	add	rsp, 112				; 00000070H
	pop	rbx
	ret	0
$LN43@CompiledVm:
; File D:\dev\francium_network\francium_agent\src\ext\randomx\repo\src\virtual_memory.cpp
; Line 128
	lea	rdx, OFFSET FLAT:??_C@_0P@IGDMCLEE@VirtualProtect@
	lea	rcx, QWORD PTR $T2[rsp]
	call	?getErrorMessage@@YA?AV?$basic_string@DU?$char_traits@D@std@@V?$allocator@D@2@@std@@PEBD@Z ; getErrorMessage
	npad	1
	mov	rdx, rax
	lea	rcx, QWORD PTR $T3[rsp]
	call	??0runtime_error@std@@QEAA@AEBV?$basic_string@DU?$char_traits@D@std@@V?$allocator@D@2@@1@@Z ; std::runtime_error::runtime_error
	lea	rdx, OFFSET FLAT:_TI2?AVruntime_error@std@@
	lea	rcx, QWORD PTR $T3[rsp]
	call	_CxxThrowException
	int	3
$LN41@CompiledVm:
??0?$CompiledVm@U?$AlignedAllocator@$0EA@@randomx@@$00$0A@@randomx@@QEAA@XZ ENDP ; randomx::CompiledVm<randomx::AlignedAllocator<64>,1,0>::CompiledVm<randomx::AlignedAllocator<64>,1,0>
_TEXT	ENDS
; Function compile flags: /Ogtpy
;	COMDAT text$x
text$x	SEGMENT
oldp$4 = 32
this$GSCopy$ = 40
$T3 = 48
$T2 = 72
__$ArrayPad$ = 104
this$ = 128
?dtor$0@?0???0?$CompiledVm@U?$AlignedAllocator@$0EA@@randomx@@$00$0A@@randomx@@QEAA@XZ@4HA PROC ; `randomx::CompiledVm<randomx::AlignedAllocator<64>,1,0>::CompiledVm<randomx::AlignedAllocator<64>,1,0>'::`1'::dtor$0
	mov	rcx, QWORD PTR this$GSCopy$[rdx]
	jmp	??1?$VmBase@U?$AlignedAllocator@$0EA@@randomx@@$00@randomx@@UEAA@XZ ; randomx::VmBase<randomx::AlignedAllocator<64>,1>::~VmBase<randomx::AlignedAllocator<64>,1>
?dtor$0@?0???0?$CompiledVm@U?$AlignedAllocator@$0EA@@randomx@@$00$0A@@randomx@@QEAA@XZ@4HA ENDP ; `randomx::CompiledVm<randomx::AlignedAllocator<64>,1,0>::CompiledVm<randomx::AlignedAllocator<64>,1,0>'::`1'::dtor$0
text$x	ENDS
; Function compile flags: /Ogtpy
;	COMDAT text$x
text$x	SEGMENT
oldp$4 = 32
this$GSCopy$ = 40
$T3 = 48
$T2 = 72
__$ArrayPad$ = 104
this$ = 128
?dtor$1@?0???0?$CompiledVm@U?$AlignedAllocator@$0EA@@randomx@@$00$0A@@randomx@@QEAA@XZ@4HA PROC ; `randomx::CompiledVm<randomx::AlignedAllocator<64>,1,0>::CompiledVm<randomx::AlignedAllocator<64>,1,0>'::`1'::dtor$1
	mov	rcx, QWORD PTR this$GSCopy$[rdx]
	add	rcx, 2688				; 00000a80H
	jmp	??1JitCompilerX86@randomx@@QEAA@XZ	; randomx::JitCompilerX86::~JitCompilerX86
?dtor$1@?0???0?$CompiledVm@U?$AlignedAllocator@$0EA@@randomx@@$00$0A@@randomx@@QEAA@XZ@4HA ENDP ; `randomx::CompiledVm<randomx::AlignedAllocator<64>,1,0>::CompiledVm<randomx::AlignedAllocator<64>,1,0>'::`1'::dtor$1
text$x	ENDS
; Function compile flags: /Ogtpy
;	COMDAT text$x
text$x	SEGMENT
oldp$4 = 32
this$GSCopy$ = 40
$T3 = 48
$T2 = 72
__$ArrayPad$ = 104
this$ = 128
?dtor$7@?0???0?$CompiledVm@U?$AlignedAllocator@$0EA@@randomx@@$00$0A@@randomx@@QEAA@XZ@4HA PROC ; `randomx::CompiledVm<randomx::AlignedAllocator<64>,1,0>::CompiledVm<randomx::AlignedAllocator<64>,1,0>'::`1'::dtor$7
	lea	rcx, QWORD PTR $T2[rdx]
	jmp	??1?$basic_string@DU?$char_traits@D@std@@V?$allocator@D@2@@std@@QEAA@XZ ; std::basic_string<char,std::char_traits<char>,std::allocator<char> >::~basic_string<char,std::char_traits<char>,std::allocator<char> >
?dtor$7@?0???0?$CompiledVm@U?$AlignedAllocator@$0EA@@randomx@@$00$0A@@randomx@@QEAA@XZ@4HA ENDP ; `randomx::CompiledVm<randomx::AlignedAllocator<64>,1,0>::CompiledVm<randomx::AlignedAllocator<64>,1,0>'::`1'::dtor$7
text$x	ENDS
; Function compile flags: /Ogtpy
;	COMDAT ??0?$CompiledVm@U?$AlignedAllocator@$0EA@@randomx@@$0A@$00@randomx@@QEAA@XZ
_TEXT	SEGMENT
this$GSCopy$ = 32
this$ = 64
??0?$CompiledVm@U?$AlignedAllocator@$0EA@@randomx@@$0A@$00@randomx@@QEAA@XZ PROC ; randomx::CompiledVm<randomx::AlignedAllocator<64>,0,1>::CompiledVm<randomx::AlignedAllocator<64>,0,1>, COMDAT
; File D:\dev\francium_network\francium_agent\src\ext\randomx\repo\src\vm_compiled.cpp
; Line 38
$LN43:
	push	rbx
	sub	rsp, 48					; 00000030H
	mov	rbx, rcx
	mov	QWORD PTR this$GSCopy$[rsp], rcx
	xor	eax, eax
	mov	QWORD PTR [rcx+2536], rax
	mov	QWORD PTR [rcx+2544], rax
	mov	QWORD PTR [rcx+2552], rax
	xorps	xmm0, xmm0
; File D:\software\Visual Studio 2022\VC\Tools\MSVC\14.35.32215\include\xstring
; Line 2340
	movups	XMMWORD PTR [rcx+2568], xmm0
; Line 5001
	mov	QWORD PTR [rcx+2584], rax
; Line 5002
	mov	QWORD PTR [rcx+2592], 15
; Line 5006
	mov	BYTE PTR [rcx+2568], al
; File D:\dev\francium_network\francium_agent\src\ext\randomx\repo\src\vm_compiled.cpp
; Line 38
	lea	rax, OFFSET FLAT:??_7?$CompiledVm@U?$AlignedAllocator@$0EA@@randomx@@$0A@$00@randomx@@6B@
	mov	QWORD PTR [rcx], rax
	add	rcx, 2688				; 00000a80H
	call	??0JitCompilerX86@randomx@@QEAA@XZ	; randomx::JitCompilerX86::JitCompilerX86
	npad	1
; Line 42
	mov	rax, rbx
	add	rsp, 48					; 00000030H
	pop	rbx
	ret	0
??0?$CompiledVm@U?$AlignedAllocator@$0EA@@randomx@@$0A@$00@randomx@@QEAA@XZ ENDP ; randomx::CompiledVm<randomx::AlignedAllocator<64>,0,1>::CompiledVm<randomx::AlignedAllocator<64>,0,1>
_TEXT	ENDS
; Function compile flags: /Ogtpy
;	COMDAT text$x
text$x	SEGMENT
this$GSCopy$ = 32
this$ = 64
?dtor$0@?0???0?$CompiledVm@U?$AlignedAllocator@$0EA@@randomx@@$0A@$00@randomx@@QEAA@XZ@4HA PROC ; `randomx::CompiledVm<randomx::AlignedAllocator<64>,0,1>::CompiledVm<randomx::AlignedAllocator<64>,0,1>'::`1'::dtor$0
	mov	rcx, QWORD PTR this$GSCopy$[rdx]
	jmp	??1?$VmBase@U?$AlignedAllocator@$0EA@@randomx@@$0A@@randomx@@UEAA@XZ ; randomx::VmBase<randomx::AlignedAllocator<64>,0>::~VmBase<randomx::AlignedAllocator<64>,0>
?dtor$0@?0???0?$CompiledVm@U?$AlignedAllocator@$0EA@@randomx@@$0A@$00@randomx@@QEAA@XZ@4HA ENDP ; `randomx::CompiledVm<randomx::AlignedAllocator<64>,0,1>::CompiledVm<randomx::AlignedAllocator<64>,0,1>'::`1'::dtor$0
text$x	ENDS
; Function compile flags: /Ogtpy
;	COMDAT text$x
text$x	SEGMENT
this$GSCopy$ = 32
this$ = 64
?dtor$1@?0???0?$CompiledVm@U?$AlignedAllocator@$0EA@@randomx@@$0A@$00@randomx@@QEAA@XZ@4HA PROC ; `randomx::CompiledVm<randomx::AlignedAllocator<64>,0,1>::CompiledVm<randomx::AlignedAllocator<64>,0,1>'::`1'::dtor$1
	mov	rcx, QWORD PTR this$GSCopy$[rdx]
	add	rcx, 2688				; 00000a80H
	jmp	??1JitCompilerX86@randomx@@QEAA@XZ	; randomx::JitCompilerX86::~JitCompilerX86
?dtor$1@?0???0?$CompiledVm@U?$AlignedAllocator@$0EA@@randomx@@$0A@$00@randomx@@QEAA@XZ@4HA ENDP ; `randomx::CompiledVm<randomx::AlignedAllocator<64>,0,1>::CompiledVm<randomx::AlignedAllocator<64>,0,1>'::`1'::dtor$1
text$x	ENDS
; Function compile flags: /Ogtpy
;	COMDAT ?execute@?$CompiledVm@ULargePageAllocator@randomx@@$00$00@randomx@@IEAAXXZ
_TEXT	SEGMENT
this$ = 8
?execute@?$CompiledVm@ULargePageAllocator@randomx@@$00$00@randomx@@IEAAXXZ PROC ; randomx::CompiledVm<randomx::LargePageAllocator,1,1>::execute, COMDAT
; File D:\dev\francium_network\francium_agent\src\ext\randomx\repo\src\vm_compiled.cpp
; Line 65
	mov	rax, rcx
; Line 69
	lea	rdx, QWORD PTR [rcx+2528]
	add	rcx, 2240				; 000008c0H
	mov	r9d, 2048				; 00000800H
	mov	r8, QWORD PTR [rax+2544]
	rex_jmp	QWORD PTR [rax+2744]
?execute@?$CompiledVm@ULargePageAllocator@randomx@@$00$00@randomx@@IEAAXXZ ENDP ; randomx::CompiledVm<randomx::LargePageAllocator,1,1>::execute
_TEXT	ENDS
; Function compile flags: /Ogtpy
;	COMDAT ?execute@?$CompiledVm@ULargePageAllocator@randomx@@$00$0A@@randomx@@IEAAXXZ
_TEXT	SEGMENT
this$ = 8
?execute@?$CompiledVm@ULargePageAllocator@randomx@@$00$0A@@randomx@@IEAAXXZ PROC ; randomx::CompiledVm<randomx::LargePageAllocator,1,0>::execute, COMDAT
; File D:\dev\francium_network\francium_agent\src\ext\randomx\repo\src\vm_compiled.cpp
; Line 65
	mov	rax, rcx
; Line 69
	lea	rdx, QWORD PTR [rcx+2528]
	add	rcx, 2240				; 000008c0H
	mov	r9d, 2048				; 00000800H
	mov	r8, QWORD PTR [rax+2544]
	rex_jmp	QWORD PTR [rax+2744]
?execute@?$CompiledVm@ULargePageAllocator@randomx@@$00$0A@@randomx@@IEAAXXZ ENDP ; randomx::CompiledVm<randomx::LargePageAllocator,1,0>::execute
_TEXT	ENDS
; Function compile flags: /Ogtpy
;	COMDAT ?execute@?$CompiledVm@ULargePageAllocator@randomx@@$0A@$0A@@randomx@@IEAAXXZ
_TEXT	SEGMENT
this$ = 8
?execute@?$CompiledVm@ULargePageAllocator@randomx@@$0A@$0A@@randomx@@IEAAXXZ PROC ; randomx::CompiledVm<randomx::LargePageAllocator,0,0>::execute, COMDAT
; File D:\dev\francium_network\francium_agent\src\ext\randomx\repo\src\vm_compiled.cpp
; Line 65
	mov	rax, rcx
; Line 69
	lea	rdx, QWORD PTR [rcx+2528]
	add	rcx, 2240				; 000008c0H
	mov	r9d, 2048				; 00000800H
	mov	r8, QWORD PTR [rax+2544]
	rex_jmp	QWORD PTR [rax+2744]
?execute@?$CompiledVm@ULargePageAllocator@randomx@@$0A@$0A@@randomx@@IEAAXXZ ENDP ; randomx::CompiledVm<randomx::LargePageAllocator,0,0>::execute
_TEXT	ENDS
; Function compile flags: /Ogtpy
;	COMDAT ?execute@?$CompiledVm@U?$AlignedAllocator@$0EA@@randomx@@$00$00@randomx@@IEAAXXZ
_TEXT	SEGMENT
this$ = 8
?execute@?$CompiledVm@U?$AlignedAllocator@$0EA@@randomx@@$00$00@randomx@@IEAAXXZ PROC ; randomx::CompiledVm<randomx::AlignedAllocator<64>,1,1>::execute, COMDAT
; File D:\dev\francium_network\francium_agent\src\ext\randomx\repo\src\vm_compiled.cpp
; Line 65
	mov	rax, rcx
; Line 69
	lea	rdx, QWORD PTR [rcx+2528]
	add	rcx, 2240				; 000008c0H
	mov	r9d, 2048				; 00000800H
	mov	r8, QWORD PTR [rax+2544]
	rex_jmp	QWORD PTR [rax+2744]
?execute@?$CompiledVm@U?$AlignedAllocator@$0EA@@randomx@@$00$00@randomx@@IEAAXXZ ENDP ; randomx::CompiledVm<randomx::AlignedAllocator<64>,1,1>::execute
_TEXT	ENDS
; Function compile flags: /Ogtpy
;	COMDAT ?execute@?$CompiledVm@U?$AlignedAllocator@$0EA@@randomx@@$0A@$0A@@randomx@@IEAAXXZ
_TEXT	SEGMENT
this$ = 8
?execute@?$CompiledVm@U?$AlignedAllocator@$0EA@@randomx@@$0A@$0A@@randomx@@IEAAXXZ PROC ; randomx::CompiledVm<randomx::AlignedAllocator<64>,0,0>::execute, COMDAT
; File D:\dev\francium_network\francium_agent\src\ext\randomx\repo\src\vm_compiled.cpp
; Line 65
	mov	rax, rcx
; Line 69
	lea	rdx, QWORD PTR [rcx+2528]
	add	rcx, 2240				; 000008c0H
	mov	r9d, 2048				; 00000800H
	mov	r8, QWORD PTR [rax+2544]
	rex_jmp	QWORD PTR [rax+2744]
?execute@?$CompiledVm@U?$AlignedAllocator@$0EA@@randomx@@$0A@$0A@@randomx@@IEAAXXZ ENDP ; randomx::CompiledVm<randomx::AlignedAllocator<64>,0,0>::execute
_TEXT	ENDS
; Function compile flags: /Ogtpy
;	COMDAT ?execute@?$CompiledVm@ULargePageAllocator@randomx@@$0A@$00@randomx@@IEAAXXZ
_TEXT	SEGMENT
this$ = 8
?execute@?$CompiledVm@ULargePageAllocator@randomx@@$0A@$00@randomx@@IEAAXXZ PROC ; randomx::CompiledVm<randomx::LargePageAllocator,0,1>::execute, COMDAT
; File D:\dev\francium_network\francium_agent\src\ext\randomx\repo\src\vm_compiled.cpp
; Line 65
	mov	rax, rcx
; Line 69
	lea	rdx, QWORD PTR [rcx+2528]
	add	rcx, 2240				; 000008c0H
	mov	r9d, 2048				; 00000800H
	mov	r8, QWORD PTR [rax+2544]
	rex_jmp	QWORD PTR [rax+2744]
?execute@?$CompiledVm@ULargePageAllocator@randomx@@$0A@$00@randomx@@IEAAXXZ ENDP ; randomx::CompiledVm<randomx::LargePageAllocator,0,1>::execute
_TEXT	ENDS
; Function compile flags: /Ogtpy
;	COMDAT ?execute@?$CompiledVm@U?$AlignedAllocator@$0EA@@randomx@@$00$0A@@randomx@@IEAAXXZ
_TEXT	SEGMENT
this$ = 8
?execute@?$CompiledVm@U?$AlignedAllocator@$0EA@@randomx@@$00$0A@@randomx@@IEAAXXZ PROC ; randomx::CompiledVm<randomx::AlignedAllocator<64>,1,0>::execute, COMDAT
; File D:\dev\francium_network\francium_agent\src\ext\randomx\repo\src\vm_compiled.cpp
; Line 65
	mov	rax, rcx
; Line 69
	lea	rdx, QWORD PTR [rcx+2528]
	add	rcx, 2240				; 000008c0H
	mov	r9d, 2048				; 00000800H
	mov	r8, QWORD PTR [rax+2544]
	rex_jmp	QWORD PTR [rax+2744]
?execute@?$CompiledVm@U?$AlignedAllocator@$0EA@@randomx@@$00$0A@@randomx@@IEAAXXZ ENDP ; randomx::CompiledVm<randomx::AlignedAllocator<64>,1,0>::execute
_TEXT	ENDS
; Function compile flags: /Ogtpy
;	COMDAT ?execute@?$CompiledVm@U?$AlignedAllocator@$0EA@@randomx@@$0A@$00@randomx@@IEAAXXZ
_TEXT	SEGMENT
this$ = 8
?execute@?$CompiledVm@U?$AlignedAllocator@$0EA@@randomx@@$0A@$00@randomx@@IEAAXXZ PROC ; randomx::CompiledVm<randomx::AlignedAllocator<64>,0,1>::execute, COMDAT
; File D:\dev\francium_network\francium_agent\src\ext\randomx\repo\src\vm_compiled.cpp
; Line 65
	mov	rax, rcx
; Line 69
	lea	rdx, QWORD PTR [rcx+2528]
	add	rcx, 2240				; 000008c0H
	mov	r9d, 2048				; 00000800H
	mov	r8, QWORD PTR [rax+2544]
	rex_jmp	QWORD PTR [rax+2744]
?execute@?$CompiledVm@U?$AlignedAllocator@$0EA@@randomx@@$0A@$00@randomx@@IEAAXXZ ENDP ; randomx::CompiledVm<randomx::AlignedAllocator<64>,0,1>::execute
_TEXT	ENDS
; Function compile flags: /Ogtpy
;	COMDAT ?getProgramFunc@JitCompilerX86@randomx@@QEAAP6AXAEAURegisterFile@2@AEAUMemoryRegisters@2@PEAE_K@ZXZ
_TEXT	SEGMENT
this$ = 8
?getProgramFunc@JitCompilerX86@randomx@@QEAAP6AXAEAURegisterFile@2@AEAUMemoryRegisters@2@PEAE_K@ZXZ PROC ; randomx::JitCompilerX86::getProgramFunc, COMDAT
; File D:\dev\francium_network\francium_agent\src\ext\randomx\repo\src\jit_compiler_x86.hpp
; Line 56
	mov	rax, QWORD PTR [rcx+56]
; Line 57
	ret	0
?getProgramFunc@JitCompilerX86@randomx@@QEAAP6AXAEAURegisterFile@2@AEAUMemoryRegisters@2@PEAE_K@ZXZ ENDP ; randomx::JitCompilerX86::getProgramFunc
_TEXT	ENDS
; Function compile flags: /Ogtpy
;	COMDAT ?setDataset@?$CompiledVm@U?$AlignedAllocator@$0EA@@randomx@@$00$0A@@randomx@@UEAAXPEAUrandomx_dataset@@@Z
_TEXT	SEGMENT
this$ = 8
dataset$ = 16
?setDataset@?$CompiledVm@U?$AlignedAllocator@$0EA@@randomx@@$00$0A@@randomx@@UEAAXPEAUrandomx_dataset@@@Z PROC ; randomx::CompiledVm<randomx::AlignedAllocator<64>,1,0>::setDataset, COMDAT
; File D:\dev\francium_network\francium_agent\src\ext\randomx\repo\src\vm_compiled.cpp
; Line 46
	mov	QWORD PTR [rcx+2552], rdx
; Line 47
	ret	0
?setDataset@?$CompiledVm@U?$AlignedAllocator@$0EA@@randomx@@$00$0A@@randomx@@UEAAXPEAUrandomx_dataset@@@Z ENDP ; randomx::CompiledVm<randomx::AlignedAllocator<64>,1,0>::setDataset
_TEXT	ENDS
; Function compile flags: /Ogtpy
;	COMDAT ?run@?$CompiledVm@U?$AlignedAllocator@$0EA@@randomx@@$00$0A@@randomx@@UEAAXPEAX@Z
_TEXT	SEGMENT
this$ = 48
seed$ = 56
?run@?$CompiledVm@U?$AlignedAllocator@$0EA@@randomx@@$00$0A@@randomx@@UEAAXPEAX@Z PROC ; randomx::CompiledVm<randomx::AlignedAllocator<64>,1,0>::run, COMDAT
; File D:\dev\francium_network\francium_agent\src\ext\randomx\repo\src\vm_compiled.cpp
; Line 50
$LN12:
	mov	QWORD PTR [rsp+8], rbx
	mov	QWORD PTR [rsp+16], rbp
	mov	QWORD PTR [rsp+24], rsi
	push	rdi
	sub	rsp, 32					; 00000020H
	mov	rbp, rcx
; File D:\dev\francium_network\francium_agent\src\ext\randomx\repo\src\virtual_machine.cpp
; Line 136
	lea	r8, QWORD PTR [rcx+64]
	mov	rcx, rdx
	call	??$fillAes4Rx4@$00@@YAXPEAX_K0@Z	; fillAes4Rx4<1>
; File D:\dev\francium_network\francium_agent\src\ext\randomx\repo\src\vm_compiled.cpp
; Line 52
	mov	rcx, rbp
	call	?initialize@randomx_vm@@IEAAXXZ		; randomx_vm::initialize
; Line 56
	lea	rsi, QWORD PTR [rbp+2688]
; File D:\dev\francium_network\francium_agent\src\ext\randomx\repo\src\jit_compiler_x86.cpp
; Line 249
	mov	rcx, rsi
	lea	r8, QWORD PTR [rbp+2496]
	lea	rdx, QWORD PTR [rbp+64]
	call	?generateProgramPrologue@JitCompilerX86@randomx@@AEAAXAEAVProgram@2@AEAUProgramConfiguration@2@@Z ; randomx::JitCompilerX86::generateProgramPrologue
; Line 250
	movsxd	rcx, DWORD PTR [rsi+64]
	lea	rdx, OFFSET FLAT:randomx_program_read_dataset
	movsxd	rbx, DWORD PTR ?readDatasetSize@randomx@@3HB
	add	rcx, QWORD PTR [rsi+56]
	mov	r8, rbx
	call	memcpy
; Line 251
	add	DWORD PTR [rsi+64], ebx
; Line 252
	lea	r8, QWORD PTR [rbp+2496]
	mov	rcx, rsi
	call	?generateProgramEpilogue@JitCompilerX86@randomx@@AEAAXAEAVProgram@2@AEAUProgramConfiguration@2@@Z ; randomx::JitCompilerX86::generateProgramEpilogue
; File D:\dev\francium_network\francium_agent\src\ext\randomx\repo\src\vm_compiled.cpp
; Line 60
	mov	rax, QWORD PTR [rbp+2552]
; Line 69
	lea	rdx, QWORD PTR [rbp+2528]
	mov	r8, QWORD PTR [rbp+2544]
	mov	r9d, 2048				; 00000800H
; Line 60
	mov	rcx, QWORD PTR [rax]
	add	rcx, QWORD PTR [rbp+2560]
	mov	QWORD PTR [rbp+2536], rcx
; Line 69
	lea	rcx, QWORD PTR [rbp+2240]
	mov	rax, QWORD PTR [rbp+2744]
; Line 62
	mov	rbx, QWORD PTR [rsp+48]
	mov	rbp, QWORD PTR [rsp+56]
	mov	rsi, QWORD PTR [rsp+64]
	add	rsp, 32					; 00000020H
	pop	rdi
; Line 69
	rex_jmp	rax
?run@?$CompiledVm@U?$AlignedAllocator@$0EA@@randomx@@$00$0A@@randomx@@UEAAXPEAX@Z ENDP ; randomx::CompiledVm<randomx::AlignedAllocator<64>,1,0>::run
_TEXT	ENDS
; Function compile flags: /Ogtpy
;	COMDAT ?setDataset@?$CompiledVm@U?$AlignedAllocator@$0EA@@randomx@@$0A@$0A@@randomx@@UEAAXPEAUrandomx_dataset@@@Z
_TEXT	SEGMENT
this$ = 8
dataset$ = 16
?setDataset@?$CompiledVm@U?$AlignedAllocator@$0EA@@randomx@@$0A@$0A@@randomx@@UEAAXPEAUrandomx_dataset@@@Z PROC ; randomx::CompiledVm<randomx::AlignedAllocator<64>,0,0>::setDataset, COMDAT
; File D:\dev\francium_network\francium_agent\src\ext\randomx\repo\src\vm_compiled.cpp
; Line 46
	mov	QWORD PTR [rcx+2552], rdx
; Line 47
	ret	0
?setDataset@?$CompiledVm@U?$AlignedAllocator@$0EA@@randomx@@$0A@$0A@@randomx@@UEAAXPEAUrandomx_dataset@@@Z ENDP ; randomx::CompiledVm<randomx::AlignedAllocator<64>,0,0>::setDataset
_TEXT	ENDS
; Function compile flags: /Ogtpy
;	COMDAT ?run@?$CompiledVm@U?$AlignedAllocator@$0EA@@randomx@@$0A@$0A@@randomx@@UEAAXPEAX@Z
_TEXT	SEGMENT
this$ = 48
seed$ = 56
?run@?$CompiledVm@U?$AlignedAllocator@$0EA@@randomx@@$0A@$0A@@randomx@@UEAAXPEAX@Z PROC ; randomx::CompiledVm<randomx::AlignedAllocator<64>,0,0>::run, COMDAT
; File D:\dev\francium_network\francium_agent\src\ext\randomx\repo\src\vm_compiled.cpp
; Line 50
$LN12:
	mov	QWORD PTR [rsp+8], rbx
	mov	QWORD PTR [rsp+16], rbp
	mov	QWORD PTR [rsp+24], rsi
	push	rdi
	sub	rsp, 32					; 00000020H
	mov	rbp, rcx
; File D:\dev\francium_network\francium_agent\src\ext\randomx\repo\src\virtual_machine.cpp
; Line 136
	lea	r8, QWORD PTR [rcx+64]
	mov	rcx, rdx
	call	??$fillAes4Rx4@$0A@@@YAXPEAX_K0@Z	; fillAes4Rx4<0>
; File D:\dev\francium_network\francium_agent\src\ext\randomx\repo\src\vm_compiled.cpp
; Line 52
	mov	rcx, rbp
	call	?initialize@randomx_vm@@IEAAXXZ		; randomx_vm::initialize
; Line 56
	lea	rsi, QWORD PTR [rbp+2688]
; File D:\dev\francium_network\francium_agent\src\ext\randomx\repo\src\jit_compiler_x86.cpp
; Line 249
	mov	rcx, rsi
	lea	r8, QWORD PTR [rbp+2496]
	lea	rdx, QWORD PTR [rbp+64]
	call	?generateProgramPrologue@JitCompilerX86@randomx@@AEAAXAEAVProgram@2@AEAUProgramConfiguration@2@@Z ; randomx::JitCompilerX86::generateProgramPrologue
; Line 250
	movsxd	rcx, DWORD PTR [rsi+64]
	lea	rdx, OFFSET FLAT:randomx_program_read_dataset
	movsxd	rbx, DWORD PTR ?readDatasetSize@randomx@@3HB
	add	rcx, QWORD PTR [rsi+56]
	mov	r8, rbx
	call	memcpy
; Line 251
	add	DWORD PTR [rsi+64], ebx
; Line 252
	lea	r8, QWORD PTR [rbp+2496]
	mov	rcx, rsi
	call	?generateProgramEpilogue@JitCompilerX86@randomx@@AEAAXAEAVProgram@2@AEAUProgramConfiguration@2@@Z ; randomx::JitCompilerX86::generateProgramEpilogue
; File D:\dev\francium_network\francium_agent\src\ext\randomx\repo\src\vm_compiled.cpp
; Line 60
	mov	rax, QWORD PTR [rbp+2552]
; Line 69
	lea	rdx, QWORD PTR [rbp+2528]
	mov	r8, QWORD PTR [rbp+2544]
	mov	r9d, 2048				; 00000800H
; Line 60
	mov	rcx, QWORD PTR [rax]
	add	rcx, QWORD PTR [rbp+2560]
	mov	QWORD PTR [rbp+2536], rcx
; Line 69
	lea	rcx, QWORD PTR [rbp+2240]
	mov	rax, QWORD PTR [rbp+2744]
; Line 62
	mov	rbx, QWORD PTR [rsp+48]
	mov	rbp, QWORD PTR [rsp+56]
	mov	rsi, QWORD PTR [rsp+64]
	add	rsp, 32					; 00000020H
	pop	rdi
; Line 69
	rex_jmp	rax
?run@?$CompiledVm@U?$AlignedAllocator@$0EA@@randomx@@$0A@$0A@@randomx@@UEAAXPEAX@Z ENDP ; randomx::CompiledVm<randomx::AlignedAllocator<64>,0,0>::run
_TEXT	ENDS
; Function compile flags: /Ogtpy
;	COMDAT ?setDataset@?$CompiledVm@ULargePageAllocator@randomx@@$00$0A@@randomx@@UEAAXPEAUrandomx_dataset@@@Z
_TEXT	SEGMENT
this$ = 8
dataset$ = 16
?setDataset@?$CompiledVm@ULargePageAllocator@randomx@@$00$0A@@randomx@@UEAAXPEAUrandomx_dataset@@@Z PROC ; randomx::CompiledVm<randomx::LargePageAllocator,1,0>::setDataset, COMDAT
; File D:\dev\francium_network\francium_agent\src\ext\randomx\repo\src\vm_compiled.cpp
; Line 46
	mov	QWORD PTR [rcx+2552], rdx
; Line 47
	ret	0
?setDataset@?$CompiledVm@ULargePageAllocator@randomx@@$00$0A@@randomx@@UEAAXPEAUrandomx_dataset@@@Z ENDP ; randomx::CompiledVm<randomx::LargePageAllocator,1,0>::setDataset
_TEXT	ENDS
; Function compile flags: /Ogtpy
;	COMDAT ?run@?$CompiledVm@ULargePageAllocator@randomx@@$00$0A@@randomx@@UEAAXPEAX@Z
_TEXT	SEGMENT
this$ = 48
seed$ = 56
?run@?$CompiledVm@ULargePageAllocator@randomx@@$00$0A@@randomx@@UEAAXPEAX@Z PROC ; randomx::CompiledVm<randomx::LargePageAllocator,1,0>::run, COMDAT
; File D:\dev\francium_network\francium_agent\src\ext\randomx\repo\src\vm_compiled.cpp
; Line 50
$LN12:
	mov	QWORD PTR [rsp+8], rbx
	mov	QWORD PTR [rsp+16], rbp
	mov	QWORD PTR [rsp+24], rsi
	push	rdi
	sub	rsp, 32					; 00000020H
	mov	rbp, rcx
; File D:\dev\francium_network\francium_agent\src\ext\randomx\repo\src\virtual_machine.cpp
; Line 136
	lea	r8, QWORD PTR [rcx+64]
	mov	rcx, rdx
	call	??$fillAes4Rx4@$00@@YAXPEAX_K0@Z	; fillAes4Rx4<1>
; File D:\dev\francium_network\francium_agent\src\ext\randomx\repo\src\vm_compiled.cpp
; Line 52
	mov	rcx, rbp
	call	?initialize@randomx_vm@@IEAAXXZ		; randomx_vm::initialize
; Line 56
	lea	rsi, QWORD PTR [rbp+2688]
; File D:\dev\francium_network\francium_agent\src\ext\randomx\repo\src\jit_compiler_x86.cpp
; Line 249
	mov	rcx, rsi
	lea	r8, QWORD PTR [rbp+2496]
	lea	rdx, QWORD PTR [rbp+64]
	call	?generateProgramPrologue@JitCompilerX86@randomx@@AEAAXAEAVProgram@2@AEAUProgramConfiguration@2@@Z ; randomx::JitCompilerX86::generateProgramPrologue
; Line 250
	movsxd	rcx, DWORD PTR [rsi+64]
	lea	rdx, OFFSET FLAT:randomx_program_read_dataset
	movsxd	rbx, DWORD PTR ?readDatasetSize@randomx@@3HB
	add	rcx, QWORD PTR [rsi+56]
	mov	r8, rbx
	call	memcpy
; Line 251
	add	DWORD PTR [rsi+64], ebx
; Line 252
	lea	r8, QWORD PTR [rbp+2496]
	mov	rcx, rsi
	call	?generateProgramEpilogue@JitCompilerX86@randomx@@AEAAXAEAVProgram@2@AEAUProgramConfiguration@2@@Z ; randomx::JitCompilerX86::generateProgramEpilogue
; File D:\dev\francium_network\francium_agent\src\ext\randomx\repo\src\vm_compiled.cpp
; Line 60
	mov	rax, QWORD PTR [rbp+2552]
; Line 69
	lea	rdx, QWORD PTR [rbp+2528]
	mov	r8, QWORD PTR [rbp+2544]
	mov	r9d, 2048				; 00000800H
; Line 60
	mov	rcx, QWORD PTR [rax]
	add	rcx, QWORD PTR [rbp+2560]
	mov	QWORD PTR [rbp+2536], rcx
; Line 69
	lea	rcx, QWORD PTR [rbp+2240]
	mov	rax, QWORD PTR [rbp+2744]
; Line 62
	mov	rbx, QWORD PTR [rsp+48]
	mov	rbp, QWORD PTR [rsp+56]
	mov	rsi, QWORD PTR [rsp+64]
	add	rsp, 32					; 00000020H
	pop	rdi
; Line 69
	rex_jmp	rax
?run@?$CompiledVm@ULargePageAllocator@randomx@@$00$0A@@randomx@@UEAAXPEAX@Z ENDP ; randomx::CompiledVm<randomx::LargePageAllocator,1,0>::run
_TEXT	ENDS
; Function compile flags: /Ogtpy
;	COMDAT ?setDataset@?$CompiledVm@ULargePageAllocator@randomx@@$0A@$0A@@randomx@@UEAAXPEAUrandomx_dataset@@@Z
_TEXT	SEGMENT
this$ = 8
dataset$ = 16
?setDataset@?$CompiledVm@ULargePageAllocator@randomx@@$0A@$0A@@randomx@@UEAAXPEAUrandomx_dataset@@@Z PROC ; randomx::CompiledVm<randomx::LargePageAllocator,0,0>::setDataset, COMDAT
; File D:\dev\francium_network\francium_agent\src\ext\randomx\repo\src\vm_compiled.cpp
; Line 46
	mov	QWORD PTR [rcx+2552], rdx
; Line 47
	ret	0
?setDataset@?$CompiledVm@ULargePageAllocator@randomx@@$0A@$0A@@randomx@@UEAAXPEAUrandomx_dataset@@@Z ENDP ; randomx::CompiledVm<randomx::LargePageAllocator,0,0>::setDataset
_TEXT	ENDS
; Function compile flags: /Ogtpy
;	COMDAT ?run@?$CompiledVm@ULargePageAllocator@randomx@@$0A@$0A@@randomx@@UEAAXPEAX@Z
_TEXT	SEGMENT
this$ = 48
seed$ = 56
?run@?$CompiledVm@ULargePageAllocator@randomx@@$0A@$0A@@randomx@@UEAAXPEAX@Z PROC ; randomx::CompiledVm<randomx::LargePageAllocator,0,0>::run, COMDAT
; File D:\dev\francium_network\francium_agent\src\ext\randomx\repo\src\vm_compiled.cpp
; Line 50
$LN12:
	mov	QWORD PTR [rsp+8], rbx
	mov	QWORD PTR [rsp+16], rbp
	mov	QWORD PTR [rsp+24], rsi
	push	rdi
	sub	rsp, 32					; 00000020H
	mov	rbp, rcx
; File D:\dev\francium_network\francium_agent\src\ext\randomx\repo\src\virtual_machine.cpp
; Line 136
	lea	r8, QWORD PTR [rcx+64]
	mov	rcx, rdx
	call	??$fillAes4Rx4@$0A@@@YAXPEAX_K0@Z	; fillAes4Rx4<0>
; File D:\dev\francium_network\francium_agent\src\ext\randomx\repo\src\vm_compiled.cpp
; Line 52
	mov	rcx, rbp
	call	?initialize@randomx_vm@@IEAAXXZ		; randomx_vm::initialize
; Line 56
	lea	rsi, QWORD PTR [rbp+2688]
; File D:\dev\francium_network\francium_agent\src\ext\randomx\repo\src\jit_compiler_x86.cpp
; Line 249
	mov	rcx, rsi
	lea	r8, QWORD PTR [rbp+2496]
	lea	rdx, QWORD PTR [rbp+64]
	call	?generateProgramPrologue@JitCompilerX86@randomx@@AEAAXAEAVProgram@2@AEAUProgramConfiguration@2@@Z ; randomx::JitCompilerX86::generateProgramPrologue
; Line 250
	movsxd	rcx, DWORD PTR [rsi+64]
	lea	rdx, OFFSET FLAT:randomx_program_read_dataset
	movsxd	rbx, DWORD PTR ?readDatasetSize@randomx@@3HB
	add	rcx, QWORD PTR [rsi+56]
	mov	r8, rbx
	call	memcpy
; Line 251
	add	DWORD PTR [rsi+64], ebx
; Line 252
	lea	r8, QWORD PTR [rbp+2496]
	mov	rcx, rsi
	call	?generateProgramEpilogue@JitCompilerX86@randomx@@AEAAXAEAVProgram@2@AEAUProgramConfiguration@2@@Z ; randomx::JitCompilerX86::generateProgramEpilogue
; File D:\dev\francium_network\francium_agent\src\ext\randomx\repo\src\vm_compiled.cpp
; Line 60
	mov	rax, QWORD PTR [rbp+2552]
; Line 69
	lea	rdx, QWORD PTR [rbp+2528]
	mov	r8, QWORD PTR [rbp+2544]
	mov	r9d, 2048				; 00000800H
; Line 60
	mov	rcx, QWORD PTR [rax]
	add	rcx, QWORD PTR [rbp+2560]
	mov	QWORD PTR [rbp+2536], rcx
; Line 69
	lea	rcx, QWORD PTR [rbp+2240]
	mov	rax, QWORD PTR [rbp+2744]
; Line 62
	mov	rbx, QWORD PTR [rsp+48]
	mov	rbp, QWORD PTR [rsp+56]
	mov	rsi, QWORD PTR [rsp+64]
	add	rsp, 32					; 00000020H
	pop	rdi
; Line 69
	rex_jmp	rax
?run@?$CompiledVm@ULargePageAllocator@randomx@@$0A@$0A@@randomx@@UEAAXPEAX@Z ENDP ; randomx::CompiledVm<randomx::LargePageAllocator,0,0>::run
_TEXT	ENDS
; Function compile flags: /Ogtpy
;	COMDAT ?setDataset@?$CompiledVm@U?$AlignedAllocator@$0EA@@randomx@@$00$00@randomx@@UEAAXPEAUrandomx_dataset@@@Z
_TEXT	SEGMENT
this$ = 8
dataset$ = 16
?setDataset@?$CompiledVm@U?$AlignedAllocator@$0EA@@randomx@@$00$00@randomx@@UEAAXPEAUrandomx_dataset@@@Z PROC ; randomx::CompiledVm<randomx::AlignedAllocator<64>,1,1>::setDataset, COMDAT
; File D:\dev\francium_network\francium_agent\src\ext\randomx\repo\src\vm_compiled.cpp
; Line 46
	mov	QWORD PTR [rcx+2552], rdx
; Line 47
	ret	0
?setDataset@?$CompiledVm@U?$AlignedAllocator@$0EA@@randomx@@$00$00@randomx@@UEAAXPEAUrandomx_dataset@@@Z ENDP ; randomx::CompiledVm<randomx::AlignedAllocator<64>,1,1>::setDataset
_TEXT	ENDS
; Function compile flags: /Ogtpy
;	COMDAT ?run@?$CompiledVm@U?$AlignedAllocator@$0EA@@randomx@@$00$00@randomx@@UEAAXPEAX@Z
_TEXT	SEGMENT
this$ = 48
seed$ = 56
?run@?$CompiledVm@U?$AlignedAllocator@$0EA@@randomx@@$00$00@randomx@@UEAAXPEAX@Z PROC ; randomx::CompiledVm<randomx::AlignedAllocator<64>,1,1>::run, COMDAT
; File D:\dev\francium_network\francium_agent\src\ext\randomx\repo\src\vm_compiled.cpp
; Line 50
$LN12:
	mov	QWORD PTR [rsp+8], rbx
	mov	QWORD PTR [rsp+16], rbp
	mov	QWORD PTR [rsp+24], rsi
	push	rdi
	sub	rsp, 32					; 00000020H
	mov	rbp, rcx
; File D:\dev\francium_network\francium_agent\src\ext\randomx\repo\src\virtual_machine.cpp
; Line 136
	lea	r8, QWORD PTR [rcx+64]
	mov	rcx, rdx
	call	??$fillAes4Rx4@$00@@YAXPEAX_K0@Z	; fillAes4Rx4<1>
; File D:\dev\francium_network\francium_agent\src\ext\randomx\repo\src\vm_compiled.cpp
; Line 52
	mov	rcx, rbp
	call	?initialize@randomx_vm@@IEAAXXZ		; randomx_vm::initialize
; Line 54
	lea	rsi, QWORD PTR [rbp+2688]
	mov	rcx, rsi
	call	?enableWriting@JitCompilerX86@randomx@@QEAAXXZ ; randomx::JitCompilerX86::enableWriting
; File D:\dev\francium_network\francium_agent\src\ext\randomx\repo\src\jit_compiler_x86.cpp
; Line 249
	lea	r8, QWORD PTR [rbp+2496]
	mov	rcx, rsi
	lea	rdx, QWORD PTR [rbp+64]
	call	?generateProgramPrologue@JitCompilerX86@randomx@@AEAAXAEAVProgram@2@AEAUProgramConfiguration@2@@Z ; randomx::JitCompilerX86::generateProgramPrologue
; Line 250
	movsxd	rcx, DWORD PTR [rsi+64]
	lea	rdx, OFFSET FLAT:randomx_program_read_dataset
	movsxd	rbx, DWORD PTR ?readDatasetSize@randomx@@3HB
	add	rcx, QWORD PTR [rsi+56]
	mov	r8, rbx
	call	memcpy
; Line 251
	add	DWORD PTR [rsi+64], ebx
; Line 252
	lea	r8, QWORD PTR [rbp+2496]
	mov	rcx, rsi
	call	?generateProgramEpilogue@JitCompilerX86@randomx@@AEAAXAEAVProgram@2@AEAUProgramConfiguration@2@@Z ; randomx::JitCompilerX86::generateProgramEpilogue
; File D:\dev\francium_network\francium_agent\src\ext\randomx\repo\src\vm_compiled.cpp
; Line 58
	mov	rcx, rsi
	call	?enableExecution@JitCompilerX86@randomx@@QEAAXXZ ; randomx::JitCompilerX86::enableExecution
; Line 60
	mov	rax, QWORD PTR [rbp+2552]
; Line 69
	lea	rdx, QWORD PTR [rbp+2528]
	mov	r8, QWORD PTR [rbp+2544]
	mov	r9d, 2048				; 00000800H
; Line 60
	mov	rcx, QWORD PTR [rax]
	add	rcx, QWORD PTR [rbp+2560]
	mov	QWORD PTR [rbp+2536], rcx
; Line 69
	lea	rcx, QWORD PTR [rbp+2240]
	mov	rax, QWORD PTR [rbp+2744]
; Line 62
	mov	rbx, QWORD PTR [rsp+48]
	mov	rbp, QWORD PTR [rsp+56]
	mov	rsi, QWORD PTR [rsp+64]
	add	rsp, 32					; 00000020H
	pop	rdi
; Line 69
	rex_jmp	rax
?run@?$CompiledVm@U?$AlignedAllocator@$0EA@@randomx@@$00$00@randomx@@UEAAXPEAX@Z ENDP ; randomx::CompiledVm<randomx::AlignedAllocator<64>,1,1>::run
_TEXT	ENDS
; Function compile flags: /Ogtpy
;	COMDAT ?setDataset@?$CompiledVm@U?$AlignedAllocator@$0EA@@randomx@@$0A@$00@randomx@@UEAAXPEAUrandomx_dataset@@@Z
_TEXT	SEGMENT
this$ = 8
dataset$ = 16
?setDataset@?$CompiledVm@U?$AlignedAllocator@$0EA@@randomx@@$0A@$00@randomx@@UEAAXPEAUrandomx_dataset@@@Z PROC ; randomx::CompiledVm<randomx::AlignedAllocator<64>,0,1>::setDataset, COMDAT
; File D:\dev\francium_network\francium_agent\src\ext\randomx\repo\src\vm_compiled.cpp
; Line 46
	mov	QWORD PTR [rcx+2552], rdx
; Line 47
	ret	0
?setDataset@?$CompiledVm@U?$AlignedAllocator@$0EA@@randomx@@$0A@$00@randomx@@UEAAXPEAUrandomx_dataset@@@Z ENDP ; randomx::CompiledVm<randomx::AlignedAllocator<64>,0,1>::setDataset
_TEXT	ENDS
; Function compile flags: /Ogtpy
;	COMDAT ?run@?$CompiledVm@U?$AlignedAllocator@$0EA@@randomx@@$0A@$00@randomx@@UEAAXPEAX@Z
_TEXT	SEGMENT
this$ = 48
seed$ = 56
?run@?$CompiledVm@U?$AlignedAllocator@$0EA@@randomx@@$0A@$00@randomx@@UEAAXPEAX@Z PROC ; randomx::CompiledVm<randomx::AlignedAllocator<64>,0,1>::run, COMDAT
; File D:\dev\francium_network\francium_agent\src\ext\randomx\repo\src\vm_compiled.cpp
; Line 50
$LN12:
	mov	QWORD PTR [rsp+8], rbx
	mov	QWORD PTR [rsp+16], rbp
	mov	QWORD PTR [rsp+24], rsi
	push	rdi
	sub	rsp, 32					; 00000020H
	mov	rbp, rcx
; File D:\dev\francium_network\francium_agent\src\ext\randomx\repo\src\virtual_machine.cpp
; Line 136
	lea	r8, QWORD PTR [rcx+64]
	mov	rcx, rdx
	call	??$fillAes4Rx4@$0A@@@YAXPEAX_K0@Z	; fillAes4Rx4<0>
; File D:\dev\francium_network\francium_agent\src\ext\randomx\repo\src\vm_compiled.cpp
; Line 52
	mov	rcx, rbp
	call	?initialize@randomx_vm@@IEAAXXZ		; randomx_vm::initialize
; Line 54
	lea	rsi, QWORD PTR [rbp+2688]
	mov	rcx, rsi
	call	?enableWriting@JitCompilerX86@randomx@@QEAAXXZ ; randomx::JitCompilerX86::enableWriting
; File D:\dev\francium_network\francium_agent\src\ext\randomx\repo\src\jit_compiler_x86.cpp
; Line 249
	lea	r8, QWORD PTR [rbp+2496]
	mov	rcx, rsi
	lea	rdx, QWORD PTR [rbp+64]
	call	?generateProgramPrologue@JitCompilerX86@randomx@@AEAAXAEAVProgram@2@AEAUProgramConfiguration@2@@Z ; randomx::JitCompilerX86::generateProgramPrologue
; Line 250
	movsxd	rcx, DWORD PTR [rsi+64]
	lea	rdx, OFFSET FLAT:randomx_program_read_dataset
	movsxd	rbx, DWORD PTR ?readDatasetSize@randomx@@3HB
	add	rcx, QWORD PTR [rsi+56]
	mov	r8, rbx
	call	memcpy
; Line 251
	add	DWORD PTR [rsi+64], ebx
; Line 252
	lea	r8, QWORD PTR [rbp+2496]
	mov	rcx, rsi
	call	?generateProgramEpilogue@JitCompilerX86@randomx@@AEAAXAEAVProgram@2@AEAUProgramConfiguration@2@@Z ; randomx::JitCompilerX86::generateProgramEpilogue
; File D:\dev\francium_network\francium_agent\src\ext\randomx\repo\src\vm_compiled.cpp
; Line 58
	mov	rcx, rsi
	call	?enableExecution@JitCompilerX86@randomx@@QEAAXXZ ; randomx::JitCompilerX86::enableExecution
; Line 60
	mov	rax, QWORD PTR [rbp+2552]
; Line 69
	lea	rdx, QWORD PTR [rbp+2528]
	mov	r8, QWORD PTR [rbp+2544]
	mov	r9d, 2048				; 00000800H
; Line 60
	mov	rcx, QWORD PTR [rax]
	add	rcx, QWORD PTR [rbp+2560]
	mov	QWORD PTR [rbp+2536], rcx
; Line 69
	lea	rcx, QWORD PTR [rbp+2240]
	mov	rax, QWORD PTR [rbp+2744]
; Line 62
	mov	rbx, QWORD PTR [rsp+48]
	mov	rbp, QWORD PTR [rsp+56]
	mov	rsi, QWORD PTR [rsp+64]
	add	rsp, 32					; 00000020H
	pop	rdi
; Line 69
	rex_jmp	rax
?run@?$CompiledVm@U?$AlignedAllocator@$0EA@@randomx@@$0A@$00@randomx@@UEAAXPEAX@Z ENDP ; randomx::CompiledVm<randomx::AlignedAllocator<64>,0,1>::run
_TEXT	ENDS
; Function compile flags: /Ogtpy
;	COMDAT ?setDataset@?$CompiledVm@ULargePageAllocator@randomx@@$00$00@randomx@@UEAAXPEAUrandomx_dataset@@@Z
_TEXT	SEGMENT
this$ = 8
dataset$ = 16
?setDataset@?$CompiledVm@ULargePageAllocator@randomx@@$00$00@randomx@@UEAAXPEAUrandomx_dataset@@@Z PROC ; randomx::CompiledVm<randomx::LargePageAllocator,1,1>::setDataset, COMDAT
; File D:\dev\francium_network\francium_agent\src\ext\randomx\repo\src\vm_compiled.cpp
; Line 46
	mov	QWORD PTR [rcx+2552], rdx
; Line 47
	ret	0
?setDataset@?$CompiledVm@ULargePageAllocator@randomx@@$00$00@randomx@@UEAAXPEAUrandomx_dataset@@@Z ENDP ; randomx::CompiledVm<randomx::LargePageAllocator,1,1>::setDataset
_TEXT	ENDS
; Function compile flags: /Ogtpy
;	COMDAT ?run@?$CompiledVm@ULargePageAllocator@randomx@@$00$00@randomx@@UEAAXPEAX@Z
_TEXT	SEGMENT
this$ = 48
seed$ = 56
?run@?$CompiledVm@ULargePageAllocator@randomx@@$00$00@randomx@@UEAAXPEAX@Z PROC ; randomx::CompiledVm<randomx::LargePageAllocator,1,1>::run, COMDAT
; File D:\dev\francium_network\francium_agent\src\ext\randomx\repo\src\vm_compiled.cpp
; Line 50
$LN12:
	mov	QWORD PTR [rsp+8], rbx
	mov	QWORD PTR [rsp+16], rbp
	mov	QWORD PTR [rsp+24], rsi
	push	rdi
	sub	rsp, 32					; 00000020H
	mov	rbp, rcx
; File D:\dev\francium_network\francium_agent\src\ext\randomx\repo\src\virtual_machine.cpp
; Line 136
	lea	r8, QWORD PTR [rcx+64]
	mov	rcx, rdx
	call	??$fillAes4Rx4@$00@@YAXPEAX_K0@Z	; fillAes4Rx4<1>
; File D:\dev\francium_network\francium_agent\src\ext\randomx\repo\src\vm_compiled.cpp
; Line 52
	mov	rcx, rbp
	call	?initialize@randomx_vm@@IEAAXXZ		; randomx_vm::initialize
; Line 54
	lea	rsi, QWORD PTR [rbp+2688]
	mov	rcx, rsi
	call	?enableWriting@JitCompilerX86@randomx@@QEAAXXZ ; randomx::JitCompilerX86::enableWriting
; File D:\dev\francium_network\francium_agent\src\ext\randomx\repo\src\jit_compiler_x86.cpp
; Line 249
	lea	r8, QWORD PTR [rbp+2496]
	mov	rcx, rsi
	lea	rdx, QWORD PTR [rbp+64]
	call	?generateProgramPrologue@JitCompilerX86@randomx@@AEAAXAEAVProgram@2@AEAUProgramConfiguration@2@@Z ; randomx::JitCompilerX86::generateProgramPrologue
; Line 250
	movsxd	rcx, DWORD PTR [rsi+64]
	lea	rdx, OFFSET FLAT:randomx_program_read_dataset
	movsxd	rbx, DWORD PTR ?readDatasetSize@randomx@@3HB
	add	rcx, QWORD PTR [rsi+56]
	mov	r8, rbx
	call	memcpy
; Line 251
	add	DWORD PTR [rsi+64], ebx
; Line 252
	lea	r8, QWORD PTR [rbp+2496]
	mov	rcx, rsi
	call	?generateProgramEpilogue@JitCompilerX86@randomx@@AEAAXAEAVProgram@2@AEAUProgramConfiguration@2@@Z ; randomx::JitCompilerX86::generateProgramEpilogue
; File D:\dev\francium_network\francium_agent\src\ext\randomx\repo\src\vm_compiled.cpp
; Line 58
	mov	rcx, rsi
	call	?enableExecution@JitCompilerX86@randomx@@QEAAXXZ ; randomx::JitCompilerX86::enableExecution
; Line 60
	mov	rax, QWORD PTR [rbp+2552]
; Line 69
	lea	rdx, QWORD PTR [rbp+2528]
	mov	r8, QWORD PTR [rbp+2544]
	mov	r9d, 2048				; 00000800H
; Line 60
	mov	rcx, QWORD PTR [rax]
	add	rcx, QWORD PTR [rbp+2560]
	mov	QWORD PTR [rbp+2536], rcx
; Line 69
	lea	rcx, QWORD PTR [rbp+2240]
	mov	rax, QWORD PTR [rbp+2744]
; Line 62
	mov	rbx, QWORD PTR [rsp+48]
	mov	rbp, QWORD PTR [rsp+56]
	mov	rsi, QWORD PTR [rsp+64]
	add	rsp, 32					; 00000020H
	pop	rdi
; Line 69
	rex_jmp	rax
?run@?$CompiledVm@ULargePageAllocator@randomx@@$00$00@randomx@@UEAAXPEAX@Z ENDP ; randomx::CompiledVm<randomx::LargePageAllocator,1,1>::run
_TEXT	ENDS
; Function compile flags: /Ogtpy
;	COMDAT ?setDataset@?$CompiledVm@ULargePageAllocator@randomx@@$0A@$00@randomx@@UEAAXPEAUrandomx_dataset@@@Z
_TEXT	SEGMENT
this$ = 8
dataset$ = 16
?setDataset@?$CompiledVm@ULargePageAllocator@randomx@@$0A@$00@randomx@@UEAAXPEAUrandomx_dataset@@@Z PROC ; randomx::CompiledVm<randomx::LargePageAllocator,0,1>::setDataset, COMDAT
; File D:\dev\francium_network\francium_agent\src\ext\randomx\repo\src\vm_compiled.cpp
; Line 46
	mov	QWORD PTR [rcx+2552], rdx
; Line 47
	ret	0
?setDataset@?$CompiledVm@ULargePageAllocator@randomx@@$0A@$00@randomx@@UEAAXPEAUrandomx_dataset@@@Z ENDP ; randomx::CompiledVm<randomx::LargePageAllocator,0,1>::setDataset
_TEXT	ENDS
; Function compile flags: /Ogtpy
;	COMDAT ?run@?$CompiledVm@ULargePageAllocator@randomx@@$0A@$00@randomx@@UEAAXPEAX@Z
_TEXT	SEGMENT
this$ = 48
seed$ = 56
?run@?$CompiledVm@ULargePageAllocator@randomx@@$0A@$00@randomx@@UEAAXPEAX@Z PROC ; randomx::CompiledVm<randomx::LargePageAllocator,0,1>::run, COMDAT
; File D:\dev\francium_network\francium_agent\src\ext\randomx\repo\src\vm_compiled.cpp
; Line 50
$LN12:
	mov	QWORD PTR [rsp+8], rbx
	mov	QWORD PTR [rsp+16], rbp
	mov	QWORD PTR [rsp+24], rsi
	push	rdi
	sub	rsp, 32					; 00000020H
	mov	rbp, rcx
; File D:\dev\francium_network\francium_agent\src\ext\randomx\repo\src\virtual_machine.cpp
; Line 136
	lea	r8, QWORD PTR [rcx+64]
	mov	rcx, rdx
	call	??$fillAes4Rx4@$0A@@@YAXPEAX_K0@Z	; fillAes4Rx4<0>
; File D:\dev\francium_network\francium_agent\src\ext\randomx\repo\src\vm_compiled.cpp
; Line 52
	mov	rcx, rbp
	call	?initialize@randomx_vm@@IEAAXXZ		; randomx_vm::initialize
; Line 54
	lea	rsi, QWORD PTR [rbp+2688]
	mov	rcx, rsi
	call	?enableWriting@JitCompilerX86@randomx@@QEAAXXZ ; randomx::JitCompilerX86::enableWriting
; File D:\dev\francium_network\francium_agent\src\ext\randomx\repo\src\jit_compiler_x86.cpp
; Line 249
	lea	r8, QWORD PTR [rbp+2496]
	mov	rcx, rsi
	lea	rdx, QWORD PTR [rbp+64]
	call	?generateProgramPrologue@JitCompilerX86@randomx@@AEAAXAEAVProgram@2@AEAUProgramConfiguration@2@@Z ; randomx::JitCompilerX86::generateProgramPrologue
; Line 250
	movsxd	rcx, DWORD PTR [rsi+64]
	lea	rdx, OFFSET FLAT:randomx_program_read_dataset
	movsxd	rbx, DWORD PTR ?readDatasetSize@randomx@@3HB
	add	rcx, QWORD PTR [rsi+56]
	mov	r8, rbx
	call	memcpy
; Line 251
	add	DWORD PTR [rsi+64], ebx
; Line 252
	lea	r8, QWORD PTR [rbp+2496]
	mov	rcx, rsi
	call	?generateProgramEpilogue@JitCompilerX86@randomx@@AEAAXAEAVProgram@2@AEAUProgramConfiguration@2@@Z ; randomx::JitCompilerX86::generateProgramEpilogue
; File D:\dev\francium_network\francium_agent\src\ext\randomx\repo\src\vm_compiled.cpp
; Line 58
	mov	rcx, rsi
	call	?enableExecution@JitCompilerX86@randomx@@QEAAXXZ ; randomx::JitCompilerX86::enableExecution
; Line 60
	mov	rax, QWORD PTR [rbp+2552]
; Line 69
	lea	rdx, QWORD PTR [rbp+2528]
	mov	r8, QWORD PTR [rbp+2544]
	mov	r9d, 2048				; 00000800H
; Line 60
	mov	rcx, QWORD PTR [rax]
	add	rcx, QWORD PTR [rbp+2560]
	mov	QWORD PTR [rbp+2536], rcx
; Line 69
	lea	rcx, QWORD PTR [rbp+2240]
	mov	rax, QWORD PTR [rbp+2744]
; Line 62
	mov	rbx, QWORD PTR [rsp+48]
	mov	rbp, QWORD PTR [rsp+56]
	mov	rsi, QWORD PTR [rsp+64]
	add	rsp, 32					; 00000020H
	pop	rdi
; Line 69
	rex_jmp	rax
?run@?$CompiledVm@ULargePageAllocator@randomx@@$0A@$00@randomx@@UEAAXPEAX@Z ENDP ; randomx::CompiledVm<randomx::LargePageAllocator,0,1>::run
_TEXT	ENDS
; Function compile flags: /Ogtpy
;	COMDAT ??_G?$CompiledVm@U?$AlignedAllocator@$0EA@@randomx@@$00$0A@@randomx@@UEAAPEAXI@Z
_TEXT	SEGMENT
this$ = 48
__flags$ = 56
??_G?$CompiledVm@U?$AlignedAllocator@$0EA@@randomx@@$00$0A@@randomx@@UEAAPEAXI@Z PROC ; randomx::CompiledVm<randomx::AlignedAllocator<64>,1,0>::`scalar deleting destructor', COMDAT
$LN22:
	mov	QWORD PTR [rsp+8], rbx
	push	rdi
	sub	rsp, 32					; 00000020H
	mov	rbx, rcx
	mov	edi, edx
	add	rcx, 2688				; 00000a80H
	call	??1JitCompilerX86@randomx@@QEAA@XZ	; randomx::JitCompilerX86::~JitCompilerX86
; File D:\dev\francium_network\francium_agent\src\ext\randomx\repo\src\allocator.cpp
; Line 47
	mov	rcx, QWORD PTR [rbx+2544]
; File D:\dev\francium_network\francium_agent\src\ext\randomx\repo\src\virtual_machine.cpp
; Line 101
	lea	rax, OFFSET FLAT:??_7?$VmBase@U?$AlignedAllocator@$0EA@@randomx@@$00@randomx@@6B@
	mov	QWORD PTR [rbx], rax
; File D:\dev\francium_network\francium_agent\src\ext\randomx\repo\src\allocator.cpp
; Line 47
	call	_aligned_free
; File D:\dev\francium_network\francium_agent\src\ext\randomx\repo\src\virtual_machine.cpp
; Line 103
	mov	rcx, rbx
	call	??1randomx_vm@@UEAA@XZ			; randomx_vm::~randomx_vm
	test	dil, 1
	je	SHORT $LN19@scalar
	mov	rcx, rbx
	test	dil, 4
	jne	SHORT $LN3@scalar
; File D:\dev\francium_network\francium_agent\src\ext\randomx\repo\src\allocator.cpp
; Line 47
	call	_aligned_free
	mov	rax, rbx
	mov	rbx, QWORD PTR [rsp+48]
	add	rsp, 32					; 00000020H
	pop	rdi
	ret	0
$LN3@scalar:
	mov	edx, 2816				; 00000b00H
	call	?__global_delete@@YAXPEAX_K@Z		; __global_delete
$LN19@scalar:
	mov	rax, rbx
	mov	rbx, QWORD PTR [rsp+48]
	add	rsp, 32					; 00000020H
	pop	rdi
	ret	0
??_G?$CompiledVm@U?$AlignedAllocator@$0EA@@randomx@@$00$0A@@randomx@@UEAAPEAXI@Z ENDP ; randomx::CompiledVm<randomx::AlignedAllocator<64>,1,0>::`scalar deleting destructor'
_TEXT	ENDS
; Function compile flags: /Ogtpy
;	COMDAT ??_G?$CompiledVm@U?$AlignedAllocator@$0EA@@randomx@@$0A@$0A@@randomx@@UEAAPEAXI@Z
_TEXT	SEGMENT
this$ = 48
__flags$ = 56
??_G?$CompiledVm@U?$AlignedAllocator@$0EA@@randomx@@$0A@$0A@@randomx@@UEAAPEAXI@Z PROC ; randomx::CompiledVm<randomx::AlignedAllocator<64>,0,0>::`scalar deleting destructor', COMDAT
$LN22:
	mov	QWORD PTR [rsp+8], rbx
	push	rdi
	sub	rsp, 32					; 00000020H
	mov	rbx, rcx
	mov	edi, edx
	add	rcx, 2688				; 00000a80H
	call	??1JitCompilerX86@randomx@@QEAA@XZ	; randomx::JitCompilerX86::~JitCompilerX86
; File D:\dev\francium_network\francium_agent\src\ext\randomx\repo\src\allocator.cpp
; Line 47
	mov	rcx, QWORD PTR [rbx+2544]
; File D:\dev\francium_network\francium_agent\src\ext\randomx\repo\src\virtual_machine.cpp
; Line 101
	lea	rax, OFFSET FLAT:??_7?$VmBase@U?$AlignedAllocator@$0EA@@randomx@@$0A@@randomx@@6B@
	mov	QWORD PTR [rbx], rax
; File D:\dev\francium_network\francium_agent\src\ext\randomx\repo\src\allocator.cpp
; Line 47
	call	_aligned_free
; File D:\dev\francium_network\francium_agent\src\ext\randomx\repo\src\virtual_machine.cpp
; Line 103
	mov	rcx, rbx
	call	??1randomx_vm@@UEAA@XZ			; randomx_vm::~randomx_vm
	test	dil, 1
	je	SHORT $LN19@scalar
	mov	rcx, rbx
	test	dil, 4
	jne	SHORT $LN3@scalar
; File D:\dev\francium_network\francium_agent\src\ext\randomx\repo\src\allocator.cpp
; Line 47
	call	_aligned_free
	mov	rax, rbx
	mov	rbx, QWORD PTR [rsp+48]
	add	rsp, 32					; 00000020H
	pop	rdi
	ret	0
$LN3@scalar:
	mov	edx, 2816				; 00000b00H
	call	?__global_delete@@YAXPEAX_K@Z		; __global_delete
$LN19@scalar:
	mov	rax, rbx
	mov	rbx, QWORD PTR [rsp+48]
	add	rsp, 32					; 00000020H
	pop	rdi
	ret	0
??_G?$CompiledVm@U?$AlignedAllocator@$0EA@@randomx@@$0A@$0A@@randomx@@UEAAPEAXI@Z ENDP ; randomx::CompiledVm<randomx::AlignedAllocator<64>,0,0>::`scalar deleting destructor'
_TEXT	ENDS
; Function compile flags: /Ogtpy
;	COMDAT ??_G?$CompiledVm@ULargePageAllocator@randomx@@$00$0A@@randomx@@UEAAPEAXI@Z
_TEXT	SEGMENT
this$ = 48
__flags$ = 56
??_G?$CompiledVm@ULargePageAllocator@randomx@@$00$0A@@randomx@@UEAAPEAXI@Z PROC ; randomx::CompiledVm<randomx::LargePageAllocator,1,0>::`scalar deleting destructor', COMDAT
$LN24:
	mov	QWORD PTR [rsp+8], rbx
	push	rdi
	sub	rsp, 32					; 00000020H
	mov	rbx, rcx
	mov	edi, edx
	add	rcx, 2688				; 00000a80H
	call	??1JitCompilerX86@randomx@@QEAA@XZ	; randomx::JitCompilerX86::~JitCompilerX86
; File D:\dev\francium_network\francium_agent\src\ext\randomx\repo\src\virtual_memory.cpp
; Line 185
	mov	rcx, QWORD PTR [rbx+2544]
; File D:\dev\francium_network\francium_agent\src\ext\randomx\repo\src\virtual_machine.cpp
; Line 101
	lea	rax, OFFSET FLAT:??_7?$VmBase@ULargePageAllocator@randomx@@$00@randomx@@6B@
; File D:\dev\francium_network\francium_agent\src\ext\randomx\repo\src\virtual_memory.cpp
; Line 185
	xor	edx, edx
; File D:\dev\francium_network\francium_agent\src\ext\randomx\repo\src\virtual_machine.cpp
; Line 101
	mov	QWORD PTR [rbx], rax
; File D:\dev\francium_network\francium_agent\src\ext\randomx\repo\src\virtual_memory.cpp
; Line 185
	mov	r8d, 32768				; 00008000H
	call	QWORD PTR __imp_VirtualFree
; File D:\dev\francium_network\francium_agent\src\ext\randomx\repo\src\virtual_machine.cpp
; Line 103
	mov	rcx, rbx
	call	??1randomx_vm@@UEAA@XZ			; randomx_vm::~randomx_vm
	test	dil, 1
	je	SHORT $LN21@scalar
	mov	rcx, rbx
	test	dil, 4
	jne	SHORT $LN3@scalar
; File D:\dev\francium_network\francium_agent\src\ext\randomx\repo\src\allocator.cpp
; Line 47
	call	_aligned_free
	mov	rax, rbx
	mov	rbx, QWORD PTR [rsp+48]
	add	rsp, 32					; 00000020H
	pop	rdi
	ret	0
$LN3@scalar:
	mov	edx, 2816				; 00000b00H
	call	?__global_delete@@YAXPEAX_K@Z		; __global_delete
$LN21@scalar:
	mov	rax, rbx
	mov	rbx, QWORD PTR [rsp+48]
	add	rsp, 32					; 00000020H
	pop	rdi
	ret	0
??_G?$CompiledVm@ULargePageAllocator@randomx@@$00$0A@@randomx@@UEAAPEAXI@Z ENDP ; randomx::CompiledVm<randomx::LargePageAllocator,1,0>::`scalar deleting destructor'
_TEXT	ENDS
; Function compile flags: /Ogtpy
;	COMDAT ??_G?$CompiledVm@ULargePageAllocator@randomx@@$0A@$0A@@randomx@@UEAAPEAXI@Z
_TEXT	SEGMENT
this$ = 48
__flags$ = 56
??_G?$CompiledVm@ULargePageAllocator@randomx@@$0A@$0A@@randomx@@UEAAPEAXI@Z PROC ; randomx::CompiledVm<randomx::LargePageAllocator,0,0>::`scalar deleting destructor', COMDAT
$LN24:
	mov	QWORD PTR [rsp+8], rbx
	push	rdi
	sub	rsp, 32					; 00000020H
	mov	rbx, rcx
	mov	edi, edx
	add	rcx, 2688				; 00000a80H
	call	??1JitCompilerX86@randomx@@QEAA@XZ	; randomx::JitCompilerX86::~JitCompilerX86
; File D:\dev\francium_network\francium_agent\src\ext\randomx\repo\src\virtual_memory.cpp
; Line 185
	mov	rcx, QWORD PTR [rbx+2544]
; File D:\dev\francium_network\francium_agent\src\ext\randomx\repo\src\virtual_machine.cpp
; Line 101
	lea	rax, OFFSET FLAT:??_7?$VmBase@ULargePageAllocator@randomx@@$0A@@randomx@@6B@
; File D:\dev\francium_network\francium_agent\src\ext\randomx\repo\src\virtual_memory.cpp
; Line 185
	xor	edx, edx
; File D:\dev\francium_network\francium_agent\src\ext\randomx\repo\src\virtual_machine.cpp
; Line 101
	mov	QWORD PTR [rbx], rax
; File D:\dev\francium_network\francium_agent\src\ext\randomx\repo\src\virtual_memory.cpp
; Line 185
	mov	r8d, 32768				; 00008000H
	call	QWORD PTR __imp_VirtualFree
; File D:\dev\francium_network\francium_agent\src\ext\randomx\repo\src\virtual_machine.cpp
; Line 103
	mov	rcx, rbx
	call	??1randomx_vm@@UEAA@XZ			; randomx_vm::~randomx_vm
	test	dil, 1
	je	SHORT $LN21@scalar
	mov	rcx, rbx
	test	dil, 4
	jne	SHORT $LN3@scalar
; File D:\dev\francium_network\francium_agent\src\ext\randomx\repo\src\allocator.cpp
; Line 47
	call	_aligned_free
	mov	rax, rbx
	mov	rbx, QWORD PTR [rsp+48]
	add	rsp, 32					; 00000020H
	pop	rdi
	ret	0
$LN3@scalar:
	mov	edx, 2816				; 00000b00H
	call	?__global_delete@@YAXPEAX_K@Z		; __global_delete
$LN21@scalar:
	mov	rax, rbx
	mov	rbx, QWORD PTR [rsp+48]
	add	rsp, 32					; 00000020H
	pop	rdi
	ret	0
??_G?$CompiledVm@ULargePageAllocator@randomx@@$0A@$0A@@randomx@@UEAAPEAXI@Z ENDP ; randomx::CompiledVm<randomx::LargePageAllocator,0,0>::`scalar deleting destructor'
_TEXT	ENDS
; Function compile flags: /Ogtpy
;	COMDAT ??_G?$CompiledVm@U?$AlignedAllocator@$0EA@@randomx@@$00$00@randomx@@UEAAPEAXI@Z
_TEXT	SEGMENT
this$ = 48
__flags$ = 56
??_G?$CompiledVm@U?$AlignedAllocator@$0EA@@randomx@@$00$00@randomx@@UEAAPEAXI@Z PROC ; randomx::CompiledVm<randomx::AlignedAllocator<64>,1,1>::`scalar deleting destructor', COMDAT
$LN22:
	mov	QWORD PTR [rsp+8], rbx
	push	rdi
	sub	rsp, 32					; 00000020H
	mov	rbx, rcx
	mov	edi, edx
	add	rcx, 2688				; 00000a80H
	call	??1JitCompilerX86@randomx@@QEAA@XZ	; randomx::JitCompilerX86::~JitCompilerX86
; File D:\dev\francium_network\francium_agent\src\ext\randomx\repo\src\allocator.cpp
; Line 47
	mov	rcx, QWORD PTR [rbx+2544]
; File D:\dev\francium_network\francium_agent\src\ext\randomx\repo\src\virtual_machine.cpp
; Line 101
	lea	rax, OFFSET FLAT:??_7?$VmBase@U?$AlignedAllocator@$0EA@@randomx@@$00@randomx@@6B@
	mov	QWORD PTR [rbx], rax
; File D:\dev\francium_network\francium_agent\src\ext\randomx\repo\src\allocator.cpp
; Line 47
	call	_aligned_free
; File D:\dev\francium_network\francium_agent\src\ext\randomx\repo\src\virtual_machine.cpp
; Line 103
	mov	rcx, rbx
	call	??1randomx_vm@@UEAA@XZ			; randomx_vm::~randomx_vm
	test	dil, 1
	je	SHORT $LN19@scalar
	mov	rcx, rbx
	test	dil, 4
	jne	SHORT $LN3@scalar
; File D:\dev\francium_network\francium_agent\src\ext\randomx\repo\src\allocator.cpp
; Line 47
	call	_aligned_free
	mov	rax, rbx
	mov	rbx, QWORD PTR [rsp+48]
	add	rsp, 32					; 00000020H
	pop	rdi
	ret	0
$LN3@scalar:
	mov	edx, 2816				; 00000b00H
	call	?__global_delete@@YAXPEAX_K@Z		; __global_delete
$LN19@scalar:
	mov	rax, rbx
	mov	rbx, QWORD PTR [rsp+48]
	add	rsp, 32					; 00000020H
	pop	rdi
	ret	0
??_G?$CompiledVm@U?$AlignedAllocator@$0EA@@randomx@@$00$00@randomx@@UEAAPEAXI@Z ENDP ; randomx::CompiledVm<randomx::AlignedAllocator<64>,1,1>::`scalar deleting destructor'
_TEXT	ENDS
; Function compile flags: /Ogtpy
;	COMDAT ??_G?$CompiledVm@U?$AlignedAllocator@$0EA@@randomx@@$0A@$00@randomx@@UEAAPEAXI@Z
_TEXT	SEGMENT
this$ = 48
__flags$ = 56
??_G?$CompiledVm@U?$AlignedAllocator@$0EA@@randomx@@$0A@$00@randomx@@UEAAPEAXI@Z PROC ; randomx::CompiledVm<randomx::AlignedAllocator<64>,0,1>::`scalar deleting destructor', COMDAT
$LN22:
	mov	QWORD PTR [rsp+8], rbx
	push	rdi
	sub	rsp, 32					; 00000020H
	mov	rbx, rcx
	mov	edi, edx
	add	rcx, 2688				; 00000a80H
	call	??1JitCompilerX86@randomx@@QEAA@XZ	; randomx::JitCompilerX86::~JitCompilerX86
; File D:\dev\francium_network\francium_agent\src\ext\randomx\repo\src\allocator.cpp
; Line 47
	mov	rcx, QWORD PTR [rbx+2544]
; File D:\dev\francium_network\francium_agent\src\ext\randomx\repo\src\virtual_machine.cpp
; Line 101
	lea	rax, OFFSET FLAT:??_7?$VmBase@U?$AlignedAllocator@$0EA@@randomx@@$0A@@randomx@@6B@
	mov	QWORD PTR [rbx], rax
; File D:\dev\francium_network\francium_agent\src\ext\randomx\repo\src\allocator.cpp
; Line 47
	call	_aligned_free
; File D:\dev\francium_network\francium_agent\src\ext\randomx\repo\src\virtual_machine.cpp
; Line 103
	mov	rcx, rbx
	call	??1randomx_vm@@UEAA@XZ			; randomx_vm::~randomx_vm
	test	dil, 1
	je	SHORT $LN19@scalar
	mov	rcx, rbx
	test	dil, 4
	jne	SHORT $LN3@scalar
; File D:\dev\francium_network\francium_agent\src\ext\randomx\repo\src\allocator.cpp
; Line 47
	call	_aligned_free
	mov	rax, rbx
	mov	rbx, QWORD PTR [rsp+48]
	add	rsp, 32					; 00000020H
	pop	rdi
	ret	0
$LN3@scalar:
	mov	edx, 2816				; 00000b00H
	call	?__global_delete@@YAXPEAX_K@Z		; __global_delete
$LN19@scalar:
	mov	rax, rbx
	mov	rbx, QWORD PTR [rsp+48]
	add	rsp, 32					; 00000020H
	pop	rdi
	ret	0
??_G?$CompiledVm@U?$AlignedAllocator@$0EA@@randomx@@$0A@$00@randomx@@UEAAPEAXI@Z ENDP ; randomx::CompiledVm<randomx::AlignedAllocator<64>,0,1>::`scalar deleting destructor'
_TEXT	ENDS
; Function compile flags: /Ogtpy
;	COMDAT ??_G?$CompiledVm@ULargePageAllocator@randomx@@$00$00@randomx@@UEAAPEAXI@Z
_TEXT	SEGMENT
this$ = 48
__flags$ = 56
??_G?$CompiledVm@ULargePageAllocator@randomx@@$00$00@randomx@@UEAAPEAXI@Z PROC ; randomx::CompiledVm<randomx::LargePageAllocator,1,1>::`scalar deleting destructor', COMDAT
$LN24:
	mov	QWORD PTR [rsp+8], rbx
	push	rdi
	sub	rsp, 32					; 00000020H
	mov	rbx, rcx
	mov	edi, edx
	add	rcx, 2688				; 00000a80H
	call	??1JitCompilerX86@randomx@@QEAA@XZ	; randomx::JitCompilerX86::~JitCompilerX86
; File D:\dev\francium_network\francium_agent\src\ext\randomx\repo\src\virtual_memory.cpp
; Line 185
	mov	rcx, QWORD PTR [rbx+2544]
; File D:\dev\francium_network\francium_agent\src\ext\randomx\repo\src\virtual_machine.cpp
; Line 101
	lea	rax, OFFSET FLAT:??_7?$VmBase@ULargePageAllocator@randomx@@$00@randomx@@6B@
; File D:\dev\francium_network\francium_agent\src\ext\randomx\repo\src\virtual_memory.cpp
; Line 185
	xor	edx, edx
; File D:\dev\francium_network\francium_agent\src\ext\randomx\repo\src\virtual_machine.cpp
; Line 101
	mov	QWORD PTR [rbx], rax
; File D:\dev\francium_network\francium_agent\src\ext\randomx\repo\src\virtual_memory.cpp
; Line 185
	mov	r8d, 32768				; 00008000H
	call	QWORD PTR __imp_VirtualFree
; File D:\dev\francium_network\francium_agent\src\ext\randomx\repo\src\virtual_machine.cpp
; Line 103
	mov	rcx, rbx
	call	??1randomx_vm@@UEAA@XZ			; randomx_vm::~randomx_vm
	test	dil, 1
	je	SHORT $LN21@scalar
	mov	rcx, rbx
	test	dil, 4
	jne	SHORT $LN3@scalar
; File D:\dev\francium_network\francium_agent\src\ext\randomx\repo\src\allocator.cpp
; Line 47
	call	_aligned_free
	mov	rax, rbx
	mov	rbx, QWORD PTR [rsp+48]
	add	rsp, 32					; 00000020H
	pop	rdi
	ret	0
$LN3@scalar:
	mov	edx, 2816				; 00000b00H
	call	?__global_delete@@YAXPEAX_K@Z		; __global_delete
$LN21@scalar:
	mov	rax, rbx
	mov	rbx, QWORD PTR [rsp+48]
	add	rsp, 32					; 00000020H
	pop	rdi
	ret	0
??_G?$CompiledVm@ULargePageAllocator@randomx@@$00$00@randomx@@UEAAPEAXI@Z ENDP ; randomx::CompiledVm<randomx::LargePageAllocator,1,1>::`scalar deleting destructor'
_TEXT	ENDS
; Function compile flags: /Ogtpy
;	COMDAT ??_G?$CompiledVm@ULargePageAllocator@randomx@@$0A@$00@randomx@@UEAAPEAXI@Z
_TEXT	SEGMENT
this$ = 48
__flags$ = 56
??_G?$CompiledVm@ULargePageAllocator@randomx@@$0A@$00@randomx@@UEAAPEAXI@Z PROC ; randomx::CompiledVm<randomx::LargePageAllocator,0,1>::`scalar deleting destructor', COMDAT
$LN24:
	mov	QWORD PTR [rsp+8], rbx
	push	rdi
	sub	rsp, 32					; 00000020H
	mov	rbx, rcx
	mov	edi, edx
	add	rcx, 2688				; 00000a80H
	call	??1JitCompilerX86@randomx@@QEAA@XZ	; randomx::JitCompilerX86::~JitCompilerX86
; File D:\dev\francium_network\francium_agent\src\ext\randomx\repo\src\virtual_memory.cpp
; Line 185
	mov	rcx, QWORD PTR [rbx+2544]
; File D:\dev\francium_network\francium_agent\src\ext\randomx\repo\src\virtual_machine.cpp
; Line 101
	lea	rax, OFFSET FLAT:??_7?$VmBase@ULargePageAllocator@randomx@@$0A@@randomx@@6B@
; File D:\dev\francium_network\francium_agent\src\ext\randomx\repo\src\virtual_memory.cpp
; Line 185
	xor	edx, edx
; File D:\dev\francium_network\francium_agent\src\ext\randomx\repo\src\virtual_machine.cpp
; Line 101
	mov	QWORD PTR [rbx], rax
; File D:\dev\francium_network\francium_agent\src\ext\randomx\repo\src\virtual_memory.cpp
; Line 185
	mov	r8d, 32768				; 00008000H
	call	QWORD PTR __imp_VirtualFree
; File D:\dev\francium_network\francium_agent\src\ext\randomx\repo\src\virtual_machine.cpp
; Line 103
	mov	rcx, rbx
	call	??1randomx_vm@@UEAA@XZ			; randomx_vm::~randomx_vm
	test	dil, 1
	je	SHORT $LN21@scalar
	mov	rcx, rbx
	test	dil, 4
	jne	SHORT $LN3@scalar
; File D:\dev\francium_network\francium_agent\src\ext\randomx\repo\src\allocator.cpp
; Line 47
	call	_aligned_free
	mov	rax, rbx
	mov	rbx, QWORD PTR [rsp+48]
	add	rsp, 32					; 00000020H
	pop	rdi
	ret	0
$LN3@scalar:
	mov	edx, 2816				; 00000b00H
	call	?__global_delete@@YAXPEAX_K@Z		; __global_delete
$LN21@scalar:
	mov	rax, rbx
	mov	rbx, QWORD PTR [rsp+48]
	add	rsp, 32					; 00000020H
	pop	rdi
	ret	0
??_G?$CompiledVm@ULargePageAllocator@randomx@@$0A@$00@randomx@@UEAAPEAXI@Z ENDP ; randomx::CompiledVm<randomx::LargePageAllocator,0,1>::`scalar deleting destructor'
_TEXT	ENDS
END
