; Listing generated by Microsoft (R) Optimizing Compiler Version 19.35.32216.1 

include listing.inc

INCLUDELIB OLDNAMES

?_Fake_alloc@std@@3U_Fake_allocator@1@B	ORG $+1		; std::_Fake_alloc
PUBLIC	?datasetRead@?$InterpretedLightVm@U?$AlignedAllocator@$0EA@@randomx@@$0A@@randomx@@MEAAX_KAEAY07_K@Z ; randomx::InterpretedLightVm<randomx::AlignedAllocator<64>,0>::datasetRead
PUBLIC	?setCache@?$InterpretedLightVm@U?$AlignedAllocator@$0EA@@randomx@@$0A@@randomx@@UEAAXPEAUrandomx_cache@@@Z ; randomx::InterpretedLightVm<randomx::AlignedAllocator<64>,0>::setCache
PUBLIC	?datasetRead@?$InterpretedLightVm@ULargePageAllocator@randomx@@$0A@@randomx@@MEAAX_KAEAY07_K@Z ; randomx::InterpretedLightVm<randomx::LargePageAllocator,0>::datasetRead
PUBLIC	?setCache@?$InterpretedLightVm@ULargePageAllocator@randomx@@$0A@@randomx@@UEAAXPEAUrandomx_cache@@@Z ; randomx::InterpretedLightVm<randomx::LargePageAllocator,0>::setCache
PUBLIC	?datasetRead@?$InterpretedLightVm@U?$AlignedAllocator@$0EA@@randomx@@$00@randomx@@MEAAX_KAEAY07_K@Z ; randomx::InterpretedLightVm<randomx::AlignedAllocator<64>,1>::datasetRead
PUBLIC	?setCache@?$InterpretedLightVm@U?$AlignedAllocator@$0EA@@randomx@@$00@randomx@@UEAAXPEAUrandomx_cache@@@Z ; randomx::InterpretedLightVm<randomx::AlignedAllocator<64>,1>::setCache
PUBLIC	?datasetRead@?$InterpretedLightVm@ULargePageAllocator@randomx@@$00@randomx@@MEAAX_KAEAY07_K@Z ; randomx::InterpretedLightVm<randomx::LargePageAllocator,1>::datasetRead
PUBLIC	?setCache@?$InterpretedLightVm@ULargePageAllocator@randomx@@$00@randomx@@UEAAXPEAUrandomx_cache@@@Z ; randomx::InterpretedLightVm<randomx::LargePageAllocator,1>::setCache
;	COMDAT pdata
pdata	SEGMENT
$pdata$?datasetRead@?$InterpretedLightVm@U?$AlignedAllocator@$0EA@@randomx@@$0A@@randomx@@MEAAX_KAEAY07_K@Z DD imagerel $LN18
	DD	imagerel $LN18+138
	DD	imagerel $unwind$?datasetRead@?$InterpretedLightVm@U?$AlignedAllocator@$0EA@@randomx@@$0A@@randomx@@MEAAX_KAEAY07_K@Z
pdata	ENDS
;	COMDAT pdata
pdata	SEGMENT
$pdata$?datasetRead@?$InterpretedLightVm@ULargePageAllocator@randomx@@$0A@@randomx@@MEAAX_KAEAY07_K@Z DD imagerel $LN18
	DD	imagerel $LN18+138
	DD	imagerel $unwind$?datasetRead@?$InterpretedLightVm@ULargePageAllocator@randomx@@$0A@@randomx@@MEAAX_KAEAY07_K@Z
pdata	ENDS
;	COMDAT pdata
pdata	SEGMENT
$pdata$?datasetRead@?$InterpretedLightVm@U?$AlignedAllocator@$0EA@@randomx@@$00@randomx@@MEAAX_KAEAY07_K@Z DD imagerel $LN18
	DD	imagerel $LN18+138
	DD	imagerel $unwind$?datasetRead@?$InterpretedLightVm@U?$AlignedAllocator@$0EA@@randomx@@$00@randomx@@MEAAX_KAEAY07_K@Z
pdata	ENDS
;	COMDAT pdata
pdata	SEGMENT
$pdata$?datasetRead@?$InterpretedLightVm@ULargePageAllocator@randomx@@$00@randomx@@MEAAX_KAEAY07_K@Z DD imagerel $LN18
	DD	imagerel $LN18+138
	DD	imagerel $unwind$?datasetRead@?$InterpretedLightVm@ULargePageAllocator@randomx@@$00@randomx@@MEAAX_KAEAY07_K@Z
;	COMDAT xdata
xdata	SEGMENT
$unwind$?datasetRead@?$InterpretedLightVm@ULargePageAllocator@randomx@@$00@randomx@@MEAAX_KAEAY07_K@Z DD 021519H
	DD	03002d206H
	DD	imagerel __GSHandlerCheck
	DD	060H
xdata	ENDS
;	COMDAT xdata
xdata	SEGMENT
$unwind$?datasetRead@?$InterpretedLightVm@U?$AlignedAllocator@$0EA@@randomx@@$00@randomx@@MEAAX_KAEAY07_K@Z DD 021519H
	DD	03002d206H
	DD	imagerel __GSHandlerCheck
	DD	060H
xdata	ENDS
;	COMDAT xdata
xdata	SEGMENT
$unwind$?datasetRead@?$InterpretedLightVm@ULargePageAllocator@randomx@@$0A@@randomx@@MEAAX_KAEAY07_K@Z DD 021519H
	DD	03002d206H
	DD	imagerel __GSHandlerCheck
	DD	060H
xdata	ENDS
;	COMDAT xdata
xdata	SEGMENT
$unwind$?datasetRead@?$InterpretedLightVm@U?$AlignedAllocator@$0EA@@randomx@@$0A@@randomx@@MEAAX_KAEAY07_K@Z DD 021519H
	DD	03002d206H
	DD	imagerel __GSHandlerCheck
	DD	060H
; Function compile flags: /Ogtpy
;	COMDAT ?setCache@?$InterpretedLightVm@ULargePageAllocator@randomx@@$00@randomx@@UEAAXPEAUrandomx_cache@@@Z
_TEXT	SEGMENT
this$ = 8
cache$ = 16
?setCache@?$InterpretedLightVm@ULargePageAllocator@randomx@@$00@randomx@@UEAAXPEAUrandomx_cache@@@Z PROC ; randomx::InterpretedLightVm<randomx::LargePageAllocator,1>::setCache, COMDAT
; File D:\dev\francium_network\francium_agent\src\ext\randomx\repo\src\vm_interpreted_light.cpp
; Line 36
	mov	QWORD PTR [rcx+2552], rdx
; Line 37
	mov	rax, QWORD PTR [rdx]
	mov	QWORD PTR [rcx+2536], rax
; Line 38
	ret	0
?setCache@?$InterpretedLightVm@ULargePageAllocator@randomx@@$00@randomx@@UEAAXPEAUrandomx_cache@@@Z ENDP ; randomx::InterpretedLightVm<randomx::LargePageAllocator,1>::setCache
_TEXT	ENDS
; Function compile flags: /Ogtpy
;	COMDAT ?datasetRead@?$InterpretedLightVm@ULargePageAllocator@randomx@@$00@randomx@@MEAAX_KAEAY07_K@Z
_TEXT	SEGMENT
rl$ = 32
__$ArrayPad$ = 96
this$ = 128
address$ = 136
r$ = 144
?datasetRead@?$InterpretedLightVm@ULargePageAllocator@randomx@@$00@randomx@@MEAAX_KAEAY07_K@Z PROC ; randomx::InterpretedLightVm<randomx::LargePageAllocator,1>::datasetRead, COMDAT
; File D:\dev\francium_network\francium_agent\src\ext\randomx\repo\src\vm_interpreted_light.cpp
; Line 41
$LN18:
	push	rbx
	sub	rsp, 112				; 00000070H
	mov	rax, QWORD PTR __security_cookie
	xor	rax, rsp
	mov	QWORD PTR __$ArrayPad$[rsp], rax
; Line 45
	mov	rcx, QWORD PTR [rcx+2552]
	mov	rbx, r8
	shr	rdx, 6
	mov	r8d, edx
	lea	rdx, QWORD PTR rl$[rsp]
	call	?initDatasetItem@randomx@@YAXPEAUrandomx_cache@@PEAE_K@Z ; randomx::initDatasetItem
; Line 48
	mov	rax, QWORD PTR rl$[rsp]
	xor	QWORD PTR [rbx], rax
	mov	rax, QWORD PTR rl$[rsp+8]
	xor	QWORD PTR [rbx+8], rax
	mov	rax, QWORD PTR rl$[rsp+16]
	xor	QWORD PTR [rbx+16], rax
	mov	rax, QWORD PTR rl$[rsp+24]
	xor	QWORD PTR [rbx+24], rax
	mov	rax, QWORD PTR rl$[rsp+32]
	xor	QWORD PTR [rbx+32], rax
	mov	rax, QWORD PTR rl$[rsp+40]
	xor	QWORD PTR [rbx+40], rax
	mov	rax, QWORD PTR rl$[rsp+48]
	xor	QWORD PTR [rbx+48], rax
	mov	rax, QWORD PTR rl$[rsp+56]
	xor	QWORD PTR [rbx+56], rax
; Line 49
	mov	rcx, QWORD PTR __$ArrayPad$[rsp]
	xor	rcx, rsp
	call	__security_check_cookie
	add	rsp, 112				; 00000070H
	pop	rbx
	ret	0
?datasetRead@?$InterpretedLightVm@ULargePageAllocator@randomx@@$00@randomx@@MEAAX_KAEAY07_K@Z ENDP ; randomx::InterpretedLightVm<randomx::LargePageAllocator,1>::datasetRead
_TEXT	ENDS
; Function compile flags: /Ogtpy
;	COMDAT ?setCache@?$InterpretedLightVm@U?$AlignedAllocator@$0EA@@randomx@@$00@randomx@@UEAAXPEAUrandomx_cache@@@Z
_TEXT	SEGMENT
this$ = 8
cache$ = 16
?setCache@?$InterpretedLightVm@U?$AlignedAllocator@$0EA@@randomx@@$00@randomx@@UEAAXPEAUrandomx_cache@@@Z PROC ; randomx::InterpretedLightVm<randomx::AlignedAllocator<64>,1>::setCache, COMDAT
; File D:\dev\francium_network\francium_agent\src\ext\randomx\repo\src\vm_interpreted_light.cpp
; Line 36
	mov	QWORD PTR [rcx+2552], rdx
; Line 37
	mov	rax, QWORD PTR [rdx]
	mov	QWORD PTR [rcx+2536], rax
; Line 38
	ret	0
?setCache@?$InterpretedLightVm@U?$AlignedAllocator@$0EA@@randomx@@$00@randomx@@UEAAXPEAUrandomx_cache@@@Z ENDP ; randomx::InterpretedLightVm<randomx::AlignedAllocator<64>,1>::setCache
_TEXT	ENDS
; Function compile flags: /Ogtpy
;	COMDAT ?datasetRead@?$InterpretedLightVm@U?$AlignedAllocator@$0EA@@randomx@@$00@randomx@@MEAAX_KAEAY07_K@Z
_TEXT	SEGMENT
rl$ = 32
__$ArrayPad$ = 96
this$ = 128
address$ = 136
r$ = 144
?datasetRead@?$InterpretedLightVm@U?$AlignedAllocator@$0EA@@randomx@@$00@randomx@@MEAAX_KAEAY07_K@Z PROC ; randomx::InterpretedLightVm<randomx::AlignedAllocator<64>,1>::datasetRead, COMDAT
; File D:\dev\francium_network\francium_agent\src\ext\randomx\repo\src\vm_interpreted_light.cpp
; Line 41
$LN18:
	push	rbx
	sub	rsp, 112				; 00000070H
	mov	rax, QWORD PTR __security_cookie
	xor	rax, rsp
	mov	QWORD PTR __$ArrayPad$[rsp], rax
; Line 45
	mov	rcx, QWORD PTR [rcx+2552]
	mov	rbx, r8
	shr	rdx, 6
	mov	r8d, edx
	lea	rdx, QWORD PTR rl$[rsp]
	call	?initDatasetItem@randomx@@YAXPEAUrandomx_cache@@PEAE_K@Z ; randomx::initDatasetItem
; Line 48
	mov	rax, QWORD PTR rl$[rsp]
	xor	QWORD PTR [rbx], rax
	mov	rax, QWORD PTR rl$[rsp+8]
	xor	QWORD PTR [rbx+8], rax
	mov	rax, QWORD PTR rl$[rsp+16]
	xor	QWORD PTR [rbx+16], rax
	mov	rax, QWORD PTR rl$[rsp+24]
	xor	QWORD PTR [rbx+24], rax
	mov	rax, QWORD PTR rl$[rsp+32]
	xor	QWORD PTR [rbx+32], rax
	mov	rax, QWORD PTR rl$[rsp+40]
	xor	QWORD PTR [rbx+40], rax
	mov	rax, QWORD PTR rl$[rsp+48]
	xor	QWORD PTR [rbx+48], rax
	mov	rax, QWORD PTR rl$[rsp+56]
	xor	QWORD PTR [rbx+56], rax
; Line 49
	mov	rcx, QWORD PTR __$ArrayPad$[rsp]
	xor	rcx, rsp
	call	__security_check_cookie
	add	rsp, 112				; 00000070H
	pop	rbx
	ret	0
?datasetRead@?$InterpretedLightVm@U?$AlignedAllocator@$0EA@@randomx@@$00@randomx@@MEAAX_KAEAY07_K@Z ENDP ; randomx::InterpretedLightVm<randomx::AlignedAllocator<64>,1>::datasetRead
_TEXT	ENDS
; Function compile flags: /Ogtpy
;	COMDAT ?setCache@?$InterpretedLightVm@ULargePageAllocator@randomx@@$0A@@randomx@@UEAAXPEAUrandomx_cache@@@Z
_TEXT	SEGMENT
this$ = 8
cache$ = 16
?setCache@?$InterpretedLightVm@ULargePageAllocator@randomx@@$0A@@randomx@@UEAAXPEAUrandomx_cache@@@Z PROC ; randomx::InterpretedLightVm<randomx::LargePageAllocator,0>::setCache, COMDAT
; File D:\dev\francium_network\francium_agent\src\ext\randomx\repo\src\vm_interpreted_light.cpp
; Line 36
	mov	QWORD PTR [rcx+2552], rdx
; Line 37
	mov	rax, QWORD PTR [rdx]
	mov	QWORD PTR [rcx+2536], rax
; Line 38
	ret	0
?setCache@?$InterpretedLightVm@ULargePageAllocator@randomx@@$0A@@randomx@@UEAAXPEAUrandomx_cache@@@Z ENDP ; randomx::InterpretedLightVm<randomx::LargePageAllocator,0>::setCache
_TEXT	ENDS
; Function compile flags: /Ogtpy
;	COMDAT ?datasetRead@?$InterpretedLightVm@ULargePageAllocator@randomx@@$0A@@randomx@@MEAAX_KAEAY07_K@Z
_TEXT	SEGMENT
rl$ = 32
__$ArrayPad$ = 96
this$ = 128
address$ = 136
r$ = 144
?datasetRead@?$InterpretedLightVm@ULargePageAllocator@randomx@@$0A@@randomx@@MEAAX_KAEAY07_K@Z PROC ; randomx::InterpretedLightVm<randomx::LargePageAllocator,0>::datasetRead, COMDAT
; File D:\dev\francium_network\francium_agent\src\ext\randomx\repo\src\vm_interpreted_light.cpp
; Line 41
$LN18:
	push	rbx
	sub	rsp, 112				; 00000070H
	mov	rax, QWORD PTR __security_cookie
	xor	rax, rsp
	mov	QWORD PTR __$ArrayPad$[rsp], rax
; Line 45
	mov	rcx, QWORD PTR [rcx+2552]
	mov	rbx, r8
	shr	rdx, 6
	mov	r8d, edx
	lea	rdx, QWORD PTR rl$[rsp]
	call	?initDatasetItem@randomx@@YAXPEAUrandomx_cache@@PEAE_K@Z ; randomx::initDatasetItem
; Line 48
	mov	rax, QWORD PTR rl$[rsp]
	xor	QWORD PTR [rbx], rax
	mov	rax, QWORD PTR rl$[rsp+8]
	xor	QWORD PTR [rbx+8], rax
	mov	rax, QWORD PTR rl$[rsp+16]
	xor	QWORD PTR [rbx+16], rax
	mov	rax, QWORD PTR rl$[rsp+24]
	xor	QWORD PTR [rbx+24], rax
	mov	rax, QWORD PTR rl$[rsp+32]
	xor	QWORD PTR [rbx+32], rax
	mov	rax, QWORD PTR rl$[rsp+40]
	xor	QWORD PTR [rbx+40], rax
	mov	rax, QWORD PTR rl$[rsp+48]
	xor	QWORD PTR [rbx+48], rax
	mov	rax, QWORD PTR rl$[rsp+56]
	xor	QWORD PTR [rbx+56], rax
; Line 49
	mov	rcx, QWORD PTR __$ArrayPad$[rsp]
	xor	rcx, rsp
	call	__security_check_cookie
	add	rsp, 112				; 00000070H
	pop	rbx
	ret	0
?datasetRead@?$InterpretedLightVm@ULargePageAllocator@randomx@@$0A@@randomx@@MEAAX_KAEAY07_K@Z ENDP ; randomx::InterpretedLightVm<randomx::LargePageAllocator,0>::datasetRead
_TEXT	ENDS
; Function compile flags: /Ogtpy
;	COMDAT ?setCache@?$InterpretedLightVm@U?$AlignedAllocator@$0EA@@randomx@@$0A@@randomx@@UEAAXPEAUrandomx_cache@@@Z
_TEXT	SEGMENT
this$ = 8
cache$ = 16
?setCache@?$InterpretedLightVm@U?$AlignedAllocator@$0EA@@randomx@@$0A@@randomx@@UEAAXPEAUrandomx_cache@@@Z PROC ; randomx::InterpretedLightVm<randomx::AlignedAllocator<64>,0>::setCache, COMDAT
; File D:\dev\francium_network\francium_agent\src\ext\randomx\repo\src\vm_interpreted_light.cpp
; Line 36
	mov	QWORD PTR [rcx+2552], rdx
; Line 37
	mov	rax, QWORD PTR [rdx]
	mov	QWORD PTR [rcx+2536], rax
; Line 38
	ret	0
?setCache@?$InterpretedLightVm@U?$AlignedAllocator@$0EA@@randomx@@$0A@@randomx@@UEAAXPEAUrandomx_cache@@@Z ENDP ; randomx::InterpretedLightVm<randomx::AlignedAllocator<64>,0>::setCache
_TEXT	ENDS
; Function compile flags: /Ogtpy
;	COMDAT ?datasetRead@?$InterpretedLightVm@U?$AlignedAllocator@$0EA@@randomx@@$0A@@randomx@@MEAAX_KAEAY07_K@Z
_TEXT	SEGMENT
rl$ = 32
__$ArrayPad$ = 96
this$ = 128
address$ = 136
r$ = 144
?datasetRead@?$InterpretedLightVm@U?$AlignedAllocator@$0EA@@randomx@@$0A@@randomx@@MEAAX_KAEAY07_K@Z PROC ; randomx::InterpretedLightVm<randomx::AlignedAllocator<64>,0>::datasetRead, COMDAT
; File D:\dev\francium_network\francium_agent\src\ext\randomx\repo\src\vm_interpreted_light.cpp
; Line 41
$LN18:
	push	rbx
	sub	rsp, 112				; 00000070H
	mov	rax, QWORD PTR __security_cookie
	xor	rax, rsp
	mov	QWORD PTR __$ArrayPad$[rsp], rax
; Line 45
	mov	rcx, QWORD PTR [rcx+2552]
	mov	rbx, r8
	shr	rdx, 6
	mov	r8d, edx
	lea	rdx, QWORD PTR rl$[rsp]
	call	?initDatasetItem@randomx@@YAXPEAUrandomx_cache@@PEAE_K@Z ; randomx::initDatasetItem
; Line 48
	mov	rax, QWORD PTR rl$[rsp]
	xor	QWORD PTR [rbx], rax
	mov	rax, QWORD PTR rl$[rsp+8]
	xor	QWORD PTR [rbx+8], rax
	mov	rax, QWORD PTR rl$[rsp+16]
	xor	QWORD PTR [rbx+16], rax
	mov	rax, QWORD PTR rl$[rsp+24]
	xor	QWORD PTR [rbx+24], rax
	mov	rax, QWORD PTR rl$[rsp+32]
	xor	QWORD PTR [rbx+32], rax
	mov	rax, QWORD PTR rl$[rsp+40]
	xor	QWORD PTR [rbx+40], rax
	mov	rax, QWORD PTR rl$[rsp+48]
	xor	QWORD PTR [rbx+48], rax
	mov	rax, QWORD PTR rl$[rsp+56]
	xor	QWORD PTR [rbx+56], rax
; Line 49
	mov	rcx, QWORD PTR __$ArrayPad$[rsp]
	xor	rcx, rsp
	call	__security_check_cookie
	add	rsp, 112				; 00000070H
	pop	rbx
	ret	0
?datasetRead@?$InterpretedLightVm@U?$AlignedAllocator@$0EA@@randomx@@$0A@@randomx@@MEAAX_KAEAY07_K@Z ENDP ; randomx::InterpretedLightVm<randomx::AlignedAllocator<64>,0>::datasetRead
_TEXT	ENDS
END
