; Listing generated by Microsoft (R) Optimizing Compiler Version 19.35.32216.1 

include listing.inc

INCLUDELIB OLDNAMES

?_Fake_alloc@std@@3U_Fake_allocator@1@B	ORG $+1		; std::_Fake_alloc
PUBLIC	??$swap@I$0A@@std@@YAXAEAI0@Z			; std::swap<unsigned int,0>
PUBLIC	?execute@?$InterpretedVm@ULargePageAllocator@randomx@@$0A@@randomx@@AEAAXXZ ; randomx::InterpretedVm<randomx::LargePageAllocator,0>::execute
PUBLIC	?execute@?$InterpretedVm@ULargePageAllocator@randomx@@$00@randomx@@AEAAXXZ ; randomx::InterpretedVm<randomx::LargePageAllocator,1>::execute
PUBLIC	?execute@?$InterpretedVm@U?$AlignedAllocator@$0EA@@randomx@@$0A@@randomx@@AEAAXXZ ; randomx::InterpretedVm<randomx::AlignedAllocator<64>,0>::execute
PUBLIC	??0NativeRegisterFile@randomx@@QEAA@XZ		; randomx::NativeRegisterFile::NativeRegisterFile
PUBLIC	?execute@?$InterpretedVm@U?$AlignedAllocator@$0EA@@randomx@@$00@randomx@@AEAAXXZ ; randomx::InterpretedVm<randomx::AlignedAllocator<64>,1>::execute
PUBLIC	?maskRegisterExponentMantissa@BytecodeMachine@randomx@@KA?AU__m128d@@AEAUProgramConfiguration@2@U3@@Z ; randomx::BytecodeMachine::maskRegisterExponentMantissa
PUBLIC	?executeBytecode@BytecodeMachine@randomx@@SAXQEAUInstructionByteCode@2@PEAEAEAUProgramConfiguration@2@@Z ; randomx::BytecodeMachine::executeBytecode
PUBLIC	?compileProgram@BytecodeMachine@randomx@@QEAAXAEAVProgram@2@QEAUInstructionByteCode@2@AEAUNativeRegisterFile@2@@Z ; randomx::BytecodeMachine::compileProgram
PUBLIC	?beginCompilation@BytecodeMachine@randomx@@QEAAXAEAUNativeRegisterFile@2@@Z ; randomx::BytecodeMachine::beginCompilation
PUBLIC	?rx_cvt_packed_int_vec_f128@@YA?AU__m128d@@PEBX@Z ; rx_cvt_packed_int_vec_f128
PUBLIC	?rx_set_vec_f128@@YA?AU__m128d@@_K0@Z		; rx_set_vec_f128
PUBLIC	??RProgram@randomx@@QEAAAEAVInstruction@1@H@Z	; randomx::Program::operator()
PUBLIC	?datasetPrefetch@?$InterpretedVm@U?$AlignedAllocator@$0EA@@randomx@@$00@randomx@@MEAAX_K@Z ; randomx::InterpretedVm<randomx::AlignedAllocator<64>,1>::datasetPrefetch
PUBLIC	?datasetRead@?$InterpretedVm@U?$AlignedAllocator@$0EA@@randomx@@$00@randomx@@MEAAX_KAEAY07_K@Z ; randomx::InterpretedVm<randomx::AlignedAllocator<64>,1>::datasetRead
PUBLIC	?setDataset@?$InterpretedVm@U?$AlignedAllocator@$0EA@@randomx@@$00@randomx@@UEAAXPEAUrandomx_dataset@@@Z ; randomx::InterpretedVm<randomx::AlignedAllocator<64>,1>::setDataset
PUBLIC	?run@?$InterpretedVm@U?$AlignedAllocator@$0EA@@randomx@@$00@randomx@@UEAAXPEAX@Z ; randomx::InterpretedVm<randomx::AlignedAllocator<64>,1>::run
PUBLIC	?datasetPrefetch@?$InterpretedVm@U?$AlignedAllocator@$0EA@@randomx@@$0A@@randomx@@MEAAX_K@Z ; randomx::InterpretedVm<randomx::AlignedAllocator<64>,0>::datasetPrefetch
PUBLIC	?datasetRead@?$InterpretedVm@U?$AlignedAllocator@$0EA@@randomx@@$0A@@randomx@@MEAAX_KAEAY07_K@Z ; randomx::InterpretedVm<randomx::AlignedAllocator<64>,0>::datasetRead
PUBLIC	?setDataset@?$InterpretedVm@U?$AlignedAllocator@$0EA@@randomx@@$0A@@randomx@@UEAAXPEAUrandomx_dataset@@@Z ; randomx::InterpretedVm<randomx::AlignedAllocator<64>,0>::setDataset
PUBLIC	?run@?$InterpretedVm@U?$AlignedAllocator@$0EA@@randomx@@$0A@@randomx@@UEAAXPEAX@Z ; randomx::InterpretedVm<randomx::AlignedAllocator<64>,0>::run
PUBLIC	?datasetPrefetch@?$InterpretedVm@ULargePageAllocator@randomx@@$0A@@randomx@@MEAAX_K@Z ; randomx::InterpretedVm<randomx::LargePageAllocator,0>::datasetPrefetch
PUBLIC	?datasetRead@?$InterpretedVm@ULargePageAllocator@randomx@@$0A@@randomx@@MEAAX_KAEAY07_K@Z ; randomx::InterpretedVm<randomx::LargePageAllocator,0>::datasetRead
PUBLIC	?setDataset@?$InterpretedVm@ULargePageAllocator@randomx@@$0A@@randomx@@UEAAXPEAUrandomx_dataset@@@Z ; randomx::InterpretedVm<randomx::LargePageAllocator,0>::setDataset
PUBLIC	?run@?$InterpretedVm@ULargePageAllocator@randomx@@$0A@@randomx@@UEAAXPEAX@Z ; randomx::InterpretedVm<randomx::LargePageAllocator,0>::run
PUBLIC	?datasetPrefetch@?$InterpretedVm@ULargePageAllocator@randomx@@$00@randomx@@MEAAX_K@Z ; randomx::InterpretedVm<randomx::LargePageAllocator,1>::datasetPrefetch
PUBLIC	?datasetRead@?$InterpretedVm@ULargePageAllocator@randomx@@$00@randomx@@MEAAX_KAEAY07_K@Z ; randomx::InterpretedVm<randomx::LargePageAllocator,1>::datasetRead
PUBLIC	?setDataset@?$InterpretedVm@ULargePageAllocator@randomx@@$00@randomx@@UEAAXPEAUrandomx_dataset@@@Z ; randomx::InterpretedVm<randomx::LargePageAllocator,1>::setDataset
PUBLIC	?run@?$InterpretedVm@ULargePageAllocator@randomx@@$00@randomx@@UEAAXPEAX@Z ; randomx::InterpretedVm<randomx::LargePageAllocator,1>::run
;	COMDAT pdata
pdata	SEGMENT
$pdata$?execute@?$InterpretedVm@ULargePageAllocator@randomx@@$0A@@randomx@@AEAAXXZ DD imagerel $LN176
	DD	imagerel $LN176+1181
	DD	imagerel $unwind$?execute@?$InterpretedVm@ULargePageAllocator@randomx@@$0A@@randomx@@AEAAXXZ
pdata	ENDS
;	COMDAT pdata
pdata	SEGMENT
$pdata$?execute@?$InterpretedVm@ULargePageAllocator@randomx@@$00@randomx@@AEAAXXZ DD imagerel $LN176
	DD	imagerel $LN176+1181
	DD	imagerel $unwind$?execute@?$InterpretedVm@ULargePageAllocator@randomx@@$00@randomx@@AEAAXXZ
pdata	ENDS
;	COMDAT pdata
pdata	SEGMENT
$pdata$?execute@?$InterpretedVm@U?$AlignedAllocator@$0EA@@randomx@@$0A@@randomx@@AEAAXXZ DD imagerel $LN176
	DD	imagerel $LN176+1181
	DD	imagerel $unwind$?execute@?$InterpretedVm@U?$AlignedAllocator@$0EA@@randomx@@$0A@@randomx@@AEAAXXZ
pdata	ENDS
;	COMDAT pdata
pdata	SEGMENT
$pdata$?execute@?$InterpretedVm@U?$AlignedAllocator@$0EA@@randomx@@$00@randomx@@AEAAXXZ DD imagerel $LN176
	DD	imagerel $LN176+1181
	DD	imagerel $unwind$?execute@?$InterpretedVm@U?$AlignedAllocator@$0EA@@randomx@@$00@randomx@@AEAAXXZ
pdata	ENDS
;	COMDAT pdata
pdata	SEGMENT
$pdata$?executeBytecode@BytecodeMachine@randomx@@SAXQEAUInstructionByteCode@2@PEAEAEAUProgramConfiguration@2@@Z DD imagerel $LN11
	DD	imagerel $LN11+78
	DD	imagerel $unwind$?executeBytecode@BytecodeMachine@randomx@@SAXQEAUInstructionByteCode@2@PEAEAEAUProgramConfiguration@2@@Z
pdata	ENDS
;	COMDAT pdata
pdata	SEGMENT
$pdata$?compileProgram@BytecodeMachine@randomx@@QEAAXAEAVProgram@2@QEAUInstructionByteCode@2@AEAUNativeRegisterFile@2@@Z DD imagerel $LN31
	DD	imagerel $LN31+146
	DD	imagerel $unwind$?compileProgram@BytecodeMachine@randomx@@QEAAXAEAVProgram@2@QEAUInstructionByteCode@2@AEAUNativeRegisterFile@2@@Z
pdata	ENDS
;	COMDAT pdata
pdata	SEGMENT
$pdata$?run@?$InterpretedVm@U?$AlignedAllocator@$0EA@@randomx@@$00@randomx@@UEAAXPEAX@Z DD imagerel $LN6
	DD	imagerel $LN6+42
	DD	imagerel $unwind$?run@?$InterpretedVm@U?$AlignedAllocator@$0EA@@randomx@@$00@randomx@@UEAAXPEAX@Z
pdata	ENDS
;	COMDAT pdata
pdata	SEGMENT
$pdata$?run@?$InterpretedVm@U?$AlignedAllocator@$0EA@@randomx@@$0A@@randomx@@UEAAXPEAX@Z DD imagerel $LN6
	DD	imagerel $LN6+42
	DD	imagerel $unwind$?run@?$InterpretedVm@U?$AlignedAllocator@$0EA@@randomx@@$0A@@randomx@@UEAAXPEAX@Z
pdata	ENDS
;	COMDAT pdata
pdata	SEGMENT
$pdata$?run@?$InterpretedVm@ULargePageAllocator@randomx@@$0A@@randomx@@UEAAXPEAX@Z DD imagerel $LN6
	DD	imagerel $LN6+42
	DD	imagerel $unwind$?run@?$InterpretedVm@ULargePageAllocator@randomx@@$0A@@randomx@@UEAAXPEAX@Z
pdata	ENDS
;	COMDAT pdata
pdata	SEGMENT
$pdata$?run@?$InterpretedVm@ULargePageAllocator@randomx@@$00@randomx@@UEAAXPEAX@Z DD imagerel $LN6
	DD	imagerel $LN6+42
	DD	imagerel $unwind$?run@?$InterpretedVm@ULargePageAllocator@randomx@@$00@randomx@@UEAAXPEAX@Z
;	COMDAT xdata
xdata	SEGMENT
$unwind$?run@?$InterpretedVm@ULargePageAllocator@randomx@@$00@randomx@@UEAAXPEAX@Z DD 020601H
	DD	030023206H
xdata	ENDS
;	COMDAT xdata
xdata	SEGMENT
$unwind$?run@?$InterpretedVm@ULargePageAllocator@randomx@@$0A@@randomx@@UEAAXPEAX@Z DD 020601H
	DD	030023206H
xdata	ENDS
;	COMDAT xdata
xdata	SEGMENT
$unwind$?run@?$InterpretedVm@U?$AlignedAllocator@$0EA@@randomx@@$0A@@randomx@@UEAAXPEAX@Z DD 020601H
	DD	030023206H
xdata	ENDS
;	COMDAT xdata
xdata	SEGMENT
$unwind$?run@?$InterpretedVm@U?$AlignedAllocator@$0EA@@randomx@@$00@randomx@@UEAAXPEAX@Z DD 020601H
	DD	030023206H
xdata	ENDS
;	COMDAT xdata
xdata	SEGMENT
$unwind$?compileProgram@BytecodeMachine@randomx@@QEAAXAEAVProgram@2@QEAUInstructionByteCode@2@AEAUNativeRegisterFile@2@@Z DD 081401H
	DD	086414H
	DD	075414H
	DD	063414H
	DD	070103214H
xdata	ENDS
;	COMDAT xdata
xdata	SEGMENT
$unwind$?executeBytecode@BytecodeMachine@randomx@@SAXQEAUInstructionByteCode@2@PEAEAEAUProgramConfiguration@2@@Z DD 020601H
	DD	030023206H
xdata	ENDS
;	COMDAT xdata
xdata	SEGMENT
$unwind$?execute@?$InterpretedVm@U?$AlignedAllocator@$0EA@@randomx@@$00@randomx@@AEAAXXZ DD 0d3019H
	DD	0146822H
	DD	032641eH
	DD	031341eH
	DD	02a011eH
	DD	0e011f013H
	DD	0700dc00fH
	DD	0500cH
	DD	imagerel __GSHandlerCheck
	DD	0130H
xdata	ENDS
;	COMDAT xdata
xdata	SEGMENT
$unwind$?execute@?$InterpretedVm@U?$AlignedAllocator@$0EA@@randomx@@$0A@@randomx@@AEAAXXZ DD 0d3019H
	DD	0146822H
	DD	032641eH
	DD	031341eH
	DD	02a011eH
	DD	0e011f013H
	DD	0700dc00fH
	DD	0500cH
	DD	imagerel __GSHandlerCheck
	DD	0130H
xdata	ENDS
;	COMDAT xdata
xdata	SEGMENT
$unwind$?execute@?$InterpretedVm@ULargePageAllocator@randomx@@$00@randomx@@AEAAXXZ DD 0d3019H
	DD	0146822H
	DD	032641eH
	DD	031341eH
	DD	02a011eH
	DD	0e011f013H
	DD	0700dc00fH
	DD	0500cH
	DD	imagerel __GSHandlerCheck
	DD	0130H
xdata	ENDS
;	COMDAT xdata
xdata	SEGMENT
$unwind$?execute@?$InterpretedVm@ULargePageAllocator@randomx@@$0A@@randomx@@AEAAXXZ DD 0d3019H
	DD	0146822H
	DD	032641eH
	DD	031341eH
	DD	02a011eH
	DD	0e011f013H
	DD	0700dc00fH
	DD	0500cH
	DD	imagerel __GSHandlerCheck
	DD	0130H
; Function compile flags: /Ogtpy
;	COMDAT ?run@?$InterpretedVm@ULargePageAllocator@randomx@@$00@randomx@@UEAAXPEAX@Z
_TEXT	SEGMENT
this$ = 48
seed$ = 56
?run@?$InterpretedVm@ULargePageAllocator@randomx@@$00@randomx@@UEAAXPEAX@Z PROC ; randomx::InterpretedVm<randomx::LargePageAllocator,1>::run, COMDAT
; File D:\dev\francium_network\francium_agent\src\ext\randomx\repo\src\vm_interpreted.cpp
; Line 49
$LN6:
	push	rbx
	sub	rsp, 32					; 00000020H
	mov	rbx, rcx
; File D:\dev\francium_network\francium_agent\src\ext\randomx\repo\src\virtual_machine.cpp
; Line 136
	lea	r8, QWORD PTR [rcx+64]
	mov	rcx, rdx
	call	??$fillAes4Rx4@$00@@YAXPEAX_K0@Z	; fillAes4Rx4<1>
; File D:\dev\francium_network\francium_agent\src\ext\randomx\repo\src\vm_interpreted.cpp
; Line 51
	mov	rcx, rbx
	call	?initialize@randomx_vm@@IEAAXXZ		; randomx_vm::initialize
; Line 52
	mov	rcx, rbx
; Line 53
	add	rsp, 32					; 00000020H
	pop	rbx
; Line 52
	jmp	?execute@?$InterpretedVm@ULargePageAllocator@randomx@@$00@randomx@@AEAAXXZ ; randomx::InterpretedVm<randomx::LargePageAllocator,1>::execute
?run@?$InterpretedVm@ULargePageAllocator@randomx@@$00@randomx@@UEAAXPEAX@Z ENDP ; randomx::InterpretedVm<randomx::LargePageAllocator,1>::run
_TEXT	ENDS
; Function compile flags: /Ogtpy
;	COMDAT ?setDataset@?$InterpretedVm@ULargePageAllocator@randomx@@$00@randomx@@UEAAXPEAUrandomx_dataset@@@Z
_TEXT	SEGMENT
this$ = 8
dataset$ = 16
?setDataset@?$InterpretedVm@ULargePageAllocator@randomx@@$00@randomx@@UEAAXPEAUrandomx_dataset@@@Z PROC ; randomx::InterpretedVm<randomx::LargePageAllocator,1>::setDataset, COMDAT
; File D:\dev\francium_network\francium_agent\src\ext\randomx\repo\src\vm_interpreted.cpp
; Line 44
	mov	QWORD PTR [rcx+2552], rdx
; Line 45
	mov	rax, QWORD PTR [rdx]
	mov	QWORD PTR [rcx+2536], rax
; Line 46
	ret	0
?setDataset@?$InterpretedVm@ULargePageAllocator@randomx@@$00@randomx@@UEAAXPEAUrandomx_dataset@@@Z ENDP ; randomx::InterpretedVm<randomx::LargePageAllocator,1>::setDataset
_TEXT	ENDS
; Function compile flags: /Ogtpy
;	COMDAT ?datasetRead@?$InterpretedVm@ULargePageAllocator@randomx@@$00@randomx@@MEAAX_KAEAY07_K@Z
_TEXT	SEGMENT
this$ = 8
address$ = 16
r$ = 24
?datasetRead@?$InterpretedVm@ULargePageAllocator@randomx@@$00@randomx@@MEAAX_KAEAY07_K@Z PROC ; randomx::InterpretedVm<randomx::LargePageAllocator,1>::datasetRead, COMDAT
; File D:\dev\francium_network\francium_agent\src\ext\randomx\repo\src\vm_interpreted.cpp
; Line 117
	mov	rcx, QWORD PTR [rcx+2536]
	add	rcx, rdx
; Line 119
	mov	rax, QWORD PTR [rcx]
	xor	QWORD PTR [r8], rax
	mov	rax, QWORD PTR [rcx+8]
	xor	QWORD PTR [r8+8], rax
	mov	rax, QWORD PTR [rcx+16]
	xor	QWORD PTR [r8+16], rax
	mov	rax, QWORD PTR [rcx+24]
	xor	QWORD PTR [r8+24], rax
	mov	rax, QWORD PTR [rcx+32]
	xor	QWORD PTR [r8+32], rax
	mov	rax, QWORD PTR [rcx+40]
	xor	QWORD PTR [r8+40], rax
	mov	rax, QWORD PTR [rcx+48]
	xor	QWORD PTR [r8+48], rax
	mov	rax, QWORD PTR [rcx+56]
	xor	QWORD PTR [r8+56], rax
; Line 120
	ret	0
?datasetRead@?$InterpretedVm@ULargePageAllocator@randomx@@$00@randomx@@MEAAX_KAEAY07_K@Z ENDP ; randomx::InterpretedVm<randomx::LargePageAllocator,1>::datasetRead
_TEXT	ENDS
; Function compile flags: /Ogtpy
;	COMDAT ?datasetPrefetch@?$InterpretedVm@ULargePageAllocator@randomx@@$00@randomx@@MEAAX_K@Z
_TEXT	SEGMENT
this$ = 8
address$ = 16
?datasetPrefetch@?$InterpretedVm@ULargePageAllocator@randomx@@$00@randomx@@MEAAX_K@Z PROC ; randomx::InterpretedVm<randomx::LargePageAllocator,1>::datasetPrefetch, COMDAT
; File D:\dev\francium_network\francium_agent\src\ext\randomx\repo\src\vm_interpreted.cpp
; Line 124
	mov	rax, QWORD PTR [rcx+2536]
	prefetchnta BYTE PTR [rdx+rax]
; Line 125
	ret	0
?datasetPrefetch@?$InterpretedVm@ULargePageAllocator@randomx@@$00@randomx@@MEAAX_K@Z ENDP ; randomx::InterpretedVm<randomx::LargePageAllocator,1>::datasetPrefetch
_TEXT	ENDS
; Function compile flags: /Ogtpy
;	COMDAT ?run@?$InterpretedVm@ULargePageAllocator@randomx@@$0A@@randomx@@UEAAXPEAX@Z
_TEXT	SEGMENT
this$ = 48
seed$ = 56
?run@?$InterpretedVm@ULargePageAllocator@randomx@@$0A@@randomx@@UEAAXPEAX@Z PROC ; randomx::InterpretedVm<randomx::LargePageAllocator,0>::run, COMDAT
; File D:\dev\francium_network\francium_agent\src\ext\randomx\repo\src\vm_interpreted.cpp
; Line 49
$LN6:
	push	rbx
	sub	rsp, 32					; 00000020H
	mov	rbx, rcx
; File D:\dev\francium_network\francium_agent\src\ext\randomx\repo\src\virtual_machine.cpp
; Line 136
	lea	r8, QWORD PTR [rcx+64]
	mov	rcx, rdx
	call	??$fillAes4Rx4@$0A@@@YAXPEAX_K0@Z	; fillAes4Rx4<0>
; File D:\dev\francium_network\francium_agent\src\ext\randomx\repo\src\vm_interpreted.cpp
; Line 51
	mov	rcx, rbx
	call	?initialize@randomx_vm@@IEAAXXZ		; randomx_vm::initialize
; Line 52
	mov	rcx, rbx
; Line 53
	add	rsp, 32					; 00000020H
	pop	rbx
; Line 52
	jmp	?execute@?$InterpretedVm@ULargePageAllocator@randomx@@$0A@@randomx@@AEAAXXZ ; randomx::InterpretedVm<randomx::LargePageAllocator,0>::execute
?run@?$InterpretedVm@ULargePageAllocator@randomx@@$0A@@randomx@@UEAAXPEAX@Z ENDP ; randomx::InterpretedVm<randomx::LargePageAllocator,0>::run
_TEXT	ENDS
; Function compile flags: /Ogtpy
;	COMDAT ?setDataset@?$InterpretedVm@ULargePageAllocator@randomx@@$0A@@randomx@@UEAAXPEAUrandomx_dataset@@@Z
_TEXT	SEGMENT
this$ = 8
dataset$ = 16
?setDataset@?$InterpretedVm@ULargePageAllocator@randomx@@$0A@@randomx@@UEAAXPEAUrandomx_dataset@@@Z PROC ; randomx::InterpretedVm<randomx::LargePageAllocator,0>::setDataset, COMDAT
; File D:\dev\francium_network\francium_agent\src\ext\randomx\repo\src\vm_interpreted.cpp
; Line 44
	mov	QWORD PTR [rcx+2552], rdx
; Line 45
	mov	rax, QWORD PTR [rdx]
	mov	QWORD PTR [rcx+2536], rax
; Line 46
	ret	0
?setDataset@?$InterpretedVm@ULargePageAllocator@randomx@@$0A@@randomx@@UEAAXPEAUrandomx_dataset@@@Z ENDP ; randomx::InterpretedVm<randomx::LargePageAllocator,0>::setDataset
_TEXT	ENDS
; Function compile flags: /Ogtpy
;	COMDAT ?datasetRead@?$InterpretedVm@ULargePageAllocator@randomx@@$0A@@randomx@@MEAAX_KAEAY07_K@Z
_TEXT	SEGMENT
this$ = 8
address$ = 16
r$ = 24
?datasetRead@?$InterpretedVm@ULargePageAllocator@randomx@@$0A@@randomx@@MEAAX_KAEAY07_K@Z PROC ; randomx::InterpretedVm<randomx::LargePageAllocator,0>::datasetRead, COMDAT
; File D:\dev\francium_network\francium_agent\src\ext\randomx\repo\src\vm_interpreted.cpp
; Line 117
	mov	rcx, QWORD PTR [rcx+2536]
	add	rcx, rdx
; Line 119
	mov	rax, QWORD PTR [rcx]
	xor	QWORD PTR [r8], rax
	mov	rax, QWORD PTR [rcx+8]
	xor	QWORD PTR [r8+8], rax
	mov	rax, QWORD PTR [rcx+16]
	xor	QWORD PTR [r8+16], rax
	mov	rax, QWORD PTR [rcx+24]
	xor	QWORD PTR [r8+24], rax
	mov	rax, QWORD PTR [rcx+32]
	xor	QWORD PTR [r8+32], rax
	mov	rax, QWORD PTR [rcx+40]
	xor	QWORD PTR [r8+40], rax
	mov	rax, QWORD PTR [rcx+48]
	xor	QWORD PTR [r8+48], rax
	mov	rax, QWORD PTR [rcx+56]
	xor	QWORD PTR [r8+56], rax
; Line 120
	ret	0
?datasetRead@?$InterpretedVm@ULargePageAllocator@randomx@@$0A@@randomx@@MEAAX_KAEAY07_K@Z ENDP ; randomx::InterpretedVm<randomx::LargePageAllocator,0>::datasetRead
_TEXT	ENDS
; Function compile flags: /Ogtpy
;	COMDAT ?datasetPrefetch@?$InterpretedVm@ULargePageAllocator@randomx@@$0A@@randomx@@MEAAX_K@Z
_TEXT	SEGMENT
this$ = 8
address$ = 16
?datasetPrefetch@?$InterpretedVm@ULargePageAllocator@randomx@@$0A@@randomx@@MEAAX_K@Z PROC ; randomx::InterpretedVm<randomx::LargePageAllocator,0>::datasetPrefetch, COMDAT
; File D:\dev\francium_network\francium_agent\src\ext\randomx\repo\src\vm_interpreted.cpp
; Line 124
	mov	rax, QWORD PTR [rcx+2536]
	prefetchnta BYTE PTR [rdx+rax]
; Line 125
	ret	0
?datasetPrefetch@?$InterpretedVm@ULargePageAllocator@randomx@@$0A@@randomx@@MEAAX_K@Z ENDP ; randomx::InterpretedVm<randomx::LargePageAllocator,0>::datasetPrefetch
_TEXT	ENDS
; Function compile flags: /Ogtpy
;	COMDAT ?run@?$InterpretedVm@U?$AlignedAllocator@$0EA@@randomx@@$0A@@randomx@@UEAAXPEAX@Z
_TEXT	SEGMENT
this$ = 48
seed$ = 56
?run@?$InterpretedVm@U?$AlignedAllocator@$0EA@@randomx@@$0A@@randomx@@UEAAXPEAX@Z PROC ; randomx::InterpretedVm<randomx::AlignedAllocator<64>,0>::run, COMDAT
; File D:\dev\francium_network\francium_agent\src\ext\randomx\repo\src\vm_interpreted.cpp
; Line 49
$LN6:
	push	rbx
	sub	rsp, 32					; 00000020H
	mov	rbx, rcx
; File D:\dev\francium_network\francium_agent\src\ext\randomx\repo\src\virtual_machine.cpp
; Line 136
	lea	r8, QWORD PTR [rcx+64]
	mov	rcx, rdx
	call	??$fillAes4Rx4@$0A@@@YAXPEAX_K0@Z	; fillAes4Rx4<0>
; File D:\dev\francium_network\francium_agent\src\ext\randomx\repo\src\vm_interpreted.cpp
; Line 51
	mov	rcx, rbx
	call	?initialize@randomx_vm@@IEAAXXZ		; randomx_vm::initialize
; Line 52
	mov	rcx, rbx
; Line 53
	add	rsp, 32					; 00000020H
	pop	rbx
; Line 52
	jmp	?execute@?$InterpretedVm@U?$AlignedAllocator@$0EA@@randomx@@$0A@@randomx@@AEAAXXZ ; randomx::InterpretedVm<randomx::AlignedAllocator<64>,0>::execute
?run@?$InterpretedVm@U?$AlignedAllocator@$0EA@@randomx@@$0A@@randomx@@UEAAXPEAX@Z ENDP ; randomx::InterpretedVm<randomx::AlignedAllocator<64>,0>::run
_TEXT	ENDS
; Function compile flags: /Ogtpy
;	COMDAT ?setDataset@?$InterpretedVm@U?$AlignedAllocator@$0EA@@randomx@@$0A@@randomx@@UEAAXPEAUrandomx_dataset@@@Z
_TEXT	SEGMENT
this$ = 8
dataset$ = 16
?setDataset@?$InterpretedVm@U?$AlignedAllocator@$0EA@@randomx@@$0A@@randomx@@UEAAXPEAUrandomx_dataset@@@Z PROC ; randomx::InterpretedVm<randomx::AlignedAllocator<64>,0>::setDataset, COMDAT
; File D:\dev\francium_network\francium_agent\src\ext\randomx\repo\src\vm_interpreted.cpp
; Line 44
	mov	QWORD PTR [rcx+2552], rdx
; Line 45
	mov	rax, QWORD PTR [rdx]
	mov	QWORD PTR [rcx+2536], rax
; Line 46
	ret	0
?setDataset@?$InterpretedVm@U?$AlignedAllocator@$0EA@@randomx@@$0A@@randomx@@UEAAXPEAUrandomx_dataset@@@Z ENDP ; randomx::InterpretedVm<randomx::AlignedAllocator<64>,0>::setDataset
_TEXT	ENDS
; Function compile flags: /Ogtpy
;	COMDAT ?datasetRead@?$InterpretedVm@U?$AlignedAllocator@$0EA@@randomx@@$0A@@randomx@@MEAAX_KAEAY07_K@Z
_TEXT	SEGMENT
this$ = 8
address$ = 16
r$ = 24
?datasetRead@?$InterpretedVm@U?$AlignedAllocator@$0EA@@randomx@@$0A@@randomx@@MEAAX_KAEAY07_K@Z PROC ; randomx::InterpretedVm<randomx::AlignedAllocator<64>,0>::datasetRead, COMDAT
; File D:\dev\francium_network\francium_agent\src\ext\randomx\repo\src\vm_interpreted.cpp
; Line 117
	mov	rcx, QWORD PTR [rcx+2536]
	add	rcx, rdx
; Line 119
	mov	rax, QWORD PTR [rcx]
	xor	QWORD PTR [r8], rax
	mov	rax, QWORD PTR [rcx+8]
	xor	QWORD PTR [r8+8], rax
	mov	rax, QWORD PTR [rcx+16]
	xor	QWORD PTR [r8+16], rax
	mov	rax, QWORD PTR [rcx+24]
	xor	QWORD PTR [r8+24], rax
	mov	rax, QWORD PTR [rcx+32]
	xor	QWORD PTR [r8+32], rax
	mov	rax, QWORD PTR [rcx+40]
	xor	QWORD PTR [r8+40], rax
	mov	rax, QWORD PTR [rcx+48]
	xor	QWORD PTR [r8+48], rax
	mov	rax, QWORD PTR [rcx+56]
	xor	QWORD PTR [r8+56], rax
; Line 120
	ret	0
?datasetRead@?$InterpretedVm@U?$AlignedAllocator@$0EA@@randomx@@$0A@@randomx@@MEAAX_KAEAY07_K@Z ENDP ; randomx::InterpretedVm<randomx::AlignedAllocator<64>,0>::datasetRead
_TEXT	ENDS
; Function compile flags: /Ogtpy
;	COMDAT ?datasetPrefetch@?$InterpretedVm@U?$AlignedAllocator@$0EA@@randomx@@$0A@@randomx@@MEAAX_K@Z
_TEXT	SEGMENT
this$ = 8
address$ = 16
?datasetPrefetch@?$InterpretedVm@U?$AlignedAllocator@$0EA@@randomx@@$0A@@randomx@@MEAAX_K@Z PROC ; randomx::InterpretedVm<randomx::AlignedAllocator<64>,0>::datasetPrefetch, COMDAT
; File D:\dev\francium_network\francium_agent\src\ext\randomx\repo\src\vm_interpreted.cpp
; Line 124
	mov	rax, QWORD PTR [rcx+2536]
	prefetchnta BYTE PTR [rdx+rax]
; Line 125
	ret	0
?datasetPrefetch@?$InterpretedVm@U?$AlignedAllocator@$0EA@@randomx@@$0A@@randomx@@MEAAX_K@Z ENDP ; randomx::InterpretedVm<randomx::AlignedAllocator<64>,0>::datasetPrefetch
_TEXT	ENDS
; Function compile flags: /Ogtpy
;	COMDAT ?run@?$InterpretedVm@U?$AlignedAllocator@$0EA@@randomx@@$00@randomx@@UEAAXPEAX@Z
_TEXT	SEGMENT
this$ = 48
seed$ = 56
?run@?$InterpretedVm@U?$AlignedAllocator@$0EA@@randomx@@$00@randomx@@UEAAXPEAX@Z PROC ; randomx::InterpretedVm<randomx::AlignedAllocator<64>,1>::run, COMDAT
; File D:\dev\francium_network\francium_agent\src\ext\randomx\repo\src\vm_interpreted.cpp
; Line 49
$LN6:
	push	rbx
	sub	rsp, 32					; 00000020H
	mov	rbx, rcx
; File D:\dev\francium_network\francium_agent\src\ext\randomx\repo\src\virtual_machine.cpp
; Line 136
	lea	r8, QWORD PTR [rcx+64]
	mov	rcx, rdx
	call	??$fillAes4Rx4@$00@@YAXPEAX_K0@Z	; fillAes4Rx4<1>
; File D:\dev\francium_network\francium_agent\src\ext\randomx\repo\src\vm_interpreted.cpp
; Line 51
	mov	rcx, rbx
	call	?initialize@randomx_vm@@IEAAXXZ		; randomx_vm::initialize
; Line 52
	mov	rcx, rbx
; Line 53
	add	rsp, 32					; 00000020H
	pop	rbx
; Line 52
	jmp	?execute@?$InterpretedVm@U?$AlignedAllocator@$0EA@@randomx@@$00@randomx@@AEAAXXZ ; randomx::InterpretedVm<randomx::AlignedAllocator<64>,1>::execute
?run@?$InterpretedVm@U?$AlignedAllocator@$0EA@@randomx@@$00@randomx@@UEAAXPEAX@Z ENDP ; randomx::InterpretedVm<randomx::AlignedAllocator<64>,1>::run
_TEXT	ENDS
; Function compile flags: /Ogtpy
;	COMDAT ?setDataset@?$InterpretedVm@U?$AlignedAllocator@$0EA@@randomx@@$00@randomx@@UEAAXPEAUrandomx_dataset@@@Z
_TEXT	SEGMENT
this$ = 8
dataset$ = 16
?setDataset@?$InterpretedVm@U?$AlignedAllocator@$0EA@@randomx@@$00@randomx@@UEAAXPEAUrandomx_dataset@@@Z PROC ; randomx::InterpretedVm<randomx::AlignedAllocator<64>,1>::setDataset, COMDAT
; File D:\dev\francium_network\francium_agent\src\ext\randomx\repo\src\vm_interpreted.cpp
; Line 44
	mov	QWORD PTR [rcx+2552], rdx
; Line 45
	mov	rax, QWORD PTR [rdx]
	mov	QWORD PTR [rcx+2536], rax
; Line 46
	ret	0
?setDataset@?$InterpretedVm@U?$AlignedAllocator@$0EA@@randomx@@$00@randomx@@UEAAXPEAUrandomx_dataset@@@Z ENDP ; randomx::InterpretedVm<randomx::AlignedAllocator<64>,1>::setDataset
_TEXT	ENDS
; Function compile flags: /Ogtpy
;	COMDAT ?datasetRead@?$InterpretedVm@U?$AlignedAllocator@$0EA@@randomx@@$00@randomx@@MEAAX_KAEAY07_K@Z
_TEXT	SEGMENT
this$ = 8
address$ = 16
r$ = 24
?datasetRead@?$InterpretedVm@U?$AlignedAllocator@$0EA@@randomx@@$00@randomx@@MEAAX_KAEAY07_K@Z PROC ; randomx::InterpretedVm<randomx::AlignedAllocator<64>,1>::datasetRead, COMDAT
; File D:\dev\francium_network\francium_agent\src\ext\randomx\repo\src\vm_interpreted.cpp
; Line 117
	mov	rcx, QWORD PTR [rcx+2536]
	add	rcx, rdx
; Line 119
	mov	rax, QWORD PTR [rcx]
	xor	QWORD PTR [r8], rax
	mov	rax, QWORD PTR [rcx+8]
	xor	QWORD PTR [r8+8], rax
	mov	rax, QWORD PTR [rcx+16]
	xor	QWORD PTR [r8+16], rax
	mov	rax, QWORD PTR [rcx+24]
	xor	QWORD PTR [r8+24], rax
	mov	rax, QWORD PTR [rcx+32]
	xor	QWORD PTR [r8+32], rax
	mov	rax, QWORD PTR [rcx+40]
	xor	QWORD PTR [r8+40], rax
	mov	rax, QWORD PTR [rcx+48]
	xor	QWORD PTR [r8+48], rax
	mov	rax, QWORD PTR [rcx+56]
	xor	QWORD PTR [r8+56], rax
; Line 120
	ret	0
?datasetRead@?$InterpretedVm@U?$AlignedAllocator@$0EA@@randomx@@$00@randomx@@MEAAX_KAEAY07_K@Z ENDP ; randomx::InterpretedVm<randomx::AlignedAllocator<64>,1>::datasetRead
_TEXT	ENDS
; Function compile flags: /Ogtpy
;	COMDAT ?datasetPrefetch@?$InterpretedVm@U?$AlignedAllocator@$0EA@@randomx@@$00@randomx@@MEAAX_K@Z
_TEXT	SEGMENT
this$ = 8
address$ = 16
?datasetPrefetch@?$InterpretedVm@U?$AlignedAllocator@$0EA@@randomx@@$00@randomx@@MEAAX_K@Z PROC ; randomx::InterpretedVm<randomx::AlignedAllocator<64>,1>::datasetPrefetch, COMDAT
; File D:\dev\francium_network\francium_agent\src\ext\randomx\repo\src\vm_interpreted.cpp
; Line 124
	mov	rax, QWORD PTR [rcx+2536]
	prefetchnta BYTE PTR [rdx+rax]
; Line 125
	ret	0
?datasetPrefetch@?$InterpretedVm@U?$AlignedAllocator@$0EA@@randomx@@$00@randomx@@MEAAX_K@Z ENDP ; randomx::InterpretedVm<randomx::AlignedAllocator<64>,1>::datasetPrefetch
_TEXT	ENDS
; Function compile flags: /Ogtpy
;	COMDAT ?load64_native@@YA_KPEBX@Z
_TEXT	SEGMENT
src$ = 8
?load64_native@@YA_KPEBX@Z PROC				; load64_native, COMDAT
; File D:\dev\francium_network\francium_agent\src\ext\randomx\repo\src\blake2\endian.h
; Line 47
	mov	rax, QWORD PTR [rcx]
; Line 48
	ret	0
?load64_native@@YA_KPEBX@Z ENDP				; load64_native
_TEXT	ENDS
; Function compile flags: /Ogtpy
;	COMDAT ?load64@@YA_KPEBX@Z
_TEXT	SEGMENT
src$ = 8
?load64@@YA_KPEBX@Z PROC				; load64, COMDAT
; File D:\dev\francium_network\francium_agent\src\ext\randomx\repo\src\blake2\endian.h
; Line 52
	mov	rax, QWORD PTR [rcx]
; Line 65
	ret	0
?load64@@YA_KPEBX@Z ENDP				; load64
_TEXT	ENDS
; Function compile flags: /Ogtpy
;	COMDAT ?store64_native@@YAXPEAX_K@Z
_TEXT	SEGMENT
dst$ = 8
w$ = 16
?store64_native@@YAXPEAX_K@Z PROC			; store64_native, COMDAT
; File D:\dev\francium_network\francium_agent\src\ext\randomx\repo\src\blake2\endian.h
; Line 83
	mov	QWORD PTR [rcx], rdx
; Line 84
	ret	0
?store64_native@@YAXPEAX_K@Z ENDP			; store64_native
_TEXT	ENDS
; Function compile flags: /Ogtpy
;	COMDAT ?store64@@YAXPEAX_K@Z
_TEXT	SEGMENT
dst$ = 8
w$ = 16
?store64@@YAXPEAX_K@Z PROC				; store64, COMDAT
; File D:\dev\francium_network\francium_agent\src\ext\randomx\repo\src\blake2\endian.h
; Line 88
	mov	QWORD PTR [rcx], rdx
; Line 107
	ret	0
?store64@@YAXPEAX_K@Z ENDP				; store64
_TEXT	ENDS
; Function compile flags: /Ogtpy
;	COMDAT ??RProgram@randomx@@QEAAAEAVInstruction@1@H@Z
_TEXT	SEGMENT
this$ = 8
pc$ = 16
??RProgram@randomx@@QEAAAEAVInstruction@1@H@Z PROC	; randomx::Program::operator(), COMDAT
; File D:\dev\francium_network\francium_agent\src\ext\randomx\repo\src\program.hpp
; Line 47
	movsxd	rax, edx
	add	rax, 16
	lea	rax, QWORD PTR [rcx+rax*8]
; Line 48
	ret	0
??RProgram@randomx@@QEAAAEAVInstruction@1@H@Z ENDP	; randomx::Program::operator()
_TEXT	ENDS
; Function compile flags: /Ogtpy
;	COMDAT ?rx_set_vec_f128@@YA?AU__m128d@@_K0@Z
_TEXT	SEGMENT
x1$dead$ = 8
x0$dead$ = 16
?rx_set_vec_f128@@YA?AU__m128d@@_K0@Z PROC		; rx_set_vec_f128, COMDAT
; File D:\dev\francium_network\francium_agent\src\ext\randomx\repo\src\intrin_portable.h
; Line 120
	movdqa	xmm0, XMMWORD PTR __xmm@00ffffffffffffff00ffffffffffffff
; Line 121
	ret	0
?rx_set_vec_f128@@YA?AU__m128d@@_K0@Z ENDP		; rx_set_vec_f128
_TEXT	ENDS
; Function compile flags: /Ogtpy
;	COMDAT ?rx_cvt_packed_int_vec_f128@@YA?AU__m128d@@PEBX@Z
_TEXT	SEGMENT
addr$ = 8
?rx_cvt_packed_int_vec_f128@@YA?AU__m128d@@PEBX@Z PROC	; rx_cvt_packed_int_vec_f128, COMDAT
; File D:\dev\francium_network\francium_agent\src\ext\randomx\repo\src\intrin_portable.h
; Line 163
	cvtdq2pd xmm0, QWORD PTR [rcx]
; Line 164
	ret	0
?rx_cvt_packed_int_vec_f128@@YA?AU__m128d@@PEBX@Z ENDP	; rx_cvt_packed_int_vec_f128
_TEXT	ENDS
; Function compile flags: /Ogtpy
;	COMDAT ?beginCompilation@BytecodeMachine@randomx@@QEAAXAEAUNativeRegisterFile@2@@Z
_TEXT	SEGMENT
this$ = 8
regFile$ = 16
?beginCompilation@BytecodeMachine@randomx@@QEAAXAEAUNativeRegisterFile@2@@Z PROC ; randomx::BytecodeMachine::beginCompilation, COMDAT
; File D:\dev\francium_network\francium_agent\src\ext\randomx\repo\src\bytecode_machine.hpp
; Line 112
	mov	QWORD PTR [rcx], -1
	mov	QWORD PTR [rcx+8], -1
	mov	QWORD PTR [rcx+16], -1
	mov	QWORD PTR [rcx+24], -1
; Line 114
	mov	QWORD PTR [rcx+32], rdx
; Line 115
	ret	0
?beginCompilation@BytecodeMachine@randomx@@QEAAXAEAUNativeRegisterFile@2@@Z ENDP ; randomx::BytecodeMachine::beginCompilation
_TEXT	ENDS
; Function compile flags: /Ogtpy
;	COMDAT ?compileProgram@BytecodeMachine@randomx@@QEAAXAEAVProgram@2@QEAUInstructionByteCode@2@AEAUNativeRegisterFile@2@@Z
_TEXT	SEGMENT
this$ = 48
program$ = 56
bytecode$ = 64
regFile$ = 72
?compileProgram@BytecodeMachine@randomx@@QEAAXAEAVProgram@2@QEAUInstructionByteCode@2@AEAUNativeRegisterFile@2@@Z PROC ; randomx::BytecodeMachine::compileProgram, COMDAT
; File D:\dev\francium_network\francium_agent\src\ext\randomx\repo\src\bytecode_machine.hpp
; Line 117
$LN31:
	mov	QWORD PTR [rsp+8], rbx
	mov	QWORD PTR [rsp+16], rbp
	mov	QWORD PTR [rsp+24], rsi
	push	rdi
	sub	rsp, 32					; 00000020H
; Line 112
	mov	QWORD PTR [rcx], -1
; Line 117
	mov	rsi, r8
; Line 112
	mov	QWORD PTR [rcx+8], -1
; Line 117
	mov	rbp, rdx
; Line 112
	mov	QWORD PTR [rcx+16], -1
; Line 117
	mov	rdi, rcx
; Line 112
	mov	QWORD PTR [rcx+24], -1
; Line 114
	xor	ebx, ebx
	mov	QWORD PTR [rcx+32], r9
	npad	14
$LL4@compilePro:
; File D:\dev\francium_network\francium_agent\src\ext\randomx\repo\src\program.hpp
; Line 47
	movsxd	rax, ebx
	lea	rdx, QWORD PTR [rbp+128]
; File D:\dev\francium_network\francium_agent\src\ext\randomx\repo\src\bytecode_machine.hpp
; Line 121
	mov	r9d, ebx
; Line 122
	mov	r8d, ebx
	shl	r9, 5
	mov	rcx, rdi
	add	r9, rsi
; File D:\dev\francium_network\francium_agent\src\ext\randomx\repo\src\program.hpp
; Line 47
	lea	rdx, QWORD PTR [rdx+rax*8]
; File D:\dev\francium_network\francium_agent\src\ext\randomx\repo\src\bytecode_machine.hpp
; Line 122
	call	?compileInstruction@BytecodeMachine@randomx@@QEAAXAEAVInstruction@2@HAEAUInstructionByteCode@2@@Z ; randomx::BytecodeMachine::compileInstruction
	inc	ebx
	cmp	ebx, 256				; 00000100H
	jb	SHORT $LL4@compilePro
; Line 124
	mov	rbx, QWORD PTR [rsp+48]
	mov	rbp, QWORD PTR [rsp+56]
	mov	rsi, QWORD PTR [rsp+64]
	add	rsp, 32					; 00000020H
	pop	rdi
	ret	0
?compileProgram@BytecodeMachine@randomx@@QEAAXAEAVProgram@2@QEAUInstructionByteCode@2@AEAUNativeRegisterFile@2@@Z ENDP ; randomx::BytecodeMachine::compileProgram
_TEXT	ENDS
; Function compile flags: /Ogtpy
;	COMDAT ?executeBytecode@BytecodeMachine@randomx@@SAXQEAUInstructionByteCode@2@PEAEAEAUProgramConfiguration@2@@Z
_TEXT	SEGMENT
bytecode$ = 48
scratchpad$ = 56
config$ = 64
pc$1 = 72
?executeBytecode@BytecodeMachine@randomx@@SAXQEAUInstructionByteCode@2@PEAEAEAUProgramConfiguration@2@@Z PROC ; randomx::BytecodeMachine::executeBytecode, COMDAT
; File D:\dev\francium_network\francium_agent\src\ext\randomx\repo\src\bytecode_machine.hpp
; Line 126
$LN11:
	push	rbx
	sub	rsp, 32					; 00000020H
; Line 127
	xor	eax, eax
	mov	r9, r8
	mov	DWORD PTR pc$1[rsp], eax
	mov	r10, rdx
	mov	rbx, rcx
	npad	11
$LL4@executeByt:
; Line 129
	movsxd	rcx, eax
	lea	rdx, QWORD PTR pc$1[rsp]
	shl	rcx, 5
	mov	r8, r10
	add	rcx, rbx
	call	?executeInstruction@BytecodeMachine@randomx@@SAXAEAUInstructionByteCode@2@AEAHPEAEAEAUProgramConfiguration@2@@Z ; randomx::BytecodeMachine::executeInstruction
	mov	eax, DWORD PTR pc$1[rsp]
	inc	eax
	mov	DWORD PTR pc$1[rsp], eax
	cmp	eax, 256				; 00000100H
	jl	SHORT $LL4@executeByt
; Line 131
	add	rsp, 32					; 00000020H
	pop	rbx
	ret	0
?executeBytecode@BytecodeMachine@randomx@@SAXQEAUInstructionByteCode@2@PEAEAEAUProgramConfiguration@2@@Z ENDP ; randomx::BytecodeMachine::executeBytecode
_TEXT	ENDS
; Function compile flags: /Ogtpy
;	COMDAT ?maskRegisterExponentMantissa@BytecodeMachine@randomx@@KA?AU__m128d@@AEAUProgramConfiguration@2@U3@@Z
_TEXT	SEGMENT
config$ = 8
x$ = 16
?maskRegisterExponentMantissa@BytecodeMachine@randomx@@KA?AU__m128d@@AEAUProgramConfiguration@2@U3@@Z PROC ; randomx::BytecodeMachine::maskRegisterExponentMantissa, COMDAT
; File D:\dev\francium_network\francium_agent\src\ext\randomx\repo\src\bytecode_machine.hpp
; File D:\dev\francium_network\francium_agent\src\ext\randomx\repo\src\intrin_portable.h
; Line 120
	movdqa	xmm0, XMMWORD PTR __xmm@00ffffffffffffff00ffffffffffffff
; File D:\dev\francium_network\francium_agent\src\ext\randomx\repo\src\bytecode_machine.hpp
; Line 272
	andps	xmm0, XMMWORD PTR [rdx]
; Line 273
	orps	xmm0, XMMWORD PTR [rcx]
; Line 275
	ret	0
?maskRegisterExponentMantissa@BytecodeMachine@randomx@@KA?AU__m128d@@AEAUProgramConfiguration@2@U3@@Z ENDP ; randomx::BytecodeMachine::maskRegisterExponentMantissa
_TEXT	ENDS
; Function compile flags: /Ogtpy
;	COMDAT ?execute@?$InterpretedVm@U?$AlignedAllocator@$0EA@@randomx@@$00@randomx@@AEAAXXZ
_TEXT	SEGMENT
pc$17 = 32
nreg$ = 48
__$ArrayPad$ = 304
this$ = 384
?execute@?$InterpretedVm@U?$AlignedAllocator@$0EA@@randomx@@$00@randomx@@AEAAXXZ PROC ; randomx::InterpretedVm<randomx::AlignedAllocator<64>,1>::execute, COMDAT
; File D:\dev\francium_network\francium_agent\src\ext\randomx\repo\src\vm_interpreted.cpp
; Line 56
$LN176:
	mov	rax, rsp
	mov	QWORD PTR [rax+16], rbx
	mov	QWORD PTR [rax+24], rsi
	push	rbp
	push	rdi
	push	r12
	push	r14
	push	r15
	lea	rbp, QWORD PTR [rax-120]
	sub	rsp, 336				; 00000150H
	movaps	XMMWORD PTR [rax-56], xmm6
	mov	rax, QWORD PTR __security_cookie
	xor	rax, rsp
	mov	QWORD PTR __$ArrayPad$[rbp-256], rax
; Line 61
	movups	xmm1, XMMWORD PTR [rcx+2448]
; Line 63
	lea	rsi, QWORD PTR [rcx+2688]
	xorps	xmm0, xmm0
	movaps	XMMWORD PTR nreg$[rbp-48], xmm1
	movups	xmm1, XMMWORD PTR [rcx+2480]
; File D:\dev\francium_network\francium_agent\src\ext\randomx\repo\src\bytecode_machine.hpp
; Line 114
	lea	rax, QWORD PTR nreg$[rsp]
	movups	XMMWORD PTR nreg$[rsp], xmm0
	xor	r12d, r12d
; File D:\dev\francium_network\francium_agent\src\ext\randomx\repo\src\vm_interpreted.cpp
; Line 56
	mov	rbx, rcx
	movups	XMMWORD PTR nreg$[rsp+16], xmm0
; File D:\dev\francium_network\francium_agent\src\ext\randomx\repo\src\bytecode_machine.hpp
; Line 114
	mov	edi, r12d
	movups	XMMWORD PTR nreg$[rsp+32], xmm0
	movups	XMMWORD PTR nreg$[rsp+48], xmm0
; File D:\dev\francium_network\francium_agent\src\ext\randomx\repo\src\vm_interpreted.cpp
; Line 61
	movups	xmm0, XMMWORD PTR [rcx+2432]
	movaps	XMMWORD PTR nreg$[rbp-64], xmm0
	movups	xmm0, XMMWORD PTR [rcx+2464]
; File D:\dev\francium_network\francium_agent\src\ext\randomx\repo\src\bytecode_machine.hpp
; Line 112
	mov	QWORD PTR [rsi], -1
	mov	QWORD PTR [rsi+8], -1
	mov	QWORD PTR [rsi+16], -1
	mov	QWORD PTR [rsi+24], -1
; File D:\dev\francium_network\francium_agent\src\ext\randomx\repo\src\vm_interpreted.cpp
; Line 61
	movaps	XMMWORD PTR nreg$[rbp-32], xmm0
; File D:\dev\francium_network\francium_agent\src\ext\randomx\repo\src\bytecode_machine.hpp
; Line 114
	mov	QWORD PTR [rsi+32], rax
; File D:\dev\francium_network\francium_agent\src\ext\randomx\repo\src\vm_interpreted.cpp
; Line 61
	movaps	XMMWORD PTR nreg$[rbp-16], xmm1
	npad	5
$LL54@execute:
; File D:\dev\francium_network\francium_agent\src\ext\randomx\repo\src\program.hpp
; Line 47
	movsxd	rax, edi
; File D:\dev\francium_network\francium_agent\src\ext\randomx\repo\src\bytecode_machine.hpp
; Line 122
	mov	r8d, edi
; File D:\dev\francium_network\francium_agent\src\ext\randomx\repo\src\program.hpp
; Line 47
	add	rax, 24
; File D:\dev\francium_network\francium_agent\src\ext\randomx\repo\src\bytecode_machine.hpp
; Line 121
	mov	r9d, edi
	shl	r9, 5
; Line 122
	mov	rcx, rsi
	add	r9, 2728				; 00000aa8H
	add	r9, rbx
; File D:\dev\francium_network\francium_agent\src\ext\randomx\repo\src\program.hpp
; Line 47
	lea	rdx, QWORD PTR [rbx+rax*8]
; File D:\dev\francium_network\francium_agent\src\ext\randomx\repo\src\bytecode_machine.hpp
; Line 122
	call	?compileInstruction@BytecodeMachine@randomx@@QEAAXAEAVInstruction@2@HAEAUInstructionByteCode@2@@Z ; randomx::BytecodeMachine::compileInstruction
	inc	edi
	cmp	edi, 256				; 00000100H
	jb	SHORT $LL54@execute
; File D:\dev\francium_network\francium_agent\src\ext\randomx\repo\src\vm_interpreted.cpp
; Line 65
	mov	r8d, DWORD PTR [rbx+2528]
	mov	r15d, 2048				; 00000800H
; Line 66
	mov	r9d, DWORD PTR [rbx+2532]
	movdqa	xmm6, XMMWORD PTR __xmm@00ffffffffffffff00ffffffffffffff
	npad	3
$LL7@execute:
; Line 76
	mov	r10, QWORD PTR [rbx+2544]
	mov	eax, DWORD PTR [rbx+2512]
; File D:\dev\francium_network\francium_agent\src\ext\randomx\repo\src\bytecode_machine.hpp
; Line 271
	movups	xmm2, XMMWORD PTR [rbx+2496]
; File D:\dev\francium_network\francium_agent\src\ext\randomx\repo\src\vm_interpreted.cpp
; Line 69
	mov	ecx, DWORD PTR [rbx+2516]
; File D:\dev\francium_network\francium_agent\src\ext\randomx\repo\src\bytecode_machine.hpp
; Line 127
	mov	DWORD PTR pc$17[rsp], r12d
; File D:\dev\francium_network\francium_agent\src\ext\randomx\repo\src\vm_interpreted.cpp
; Line 69
	mov	rdx, QWORD PTR nreg$[rsp+rcx*8]
	xor	rdx, QWORD PTR nreg$[rsp+rax*8]
; Line 71
	mov	eax, edx
; Line 72
	shr	rdx, 32					; 00000020H
	xor	eax, r8d
; Line 73
	xor	edx, r9d
	and	eax, 2097088				; 001fffc0H
	and	edx, 2097088				; 001fffc0H
	mov	r14d, eax
	mov	esi, edx
; Line 76
	mov	rax, QWORD PTR [rax+r10]
	xor	QWORD PTR nreg$[rsp], rax
	mov	rax, QWORD PTR [r10+r14+8]
	xor	QWORD PTR nreg$[rsp+8], rax
	mov	rax, QWORD PTR [r10+r14+16]
	xor	QWORD PTR nreg$[rsp+16], rax
	mov	rax, QWORD PTR [r10+r14+24]
	xor	QWORD PTR nreg$[rsp+24], rax
	mov	rax, QWORD PTR [r10+r14+32]
	xor	QWORD PTR nreg$[rsp+32], rax
	mov	rax, QWORD PTR [r10+r14+40]
	xor	QWORD PTR nreg$[rsp+40], rax
	mov	rax, QWORD PTR [r10+r14+48]
	xor	QWORD PTR nreg$[rsp+48], rax
	mov	rax, QWORD PTR [r10+r14+56]
	xor	QWORD PTR nreg$[rsp+56], rax
	mov	eax, r12d
; File D:\dev\francium_network\francium_agent\src\ext\randomx\repo\src\intrin_portable.h
; Line 163
	cvtdq2pd xmm1, QWORD PTR [rdx+r10]
; File D:\dev\francium_network\francium_agent\src\ext\randomx\repo\src\vm_interpreted.cpp
; Line 79
	movaps	XMMWORD PTR nreg$[rsp+64], xmm1
; File D:\dev\francium_network\francium_agent\src\ext\randomx\repo\src\intrin_portable.h
; Line 163
	cvtdq2pd xmm1, QWORD PTR [r10+rdx+8]
; File D:\dev\francium_network\francium_agent\src\ext\randomx\repo\src\vm_interpreted.cpp
; Line 79
	movaps	XMMWORD PTR nreg$[rbp-176], xmm1
; File D:\dev\francium_network\francium_agent\src\ext\randomx\repo\src\intrin_portable.h
; Line 163
	cvtdq2pd xmm1, QWORD PTR [r10+rdx+16]
; File D:\dev\francium_network\francium_agent\src\ext\randomx\repo\src\vm_interpreted.cpp
; Line 79
	movaps	XMMWORD PTR nreg$[rbp-160], xmm1
; File D:\dev\francium_network\francium_agent\src\ext\randomx\repo\src\intrin_portable.h
; Line 163
	cvtdq2pd xmm1, QWORD PTR [r10+rdx+24]
; File D:\dev\francium_network\francium_agent\src\ext\randomx\repo\src\vm_interpreted.cpp
; Line 79
	movaps	XMMWORD PTR nreg$[rbp-144], xmm1
; File D:\dev\francium_network\francium_agent\src\ext\randomx\repo\src\intrin_portable.h
; Line 163
	cvtdq2pd xmm1, QWORD PTR [r10+rdx+32]
; File D:\dev\francium_network\francium_agent\src\ext\randomx\repo\src\bytecode_machine.hpp
; Line 272
	andps	xmm1, xmm6
; Line 273
	orps	xmm1, xmm2
; File D:\dev\francium_network\francium_agent\src\ext\randomx\repo\src\vm_interpreted.cpp
; Line 82
	movaps	XMMWORD PTR nreg$[rbp-128], xmm1
; File D:\dev\francium_network\francium_agent\src\ext\randomx\repo\src\intrin_portable.h
; Line 163
	cvtdq2pd xmm1, QWORD PTR [r10+rdx+40]
; File D:\dev\francium_network\francium_agent\src\ext\randomx\repo\src\bytecode_machine.hpp
; Line 272
	andps	xmm1, xmm6
; Line 273
	orps	xmm1, xmm2
; File D:\dev\francium_network\francium_agent\src\ext\randomx\repo\src\vm_interpreted.cpp
; Line 82
	movaps	XMMWORD PTR nreg$[rbp-112], xmm1
; File D:\dev\francium_network\francium_agent\src\ext\randomx\repo\src\intrin_portable.h
; Line 163
	cvtdq2pd xmm1, QWORD PTR [r10+rdx+48]
; File D:\dev\francium_network\francium_agent\src\ext\randomx\repo\src\bytecode_machine.hpp
; Line 272
	andps	xmm1, xmm6
; Line 273
	orps	xmm1, xmm2
; File D:\dev\francium_network\francium_agent\src\ext\randomx\repo\src\vm_interpreted.cpp
; Line 82
	movaps	XMMWORD PTR nreg$[rbp-96], xmm1
; File D:\dev\francium_network\francium_agent\src\ext\randomx\repo\src\intrin_portable.h
; Line 163
	cvtdq2pd xmm1, QWORD PTR [r10+rdx+56]
; File D:\dev\francium_network\francium_agent\src\ext\randomx\repo\src\bytecode_machine.hpp
; Line 272
	andps	xmm1, xmm6
; Line 273
	orps	xmm1, xmm2
; File D:\dev\francium_network\francium_agent\src\ext\randomx\repo\src\vm_interpreted.cpp
; Line 82
	movaps	XMMWORD PTR nreg$[rbp-80], xmm1
	npad	9
$LL45@execute:
; File D:\dev\francium_network\francium_agent\src\ext\randomx\repo\src\bytecode_machine.hpp
; Line 129
	movsxd	rcx, eax
	lea	r9, QWORD PTR [rbx+2496]
	shl	rcx, 5
	lea	rdx, QWORD PTR pc$17[rsp]
	add	rcx, 2728				; 00000aa8H
	mov	r8, r10
	add	rcx, rbx
	call	?executeInstruction@BytecodeMachine@randomx@@SAXAEAUInstructionByteCode@2@AEAHPEAEAEAUProgramConfiguration@2@@Z ; randomx::BytecodeMachine::executeInstruction
	mov	eax, DWORD PTR pc$17[rsp]
	inc	eax
	mov	DWORD PTR pc$17[rsp], eax
	cmp	eax, 256				; 00000100H
	jl	SHORT $LL45@execute
; File D:\dev\francium_network\francium_agent\src\ext\randomx\repo\src\vm_interpreted.cpp
; Line 86
	mov	ecx, DWORD PTR [rbx+2520]
	mov	eax, DWORD PTR [rbx+2524]
; Line 87
	mov	edx, DWORD PTR nreg$[rsp+rcx*8]
; Line 88
	mov	rcx, rbx
	xor	edx, DWORD PTR nreg$[rsp+rax*8]
	xor	edx, DWORD PTR [rbx+2528]
	mov	rax, QWORD PTR [rbx]
	and	edx, 2147483584				; 7fffffc0H
	mov	DWORD PTR [rbx+2528], edx
	add	rdx, QWORD PTR [rbx+2560]
	call	QWORD PTR [rax+72]
; Line 89
	mov	edx, DWORD PTR [rbx+2532]
	lea	r8, QWORD PTR nreg$[rsp]
	mov	rax, QWORD PTR [rbx]
	mov	rcx, rbx
	add	rdx, QWORD PTR [rbx+2560]
	call	QWORD PTR [rax+64]
; File D:\software\Visual Studio 2022\VC\Tools\MSVC\14.35.32215\include\utility
; Line 100
	mov	ecx, DWORD PTR [rbx+2528]
; File D:\dev\francium_network\francium_agent\src\ext\randomx\repo\src\vm_interpreted.cpp
; Line 101
	mov	r8d, r12d
; File D:\software\Visual Studio 2022\VC\Tools\MSVC\14.35.32215\include\utility
; Line 101
	mov	eax, DWORD PTR [rbx+2532]
; File D:\dev\francium_network\francium_agent\src\ext\randomx\repo\src\vm_interpreted.cpp
; Line 102
	mov	r9d, r12d
; File D:\software\Visual Studio 2022\VC\Tools\MSVC\14.35.32215\include\utility
; Line 101
	mov	DWORD PTR [rbx+2528], eax
; File D:\dev\francium_network\francium_agent\src\ext\randomx\repo\src\vm_interpreted.cpp
; Line 93
	mov	rax, QWORD PTR nreg$[rsp]
; File D:\software\Visual Studio 2022\VC\Tools\MSVC\14.35.32215\include\utility
; Line 102
	mov	DWORD PTR [rbx+2532], ecx
; File D:\dev\francium_network\francium_agent\src\ext\randomx\repo\src\vm_interpreted.cpp
; Line 93
	mov	rcx, QWORD PTR [rbx+2544]
	mov	QWORD PTR [rsi+rcx], rax
	mov	rcx, QWORD PTR [rbx+2544]
	mov	rax, QWORD PTR nreg$[rsp+8]
	mov	QWORD PTR [rcx+rsi+8], rax
	mov	rcx, QWORD PTR [rbx+2544]
	mov	rax, QWORD PTR nreg$[rsp+16]
	mov	QWORD PTR [rcx+rsi+16], rax
	mov	rcx, QWORD PTR [rbx+2544]
	mov	rax, QWORD PTR nreg$[rsp+24]
	mov	QWORD PTR [rcx+rsi+24], rax
	mov	rcx, QWORD PTR [rbx+2544]
	mov	rax, QWORD PTR nreg$[rsp+32]
	mov	QWORD PTR [rcx+rsi+32], rax
	mov	rcx, QWORD PTR [rbx+2544]
	mov	rax, QWORD PTR nreg$[rsp+40]
	mov	QWORD PTR [rcx+rsi+40], rax
	mov	rcx, QWORD PTR [rbx+2544]
	mov	rax, QWORD PTR nreg$[rsp+48]
	mov	QWORD PTR [rcx+rsi+48], rax
	mov	rax, QWORD PTR nreg$[rsp+56]
	mov	rcx, QWORD PTR [rbx+2544]
	mov	QWORD PTR [rcx+rsi+56], rax
; Line 96
	movaps	xmm0, XMMWORD PTR nreg$[rbp-112]
	xorps	xmm0, XMMWORD PTR nreg$[rbp-176]
	movaps	xmm2, XMMWORD PTR nreg$[rbp-128]
	movaps	xmm1, XMMWORD PTR nreg$[rbp-96]
	xorps	xmm1, XMMWORD PTR nreg$[rbp-160]
; Line 99
	mov	rax, QWORD PTR [rbx+2544]
	xorps	xmm2, XMMWORD PTR nreg$[rsp+64]
	movaps	XMMWORD PTR nreg$[rbp-176], xmm0
	movaps	xmm0, XMMWORD PTR nreg$[rbp-80]
	xorps	xmm0, XMMWORD PTR nreg$[rbp-144]
	movaps	XMMWORD PTR nreg$[rbp-144], xmm0
	movaps	XMMWORD PTR nreg$[rbp-160], xmm1
	movaps	XMMWORD PTR nreg$[rsp+64], xmm2
	movups	XMMWORD PTR [r14+rax], xmm2
	mov	rax, QWORD PTR [rbx+2544]
	movaps	xmm0, XMMWORD PTR nreg$[rbp-176]
	movups	XMMWORD PTR [rax+r14+16], xmm0
	mov	rax, QWORD PTR [rbx+2544]
	movaps	xmm1, XMMWORD PTR nreg$[rbp-160]
	movups	XMMWORD PTR [rax+r14+32], xmm1
	mov	rax, QWORD PTR [rbx+2544]
	movaps	xmm0, XMMWORD PTR nreg$[rbp-144]
	movups	XMMWORD PTR [rax+r14+48], xmm0
	sub	r15, 1
	jne	$LL7@execute
; Line 106
	mov	rax, QWORD PTR nreg$[rsp]
; Line 109
	movaps	xmm0, XMMWORD PTR nreg$[rsp+64]
	movaps	xmm1, XMMWORD PTR nreg$[rbp-176]
	mov	QWORD PTR [rbx+2240], rax
	mov	rax, QWORD PTR nreg$[rsp+8]
	mov	QWORD PTR [rbx+2248], rax
	mov	rax, QWORD PTR nreg$[rsp+16]
	mov	QWORD PTR [rbx+2256], rax
	mov	rax, QWORD PTR nreg$[rsp+24]
	mov	QWORD PTR [rbx+2264], rax
	mov	rax, QWORD PTR nreg$[rsp+32]
	mov	QWORD PTR [rbx+2272], rax
	mov	rax, QWORD PTR nreg$[rsp+40]
	mov	QWORD PTR [rbx+2280], rax
	mov	rax, QWORD PTR nreg$[rsp+48]
	mov	QWORD PTR [rbx+2288], rax
	mov	rax, QWORD PTR nreg$[rsp+56]
	mov	QWORD PTR [rbx+2296], rax
	movups	XMMWORD PTR [rbx+2304], xmm0
	movaps	xmm0, XMMWORD PTR nreg$[rbp-160]
	movups	XMMWORD PTR [rbx+2320], xmm1
	movaps	xmm1, XMMWORD PTR nreg$[rbp-144]
	movups	XMMWORD PTR [rbx+2336], xmm0
; Line 112
	movaps	xmm0, XMMWORD PTR nreg$[rbp-128]
	movups	XMMWORD PTR [rbx+2352], xmm1
	movaps	xmm1, XMMWORD PTR nreg$[rbp-112]
	movups	XMMWORD PTR [rbx+2368], xmm0
	movaps	xmm0, XMMWORD PTR nreg$[rbp-96]
	movups	XMMWORD PTR [rbx+2384], xmm1
	movaps	xmm1, XMMWORD PTR nreg$[rbp-80]
	movups	XMMWORD PTR [rbx+2400], xmm0
	movups	XMMWORD PTR [rbx+2416], xmm1
; Line 113
	mov	rcx, QWORD PTR __$ArrayPad$[rbp-256]
	xor	rcx, rsp
	call	__security_check_cookie
	lea	r11, QWORD PTR [rsp+336]
	mov	rbx, QWORD PTR [r11+56]
	mov	rsi, QWORD PTR [r11+64]
	movaps	xmm6, XMMWORD PTR [r11-16]
	mov	rsp, r11
	pop	r15
	pop	r14
	pop	r12
	pop	rdi
	pop	rbp
	ret	0
?execute@?$InterpretedVm@U?$AlignedAllocator@$0EA@@randomx@@$00@randomx@@AEAAXXZ ENDP ; randomx::InterpretedVm<randomx::AlignedAllocator<64>,1>::execute
_TEXT	ENDS
; Function compile flags: /Ogtpy
;	COMDAT ??0NativeRegisterFile@randomx@@QEAA@XZ
_TEXT	SEGMENT
this$ = 8
??0NativeRegisterFile@randomx@@QEAA@XZ PROC		; randomx::NativeRegisterFile::NativeRegisterFile, COMDAT
	xorps	xmm0, xmm0
	mov	rax, rcx
	movups	XMMWORD PTR [rcx], xmm0
	movups	XMMWORD PTR [rcx+16], xmm0
	movups	XMMWORD PTR [rcx+32], xmm0
	movups	XMMWORD PTR [rcx+48], xmm0
	ret	0
??0NativeRegisterFile@randomx@@QEAA@XZ ENDP		; randomx::NativeRegisterFile::NativeRegisterFile
_TEXT	ENDS
; Function compile flags: /Ogtpy
;	COMDAT ?execute@?$InterpretedVm@U?$AlignedAllocator@$0EA@@randomx@@$0A@@randomx@@AEAAXXZ
_TEXT	SEGMENT
pc$17 = 32
nreg$ = 48
__$ArrayPad$ = 304
this$ = 384
?execute@?$InterpretedVm@U?$AlignedAllocator@$0EA@@randomx@@$0A@@randomx@@AEAAXXZ PROC ; randomx::InterpretedVm<randomx::AlignedAllocator<64>,0>::execute, COMDAT
; File D:\dev\francium_network\francium_agent\src\ext\randomx\repo\src\vm_interpreted.cpp
; Line 56
$LN176:
	mov	rax, rsp
	mov	QWORD PTR [rax+16], rbx
	mov	QWORD PTR [rax+24], rsi
	push	rbp
	push	rdi
	push	r12
	push	r14
	push	r15
	lea	rbp, QWORD PTR [rax-120]
	sub	rsp, 336				; 00000150H
	movaps	XMMWORD PTR [rax-56], xmm6
	mov	rax, QWORD PTR __security_cookie
	xor	rax, rsp
	mov	QWORD PTR __$ArrayPad$[rbp-256], rax
; Line 61
	movups	xmm1, XMMWORD PTR [rcx+2448]
; Line 63
	lea	rsi, QWORD PTR [rcx+2688]
	xorps	xmm0, xmm0
	movaps	XMMWORD PTR nreg$[rbp-48], xmm1
	movups	xmm1, XMMWORD PTR [rcx+2480]
; File D:\dev\francium_network\francium_agent\src\ext\randomx\repo\src\bytecode_machine.hpp
; Line 114
	lea	rax, QWORD PTR nreg$[rsp]
	movups	XMMWORD PTR nreg$[rsp], xmm0
	xor	r12d, r12d
; File D:\dev\francium_network\francium_agent\src\ext\randomx\repo\src\vm_interpreted.cpp
; Line 56
	mov	rbx, rcx
	movups	XMMWORD PTR nreg$[rsp+16], xmm0
; File D:\dev\francium_network\francium_agent\src\ext\randomx\repo\src\bytecode_machine.hpp
; Line 114
	mov	edi, r12d
	movups	XMMWORD PTR nreg$[rsp+32], xmm0
	movups	XMMWORD PTR nreg$[rsp+48], xmm0
; File D:\dev\francium_network\francium_agent\src\ext\randomx\repo\src\vm_interpreted.cpp
; Line 61
	movups	xmm0, XMMWORD PTR [rcx+2432]
	movaps	XMMWORD PTR nreg$[rbp-64], xmm0
	movups	xmm0, XMMWORD PTR [rcx+2464]
; File D:\dev\francium_network\francium_agent\src\ext\randomx\repo\src\bytecode_machine.hpp
; Line 112
	mov	QWORD PTR [rsi], -1
	mov	QWORD PTR [rsi+8], -1
	mov	QWORD PTR [rsi+16], -1
	mov	QWORD PTR [rsi+24], -1
; File D:\dev\francium_network\francium_agent\src\ext\randomx\repo\src\vm_interpreted.cpp
; Line 61
	movaps	XMMWORD PTR nreg$[rbp-32], xmm0
; File D:\dev\francium_network\francium_agent\src\ext\randomx\repo\src\bytecode_machine.hpp
; Line 114
	mov	QWORD PTR [rsi+32], rax
; File D:\dev\francium_network\francium_agent\src\ext\randomx\repo\src\vm_interpreted.cpp
; Line 61
	movaps	XMMWORD PTR nreg$[rbp-16], xmm1
	npad	5
$LL54@execute:
; File D:\dev\francium_network\francium_agent\src\ext\randomx\repo\src\program.hpp
; Line 47
	movsxd	rax, edi
; File D:\dev\francium_network\francium_agent\src\ext\randomx\repo\src\bytecode_machine.hpp
; Line 122
	mov	r8d, edi
; File D:\dev\francium_network\francium_agent\src\ext\randomx\repo\src\program.hpp
; Line 47
	add	rax, 24
; File D:\dev\francium_network\francium_agent\src\ext\randomx\repo\src\bytecode_machine.hpp
; Line 121
	mov	r9d, edi
	shl	r9, 5
; Line 122
	mov	rcx, rsi
	add	r9, 2728				; 00000aa8H
	add	r9, rbx
; File D:\dev\francium_network\francium_agent\src\ext\randomx\repo\src\program.hpp
; Line 47
	lea	rdx, QWORD PTR [rbx+rax*8]
; File D:\dev\francium_network\francium_agent\src\ext\randomx\repo\src\bytecode_machine.hpp
; Line 122
	call	?compileInstruction@BytecodeMachine@randomx@@QEAAXAEAVInstruction@2@HAEAUInstructionByteCode@2@@Z ; randomx::BytecodeMachine::compileInstruction
	inc	edi
	cmp	edi, 256				; 00000100H
	jb	SHORT $LL54@execute
; File D:\dev\francium_network\francium_agent\src\ext\randomx\repo\src\vm_interpreted.cpp
; Line 65
	mov	r8d, DWORD PTR [rbx+2528]
	mov	r15d, 2048				; 00000800H
; Line 66
	mov	r9d, DWORD PTR [rbx+2532]
	movdqa	xmm6, XMMWORD PTR __xmm@00ffffffffffffff00ffffffffffffff
	npad	3
$LL7@execute:
; Line 76
	mov	r10, QWORD PTR [rbx+2544]
	mov	eax, DWORD PTR [rbx+2512]
; File D:\dev\francium_network\francium_agent\src\ext\randomx\repo\src\bytecode_machine.hpp
; Line 271
	movups	xmm2, XMMWORD PTR [rbx+2496]
; File D:\dev\francium_network\francium_agent\src\ext\randomx\repo\src\vm_interpreted.cpp
; Line 69
	mov	ecx, DWORD PTR [rbx+2516]
; File D:\dev\francium_network\francium_agent\src\ext\randomx\repo\src\bytecode_machine.hpp
; Line 127
	mov	DWORD PTR pc$17[rsp], r12d
; File D:\dev\francium_network\francium_agent\src\ext\randomx\repo\src\vm_interpreted.cpp
; Line 69
	mov	rdx, QWORD PTR nreg$[rsp+rcx*8]
	xor	rdx, QWORD PTR nreg$[rsp+rax*8]
; Line 71
	mov	eax, edx
; Line 72
	shr	rdx, 32					; 00000020H
	xor	eax, r8d
; Line 73
	xor	edx, r9d
	and	eax, 2097088				; 001fffc0H
	and	edx, 2097088				; 001fffc0H
	mov	r14d, eax
	mov	esi, edx
; Line 76
	mov	rax, QWORD PTR [rax+r10]
	xor	QWORD PTR nreg$[rsp], rax
	mov	rax, QWORD PTR [r10+r14+8]
	xor	QWORD PTR nreg$[rsp+8], rax
	mov	rax, QWORD PTR [r10+r14+16]
	xor	QWORD PTR nreg$[rsp+16], rax
	mov	rax, QWORD PTR [r10+r14+24]
	xor	QWORD PTR nreg$[rsp+24], rax
	mov	rax, QWORD PTR [r10+r14+32]
	xor	QWORD PTR nreg$[rsp+32], rax
	mov	rax, QWORD PTR [r10+r14+40]
	xor	QWORD PTR nreg$[rsp+40], rax
	mov	rax, QWORD PTR [r10+r14+48]
	xor	QWORD PTR nreg$[rsp+48], rax
	mov	rax, QWORD PTR [r10+r14+56]
	xor	QWORD PTR nreg$[rsp+56], rax
	mov	eax, r12d
; File D:\dev\francium_network\francium_agent\src\ext\randomx\repo\src\intrin_portable.h
; Line 163
	cvtdq2pd xmm1, QWORD PTR [rdx+r10]
; File D:\dev\francium_network\francium_agent\src\ext\randomx\repo\src\vm_interpreted.cpp
; Line 79
	movaps	XMMWORD PTR nreg$[rsp+64], xmm1
; File D:\dev\francium_network\francium_agent\src\ext\randomx\repo\src\intrin_portable.h
; Line 163
	cvtdq2pd xmm1, QWORD PTR [r10+rdx+8]
; File D:\dev\francium_network\francium_agent\src\ext\randomx\repo\src\vm_interpreted.cpp
; Line 79
	movaps	XMMWORD PTR nreg$[rbp-176], xmm1
; File D:\dev\francium_network\francium_agent\src\ext\randomx\repo\src\intrin_portable.h
; Line 163
	cvtdq2pd xmm1, QWORD PTR [r10+rdx+16]
; File D:\dev\francium_network\francium_agent\src\ext\randomx\repo\src\vm_interpreted.cpp
; Line 79
	movaps	XMMWORD PTR nreg$[rbp-160], xmm1
; File D:\dev\francium_network\francium_agent\src\ext\randomx\repo\src\intrin_portable.h
; Line 163
	cvtdq2pd xmm1, QWORD PTR [r10+rdx+24]
; File D:\dev\francium_network\francium_agent\src\ext\randomx\repo\src\vm_interpreted.cpp
; Line 79
	movaps	XMMWORD PTR nreg$[rbp-144], xmm1
; File D:\dev\francium_network\francium_agent\src\ext\randomx\repo\src\intrin_portable.h
; Line 163
	cvtdq2pd xmm1, QWORD PTR [r10+rdx+32]
; File D:\dev\francium_network\francium_agent\src\ext\randomx\repo\src\bytecode_machine.hpp
; Line 272
	andps	xmm1, xmm6
; Line 273
	orps	xmm1, xmm2
; File D:\dev\francium_network\francium_agent\src\ext\randomx\repo\src\vm_interpreted.cpp
; Line 82
	movaps	XMMWORD PTR nreg$[rbp-128], xmm1
; File D:\dev\francium_network\francium_agent\src\ext\randomx\repo\src\intrin_portable.h
; Line 163
	cvtdq2pd xmm1, QWORD PTR [r10+rdx+40]
; File D:\dev\francium_network\francium_agent\src\ext\randomx\repo\src\bytecode_machine.hpp
; Line 272
	andps	xmm1, xmm6
; Line 273
	orps	xmm1, xmm2
; File D:\dev\francium_network\francium_agent\src\ext\randomx\repo\src\vm_interpreted.cpp
; Line 82
	movaps	XMMWORD PTR nreg$[rbp-112], xmm1
; File D:\dev\francium_network\francium_agent\src\ext\randomx\repo\src\intrin_portable.h
; Line 163
	cvtdq2pd xmm1, QWORD PTR [r10+rdx+48]
; File D:\dev\francium_network\francium_agent\src\ext\randomx\repo\src\bytecode_machine.hpp
; Line 272
	andps	xmm1, xmm6
; Line 273
	orps	xmm1, xmm2
; File D:\dev\francium_network\francium_agent\src\ext\randomx\repo\src\vm_interpreted.cpp
; Line 82
	movaps	XMMWORD PTR nreg$[rbp-96], xmm1
; File D:\dev\francium_network\francium_agent\src\ext\randomx\repo\src\intrin_portable.h
; Line 163
	cvtdq2pd xmm1, QWORD PTR [r10+rdx+56]
; File D:\dev\francium_network\francium_agent\src\ext\randomx\repo\src\bytecode_machine.hpp
; Line 272
	andps	xmm1, xmm6
; Line 273
	orps	xmm1, xmm2
; File D:\dev\francium_network\francium_agent\src\ext\randomx\repo\src\vm_interpreted.cpp
; Line 82
	movaps	XMMWORD PTR nreg$[rbp-80], xmm1
	npad	9
$LL45@execute:
; File D:\dev\francium_network\francium_agent\src\ext\randomx\repo\src\bytecode_machine.hpp
; Line 129
	movsxd	rcx, eax
	lea	r9, QWORD PTR [rbx+2496]
	shl	rcx, 5
	lea	rdx, QWORD PTR pc$17[rsp]
	add	rcx, 2728				; 00000aa8H
	mov	r8, r10
	add	rcx, rbx
	call	?executeInstruction@BytecodeMachine@randomx@@SAXAEAUInstructionByteCode@2@AEAHPEAEAEAUProgramConfiguration@2@@Z ; randomx::BytecodeMachine::executeInstruction
	mov	eax, DWORD PTR pc$17[rsp]
	inc	eax
	mov	DWORD PTR pc$17[rsp], eax
	cmp	eax, 256				; 00000100H
	jl	SHORT $LL45@execute
; File D:\dev\francium_network\francium_agent\src\ext\randomx\repo\src\vm_interpreted.cpp
; Line 86
	mov	ecx, DWORD PTR [rbx+2520]
	mov	eax, DWORD PTR [rbx+2524]
; Line 87
	mov	edx, DWORD PTR nreg$[rsp+rcx*8]
; Line 88
	mov	rcx, rbx
	xor	edx, DWORD PTR nreg$[rsp+rax*8]
	xor	edx, DWORD PTR [rbx+2528]
	mov	rax, QWORD PTR [rbx]
	and	edx, 2147483584				; 7fffffc0H
	mov	DWORD PTR [rbx+2528], edx
	add	rdx, QWORD PTR [rbx+2560]
	call	QWORD PTR [rax+72]
; Line 89
	mov	edx, DWORD PTR [rbx+2532]
	lea	r8, QWORD PTR nreg$[rsp]
	mov	rax, QWORD PTR [rbx]
	mov	rcx, rbx
	add	rdx, QWORD PTR [rbx+2560]
	call	QWORD PTR [rax+64]
; File D:\software\Visual Studio 2022\VC\Tools\MSVC\14.35.32215\include\utility
; Line 100
	mov	ecx, DWORD PTR [rbx+2528]
; File D:\dev\francium_network\francium_agent\src\ext\randomx\repo\src\vm_interpreted.cpp
; Line 101
	mov	r8d, r12d
; File D:\software\Visual Studio 2022\VC\Tools\MSVC\14.35.32215\include\utility
; Line 101
	mov	eax, DWORD PTR [rbx+2532]
; File D:\dev\francium_network\francium_agent\src\ext\randomx\repo\src\vm_interpreted.cpp
; Line 102
	mov	r9d, r12d
; File D:\software\Visual Studio 2022\VC\Tools\MSVC\14.35.32215\include\utility
; Line 101
	mov	DWORD PTR [rbx+2528], eax
; File D:\dev\francium_network\francium_agent\src\ext\randomx\repo\src\vm_interpreted.cpp
; Line 93
	mov	rax, QWORD PTR nreg$[rsp]
; File D:\software\Visual Studio 2022\VC\Tools\MSVC\14.35.32215\include\utility
; Line 102
	mov	DWORD PTR [rbx+2532], ecx
; File D:\dev\francium_network\francium_agent\src\ext\randomx\repo\src\vm_interpreted.cpp
; Line 93
	mov	rcx, QWORD PTR [rbx+2544]
	mov	QWORD PTR [rsi+rcx], rax
	mov	rcx, QWORD PTR [rbx+2544]
	mov	rax, QWORD PTR nreg$[rsp+8]
	mov	QWORD PTR [rcx+rsi+8], rax
	mov	rcx, QWORD PTR [rbx+2544]
	mov	rax, QWORD PTR nreg$[rsp+16]
	mov	QWORD PTR [rcx+rsi+16], rax
	mov	rcx, QWORD PTR [rbx+2544]
	mov	rax, QWORD PTR nreg$[rsp+24]
	mov	QWORD PTR [rcx+rsi+24], rax
	mov	rcx, QWORD PTR [rbx+2544]
	mov	rax, QWORD PTR nreg$[rsp+32]
	mov	QWORD PTR [rcx+rsi+32], rax
	mov	rcx, QWORD PTR [rbx+2544]
	mov	rax, QWORD PTR nreg$[rsp+40]
	mov	QWORD PTR [rcx+rsi+40], rax
	mov	rcx, QWORD PTR [rbx+2544]
	mov	rax, QWORD PTR nreg$[rsp+48]
	mov	QWORD PTR [rcx+rsi+48], rax
	mov	rax, QWORD PTR nreg$[rsp+56]
	mov	rcx, QWORD PTR [rbx+2544]
	mov	QWORD PTR [rcx+rsi+56], rax
; Line 96
	movaps	xmm0, XMMWORD PTR nreg$[rbp-112]
	xorps	xmm0, XMMWORD PTR nreg$[rbp-176]
	movaps	xmm2, XMMWORD PTR nreg$[rbp-128]
	movaps	xmm1, XMMWORD PTR nreg$[rbp-96]
	xorps	xmm1, XMMWORD PTR nreg$[rbp-160]
; Line 99
	mov	rax, QWORD PTR [rbx+2544]
	xorps	xmm2, XMMWORD PTR nreg$[rsp+64]
	movaps	XMMWORD PTR nreg$[rbp-176], xmm0
	movaps	xmm0, XMMWORD PTR nreg$[rbp-80]
	xorps	xmm0, XMMWORD PTR nreg$[rbp-144]
	movaps	XMMWORD PTR nreg$[rbp-144], xmm0
	movaps	XMMWORD PTR nreg$[rbp-160], xmm1
	movaps	XMMWORD PTR nreg$[rsp+64], xmm2
	movups	XMMWORD PTR [r14+rax], xmm2
	mov	rax, QWORD PTR [rbx+2544]
	movaps	xmm0, XMMWORD PTR nreg$[rbp-176]
	movups	XMMWORD PTR [rax+r14+16], xmm0
	mov	rax, QWORD PTR [rbx+2544]
	movaps	xmm1, XMMWORD PTR nreg$[rbp-160]
	movups	XMMWORD PTR [rax+r14+32], xmm1
	mov	rax, QWORD PTR [rbx+2544]
	movaps	xmm0, XMMWORD PTR nreg$[rbp-144]
	movups	XMMWORD PTR [rax+r14+48], xmm0
	sub	r15, 1
	jne	$LL7@execute
; Line 106
	mov	rax, QWORD PTR nreg$[rsp]
; Line 109
	movaps	xmm0, XMMWORD PTR nreg$[rsp+64]
	movaps	xmm1, XMMWORD PTR nreg$[rbp-176]
	mov	QWORD PTR [rbx+2240], rax
	mov	rax, QWORD PTR nreg$[rsp+8]
	mov	QWORD PTR [rbx+2248], rax
	mov	rax, QWORD PTR nreg$[rsp+16]
	mov	QWORD PTR [rbx+2256], rax
	mov	rax, QWORD PTR nreg$[rsp+24]
	mov	QWORD PTR [rbx+2264], rax
	mov	rax, QWORD PTR nreg$[rsp+32]
	mov	QWORD PTR [rbx+2272], rax
	mov	rax, QWORD PTR nreg$[rsp+40]
	mov	QWORD PTR [rbx+2280], rax
	mov	rax, QWORD PTR nreg$[rsp+48]
	mov	QWORD PTR [rbx+2288], rax
	mov	rax, QWORD PTR nreg$[rsp+56]
	mov	QWORD PTR [rbx+2296], rax
	movups	XMMWORD PTR [rbx+2304], xmm0
	movaps	xmm0, XMMWORD PTR nreg$[rbp-160]
	movups	XMMWORD PTR [rbx+2320], xmm1
	movaps	xmm1, XMMWORD PTR nreg$[rbp-144]
	movups	XMMWORD PTR [rbx+2336], xmm0
; Line 112
	movaps	xmm0, XMMWORD PTR nreg$[rbp-128]
	movups	XMMWORD PTR [rbx+2352], xmm1
	movaps	xmm1, XMMWORD PTR nreg$[rbp-112]
	movups	XMMWORD PTR [rbx+2368], xmm0
	movaps	xmm0, XMMWORD PTR nreg$[rbp-96]
	movups	XMMWORD PTR [rbx+2384], xmm1
	movaps	xmm1, XMMWORD PTR nreg$[rbp-80]
	movups	XMMWORD PTR [rbx+2400], xmm0
	movups	XMMWORD PTR [rbx+2416], xmm1
; Line 113
	mov	rcx, QWORD PTR __$ArrayPad$[rbp-256]
	xor	rcx, rsp
	call	__security_check_cookie
	lea	r11, QWORD PTR [rsp+336]
	mov	rbx, QWORD PTR [r11+56]
	mov	rsi, QWORD PTR [r11+64]
	movaps	xmm6, XMMWORD PTR [r11-16]
	mov	rsp, r11
	pop	r15
	pop	r14
	pop	r12
	pop	rdi
	pop	rbp
	ret	0
?execute@?$InterpretedVm@U?$AlignedAllocator@$0EA@@randomx@@$0A@@randomx@@AEAAXXZ ENDP ; randomx::InterpretedVm<randomx::AlignedAllocator<64>,0>::execute
_TEXT	ENDS
; Function compile flags: /Ogtpy
;	COMDAT ?execute@?$InterpretedVm@ULargePageAllocator@randomx@@$00@randomx@@AEAAXXZ
_TEXT	SEGMENT
pc$17 = 32
nreg$ = 48
__$ArrayPad$ = 304
this$ = 384
?execute@?$InterpretedVm@ULargePageAllocator@randomx@@$00@randomx@@AEAAXXZ PROC ; randomx::InterpretedVm<randomx::LargePageAllocator,1>::execute, COMDAT
; File D:\dev\francium_network\francium_agent\src\ext\randomx\repo\src\vm_interpreted.cpp
; Line 56
$LN176:
	mov	rax, rsp
	mov	QWORD PTR [rax+16], rbx
	mov	QWORD PTR [rax+24], rsi
	push	rbp
	push	rdi
	push	r12
	push	r14
	push	r15
	lea	rbp, QWORD PTR [rax-120]
	sub	rsp, 336				; 00000150H
	movaps	XMMWORD PTR [rax-56], xmm6
	mov	rax, QWORD PTR __security_cookie
	xor	rax, rsp
	mov	QWORD PTR __$ArrayPad$[rbp-256], rax
; Line 61
	movups	xmm1, XMMWORD PTR [rcx+2448]
; Line 63
	lea	rsi, QWORD PTR [rcx+2688]
	xorps	xmm0, xmm0
	movaps	XMMWORD PTR nreg$[rbp-48], xmm1
	movups	xmm1, XMMWORD PTR [rcx+2480]
; File D:\dev\francium_network\francium_agent\src\ext\randomx\repo\src\bytecode_machine.hpp
; Line 114
	lea	rax, QWORD PTR nreg$[rsp]
	movups	XMMWORD PTR nreg$[rsp], xmm0
	xor	r12d, r12d
; File D:\dev\francium_network\francium_agent\src\ext\randomx\repo\src\vm_interpreted.cpp
; Line 56
	mov	rbx, rcx
	movups	XMMWORD PTR nreg$[rsp+16], xmm0
; File D:\dev\francium_network\francium_agent\src\ext\randomx\repo\src\bytecode_machine.hpp
; Line 114
	mov	edi, r12d
	movups	XMMWORD PTR nreg$[rsp+32], xmm0
	movups	XMMWORD PTR nreg$[rsp+48], xmm0
; File D:\dev\francium_network\francium_agent\src\ext\randomx\repo\src\vm_interpreted.cpp
; Line 61
	movups	xmm0, XMMWORD PTR [rcx+2432]
	movaps	XMMWORD PTR nreg$[rbp-64], xmm0
	movups	xmm0, XMMWORD PTR [rcx+2464]
; File D:\dev\francium_network\francium_agent\src\ext\randomx\repo\src\bytecode_machine.hpp
; Line 112
	mov	QWORD PTR [rsi], -1
	mov	QWORD PTR [rsi+8], -1
	mov	QWORD PTR [rsi+16], -1
	mov	QWORD PTR [rsi+24], -1
; File D:\dev\francium_network\francium_agent\src\ext\randomx\repo\src\vm_interpreted.cpp
; Line 61
	movaps	XMMWORD PTR nreg$[rbp-32], xmm0
; File D:\dev\francium_network\francium_agent\src\ext\randomx\repo\src\bytecode_machine.hpp
; Line 114
	mov	QWORD PTR [rsi+32], rax
; File D:\dev\francium_network\francium_agent\src\ext\randomx\repo\src\vm_interpreted.cpp
; Line 61
	movaps	XMMWORD PTR nreg$[rbp-16], xmm1
	npad	5
$LL54@execute:
; File D:\dev\francium_network\francium_agent\src\ext\randomx\repo\src\program.hpp
; Line 47
	movsxd	rax, edi
; File D:\dev\francium_network\francium_agent\src\ext\randomx\repo\src\bytecode_machine.hpp
; Line 122
	mov	r8d, edi
; File D:\dev\francium_network\francium_agent\src\ext\randomx\repo\src\program.hpp
; Line 47
	add	rax, 24
; File D:\dev\francium_network\francium_agent\src\ext\randomx\repo\src\bytecode_machine.hpp
; Line 121
	mov	r9d, edi
	shl	r9, 5
; Line 122
	mov	rcx, rsi
	add	r9, 2728				; 00000aa8H
	add	r9, rbx
; File D:\dev\francium_network\francium_agent\src\ext\randomx\repo\src\program.hpp
; Line 47
	lea	rdx, QWORD PTR [rbx+rax*8]
; File D:\dev\francium_network\francium_agent\src\ext\randomx\repo\src\bytecode_machine.hpp
; Line 122
	call	?compileInstruction@BytecodeMachine@randomx@@QEAAXAEAVInstruction@2@HAEAUInstructionByteCode@2@@Z ; randomx::BytecodeMachine::compileInstruction
	inc	edi
	cmp	edi, 256				; 00000100H
	jb	SHORT $LL54@execute
; File D:\dev\francium_network\francium_agent\src\ext\randomx\repo\src\vm_interpreted.cpp
; Line 65
	mov	r8d, DWORD PTR [rbx+2528]
	mov	r15d, 2048				; 00000800H
; Line 66
	mov	r9d, DWORD PTR [rbx+2532]
	movdqa	xmm6, XMMWORD PTR __xmm@00ffffffffffffff00ffffffffffffff
	npad	3
$LL7@execute:
; Line 76
	mov	r10, QWORD PTR [rbx+2544]
	mov	eax, DWORD PTR [rbx+2512]
; File D:\dev\francium_network\francium_agent\src\ext\randomx\repo\src\bytecode_machine.hpp
; Line 271
	movups	xmm2, XMMWORD PTR [rbx+2496]
; File D:\dev\francium_network\francium_agent\src\ext\randomx\repo\src\vm_interpreted.cpp
; Line 69
	mov	ecx, DWORD PTR [rbx+2516]
; File D:\dev\francium_network\francium_agent\src\ext\randomx\repo\src\bytecode_machine.hpp
; Line 127
	mov	DWORD PTR pc$17[rsp], r12d
; File D:\dev\francium_network\francium_agent\src\ext\randomx\repo\src\vm_interpreted.cpp
; Line 69
	mov	rdx, QWORD PTR nreg$[rsp+rcx*8]
	xor	rdx, QWORD PTR nreg$[rsp+rax*8]
; Line 71
	mov	eax, edx
; Line 72
	shr	rdx, 32					; 00000020H
	xor	eax, r8d
; Line 73
	xor	edx, r9d
	and	eax, 2097088				; 001fffc0H
	and	edx, 2097088				; 001fffc0H
	mov	r14d, eax
	mov	esi, edx
; Line 76
	mov	rax, QWORD PTR [rax+r10]
	xor	QWORD PTR nreg$[rsp], rax
	mov	rax, QWORD PTR [r10+r14+8]
	xor	QWORD PTR nreg$[rsp+8], rax
	mov	rax, QWORD PTR [r10+r14+16]
	xor	QWORD PTR nreg$[rsp+16], rax
	mov	rax, QWORD PTR [r10+r14+24]
	xor	QWORD PTR nreg$[rsp+24], rax
	mov	rax, QWORD PTR [r10+r14+32]
	xor	QWORD PTR nreg$[rsp+32], rax
	mov	rax, QWORD PTR [r10+r14+40]
	xor	QWORD PTR nreg$[rsp+40], rax
	mov	rax, QWORD PTR [r10+r14+48]
	xor	QWORD PTR nreg$[rsp+48], rax
	mov	rax, QWORD PTR [r10+r14+56]
	xor	QWORD PTR nreg$[rsp+56], rax
	mov	eax, r12d
; File D:\dev\francium_network\francium_agent\src\ext\randomx\repo\src\intrin_portable.h
; Line 163
	cvtdq2pd xmm1, QWORD PTR [rdx+r10]
; File D:\dev\francium_network\francium_agent\src\ext\randomx\repo\src\vm_interpreted.cpp
; Line 79
	movaps	XMMWORD PTR nreg$[rsp+64], xmm1
; File D:\dev\francium_network\francium_agent\src\ext\randomx\repo\src\intrin_portable.h
; Line 163
	cvtdq2pd xmm1, QWORD PTR [r10+rdx+8]
; File D:\dev\francium_network\francium_agent\src\ext\randomx\repo\src\vm_interpreted.cpp
; Line 79
	movaps	XMMWORD PTR nreg$[rbp-176], xmm1
; File D:\dev\francium_network\francium_agent\src\ext\randomx\repo\src\intrin_portable.h
; Line 163
	cvtdq2pd xmm1, QWORD PTR [r10+rdx+16]
; File D:\dev\francium_network\francium_agent\src\ext\randomx\repo\src\vm_interpreted.cpp
; Line 79
	movaps	XMMWORD PTR nreg$[rbp-160], xmm1
; File D:\dev\francium_network\francium_agent\src\ext\randomx\repo\src\intrin_portable.h
; Line 163
	cvtdq2pd xmm1, QWORD PTR [r10+rdx+24]
; File D:\dev\francium_network\francium_agent\src\ext\randomx\repo\src\vm_interpreted.cpp
; Line 79
	movaps	XMMWORD PTR nreg$[rbp-144], xmm1
; File D:\dev\francium_network\francium_agent\src\ext\randomx\repo\src\intrin_portable.h
; Line 163
	cvtdq2pd xmm1, QWORD PTR [r10+rdx+32]
; File D:\dev\francium_network\francium_agent\src\ext\randomx\repo\src\bytecode_machine.hpp
; Line 272
	andps	xmm1, xmm6
; Line 273
	orps	xmm1, xmm2
; File D:\dev\francium_network\francium_agent\src\ext\randomx\repo\src\vm_interpreted.cpp
; Line 82
	movaps	XMMWORD PTR nreg$[rbp-128], xmm1
; File D:\dev\francium_network\francium_agent\src\ext\randomx\repo\src\intrin_portable.h
; Line 163
	cvtdq2pd xmm1, QWORD PTR [r10+rdx+40]
; File D:\dev\francium_network\francium_agent\src\ext\randomx\repo\src\bytecode_machine.hpp
; Line 272
	andps	xmm1, xmm6
; Line 273
	orps	xmm1, xmm2
; File D:\dev\francium_network\francium_agent\src\ext\randomx\repo\src\vm_interpreted.cpp
; Line 82
	movaps	XMMWORD PTR nreg$[rbp-112], xmm1
; File D:\dev\francium_network\francium_agent\src\ext\randomx\repo\src\intrin_portable.h
; Line 163
	cvtdq2pd xmm1, QWORD PTR [r10+rdx+48]
; File D:\dev\francium_network\francium_agent\src\ext\randomx\repo\src\bytecode_machine.hpp
; Line 272
	andps	xmm1, xmm6
; Line 273
	orps	xmm1, xmm2
; File D:\dev\francium_network\francium_agent\src\ext\randomx\repo\src\vm_interpreted.cpp
; Line 82
	movaps	XMMWORD PTR nreg$[rbp-96], xmm1
; File D:\dev\francium_network\francium_agent\src\ext\randomx\repo\src\intrin_portable.h
; Line 163
	cvtdq2pd xmm1, QWORD PTR [r10+rdx+56]
; File D:\dev\francium_network\francium_agent\src\ext\randomx\repo\src\bytecode_machine.hpp
; Line 272
	andps	xmm1, xmm6
; Line 273
	orps	xmm1, xmm2
; File D:\dev\francium_network\francium_agent\src\ext\randomx\repo\src\vm_interpreted.cpp
; Line 82
	movaps	XMMWORD PTR nreg$[rbp-80], xmm1
	npad	9
$LL45@execute:
; File D:\dev\francium_network\francium_agent\src\ext\randomx\repo\src\bytecode_machine.hpp
; Line 129
	movsxd	rcx, eax
	lea	r9, QWORD PTR [rbx+2496]
	shl	rcx, 5
	lea	rdx, QWORD PTR pc$17[rsp]
	add	rcx, 2728				; 00000aa8H
	mov	r8, r10
	add	rcx, rbx
	call	?executeInstruction@BytecodeMachine@randomx@@SAXAEAUInstructionByteCode@2@AEAHPEAEAEAUProgramConfiguration@2@@Z ; randomx::BytecodeMachine::executeInstruction
	mov	eax, DWORD PTR pc$17[rsp]
	inc	eax
	mov	DWORD PTR pc$17[rsp], eax
	cmp	eax, 256				; 00000100H
	jl	SHORT $LL45@execute
; File D:\dev\francium_network\francium_agent\src\ext\randomx\repo\src\vm_interpreted.cpp
; Line 86
	mov	ecx, DWORD PTR [rbx+2520]
	mov	eax, DWORD PTR [rbx+2524]
; Line 87
	mov	edx, DWORD PTR nreg$[rsp+rcx*8]
; Line 88
	mov	rcx, rbx
	xor	edx, DWORD PTR nreg$[rsp+rax*8]
	xor	edx, DWORD PTR [rbx+2528]
	mov	rax, QWORD PTR [rbx]
	and	edx, 2147483584				; 7fffffc0H
	mov	DWORD PTR [rbx+2528], edx
	add	rdx, QWORD PTR [rbx+2560]
	call	QWORD PTR [rax+72]
; Line 89
	mov	edx, DWORD PTR [rbx+2532]
	lea	r8, QWORD PTR nreg$[rsp]
	mov	rax, QWORD PTR [rbx]
	mov	rcx, rbx
	add	rdx, QWORD PTR [rbx+2560]
	call	QWORD PTR [rax+64]
; File D:\software\Visual Studio 2022\VC\Tools\MSVC\14.35.32215\include\utility
; Line 100
	mov	ecx, DWORD PTR [rbx+2528]
; File D:\dev\francium_network\francium_agent\src\ext\randomx\repo\src\vm_interpreted.cpp
; Line 101
	mov	r8d, r12d
; File D:\software\Visual Studio 2022\VC\Tools\MSVC\14.35.32215\include\utility
; Line 101
	mov	eax, DWORD PTR [rbx+2532]
; File D:\dev\francium_network\francium_agent\src\ext\randomx\repo\src\vm_interpreted.cpp
; Line 102
	mov	r9d, r12d
; File D:\software\Visual Studio 2022\VC\Tools\MSVC\14.35.32215\include\utility
; Line 101
	mov	DWORD PTR [rbx+2528], eax
; File D:\dev\francium_network\francium_agent\src\ext\randomx\repo\src\vm_interpreted.cpp
; Line 93
	mov	rax, QWORD PTR nreg$[rsp]
; File D:\software\Visual Studio 2022\VC\Tools\MSVC\14.35.32215\include\utility
; Line 102
	mov	DWORD PTR [rbx+2532], ecx
; File D:\dev\francium_network\francium_agent\src\ext\randomx\repo\src\vm_interpreted.cpp
; Line 93
	mov	rcx, QWORD PTR [rbx+2544]
	mov	QWORD PTR [rsi+rcx], rax
	mov	rcx, QWORD PTR [rbx+2544]
	mov	rax, QWORD PTR nreg$[rsp+8]
	mov	QWORD PTR [rcx+rsi+8], rax
	mov	rcx, QWORD PTR [rbx+2544]
	mov	rax, QWORD PTR nreg$[rsp+16]
	mov	QWORD PTR [rcx+rsi+16], rax
	mov	rcx, QWORD PTR [rbx+2544]
	mov	rax, QWORD PTR nreg$[rsp+24]
	mov	QWORD PTR [rcx+rsi+24], rax
	mov	rcx, QWORD PTR [rbx+2544]
	mov	rax, QWORD PTR nreg$[rsp+32]
	mov	QWORD PTR [rcx+rsi+32], rax
	mov	rcx, QWORD PTR [rbx+2544]
	mov	rax, QWORD PTR nreg$[rsp+40]
	mov	QWORD PTR [rcx+rsi+40], rax
	mov	rcx, QWORD PTR [rbx+2544]
	mov	rax, QWORD PTR nreg$[rsp+48]
	mov	QWORD PTR [rcx+rsi+48], rax
	mov	rax, QWORD PTR nreg$[rsp+56]
	mov	rcx, QWORD PTR [rbx+2544]
	mov	QWORD PTR [rcx+rsi+56], rax
; Line 96
	movaps	xmm0, XMMWORD PTR nreg$[rbp-112]
	xorps	xmm0, XMMWORD PTR nreg$[rbp-176]
	movaps	xmm2, XMMWORD PTR nreg$[rbp-128]
	movaps	xmm1, XMMWORD PTR nreg$[rbp-96]
	xorps	xmm1, XMMWORD PTR nreg$[rbp-160]
; Line 99
	mov	rax, QWORD PTR [rbx+2544]
	xorps	xmm2, XMMWORD PTR nreg$[rsp+64]
	movaps	XMMWORD PTR nreg$[rbp-176], xmm0
	movaps	xmm0, XMMWORD PTR nreg$[rbp-80]
	xorps	xmm0, XMMWORD PTR nreg$[rbp-144]
	movaps	XMMWORD PTR nreg$[rbp-144], xmm0
	movaps	XMMWORD PTR nreg$[rbp-160], xmm1
	movaps	XMMWORD PTR nreg$[rsp+64], xmm2
	movups	XMMWORD PTR [r14+rax], xmm2
	mov	rax, QWORD PTR [rbx+2544]
	movaps	xmm0, XMMWORD PTR nreg$[rbp-176]
	movups	XMMWORD PTR [rax+r14+16], xmm0
	mov	rax, QWORD PTR [rbx+2544]
	movaps	xmm1, XMMWORD PTR nreg$[rbp-160]
	movups	XMMWORD PTR [rax+r14+32], xmm1
	mov	rax, QWORD PTR [rbx+2544]
	movaps	xmm0, XMMWORD PTR nreg$[rbp-144]
	movups	XMMWORD PTR [rax+r14+48], xmm0
	sub	r15, 1
	jne	$LL7@execute
; Line 106
	mov	rax, QWORD PTR nreg$[rsp]
; Line 109
	movaps	xmm0, XMMWORD PTR nreg$[rsp+64]
	movaps	xmm1, XMMWORD PTR nreg$[rbp-176]
	mov	QWORD PTR [rbx+2240], rax
	mov	rax, QWORD PTR nreg$[rsp+8]
	mov	QWORD PTR [rbx+2248], rax
	mov	rax, QWORD PTR nreg$[rsp+16]
	mov	QWORD PTR [rbx+2256], rax
	mov	rax, QWORD PTR nreg$[rsp+24]
	mov	QWORD PTR [rbx+2264], rax
	mov	rax, QWORD PTR nreg$[rsp+32]
	mov	QWORD PTR [rbx+2272], rax
	mov	rax, QWORD PTR nreg$[rsp+40]
	mov	QWORD PTR [rbx+2280], rax
	mov	rax, QWORD PTR nreg$[rsp+48]
	mov	QWORD PTR [rbx+2288], rax
	mov	rax, QWORD PTR nreg$[rsp+56]
	mov	QWORD PTR [rbx+2296], rax
	movups	XMMWORD PTR [rbx+2304], xmm0
	movaps	xmm0, XMMWORD PTR nreg$[rbp-160]
	movups	XMMWORD PTR [rbx+2320], xmm1
	movaps	xmm1, XMMWORD PTR nreg$[rbp-144]
	movups	XMMWORD PTR [rbx+2336], xmm0
; Line 112
	movaps	xmm0, XMMWORD PTR nreg$[rbp-128]
	movups	XMMWORD PTR [rbx+2352], xmm1
	movaps	xmm1, XMMWORD PTR nreg$[rbp-112]
	movups	XMMWORD PTR [rbx+2368], xmm0
	movaps	xmm0, XMMWORD PTR nreg$[rbp-96]
	movups	XMMWORD PTR [rbx+2384], xmm1
	movaps	xmm1, XMMWORD PTR nreg$[rbp-80]
	movups	XMMWORD PTR [rbx+2400], xmm0
	movups	XMMWORD PTR [rbx+2416], xmm1
; Line 113
	mov	rcx, QWORD PTR __$ArrayPad$[rbp-256]
	xor	rcx, rsp
	call	__security_check_cookie
	lea	r11, QWORD PTR [rsp+336]
	mov	rbx, QWORD PTR [r11+56]
	mov	rsi, QWORD PTR [r11+64]
	movaps	xmm6, XMMWORD PTR [r11-16]
	mov	rsp, r11
	pop	r15
	pop	r14
	pop	r12
	pop	rdi
	pop	rbp
	ret	0
?execute@?$InterpretedVm@ULargePageAllocator@randomx@@$00@randomx@@AEAAXXZ ENDP ; randomx::InterpretedVm<randomx::LargePageAllocator,1>::execute
_TEXT	ENDS
; Function compile flags: /Ogtpy
;	COMDAT ?execute@?$InterpretedVm@ULargePageAllocator@randomx@@$0A@@randomx@@AEAAXXZ
_TEXT	SEGMENT
pc$17 = 32
nreg$ = 48
__$ArrayPad$ = 304
this$ = 384
?execute@?$InterpretedVm@ULargePageAllocator@randomx@@$0A@@randomx@@AEAAXXZ PROC ; randomx::InterpretedVm<randomx::LargePageAllocator,0>::execute, COMDAT
; File D:\dev\francium_network\francium_agent\src\ext\randomx\repo\src\vm_interpreted.cpp
; Line 56
$LN176:
	mov	rax, rsp
	mov	QWORD PTR [rax+16], rbx
	mov	QWORD PTR [rax+24], rsi
	push	rbp
	push	rdi
	push	r12
	push	r14
	push	r15
	lea	rbp, QWORD PTR [rax-120]
	sub	rsp, 336				; 00000150H
	movaps	XMMWORD PTR [rax-56], xmm6
	mov	rax, QWORD PTR __security_cookie
	xor	rax, rsp
	mov	QWORD PTR __$ArrayPad$[rbp-256], rax
; Line 61
	movups	xmm1, XMMWORD PTR [rcx+2448]
; Line 63
	lea	rsi, QWORD PTR [rcx+2688]
	xorps	xmm0, xmm0
	movaps	XMMWORD PTR nreg$[rbp-48], xmm1
	movups	xmm1, XMMWORD PTR [rcx+2480]
; File D:\dev\francium_network\francium_agent\src\ext\randomx\repo\src\bytecode_machine.hpp
; Line 114
	lea	rax, QWORD PTR nreg$[rsp]
	movups	XMMWORD PTR nreg$[rsp], xmm0
	xor	r12d, r12d
; File D:\dev\francium_network\francium_agent\src\ext\randomx\repo\src\vm_interpreted.cpp
; Line 56
	mov	rbx, rcx
	movups	XMMWORD PTR nreg$[rsp+16], xmm0
; File D:\dev\francium_network\francium_agent\src\ext\randomx\repo\src\bytecode_machine.hpp
; Line 114
	mov	edi, r12d
	movups	XMMWORD PTR nreg$[rsp+32], xmm0
	movups	XMMWORD PTR nreg$[rsp+48], xmm0
; File D:\dev\francium_network\francium_agent\src\ext\randomx\repo\src\vm_interpreted.cpp
; Line 61
	movups	xmm0, XMMWORD PTR [rcx+2432]
	movaps	XMMWORD PTR nreg$[rbp-64], xmm0
	movups	xmm0, XMMWORD PTR [rcx+2464]
; File D:\dev\francium_network\francium_agent\src\ext\randomx\repo\src\bytecode_machine.hpp
; Line 112
	mov	QWORD PTR [rsi], -1
	mov	QWORD PTR [rsi+8], -1
	mov	QWORD PTR [rsi+16], -1
	mov	QWORD PTR [rsi+24], -1
; File D:\dev\francium_network\francium_agent\src\ext\randomx\repo\src\vm_interpreted.cpp
; Line 61
	movaps	XMMWORD PTR nreg$[rbp-32], xmm0
; File D:\dev\francium_network\francium_agent\src\ext\randomx\repo\src\bytecode_machine.hpp
; Line 114
	mov	QWORD PTR [rsi+32], rax
; File D:\dev\francium_network\francium_agent\src\ext\randomx\repo\src\vm_interpreted.cpp
; Line 61
	movaps	XMMWORD PTR nreg$[rbp-16], xmm1
	npad	5
$LL54@execute:
; File D:\dev\francium_network\francium_agent\src\ext\randomx\repo\src\program.hpp
; Line 47
	movsxd	rax, edi
; File D:\dev\francium_network\francium_agent\src\ext\randomx\repo\src\bytecode_machine.hpp
; Line 122
	mov	r8d, edi
; File D:\dev\francium_network\francium_agent\src\ext\randomx\repo\src\program.hpp
; Line 47
	add	rax, 24
; File D:\dev\francium_network\francium_agent\src\ext\randomx\repo\src\bytecode_machine.hpp
; Line 121
	mov	r9d, edi
	shl	r9, 5
; Line 122
	mov	rcx, rsi
	add	r9, 2728				; 00000aa8H
	add	r9, rbx
; File D:\dev\francium_network\francium_agent\src\ext\randomx\repo\src\program.hpp
; Line 47
	lea	rdx, QWORD PTR [rbx+rax*8]
; File D:\dev\francium_network\francium_agent\src\ext\randomx\repo\src\bytecode_machine.hpp
; Line 122
	call	?compileInstruction@BytecodeMachine@randomx@@QEAAXAEAVInstruction@2@HAEAUInstructionByteCode@2@@Z ; randomx::BytecodeMachine::compileInstruction
	inc	edi
	cmp	edi, 256				; 00000100H
	jb	SHORT $LL54@execute
; File D:\dev\francium_network\francium_agent\src\ext\randomx\repo\src\vm_interpreted.cpp
; Line 65
	mov	r8d, DWORD PTR [rbx+2528]
	mov	r15d, 2048				; 00000800H
; Line 66
	mov	r9d, DWORD PTR [rbx+2532]
	movdqa	xmm6, XMMWORD PTR __xmm@00ffffffffffffff00ffffffffffffff
	npad	3
$LL7@execute:
; Line 76
	mov	r10, QWORD PTR [rbx+2544]
	mov	eax, DWORD PTR [rbx+2512]
; File D:\dev\francium_network\francium_agent\src\ext\randomx\repo\src\bytecode_machine.hpp
; Line 271
	movups	xmm2, XMMWORD PTR [rbx+2496]
; File D:\dev\francium_network\francium_agent\src\ext\randomx\repo\src\vm_interpreted.cpp
; Line 69
	mov	ecx, DWORD PTR [rbx+2516]
; File D:\dev\francium_network\francium_agent\src\ext\randomx\repo\src\bytecode_machine.hpp
; Line 127
	mov	DWORD PTR pc$17[rsp], r12d
; File D:\dev\francium_network\francium_agent\src\ext\randomx\repo\src\vm_interpreted.cpp
; Line 69
	mov	rdx, QWORD PTR nreg$[rsp+rcx*8]
	xor	rdx, QWORD PTR nreg$[rsp+rax*8]
; Line 71
	mov	eax, edx
; Line 72
	shr	rdx, 32					; 00000020H
	xor	eax, r8d
; Line 73
	xor	edx, r9d
	and	eax, 2097088				; 001fffc0H
	and	edx, 2097088				; 001fffc0H
	mov	r14d, eax
	mov	esi, edx
; Line 76
	mov	rax, QWORD PTR [rax+r10]
	xor	QWORD PTR nreg$[rsp], rax
	mov	rax, QWORD PTR [r10+r14+8]
	xor	QWORD PTR nreg$[rsp+8], rax
	mov	rax, QWORD PTR [r10+r14+16]
	xor	QWORD PTR nreg$[rsp+16], rax
	mov	rax, QWORD PTR [r10+r14+24]
	xor	QWORD PTR nreg$[rsp+24], rax
	mov	rax, QWORD PTR [r10+r14+32]
	xor	QWORD PTR nreg$[rsp+32], rax
	mov	rax, QWORD PTR [r10+r14+40]
	xor	QWORD PTR nreg$[rsp+40], rax
	mov	rax, QWORD PTR [r10+r14+48]
	xor	QWORD PTR nreg$[rsp+48], rax
	mov	rax, QWORD PTR [r10+r14+56]
	xor	QWORD PTR nreg$[rsp+56], rax
	mov	eax, r12d
; File D:\dev\francium_network\francium_agent\src\ext\randomx\repo\src\intrin_portable.h
; Line 163
	cvtdq2pd xmm1, QWORD PTR [rdx+r10]
; File D:\dev\francium_network\francium_agent\src\ext\randomx\repo\src\vm_interpreted.cpp
; Line 79
	movaps	XMMWORD PTR nreg$[rsp+64], xmm1
; File D:\dev\francium_network\francium_agent\src\ext\randomx\repo\src\intrin_portable.h
; Line 163
	cvtdq2pd xmm1, QWORD PTR [r10+rdx+8]
; File D:\dev\francium_network\francium_agent\src\ext\randomx\repo\src\vm_interpreted.cpp
; Line 79
	movaps	XMMWORD PTR nreg$[rbp-176], xmm1
; File D:\dev\francium_network\francium_agent\src\ext\randomx\repo\src\intrin_portable.h
; Line 163
	cvtdq2pd xmm1, QWORD PTR [r10+rdx+16]
; File D:\dev\francium_network\francium_agent\src\ext\randomx\repo\src\vm_interpreted.cpp
; Line 79
	movaps	XMMWORD PTR nreg$[rbp-160], xmm1
; File D:\dev\francium_network\francium_agent\src\ext\randomx\repo\src\intrin_portable.h
; Line 163
	cvtdq2pd xmm1, QWORD PTR [r10+rdx+24]
; File D:\dev\francium_network\francium_agent\src\ext\randomx\repo\src\vm_interpreted.cpp
; Line 79
	movaps	XMMWORD PTR nreg$[rbp-144], xmm1
; File D:\dev\francium_network\francium_agent\src\ext\randomx\repo\src\intrin_portable.h
; Line 163
	cvtdq2pd xmm1, QWORD PTR [r10+rdx+32]
; File D:\dev\francium_network\francium_agent\src\ext\randomx\repo\src\bytecode_machine.hpp
; Line 272
	andps	xmm1, xmm6
; Line 273
	orps	xmm1, xmm2
; File D:\dev\francium_network\francium_agent\src\ext\randomx\repo\src\vm_interpreted.cpp
; Line 82
	movaps	XMMWORD PTR nreg$[rbp-128], xmm1
; File D:\dev\francium_network\francium_agent\src\ext\randomx\repo\src\intrin_portable.h
; Line 163
	cvtdq2pd xmm1, QWORD PTR [r10+rdx+40]
; File D:\dev\francium_network\francium_agent\src\ext\randomx\repo\src\bytecode_machine.hpp
; Line 272
	andps	xmm1, xmm6
; Line 273
	orps	xmm1, xmm2
; File D:\dev\francium_network\francium_agent\src\ext\randomx\repo\src\vm_interpreted.cpp
; Line 82
	movaps	XMMWORD PTR nreg$[rbp-112], xmm1
; File D:\dev\francium_network\francium_agent\src\ext\randomx\repo\src\intrin_portable.h
; Line 163
	cvtdq2pd xmm1, QWORD PTR [r10+rdx+48]
; File D:\dev\francium_network\francium_agent\src\ext\randomx\repo\src\bytecode_machine.hpp
; Line 272
	andps	xmm1, xmm6
; Line 273
	orps	xmm1, xmm2
; File D:\dev\francium_network\francium_agent\src\ext\randomx\repo\src\vm_interpreted.cpp
; Line 82
	movaps	XMMWORD PTR nreg$[rbp-96], xmm1
; File D:\dev\francium_network\francium_agent\src\ext\randomx\repo\src\intrin_portable.h
; Line 163
	cvtdq2pd xmm1, QWORD PTR [r10+rdx+56]
; File D:\dev\francium_network\francium_agent\src\ext\randomx\repo\src\bytecode_machine.hpp
; Line 272
	andps	xmm1, xmm6
; Line 273
	orps	xmm1, xmm2
; File D:\dev\francium_network\francium_agent\src\ext\randomx\repo\src\vm_interpreted.cpp
; Line 82
	movaps	XMMWORD PTR nreg$[rbp-80], xmm1
	npad	9
$LL45@execute:
; File D:\dev\francium_network\francium_agent\src\ext\randomx\repo\src\bytecode_machine.hpp
; Line 129
	movsxd	rcx, eax
	lea	r9, QWORD PTR [rbx+2496]
	shl	rcx, 5
	lea	rdx, QWORD PTR pc$17[rsp]
	add	rcx, 2728				; 00000aa8H
	mov	r8, r10
	add	rcx, rbx
	call	?executeInstruction@BytecodeMachine@randomx@@SAXAEAUInstructionByteCode@2@AEAHPEAEAEAUProgramConfiguration@2@@Z ; randomx::BytecodeMachine::executeInstruction
	mov	eax, DWORD PTR pc$17[rsp]
	inc	eax
	mov	DWORD PTR pc$17[rsp], eax
	cmp	eax, 256				; 00000100H
	jl	SHORT $LL45@execute
; File D:\dev\francium_network\francium_agent\src\ext\randomx\repo\src\vm_interpreted.cpp
; Line 86
	mov	ecx, DWORD PTR [rbx+2520]
	mov	eax, DWORD PTR [rbx+2524]
; Line 87
	mov	edx, DWORD PTR nreg$[rsp+rcx*8]
; Line 88
	mov	rcx, rbx
	xor	edx, DWORD PTR nreg$[rsp+rax*8]
	xor	edx, DWORD PTR [rbx+2528]
	mov	rax, QWORD PTR [rbx]
	and	edx, 2147483584				; 7fffffc0H
	mov	DWORD PTR [rbx+2528], edx
	add	rdx, QWORD PTR [rbx+2560]
	call	QWORD PTR [rax+72]
; Line 89
	mov	edx, DWORD PTR [rbx+2532]
	lea	r8, QWORD PTR nreg$[rsp]
	mov	rax, QWORD PTR [rbx]
	mov	rcx, rbx
	add	rdx, QWORD PTR [rbx+2560]
	call	QWORD PTR [rax+64]
; File D:\software\Visual Studio 2022\VC\Tools\MSVC\14.35.32215\include\utility
; Line 100
	mov	ecx, DWORD PTR [rbx+2528]
; File D:\dev\francium_network\francium_agent\src\ext\randomx\repo\src\vm_interpreted.cpp
; Line 101
	mov	r8d, r12d
; File D:\software\Visual Studio 2022\VC\Tools\MSVC\14.35.32215\include\utility
; Line 101
	mov	eax, DWORD PTR [rbx+2532]
; File D:\dev\francium_network\francium_agent\src\ext\randomx\repo\src\vm_interpreted.cpp
; Line 102
	mov	r9d, r12d
; File D:\software\Visual Studio 2022\VC\Tools\MSVC\14.35.32215\include\utility
; Line 101
	mov	DWORD PTR [rbx+2528], eax
; File D:\dev\francium_network\francium_agent\src\ext\randomx\repo\src\vm_interpreted.cpp
; Line 93
	mov	rax, QWORD PTR nreg$[rsp]
; File D:\software\Visual Studio 2022\VC\Tools\MSVC\14.35.32215\include\utility
; Line 102
	mov	DWORD PTR [rbx+2532], ecx
; File D:\dev\francium_network\francium_agent\src\ext\randomx\repo\src\vm_interpreted.cpp
; Line 93
	mov	rcx, QWORD PTR [rbx+2544]
	mov	QWORD PTR [rsi+rcx], rax
	mov	rcx, QWORD PTR [rbx+2544]
	mov	rax, QWORD PTR nreg$[rsp+8]
	mov	QWORD PTR [rcx+rsi+8], rax
	mov	rcx, QWORD PTR [rbx+2544]
	mov	rax, QWORD PTR nreg$[rsp+16]
	mov	QWORD PTR [rcx+rsi+16], rax
	mov	rcx, QWORD PTR [rbx+2544]
	mov	rax, QWORD PTR nreg$[rsp+24]
	mov	QWORD PTR [rcx+rsi+24], rax
	mov	rcx, QWORD PTR [rbx+2544]
	mov	rax, QWORD PTR nreg$[rsp+32]
	mov	QWORD PTR [rcx+rsi+32], rax
	mov	rcx, QWORD PTR [rbx+2544]
	mov	rax, QWORD PTR nreg$[rsp+40]
	mov	QWORD PTR [rcx+rsi+40], rax
	mov	rcx, QWORD PTR [rbx+2544]
	mov	rax, QWORD PTR nreg$[rsp+48]
	mov	QWORD PTR [rcx+rsi+48], rax
	mov	rax, QWORD PTR nreg$[rsp+56]
	mov	rcx, QWORD PTR [rbx+2544]
	mov	QWORD PTR [rcx+rsi+56], rax
; Line 96
	movaps	xmm0, XMMWORD PTR nreg$[rbp-112]
	xorps	xmm0, XMMWORD PTR nreg$[rbp-176]
	movaps	xmm2, XMMWORD PTR nreg$[rbp-128]
	movaps	xmm1, XMMWORD PTR nreg$[rbp-96]
	xorps	xmm1, XMMWORD PTR nreg$[rbp-160]
; Line 99
	mov	rax, QWORD PTR [rbx+2544]
	xorps	xmm2, XMMWORD PTR nreg$[rsp+64]
	movaps	XMMWORD PTR nreg$[rbp-176], xmm0
	movaps	xmm0, XMMWORD PTR nreg$[rbp-80]
	xorps	xmm0, XMMWORD PTR nreg$[rbp-144]
	movaps	XMMWORD PTR nreg$[rbp-144], xmm0
	movaps	XMMWORD PTR nreg$[rbp-160], xmm1
	movaps	XMMWORD PTR nreg$[rsp+64], xmm2
	movups	XMMWORD PTR [r14+rax], xmm2
	mov	rax, QWORD PTR [rbx+2544]
	movaps	xmm0, XMMWORD PTR nreg$[rbp-176]
	movups	XMMWORD PTR [rax+r14+16], xmm0
	mov	rax, QWORD PTR [rbx+2544]
	movaps	xmm1, XMMWORD PTR nreg$[rbp-160]
	movups	XMMWORD PTR [rax+r14+32], xmm1
	mov	rax, QWORD PTR [rbx+2544]
	movaps	xmm0, XMMWORD PTR nreg$[rbp-144]
	movups	XMMWORD PTR [rax+r14+48], xmm0
	sub	r15, 1
	jne	$LL7@execute
; Line 106
	mov	rax, QWORD PTR nreg$[rsp]
; Line 109
	movaps	xmm0, XMMWORD PTR nreg$[rsp+64]
	movaps	xmm1, XMMWORD PTR nreg$[rbp-176]
	mov	QWORD PTR [rbx+2240], rax
	mov	rax, QWORD PTR nreg$[rsp+8]
	mov	QWORD PTR [rbx+2248], rax
	mov	rax, QWORD PTR nreg$[rsp+16]
	mov	QWORD PTR [rbx+2256], rax
	mov	rax, QWORD PTR nreg$[rsp+24]
	mov	QWORD PTR [rbx+2264], rax
	mov	rax, QWORD PTR nreg$[rsp+32]
	mov	QWORD PTR [rbx+2272], rax
	mov	rax, QWORD PTR nreg$[rsp+40]
	mov	QWORD PTR [rbx+2280], rax
	mov	rax, QWORD PTR nreg$[rsp+48]
	mov	QWORD PTR [rbx+2288], rax
	mov	rax, QWORD PTR nreg$[rsp+56]
	mov	QWORD PTR [rbx+2296], rax
	movups	XMMWORD PTR [rbx+2304], xmm0
	movaps	xmm0, XMMWORD PTR nreg$[rbp-160]
	movups	XMMWORD PTR [rbx+2320], xmm1
	movaps	xmm1, XMMWORD PTR nreg$[rbp-144]
	movups	XMMWORD PTR [rbx+2336], xmm0
; Line 112
	movaps	xmm0, XMMWORD PTR nreg$[rbp-128]
	movups	XMMWORD PTR [rbx+2352], xmm1
	movaps	xmm1, XMMWORD PTR nreg$[rbp-112]
	movups	XMMWORD PTR [rbx+2368], xmm0
	movaps	xmm0, XMMWORD PTR nreg$[rbp-96]
	movups	XMMWORD PTR [rbx+2384], xmm1
	movaps	xmm1, XMMWORD PTR nreg$[rbp-80]
	movups	XMMWORD PTR [rbx+2400], xmm0
	movups	XMMWORD PTR [rbx+2416], xmm1
; Line 113
	mov	rcx, QWORD PTR __$ArrayPad$[rbp-256]
	xor	rcx, rsp
	call	__security_check_cookie
	lea	r11, QWORD PTR [rsp+336]
	mov	rbx, QWORD PTR [r11+56]
	mov	rsi, QWORD PTR [r11+64]
	movaps	xmm6, XMMWORD PTR [r11-16]
	mov	rsp, r11
	pop	r15
	pop	r14
	pop	r12
	pop	rdi
	pop	rbp
	ret	0
?execute@?$InterpretedVm@ULargePageAllocator@randomx@@$0A@@randomx@@AEAAXXZ ENDP ; randomx::InterpretedVm<randomx::LargePageAllocator,0>::execute
_TEXT	ENDS
; Function compile flags: /Ogtpy
;	COMDAT ??$swap@I$0A@@std@@YAXAEAI0@Z
_TEXT	SEGMENT
_Left$ = 8
_Right$ = 16
??$swap@I$0A@@std@@YAXAEAI0@Z PROC			; std::swap<unsigned int,0>, COMDAT
; File D:\software\Visual Studio 2022\VC\Tools\MSVC\14.35.32215\include\utility
; Line 100
	mov	r8d, DWORD PTR [rcx]
; Line 101
	mov	eax, DWORD PTR [rdx]
	mov	DWORD PTR [rcx], eax
; Line 102
	mov	DWORD PTR [rdx], r8d
; Line 103
	ret	0
??$swap@I$0A@@std@@YAXAEAI0@Z ENDP			; std::swap<unsigned int,0>
_TEXT	ENDS
END
